(icurlovision
MatchResult
p0
(dp1
S'yel_score'
p2
I4
sS'red_score'
p3
I3
sS'name'
p4
S"VideoLibrary/PyeongChang.Olympics.2018.curling.women's.bronze.medal.match.Great.Britain.v.Japan.1080p.NBC.WEB-DL-FINFUNGUS.mp4"
p5
sS'end_results'
p6
(lp7
(icurlovision
EndResult
p8
(dp9
g2
I0
sS'stones_left'
p10
(lp11
(I7
I7
tp12
a(I6
I5
tp13
a(I5
I5
tp14
a(I3
I3
tp15
a(I3
I2
tp16
a(I2
I2
tp17
a(I2
I1
tp18
a(I1
I0
tp19
asS'end_num'
p20
I1
sS'stone_layouts'
p21
(lp22
(icurlovision
StoneLayout
p23
(dp24
S'stone_radius'
p25
F0.4791666666666667
sS'stones'
p26
(lp27
(icurlovision
Stone
p28
(dp29
S'y'
p30
F9.27127659574468
sS'x'
p31
F-0.4627659574468085
sS'r'
p32
F0.44680851063829785
sS'color'
p33
S'yellow'
p34
sbasba(icurlovision
StoneLayout
p35
(dp36
g25
F0.4791666666666667
sg26
(lp37
(icurlovision
Stone
p38
(dp39
g30
F-0.10294117647058823
sg31
F6.529411764705882
sg32
F0.3235294117647059
sg33
S'yellow'
p40
sba(icurlovision
Stone
p41
(dp42
g30
F9.455882352941176
sg31
F-0.47058823529411764
sg32
F0.29411764705882354
sg33
S'yellow'
p43
sbasba(icurlovision
StoneLayout
p44
(dp45
g25
F0.4791666666666667
sg26
(lp46
(icurlovision
Stone
p47
(dp48
g30
F9.48913043478261
sg31
F-0.45652173913043476
sg32
F0.34239130434782605
sg33
S'yellow'
p49
sba(icurlovision
Stone
p50
(dp51
g30
F9.26086956521739
sg31
F-11.771739130434783
sg32
F0.32608695652173914
sg33
S'yellow'
p52
sbasba(icurlovision
StoneLayout
p53
(dp54
g25
F0.4791666666666667
sg26
(lp55
(icurlovision
Stone
p56
(dp57
g30
F8.51086956521739
sg31
F-5.119565217391304
sg32
F0.44021739130434784
sg33
S'red'
p58
sbasba(icurlovision
StoneLayout
p59
(dp60
g25
F0.4791666666666667
sg26
(lp61
(icurlovision
Stone
p62
(dp63
g30
F8.831632653061224
sg31
F-5.341836734693877
sg32
F0.45918367346938777
sg33
S'red'
p64
sba(icurlovision
Stone
p65
(dp66
g30
F-0.22959183673469388
sg31
F-5.035714285714286
sg32
F0.45918367346938777
sg33
S'yellow'
p67
sba(icurlovision
Stone
p68
(dp69
g30
F9.75
sg31
F-6.658163265306122
sg32
F0.2755102040816326
sg33
S'yellow'
p70
sbasba(icurlovision
StoneLayout
p71
(dp72
g25
F0.4791666666666667
sg26
(lp73
(icurlovision
Stone
p74
(dp75
g30
F8.475
sg31
F-5.175
sg32
F0.44999999999999996
sg33
S'red'
p76
sba(icurlovision
Stone
p77
(dp78
g30
F-0.105
sg31
F-3.4949999999999997
sg32
F0.44999999999999996
sg33
S'red'
p79
sbasba(icurlovision
StoneLayout
p80
(dp81
g25
F0.4791666666666667
sg26
(lp82
(icurlovision
Stone
p83
(dp84
g30
F-0.08152173913043478
sg31
F-3.6032608695652173
sg32
F0.34239130434782605
sg33
S'red'
p85
sba(icurlovision
Stone
p86
(dp87
g30
F8.88586956521739
sg31
F-5.331521739130435
sg32
F0.47282608695652173
sg33
S'red'
p88
sba(icurlovision
Stone
p89
(dp90
g30
F3.994565217391304
sg31
F-3.8967391304347827
sg32
F0.34239130434782605
sg33
S'yellow'
p91
sbasba(icurlovision
StoneLayout
p92
(dp93
g25
F0.4791666666666667
sg26
(lp94
(icurlovision
Stone
p95
(dp96
g30
F-1.059782608695652
sg31
F-7.125
sg32
F0.32608695652173914
sg33
S'yellow'
p97
sba(icurlovision
Stone
p98
(dp99
g30
F8.690217391304348
sg31
F-5.233695652173913
sg32
F0.44021739130434784
sg33
S'red'
p100
sba(icurlovision
Stone
p101
(dp102
g30
F2.4619565217391304
sg31
F-4.288043478260869
sg32
F0.34239130434782605
sg33
S'yellow'
p103
sba(icurlovision
Stone
p104
(dp105
g30
F-5.429347826086956
sg31
F-1.3532608695652173
sg32
F0.32608695652173914
sg33
S'red'
p106
sbasbasg3
I1
sS'red_hammer'
p107
I1
sba(icurlovision
EndResult
p108
(dp109
g2
I1
sg10
(lp110
(I7
I8
tp111
a(I7
I7
tp112
a(I6
I6
tp113
a(I5
I6
tp114
a(I4
I5
tp115
a(I4
I4
tp116
a(I3
I4
tp117
a(I3
I3
tp118
a(I2
I3
tp119
a(I2
I2
tp120
a(I1
I2
tp121
a(I1
I1
tp122
a(I0
I1
tp123
asg20
I2
sg21
(lp124
(icurlovision
StoneLayout
p125
(dp126
g25
F0.4791666666666667
sg26
(lp127
(icurlovision
Stone
p128
(dp129
g30
F-0.11931818181818181
sg31
F0.22159090909090906
sg32
F0.3579545454545454
sg33
S'red'
p130
sba(icurlovision
Stone
p131
(dp132
g30
F10.585227272727272
sg31
F-12.460227272727272
sg32
F0.3409090909090909
sg33
S'yellow'
p133
sbasba(icurlovision
StoneLayout
p134
(dp135
g25
F0.4791666666666667
sg26
(lp136
(icurlovision
Stone
p137
(dp138
g30
F-0.1323529411764706
sg31
F0.19117647058823528
sg32
F0.45588235294117646
sg33
S'red'
p139
sba(icurlovision
Stone
p140
(dp141
g30
F7.073529411764706
sg31
F2.75
sg32
F0.45588235294117646
sg33
S'yellow'
p142
sbasba(icurlovision
StoneLayout
p143
(dp144
g25
F0.4791666666666667
sg26
(lp145
(icurlovision
Stone
p146
(dp147
g30
F1.5416666666666665
sg31
F1.7777777777777777
sg32
F0.4722222222222222
sg33
S'yellow'
p148
sba(icurlovision
Stone
p149
(dp150
g30
F7.347222222222221
sg31
F2.833333333333333
sg32
F0.4722222222222222
sg33
S'yellow'
p151
sba(icurlovision
Stone
p152
(dp153
g30
F-2.0972222222222223
sg31
F-4.638888888888888
sg32
F0.4444444444444444
sg33
S'red'
p154
sbasba(icurlovision
StoneLayout
p155
(dp156
g25
F0.4791666666666667
sg26
(lp157
(icurlovision
Stone
p158
(dp159
g30
F7.388297872340425
sg31
F2.840425531914893
sg32
F0.4627659574468085
sg33
S'yellow'
p160
sba(icurlovision
Stone
p161
(dp162
g30
F2.25
sg31
F1.2127659574468084
sg32
F0.3191489361702127
sg33
S'red'
p163
sba(icurlovision
Stone
p164
(dp165
g30
F-2.0904255319148937
sg31
F-4.627659574468085
sg32
F0.4787234042553191
sg33
S'red'
p166
sbasba(icurlovision
StoneLayout
p167
(dp168
g25
F0.4791666666666667
sg26
(lp169
(icurlovision
Stone
p170
(dp171
g30
F7.375
sg31
F2.84375
sg32
F0.453125
sg33
S'yellow'
p172
sba(icurlovision
Stone
p173
(dp174
g30
F-2.0625
sg31
F-4.5625
sg32
F0.3125
sg33
S'red'
p175
sba(icurlovision
Stone
p176
(dp177
g30
F-2.5625
sg31
F7.25
sg32
F0.484375
sg33
S'yellow'
p178
sba(icurlovision
Stone
p179
(dp180
g30
F-2.03125
sg31
F12.8125
sg32
F0.421875
sg33
S'yellow'
p181
sbasba(icurlovision
StoneLayout
p182
(dp183
g25
F0.4791666666666667
sg26
(lp184
(icurlovision
Stone
p185
(dp186
g30
F-2.625
sg31
F7.320652173913043
sg32
F0.34239130434782605
sg33
S'yellow'
p187
sba(icurlovision
Stone
p188
(dp189
g30
F6.864130434782608
sg31
F3.4402173913043477
sg32
F0.45652173913043476
sg33
S'yellow'
p190
sba(icurlovision
Stone
p191
(dp192
g30
F-2.0706521739130435
sg31
F-4.646739130434782
sg32
F0.358695652173913
sg33
S'red'
p193
sba(icurlovision
Stone
p194
(dp195
g30
F6.179347826086956
sg31
F1.1576086956521738
sg32
F0.358695652173913
sg33
S'yellow'
p196
sba(icurlovision
Stone
p197
(dp198
g30
F8.820652173913043
sg31
F-5.625
sg32
F0.2934782608695652
sg33
S'yellow'
p199
sbasba(icurlovision
StoneLayout
p200
(dp201
g25
F0.4791666666666667
sg26
(lp202
(icurlovision
Stone
p203
(dp204
g30
F6.803571428571428
sg31
F3.375
sg32
F0.45535714285714285
sg33
S'yellow'
p205
sba(icurlovision
Stone
p206
(dp207
g30
F-2.571428571428571
sg31
F7.178571428571428
sg32
F0.46875
sg33
S'yellow'
p208
sba(icurlovision
Stone
p209
(dp210
g30
F6.696428571428571
sg31
F0.3482142857142857
sg32
F0.3214285714285714
sg33
S'red'
p211
sba(icurlovision
Stone
p212
(dp213
g30
F-2.008928571428571
sg31
F-4.553571428571428
sg32
F0.3482142857142857
sg33
S'red'
p214
sbasba(icurlovision
StoneLayout
p215
(dp216
g25
F0.4791666666666667
sg26
(lp217
(icurlovision
Stone
p218
(dp219
g30
F6.664772727272727
sg31
F2.3693181818181817
sg32
F0.4431818181818181
sg33
S'yellow'
p220
sba(icurlovision
Stone
p221
(dp222
g30
F6.767045454545454
sg31
F3.4602272727272725
sg32
F0.4431818181818181
sg33
S'yellow'
p223
sba(icurlovision
Stone
p224
(dp225
g30
F-2.0965909090909087
sg31
F-4.517045454545454
sg32
F0.30681818181818177
sg33
S'red'
p226
sba(icurlovision
Stone
p227
(dp228
g30
F-2.4715909090909087
sg31
F7.142045454545454
sg32
F0.4602272727272727
sg33
S'yellow'
p229
sba(icurlovision
Stone
p230
(dp231
g30
F8.642045454545453
sg31
F-6.732954545454545
sg32
F0.30681818181818177
sg33
S'yellow'
p232
sba(icurlovision
Stone
p233
(dp234
g30
F9.596590909090908
sg31
F-12.596590909090908
sg32
F0.28977272727272724
sg33
S'yellow'
p235
sbasba(icurlovision
StoneLayout
p236
(dp237
g25
F0.4791666666666667
sg26
(lp238
(icurlovision
Stone
p239
(dp240
g30
F-2.581730769230769
sg31
F7.110576923076923
sg32
F0.34615384615384615
sg33
S'yellow'
p241
sba(icurlovision
Stone
p242
(dp243
g30
F6.3894230769230775
sg31
F2.4086538461538463
sg32
F0.44711538461538464
sg33
S'yellow'
p244
sba(icurlovision
Stone
p245
(dp246
g30
F-2.0336538461538463
sg31
F-4.427884615384616
sg32
F0.3605769230769231
sg33
S'red'
p247
sba(icurlovision
Stone
p248
(dp249
g30
F6.475961538461539
sg31
F3.4759615384615388
sg32
F0.3605769230769231
sg33
S'yellow'
p250
sba(icurlovision
Stone
p251
(dp252
g30
F5.927884615384616
sg31
F1.5432692307692308
sg32
F0.3028846153846154
sg33
S'red'
p253
sbasba(icurlovision
StoneLayout
p254
(dp255
g25
F0.4791666666666667
sg26
(lp256
(icurlovision
Stone
p257
(dp258
g30
F-2.4310344827586206
sg31
F7.112068965517241
sg32
F0.33620689655172414
sg33
S'yellow'
p259
sba(icurlovision
Stone
p260
(dp261
g30
F0.75
sg31
F2.663793103448276
sg32
F0.4396551724137931
sg33
S'red'
p262
sba(icurlovision
Stone
p263
(dp264
g30
F6.620689655172414
sg31
F3.3879310344827585
sg32
F0.4525862068965517
sg33
S'yellow'
p265
sba(icurlovision
Stone
p266
(dp267
g30
F4.939655172413793
sg31
F-2.0948275862068964
sg32
F0.4267241379310345
sg33
S'yellow'
p268
sba(icurlovision
Stone
p269
(dp270
g30
F-2.0948275862068964
sg31
F-4.370689655172414
sg32
F0.3232758620689655
sg33
S'red'
p271
sbasba(icurlovision
StoneLayout
p272
(dp273
g25
F0.4791666666666667
sg26
(lp274
(icurlovision
Stone
p275
(dp276
g30
F6.75
sg31
F3.5454545454545454
sg32
F0.4636363636363636
sg33
S'yellow'
p277
sba(icurlovision
Stone
p278
(dp279
g30
F-2.55
sg31
F7.227272727272727
sg32
F0.35454545454545455
sg33
S'yellow'
p280
sba(icurlovision
Stone
p281
(dp282
g30
F0.75
sg31
F2.727272727272727
sg32
F0.4636363636363636
sg33
S'red'
p283
sba(icurlovision
Stone
p284
(dp285
g30
F-2.0318181818181817
sg31
F-4.527272727272727
sg32
F0.4636363636363636
sg33
S'red'
p286
sba(icurlovision
Stone
p287
(dp288
g30
F5.3590909090909085
sg31
F-3.5999999999999996
sg32
F0.4636363636363636
sg33
S'red'
p289
sbasba(icurlovision
StoneLayout
p290
(dp291
g25
F0.4791666666666667
sg26
(lp292
(icurlovision
Stone
p293
(dp294
g30
F-1.5918367346938775
sg31
F7.086734693877551
sg32
F0.4744897959183673
sg33
S'red'
p295
sba(icurlovision
Stone
p296
(dp297
g30
F-3.183673469387755
sg31
F7.423469387755102
sg32
F0.336734693877551
sg33
S'yellow'
p298
sba(icurlovision
Stone
p299
(dp300
g30
F6.642857142857142
sg31
F3.4744897959183674
sg32
F0.45918367346938777
sg33
S'yellow'
p301
sba(icurlovision
Stone
p302
(dp303
g30
F-2.0510204081632653
sg31
F-4.51530612244898
sg32
F0.45918367346938777
sg33
S'red'
p304
sba(icurlovision
Stone
p305
(dp306
g30
F5.295918367346939
sg31
F-3.5357142857142856
sg32
F0.336734693877551
sg33
S'red'
p307
sbasba(icurlovision
StoneLayout
p308
(dp309
g25
F0.4791666666666667
sg26
(lp310
(icurlovision
Stone
p311
(dp312
g30
F-2.0660377358490565
sg31
F-4.514150943396227
sg32
F0.4811320754716981
sg33
S'red'
p313
sba(icurlovision
Stone
p314
(dp315
g30
F6.764150943396227
sg31
F3.5235849056603774
sg32
F0.4528301886792453
sg33
S'yellow'
p316
sba(icurlovision
Stone
p317
(dp318
g30
F-1.5849056603773586
sg31
F7.202830188679245
sg32
F0.4811320754716981
sg33
S'red'
p319
sba(icurlovision
Stone
p320
(dp321
g30
F5.320754716981132
sg31
F-3.608490566037736
sg32
F0.32547169811320753
sg33
S'red'
p322
sba(icurlovision
Stone
p323
(dp324
g30
F-3.169811320754717
sg31
F7.570754716981132
sg32
F0.32547169811320753
sg33
S'yellow'
p325
sbasbasg3
I1
sg107
I0
sba(icurlovision
EndResult
p326
(dp327
g2
I1
sg10
(lp328
(I7
I7
tp329
a(I6
I6
tp330
a(I5
I5
tp331
a(I5
I4
tp332
a(I4
I4
tp333
a(I4
I3
tp334
a(I3
I3
tp335
a(I1
I1
tp336
asg20
I3
sg21
(lp337
(icurlovision
StoneLayout
p338
(dp339
g25
F0.4791666666666667
sg26
(lp340
(icurlovision
Stone
p341
(dp342
g30
F6.791666666666666
sg31
F-0.5972222222222222
sg32
F0.4444444444444444
sg33
S'red'
p343
sba(icurlovision
Stone
p344
(dp345
g30
F4.986111111111111
sg31
F-0.4861111111111111
sg32
F0.3055555555555555
sg33
S'yellow'
p346
sbasba(icurlovision
StoneLayout
p347
(dp348
g25
F0.4791666666666667
sg26
(lp349
(icurlovision
Stone
p350
(dp351
g30
F6.3173076923076925
sg31
F-1.8173076923076925
sg32
F0.46153846153846156
sg33
S'red'
p352
sbasba(icurlovision
StoneLayout
p353
(dp354
g25
F0.4791666666666667
sg26
(lp355
(icurlovision
Stone
p356
(dp357
g30
F4.13235294117647
sg31
F1.4264705882352942
sg32
F0.3235294117647059
sg33
S'yellow'
p358
sba(icurlovision
Stone
p359
(dp360
g30
F5.602941176470588
sg31
F-1.5147058823529411
sg32
F0.3382352941176471
sg33
S'red'
p361
sbasba(icurlovision
StoneLayout
p362
(dp363
g25
F0.4791666666666667
sg26
(lp364
(icurlovision
Stone
p365
(dp366
g30
F4.118421052631579
sg31
F0.5394736842105263
sg32
F0.3289473684210526
sg33
S'yellow'
p367
sbasba(icurlovision
StoneLayout
p368
(dp369
g25
F0.4791666666666667
sg26
(lp370
(icurlovision
Stone
p371
(dp372
g30
F4.887931034482759
sg31
F0.1810344827586207
sg32
F0.33620689655172414
sg33
S'red'
p373
sbasba(icurlovision
StoneLayout
p374
(dp375
g25
F0.4791666666666667
sg26
(lp376
(icurlovision
Stone
p377
(dp378
g30
F5.598214285714286
sg31
F-0.1875
sg32
F0.3482142857142857
sg33
S'yellow'
p379
sbasba(icurlovision
StoneLayout
p380
(dp381
g25
F0.4791666666666667
sg26
(lp382
(icurlovision
Stone
p383
(dp384
g30
F6.375
sg31
F-0.1875
sg32
F0.296875
sg33
S'red'
p385
sbasba(icurlovision
StoneLayout
p386
(dp387
g25
F0.4791666666666667
sg26
(lp388
(icurlovision
Stone
p389
(dp390
g30
F-1.75
sg31
F-3.583333333333333
sg32
F0.3611111111111111
sg33
S'red'
p391
sbasbasg3
I2
sg107
I1
sba(icurlovision
EndResult
p392
(dp393
g2
I2
sg10
(lp394
(I7
I8
tp395
a(I7
I7
tp396
a(I6
I7
tp397
a(I6
I6
tp398
a(I5
I6
tp399
a(I5
I5
tp400
a(I4
I5
tp401
a(I4
I4
tp402
a(I3
I4
tp403
a(I3
I3
tp404
a(I2
I2
tp405
a(I1
I2
tp406
a(I1
I1
tp407
a(I0
I1
tp408
asg20
I4
sg21
(lp409
(icurlovision
StoneLayout
p410
(dp411
g25
F0.4791666666666667
sg26
(lp412
(icurlovision
Stone
p413
(dp414
g30
F4.7625
sg31
F-0.3375
sg32
F0.36250000000000004
sg33
S'red'
p415
sbasba(icurlovision
StoneLayout
p416
(dp417
g25
F0.4791666666666667
sg26
(lp418
(icurlovision
Stone
p419
(dp420
g30
F11.53125
sg31
F3.25
sg32
F0.34375
sg33
S'yellow'
p421
sba(icurlovision
Stone
p422
(dp423
g30
F4.78125
sg31
F-0.34375
sg32
F0.3125
sg33
S'red'
p424
sbasba(icurlovision
StoneLayout
p425
(dp426
g25
F0.4791666666666667
sg26
(lp427
(icurlovision
Stone
p428
(dp429
g30
F11.46195652173913
sg31
F3.2119565217391304
sg32
F0.42391304347826086
sg33
S'yellow'
p430
sba(icurlovision
Stone
p431
(dp432
g30
F13.320652173913043
sg31
F0.1467391304347826
sg32
F0.44021739130434784
sg33
S'red'
p433
sba(icurlovision
Stone
p434
(dp435
g30
F4.842391304347826
sg31
F-0.4076086956521739
sg32
F0.32608695652173914
sg33
S'red'
p436
sbasba(icurlovision
StoneLayout
p437
(dp438
g25
F0.4791666666666667
sg26
(lp439
(icurlovision
Stone
p440
(dp441
g30
F-2.2857142857142856
sg31
F2.107142857142857
sg32
F0.46428571428571425
sg33
S'red'
p442
sba(icurlovision
Stone
p443
(dp444
g30
F11.464285714285714
sg31
F3.25
sg32
F0.42857142857142855
sg33
S'yellow'
p445
sba(icurlovision
Stone
p446
(dp447
g30
F13.285714285714285
sg31
F0.14285714285714285
sg32
F0.4464285714285714
sg33
S'red'
p448
sba(icurlovision
Stone
p449
(dp450
g30
F5.142857142857142
sg31
F-1.357142857142857
sg32
F0.3214285714285714
sg33
S'yellow'
p451
sba(icurlovision
Stone
p452
(dp453
g30
F13.0
sg31
F-13.142857142857142
sg32
F0.25
sg33
S'yellow'
p454
sbasba(icurlovision
StoneLayout
p455
(dp456
g25
F0.4791666666666667
sg26
(lp457
(icurlovision
Stone
p458
(dp459
g30
F-2.2010869565217392
sg31
F2.0380434782608696
sg32
F0.45652173913043476
sg33
S'red'
p460
sba(icurlovision
Stone
p461
(dp462
g30
F11.233695652173912
sg31
F3.2119565217391304
sg32
F0.358695652173913
sg33
S'yellow'
p463
sba(icurlovision
Stone
p464
(dp465
g30
F12.994565217391305
sg31
F0.1793478260869565
sg32
F0.42391304347826086
sg33
S'red'
p466
sba(icurlovision
Stone
p467
(dp468
g30
F3.5054347826086953
sg31
F2.4619565217391304
sg32
F0.44021739130434784
sg33
S'red'
p469
sbasba(icurlovision
StoneLayout
p470
(dp471
g25
F0.4791666666666667
sg26
(lp472
(icurlovision
Stone
p473
(dp474
g30
F-2.196428571428571
sg31
F2.089285714285714
sg32
F0.46428571428571425
sg33
S'red'
p475
sba(icurlovision
Stone
p476
(dp477
g30
F11.375
sg31
F3.2321428571428568
sg32
F0.42857142857142855
sg33
S'yellow'
p478
sba(icurlovision
Stone
p479
(dp480
g30
F2.089285714285714
sg31
F-0.9107142857142857
sg32
F0.4464285714285714
sg33
S'yellow'
p481
sba(icurlovision
Stone
p482
(dp483
g30
F13.196428571428571
sg31
F0.19642857142857142
sg32
F0.42857142857142855
sg33
S'red'
p484
sba(icurlovision
Stone
p485
(dp486
g30
F12.696428571428571
sg31
F-13.125
sg32
F0.25
sg33
S'yellow'
p487
sbasba(icurlovision
StoneLayout
p488
(dp489
g25
F0.4791666666666667
sg26
(lp490
(icurlovision
Stone
p491
(dp492
g30
F-2.232142857142857
sg31
F2.089285714285714
sg32
F0.46428571428571425
sg33
S'red'
p493
sba(icurlovision
Stone
p494
(dp495
g30
F2.767857142857143
sg31
F-1.625
sg32
F0.4464285714285714
sg33
S'red'
p496
sba(icurlovision
Stone
p497
(dp498
g30
F11.517857142857142
sg31
F3.2321428571428568
sg32
F0.42857142857142855
sg33
S'yellow'
p499
sba(icurlovision
Stone
p500
(dp501
g30
F13.339285714285714
sg31
F0.125
sg32
F0.4464285714285714
sg33
S'red'
p502
sbasba(icurlovision
StoneLayout
p503
(dp504
g25
F0.4791666666666667
sg26
(lp505
(icurlovision
Stone
p506
(dp507
g30
F3.5304878048780486
sg31
F-2.195121951219512
sg32
F0.47560975609756095
sg33
S'yellow'
p508
sba(icurlovision
Stone
p509
(dp510
g30
F11.50609756097561
sg31
F3.219512195121951
sg32
F0.45731707317073167
sg33
S'yellow'
p511
sba(icurlovision
Stone
p512
(dp513
g30
F-2.25
sg31
F2.048780487804878
sg32
F0.45731707317073167
sg33
S'red'
p514
sba(icurlovision
Stone
p515
(dp516
g30
F13.335365853658535
sg31
F0.14634146341463414
sg32
F0.4390243902439024
sg33
S'red'
p517
sba(icurlovision
Stone
p518
(dp519
g30
F13.042682926829267
sg31
F-13.5
sg32
F0.25609756097560976
sg33
S'yellow'
p520
sbasba(icurlovision
StoneLayout
p521
(dp522
g25
F0.4791666666666667
sg26
(lp523
(icurlovision
Stone
p524
(dp525
g30
F-2.183333333333333
sg31
F2.033333333333333
sg32
F0.35
sg33
S'red'
p526
sba(icurlovision
Stone
p527
(dp528
g30
F11.116666666666667
sg31
F3.1333333333333333
sg32
F0.4166666666666667
sg33
S'yellow'
p529
sba(icurlovision
Stone
p530
(dp531
g30
F3.216666666666667
sg31
F0.0
sg32
F0.45
sg33
S'red'
p532
sba(icurlovision
Stone
p533
(dp534
g30
F12.883333333333333
sg31
F0.16666666666666666
sg32
F0.43333333333333335
sg33
S'red'
p535
sbasba(icurlovision
StoneLayout
p536
(dp537
g25
F0.4791666666666667
sg26
(lp538
(icurlovision
Stone
p539
(dp540
g30
F13.612499999999999
sg31
F-1.95
sg32
F0.44999999999999996
sg33
S'yellow'
p541
sba(icurlovision
Stone
p542
(dp543
g30
F3.4499999999999997
sg31
F0.0
sg32
F0.35625
sg33
S'red'
p544
sba(icurlovision
Stone
p545
(dp546
g30
F-3.225
sg31
F7.0874999999999995
sg32
F0.2625
sg33
S'red'
p547
sba(icurlovision
Stone
p548
(dp549
g30
F11.8125
sg31
F3.3375
sg32
F0.44999999999999996
sg33
S'yellow'
p550
sba(icurlovision
Stone
p551
(dp552
g30
F13.65
sg31
F-13.7625
sg32
F0.2625
sg33
S'yellow'
p553
sbasba(icurlovision
StoneLayout
p554
(dp555
g25
F0.4791666666666667
sg26
(lp556
(icurlovision
Stone
p557
(dp558
g30
F11.075581395348838
sg31
F3.453488372093023
sg32
F0.41860465116279066
sg33
S'yellow'
p559
sba(icurlovision
Stone
p560
(dp561
g30
F-3.4709302325581395
sg31
F7.0813953488372094
sg32
F0.47093023255813954
sg33
S'red'
p562
sba(icurlovision
Stone
p563
(dp564
g30
F12.784883720930232
sg31
F-1.6395348837209303
sg32
F0.436046511627907
sg33
S'yellow'
p565
sba(icurlovision
Stone
p566
(dp567
g30
F2.9825581395348837
sg31
F0.2441860465116279
sg32
F0.45348837209302323
sg33
S'red'
p568
sba(icurlovision
Stone
p569
(dp570
g30
F7.203488372093023
sg31
F0.2441860465116279
sg32
F0.436046511627907
sg33
S'red'
p571
sba(icurlovision
Stone
p572
(dp573
g30
F12.75
sg31
F-12.523255813953488
sg32
F0.2441860465116279
sg33
S'yellow'
p574
sbasba(icurlovision
StoneLayout
p575
(dp576
g25
F0.4791666666666667
sg26
(lp577
(icurlovision
Stone
p578
(dp579
g30
F-3.1607142857142856
sg31
F6.875
sg32
F0.4821428571428571
sg33
S'red'
p580
sba(icurlovision
Stone
p581
(dp582
g30
F13.303571428571427
sg31
F-1.9464285714285714
sg32
F0.42857142857142855
sg33
S'yellow'
p583
sba(icurlovision
Stone
p584
(dp585
g30
F8.017857142857142
sg31
F-0.9821428571428571
sg32
F0.4464285714285714
sg33
S'yellow'
p586
sba(icurlovision
Stone
p587
(dp588
g30
F11.517857142857142
sg31
F3.2321428571428568
sg32
F0.42857142857142855
sg33
S'yellow'
p589
sba(icurlovision
Stone
p590
(dp591
g30
F-1.0535714285714286
sg31
F-0.5892857142857143
sg32
F0.4821428571428571
sg33
S'red'
p592
sba(icurlovision
Stone
p593
(dp594
g30
F13.125
sg31
F-13.160714285714285
sg32
F0.25
sg33
S'yellow'
p595
sbasba(icurlovision
StoneLayout
p596
(dp597
g25
F0.4791666666666667
sg26
(lp598
(icurlovision
Stone
p599
(dp600
g30
F8.053571428571429
sg31
F-0.9821428571428571
sg32
F0.46428571428571425
sg33
S'yellow'
p601
sba(icurlovision
Stone
p602
(dp603
g30
F13.410714285714285
sg31
F-1.9464285714285714
sg32
F0.42857142857142855
sg33
S'yellow'
p604
sba(icurlovision
Stone
p605
(dp606
g30
F11.589285714285714
sg31
F3.267857142857143
sg32
F0.4464285714285714
sg33
S'yellow'
p607
sba(icurlovision
Stone
p608
(dp609
g30
F-3.2321428571428568
sg31
F6.982142857142857
sg32
F0.30357142857142855
sg33
S'red'
p610
sba(icurlovision
Stone
p611
(dp612
g30
F-0.1607142857142857
sg31
F-0.625
sg32
F0.33928571428571425
sg33
S'yellow'
p613
sba(icurlovision
Stone
p614
(dp615
g30
F-1.6607142857142856
sg31
F-0.625
sg32
F0.3214285714285714
sg33
S'red'
p616
sba(icurlovision
Stone
p617
(dp618
g30
F12.982142857142856
sg31
F-13.160714285714285
sg32
F0.25
sg33
S'yellow'
p619
sbasba(icurlovision
StoneLayout
p620
(dp621
g25
F0.4791666666666667
sg26
(lp622
(icurlovision
Stone
p623
(dp624
g30
F7.909090909090908
sg31
F-0.9374999999999999
sg32
F0.4431818181818181
sg33
S'yellow'
p625
sba(icurlovision
Stone
p626
(dp627
g30
F11.420454545454545
sg31
F3.2215909090909087
sg32
F0.4261363636363636
sg33
S'yellow'
p628
sba(icurlovision
Stone
p629
(dp630
g30
F-3.1704545454545454
sg31
F6.869318181818182
sg32
F0.47727272727272724
sg33
S'red'
p631
sba(icurlovision
Stone
p632
(dp633
g30
F-0.13636363636363635
sg31
F-0.5965909090909091
sg32
F0.32386363636363635
sg33
S'yellow'
p634
sba(icurlovision
Stone
p635
(dp636
g30
F13.193181818181817
sg31
F-1.8579545454545454
sg32
F0.30681818181818177
sg33
S'yellow'
p637
sba(icurlovision
Stone
p638
(dp639
g30
F0.75
sg31
F-0.9374999999999999
sg32
F0.47727272727272724
sg33
S'red'
p640
sba(icurlovision
Stone
p641
(dp642
g30
F-1.5681818181818181
sg31
F-0.5625
sg32
F0.3409090909090909
sg33
S'red'
p643
sbasbasg3
I2
sg107
I0
sba(icurlovision
EndResult
p644
(dp645
g2
I2
sg10
(lp646
(I8
I7
tp647
a(I7
I6
tp648
a(I6
I6
tp649
a(I6
I5
tp650
a(I5
I5
tp651
a(I5
I4
tp652
a(I4
I4
tp653
a(I4
I3
tp654
a(I3
I3
tp655
a(I2
I2
tp656
a(I2
I1
tp657
a(I1
I1
tp658
a(I1
I0
tp659
asg20
I5
sg21
(lp660
(icurlovision
StoneLayout
p661
(dp662
g25
F0.4791666666666667
sg26
(lp663
(icurlovision
Stone
p664
(dp665
g30
F11.441176470588236
sg31
F0.6470588235294118
sg32
F0.4264705882352941
sg33
S'yellow'
p666
sbasba(icurlovision
StoneLayout
p667
(dp668
g25
F0.4791666666666667
sg26
(lp669
(icurlovision
Stone
p670
(dp671
g30
F2.6578947368421053
sg31
F0.4605263157894737
sg32
F0.4473684210526315
sg33
S'yellow'
p672
sba(icurlovision
Stone
p673
(dp674
g30
F11.44736842105263
sg31
F0.7236842105263157
sg32
F0.4473684210526315
sg33
S'yellow'
p675
sba(icurlovision
Stone
p676
(dp677
g30
F9.605263157894736
sg31
F-3.4605263157894735
sg32
F0.4473684210526315
sg33
S'red'
p678
sbasba(icurlovision
StoneLayout
p679
(dp680
g25
F0.4791666666666667
sg26
(lp681
(icurlovision
Stone
p682
(dp683
g30
F-0.6768292682926829
sg31
F-3.8048780487804876
sg32
F0.45731707317073167
sg33
S'red'
p684
sba(icurlovision
Stone
p685
(dp686
g30
F11.652439024390244
sg31
F0.6951219512195121
sg32
F0.3292682926829268
sg33
S'yellow'
p687
sba(icurlovision
Stone
p688
(dp689
g30
F9.75
sg31
F-3.512195121951219
sg32
F0.4390243902439024
sg33
S'red'
p690
sba(icurlovision
Stone
p691
(dp692
g30
F-5.871951219512194
sg31
F6.109756097560975
sg32
F0.49390243902439024
sg33
S'yellow'
p693
sba(icurlovision
Stone
p694
(dp695
g30
F11.798780487804878
sg31
F-13.280487804878048
sg32
F0.25609756097560976
sg33
S'yellow'
p696
sbasba(icurlovision
StoneLayout
p697
(dp698
g25
F0.4791666666666667
sg26
(lp699
(icurlovision
Stone
p700
(dp701
g30
F11.817073170731707
sg31
F0.6951219512195121
sg32
F0.4390243902439024
sg33
S'yellow'
p702
sba(icurlovision
Stone
p703
(dp704
g30
F7.792682926829268
sg31
F-5.48780487804878
sg32
F0.45731707317073167
sg33
S'red'
p705
sba(icurlovision
Stone
p706
(dp707
g30
F-0.6951219512195121
sg31
F-3.8780487804878048
sg32
F0.47560975609756095
sg33
S'red'
p708
sba(icurlovision
Stone
p709
(dp710
g30
F4.317073170731707
sg31
F0.6219512195121951
sg32
F0.3475609756097561
sg33
S'yellow'
p711
sbasba(icurlovision
StoneLayout
p712
(dp713
g25
F0.4791666666666667
sg26
(lp714
(icurlovision
Stone
p715
(dp716
g30
F9.945
sg31
F2.37
sg32
F0.435
sg33
S'yellow'
p717
sba(icurlovision
Stone
p718
(dp719
g30
F5.685
sg31
F-2.9099999999999997
sg32
F0.345
sg33
S'red'
p720
sba(icurlovision
Stone
p721
(dp722
g30
F-0.6749999999999999
sg31
F-3.78
sg32
F0.285
sg33
S'red'
p723
sba(icurlovision
Stone
p724
(dp725
g30
F7.574999999999999
sg31
F-5.37
sg32
F0.3
sg33
S'red'
p726
sba(icurlovision
Stone
p727
(dp728
g30
F4.125
sg31
F0.6
sg32
F0.345
sg33
S'yellow'
p729
sba(icurlovision
Stone
p730
(dp731
g30
F8.685
sg31
F-4.26
sg32
F0.27
sg33
S'yellow'
p732
sbasba(icurlovision
StoneLayout
p733
(dp734
g25
F0.4791666666666667
sg26
(lp735
(icurlovision
Stone
p736
(dp737
g30
F-1.25
sg31
F-6.857142857142857
sg32
F0.3214285714285714
sg33
S'yellow'
p738
sba(icurlovision
Stone
p739
(dp740
g30
F-5.9642857142857135
sg31
F6.107142857142857
sg32
F0.46428571428571425
sg33
S'yellow'
p741
sba(icurlovision
Stone
p742
(dp743
g30
F-5.357142857142857
sg31
F-5.821428571428571
sg32
F0.46428571428571425
sg33
S'red'
p744
sba(icurlovision
Stone
p745
(dp746
g30
F7.785714285714286
sg31
F-5.5
sg32
F0.30357142857142855
sg33
S'red'
p747
sba(icurlovision
Stone
p748
(dp749
g30
F10.071428571428571
sg31
F2.571428571428571
sg32
F0.4464285714285714
sg33
S'yellow'
p750
sba(icurlovision
Stone
p751
(dp752
g30
F4.25
sg31
F0.6071428571428571
sg32
F0.30357142857142855
sg33
S'yellow'
p753
sba(icurlovision
Stone
p754
(dp755
g30
F10.214285714285714
sg31
F-12.964285714285714
sg32
F0.2857142857142857
sg33
S'yellow'
p756
sbasba(icurlovision
StoneLayout
p757
(dp758
g25
F0.4791666666666667
sg26
(lp759
(icurlovision
Stone
p760
(dp761
g30
F-1.4230769230769231
sg31
F-7.134615384615385
sg32
F0.3269230769230769
sg33
S'yellow'
p762
sba(icurlovision
Stone
p763
(dp764
g30
F-5.384615384615385
sg31
F-5.8269230769230775
sg32
F0.4807692307692308
sg33
S'red'
p765
sba(icurlovision
Stone
p766
(dp767
g30
F-5.923076923076923
sg31
F6.134615384615385
sg32
F0.44230769230769235
sg33
S'yellow'
p768
sba(icurlovision
Stone
p769
(dp770
g30
F10.076923076923077
sg31
F2.480769230769231
sg32
F0.42307692307692313
sg33
S'yellow'
p771
sba(icurlovision
Stone
p772
(dp773
g30
F7.730769230769231
sg31
F-5.480769230769231
sg32
F0.3076923076923077
sg33
S'red'
p774
sba(icurlovision
Stone
p775
(dp776
g30
F4.0
sg31
F2.826923076923077
sg32
F0.2884615384615385
sg33
S'red'
p777
sba(icurlovision
Stone
p778
(dp779
g30
F12.192307692307693
sg31
F-13.980769230769232
sg32
F0.2692307692307693
sg33
S'yellow'
p780
sbasba(icurlovision
StoneLayout
p781
(dp782
g25
F0.4791666666666667
sg26
(lp783
(icurlovision
Stone
p784
(dp785
g30
F-5.476744186046512
sg31
F-5.877906976744186
sg32
F0.3488372093023256
sg33
S'red'
p786
sba(icurlovision
Stone
p787
(dp788
g30
F-6.034883720930233
sg31
F6.156976744186046
sg32
F0.4883720930232558
sg33
S'yellow'
p789
sba(icurlovision
Stone
p790
(dp791
g30
F-1.4651162790697674
sg31
F-7.203488372093023
sg32
F0.3313953488372093
sg33
S'yellow'
p792
sba(icurlovision
Stone
p793
(dp794
g30
F7.77906976744186
sg31
F-5.563953488372093
sg32
F0.47093023255813954
sg33
S'red'
p795
sba(icurlovision
Stone
p796
(dp797
g30
F10.988372093023255
sg31
F2.38953488372093
sg32
F0.47093023255813954
sg33
S'yellow'
p798
sba(icurlovision
Stone
p799
(dp800
g30
F4.9186046511627906
sg31
F2.7732558139534884
sg32
F0.2965116279069767
sg33
S'yellow'
p801
sbasba(icurlovision
StoneLayout
p802
(dp803
g25
F0.4791666666666667
sg26
(lp804
(icurlovision
Stone
p805
(dp806
g30
F-1.4464285714285714
sg31
F-7.267857142857142
sg32
F0.46428571428571425
sg33
S'yellow'
p807
sba(icurlovision
Stone
p808
(dp809
g30
F-5.517857142857142
sg31
F-5.946428571428571
sg32
F0.4821428571428571
sg33
S'red'
p810
sba(icurlovision
Stone
p811
(dp812
g30
F7.946428571428571
sg31
F-5.589285714285714
sg32
F0.46428571428571425
sg33
S'red'
p813
sba(icurlovision
Stone
p814
(dp815
g30
F-1.5178571428571428
sg31
F2.8035714285714284
sg32
F0.4821428571428571
sg33
S'red'
p816
sba(icurlovision
Stone
p817
(dp818
g30
F11.196428571428571
sg31
F2.482142857142857
sg32
F0.3571428571428571
sg33
S'yellow'
p819
sba(icurlovision
Stone
p820
(dp821
g30
F5.053571428571428
sg31
F2.9107142857142856
sg32
F0.46428571428571425
sg33
S'yellow'
p822
sba(icurlovision
Stone
p823
(dp824
g30
F-6.160714285714286
sg31
F6.3392857142857135
sg32
F0.33928571428571425
sg33
S'yellow'
p825
sba(icurlovision
Stone
p826
(dp827
g30
F10.910714285714285
sg31
F-12.946428571428571
sg32
F0.25
sg33
S'yellow'
p828
sbasba(icurlovision
StoneLayout
p829
(dp830
g25
F0.4791666666666667
sg26
(lp831
(icurlovision
Stone
p832
(dp833
g30
F-1.4829545454545454
sg31
F2.778409090909091
sg32
F0.3409090909090909
sg33
S'red'
p834
sba(icurlovision
Stone
p835
(dp836
g30
F-1.4488636363636362
sg31
F-7.2102272727272725
sg32
F0.32386363636363635
sg33
S'yellow'
p837
sba(icurlovision
Stone
p838
(dp839
g30
F-5.8125
sg31
F-6.017045454545454
sg32
F0.30681818181818177
sg33
S'red'
p840
sba(icurlovision
Stone
p841
(dp842
g30
F-4.482954545454545
sg31
F-6.0852272727272725
sg32
F0.47727272727272724
sg33
S'red'
p843
sba(icurlovision
Stone
p844
(dp845
g30
F11.02840909090909
sg31
F2.403409090909091
sg32
F0.2727272727272727
sg33
S'yellow'
p846
sba(icurlovision
Stone
p847
(dp848
g30
F-6.0852272727272725
sg31
F6.221590909090908
sg32
F0.4602272727272727
sg33
S'yellow'
p849
sba(icurlovision
Stone
p850
(dp851
g30
F4.7556818181818175
sg31
F3.0852272727272725
sg32
F0.4431818181818181
sg33
S'yellow'
p852
sba(icurlovision
Stone
p853
(dp854
g30
F7.823863636363636
sg31
F-5.573863636363636
sg32
F0.30681818181818177
sg33
S'red'
p855
sba(icurlovision
Stone
p856
(dp857
g30
F9.392045454545453
sg31
F-7.3806818181818175
sg32
F0.30681818181818177
sg33
S'yellow'
p858
sbasba(icurlovision
StoneLayout
p859
(dp860
g25
F0.4791666666666667
sg26
(lp861
(icurlovision
Stone
p862
(dp863
g30
F-4.261363636363636
sg31
F-5.829545454545454
sg32
F0.4602272727272727
sg33
S'red'
p864
sba(icurlovision
Stone
p865
(dp866
g30
F-5.761363636363636
sg31
F5.863636363636363
sg32
F0.4261363636363636
sg33
S'yellow'
p867
sba(icurlovision
Stone
p868
(dp869
g30
F-0.75
sg31
F2.0454545454545454
sg32
F0.4261363636363636
sg33
S'yellow'
p870
sba(icurlovision
Stone
p871
(dp872
g30
F-5.488636363636363
sg31
F-5.727272727272727
sg32
F0.4602272727272727
sg33
S'red'
p873
sba(icurlovision
Stone
p874
(dp875
g30
F-1.3295454545454544
sg31
F-6.852272727272727
sg32
F0.4602272727272727
sg33
S'yellow'
p876
sba(icurlovision
Stone
p877
(dp878
g30
F7.431818181818182
sg31
F-5.284090909090908
sg32
F0.30681818181818177
sg33
S'red'
p879
sba(icurlovision
Stone
p880
(dp881
g30
F10.46590909090909
sg31
F2.2840909090909087
sg32
F0.3409090909090909
sg33
S'yellow'
p882
sba(icurlovision
Stone
p883
(dp884
g30
F4.534090909090909
sg31
F2.8977272727272725
sg32
F0.32386363636363635
sg33
S'yellow'
p885
sba(icurlovision
Stone
p886
(dp887
g30
F-2.1136363636363633
sg31
F2.7954545454545454
sg32
F0.2727272727272727
sg33
S'red'
p888
sba(icurlovision
Stone
p889
(dp890
g30
F-5.181818181818182
sg31
F0.47727272727272724
sg32
F0.49431818181818177
sg33
S'red'
p891
sbasba(icurlovision
StoneLayout
p892
(dp893
g25
F0.4791666666666667
sg26
(lp894
(icurlovision
Stone
p895
(dp896
g30
F-4.4817073170731705
sg31
F-6.128048780487805
sg32
F0.47560975609756095
sg33
S'red'
p897
sba(icurlovision
Stone
p898
(dp899
g30
F-1.4451219512195121
sg31
F-7.225609756097561
sg32
F0.3292682926829268
sg33
S'yellow'
p900
sba(icurlovision
Stone
p901
(dp902
g30
F-5.798780487804878
sg31
F-6.018292682926829
sg32
F0.49390243902439024
sg33
S'red'
p903
sba(icurlovision
Stone
p904
(dp905
g30
F-6.054878048780488
sg31
F6.201219512195122
sg32
F0.45731707317073167
sg33
S'yellow'
p906
sba(icurlovision
Stone
p907
(dp908
g30
F4.774390243902439
sg31
F3.091463414634146
sg32
F0.3292682926829268
sg33
S'yellow'
p909
sba(icurlovision
Stone
p910
(dp911
g30
F10.957317073170731
sg31
F2.4329268292682924
sg32
F0.4390243902439024
sg33
S'yellow'
p912
sba(icurlovision
Stone
p913
(dp914
g30
F-2.5792682926829267
sg31
F1.920731707317073
sg32
F0.3475609756097561
sg33
S'yellow'
p915
sba(icurlovision
Stone
p916
(dp917
g30
F7.774390243902438
sg31
F-5.542682926829268
sg32
F0.4390243902439024
sg33
S'red'
p918
sba(icurlovision
Stone
p919
(dp920
g30
F0.09146341463414634
sg31
F2.542682926829268
sg32
F0.47560975609756095
sg33
S'red'
p921
sba(icurlovision
Stone
p922
(dp923
g30
F-2.2134146341463414
sg31
F2.9817073170731705
sg32
F0.45731707317073167
sg33
S'red'
p924
sba(icurlovision
Stone
p925
(dp926
g30
F11.286585365853657
sg31
F-13.298780487804878
sg32
F0.25609756097560976
sg33
S'yellow'
p927
sbasba(icurlovision
StoneLayout
p928
(dp929
g25
F0.4791666666666667
sg26
(lp930
(icurlovision
Stone
p931
(dp932
g30
F1.0290697674418605
sg31
F2.354651162790698
sg32
F0.45348837209302323
sg33
S'yellow'
p933
sba(icurlovision
Stone
p934
(dp935
g30
F-1.447674418604651
sg31
F-7.098837209302325
sg32
F0.313953488372093
sg33
S'yellow'
p936
sba(icurlovision
Stone
p937
(dp938
g30
F7.691860465116279
sg31
F-5.52906976744186
sg32
F0.45348837209302323
sg33
S'red'
p939
sba(icurlovision
Stone
p940
(dp941
g30
F-5.9476744186046515
sg31
F6.122093023255814
sg32
F0.45348837209302323
sg33
S'yellow'
p942
sba(icurlovision
Stone
p943
(dp944
g30
F-0.6802325581395349
sg31
F2.5988372093023258
sg32
F0.47093023255813954
sg33
S'red'
p945
sba(icurlovision
Stone
p946
(dp947
g30
F-2.494186046511628
sg31
F1.9011627906976745
sg32
F0.3313953488372093
sg33
S'yellow'
p948
sba(icurlovision
Stone
p949
(dp950
g30
F10.866279069767442
sg31
F2.354651162790698
sg32
F0.436046511627907
sg33
S'yellow'
p951
sba(icurlovision
Stone
p952
(dp953
g30
F4.726744186046512
sg31
F3.0174418604651163
sg32
F0.3313953488372093
sg33
S'yellow'
p954
sba(icurlovision
Stone
p955
(dp956
g30
F-5.738372093023256
sg31
F-5.912790697674419
sg32
F0.4883720930232558
sg33
S'red'
p957
sba(icurlovision
Stone
p958
(dp959
g30
F-4.412790697674419
sg31
F-6.017441860465116
sg32
F0.47093023255813954
sg33
S'red'
p960
sba(icurlovision
Stone
p961
(dp962
g30
F-2.1802325581395348
sg31
F2.947674418604651
sg32
F0.3313953488372093
sg33
S'red'
p963
sbasbasg3
I3
sg107
I1
sba(icurlovision
EndResult
p964
(dp965
g2
I2
sg10
(lp966
(I7
I7
tp967
a(I6
I7
tp968
a(I6
I6
tp969
a(I5
I6
tp970
a(I5
I5
tp971
a(I4
I4
tp972
a(I3
I4
tp973
a(I2
I3
tp974
a(I2
I2
tp975
a(I1
I2
tp976
a(I1
I1
tp977
asg20
I6
sg21
(lp978
(icurlovision
StoneLayout
p979
(dp980
g25
F0.4791666666666667
sg26
(lp981
(icurlovision
Stone
p982
(dp983
g30
F10.125
sg31
F3.0535714285714284
sg32
F0.42857142857142855
sg33
S'yellow'
p984
sba(icurlovision
Stone
p985
(dp986
g30
F-0.8392857142857142
sg31
F0.30357142857142855
sg32
F0.3214285714285714
sg33
S'red'
p987
sbasba(icurlovision
StoneLayout
p988
(dp989
g25
F0.4791666666666667
sg26
(lp990
(icurlovision
Stone
p991
(dp992
g30
F10.404255319148936
sg31
F3.207446808510638
sg32
F0.44680851063829785
sg33
S'yellow'
p993
sba(icurlovision
Stone
p994
(dp995
g30
F-0.8297872340425532
sg31
F0.33510638297872336
sg32
F0.4787234042553191
sg33
S'red'
p996
sba(icurlovision
Stone
p997
(dp998
g30
F3.9255319148936167
sg31
F0.11170212765957446
sg32
F0.3031914893617021
sg33
S'red'
p999
sba(icurlovision
Stone
p1000
(dp1001
g30
F10.117021276595743
sg31
F-11.888297872340425
sg32
F0.3031914893617021
sg33
S'yellow'
p1002
sbasba(icurlovision
StoneLayout
p1003
(dp1004
g25
F0.4791666666666667
sg26
(lp1005
(icurlovision
Stone
p1006
(dp1007
g30
F-0.017045454545454544
sg31
F0.05113636363636363
sg32
F0.3409090909090909
sg33
S'red'
p1008
sba(icurlovision
Stone
p1009
(dp1010
g30
F10.448863636363635
sg31
F3.1874999999999996
sg32
F0.4602272727272727
sg33
S'yellow'
p1011
sba(icurlovision
Stone
p1012
(dp1013
g30
F4.857954545454545
sg31
F0.08522727272727272
sg32
F0.30681818181818177
sg33
S'yellow'
p1014
sba(icurlovision
Stone
p1015
(dp1016
g30
F10.585227272727272
sg31
F-12.494318181818182
sg32
F0.2727272727272727
sg33
S'yellow'
p1017
sbasba(icurlovision
StoneLayout
p1018
(dp1019
g25
F0.4791666666666667
sg26
(lp1020
(icurlovision
Stone
p1021
(dp1022
g30
F-0.040178571428571425
sg31
F0.040178571428571425
sg32
F0.45535714285714285
sg33
S'red'
p1023
sba(icurlovision
Stone
p1024
(dp1025
g30
F4.620535714285714
sg31
F0.09375
sg32
F0.30803571428571425
sg33
S'yellow'
p1026
sbasba(icurlovision
StoneLayout
p1027
(dp1028
g25
F0.4791666666666667
sg26
(lp1029
(icurlovision
Stone
p1030
(dp1031
g30
F-0.015625
sg31
F0.046875
sg32
F0.46875
sg33
S'red'
p1032
sba(icurlovision
Stone
p1033
(dp1034
g30
F4.765625
sg31
F0.015625
sg32
F0.46875
sg33
S'yellow'
p1035
sba(icurlovision
Stone
p1036
(dp1037
g30
F-6.203125
sg31
F1.421875
sg32
F0.34375
sg33
S'yellow'
p1038
sbasba(icurlovision
StoneLayout
p1039
(dp1040
g25
F0.4791666666666667
sg26
(lp1041
(icurlovision
Stone
p1042
(dp1043
g30
F0.33620689655172414
sg31
F0.9956896551724138
sg32
F0.33620689655172414
sg33
S'yellow'
p1044
sba(icurlovision
Stone
p1045
(dp1046
g30
F0.46551724137931033
sg31
F7.150862068965517
sg32
F0.46551724137931033
sg33
S'red'
p1047
sbasba(icurlovision
StoneLayout
p1048
(dp1049
g25
F0.4791666666666667
sg26
(lp1050
(icurlovision
Stone
p1051
(dp1052
g30
F0.4759615384615385
sg31
F7.08173076923077
sg32
F0.46153846153846156
sg33
S'red'
p1053
sba(icurlovision
Stone
p1054
(dp1055
g30
F1.2259615384615385
sg31
F0.764423076923077
sg32
F0.31730769230769235
sg33
S'red'
p1056
sbasba(icurlovision
StoneLayout
p1057
(dp1058
g25
F0.4791666666666667
sg26
(lp1059
(icurlovision
Stone
p1060
(dp1061
g30
F1.8235294117647058
sg31
F1.5147058823529411
sg32
F0.45588235294117646
sg33
S'yellow'
p1062
sba(icurlovision
Stone
p1063
(dp1064
g30
F0.5
sg31
F7.102941176470588
sg32
F0.47058823529411764
sg33
S'red'
p1065
sba(icurlovision
Stone
p1066
(dp1067
g30
F4.235294117647059
sg31
F1.4558823529411764
sg32
F0.3382352941176471
sg33
S'red'
p1068
sbasba(icurlovision
StoneLayout
p1069
(dp1070
g25
F0.4791666666666667
sg26
(lp1071
(icurlovision
Stone
p1072
(dp1073
g30
F0.45
sg31
F7.3500000000000005
sg32
F0.35000000000000003
sg33
S'red'
p1074
sba(icurlovision
Stone
p1075
(dp1076
g30
F-0.6000000000000001
sg31
F6.525
sg32
F0.325
sg33
S'yellow'
p1077
sba(icurlovision
Stone
p1078
(dp1079
g30
F-5.2250000000000005
sg31
F7.4
sg32
F0.375
sg33
S'yellow'
p1080
sbasba(icurlovision
StoneLayout
p1081
(dp1082
g25
F0.4791666666666667
sg26
(lp1083
(icurlovision
Stone
p1084
(dp1085
g30
F0.435
sg31
F7.095
sg32
F0.27
sg33
S'red'
p1086
sba(icurlovision
Stone
p1087
(dp1088
g30
F-2.3249999999999997
sg31
F7.455
sg32
F0.32999999999999996
sg33
S'yellow'
p1089
sba(icurlovision
Stone
p1090
(dp1091
g30
F-1.635
sg31
F4.395
sg32
F0.32999999999999996
sg33
S'red'
p1092
sba(icurlovision
Stone
p1093
(dp1094
g30
F8.745
sg31
F-11.174999999999999
sg32
F0.27
sg33
S'yellow'
p1095
sbasba(icurlovision
StoneLayout
p1096
(dp1097
g25
F0.4791666666666667
sg26
(lp1098
(icurlovision
Stone
p1099
(dp1100
g30
F0.4326923076923077
sg31
F7.0673076923076925
sg32
F0.46153846153846156
sg33
S'red'
p1101
sba(icurlovision
Stone
p1102
(dp1103
g30
F2.7115384615384617
sg31
F-4.730769230769231
sg32
F0.3317307692307693
sg33
S'yellow'
p1104
sbasbasg3
I3
sg107
I0
sba(icurlovision
EndResult
p1105
(dp1106
g2
I2
sg10
(lp1107
(I7
I8
tp1108
a(I7
I7
tp1109
a(I6
I6
tp1110
a(I5
I6
tp1111
a(I5
I5
tp1112
a(I4
I4
tp1113
a(I3
I4
tp1114
a(I3
I3
tp1115
a(I2
I3
tp1116
a(I2
I2
tp1117
a(I0
I1
tp1118
asg20
I7
sg21
(lp1119
(icurlovision
StoneLayout
p1120
(dp1121
g25
F0.4791666666666667
sg26
(lp1122
(icurlovision
Stone
p1123
(dp1124
g30
F10.010204081632653
sg31
F-0.030612244897959183
sg32
F0.42857142857142855
sg33
S'red'
p1125
sbasba(icurlovision
StoneLayout
p1126
(dp1127
g25
F0.4791666666666667
sg26
(lp1128
(icurlovision
Stone
p1129
(dp1130
g30
F2.142857142857143
sg31
F0.29464285714285715
sg32
F0.42857142857142855
sg33
S'yellow'
p1131
sba(icurlovision
Stone
p1132
(dp1133
g30
F9.75
sg31
F-0.05357142857142857
sg32
F0.42857142857142855
sg33
S'red'
p1134
sbasba(icurlovision
StoneLayout
p1135
(dp1136
g25
F0.4791666666666667
sg26
(lp1137
(icurlovision
Stone
p1138
(dp1139
g30
F3.2368421052631575
sg31
F0.5
sg32
F0.4473684210526315
sg33
S'red'
p1140
sba(icurlovision
Stone
p1141
(dp1142
g30
F9.921052631578947
sg31
F-0.05263157894736842
sg32
F0.4473684210526315
sg33
S'red'
p1143
sba(icurlovision
Stone
p1144
(dp1145
g30
F4.578947368421052
sg31
F0.07894736842105263
sg32
F0.3157894736842105
sg33
S'yellow'
p1146
sba(icurlovision
Stone
p1147
(dp1148
g30
F2.2105263157894735
sg31
F0.2894736842105263
sg32
F0.43421052631578944
sg33
S'yellow'
p1149
sbasba(icurlovision
StoneLayout
p1150
(dp1151
g25
F0.4791666666666667
sg26
(lp1152
(icurlovision
Stone
p1153
(dp1154
g30
F3.25
sg31
F0.4852941176470588
sg32
F0.4411764705882353
sg33
S'red'
p1155
sba(icurlovision
Stone
p1156
(dp1157
g30
F7.63235294117647
sg31
F-6.279411764705882
sg32
F0.45588235294117646
sg33
S'red'
p1158
sba(icurlovision
Stone
p1159
(dp1160
g30
F2.191176470588235
sg31
F0.27941176470588236
sg32
F0.4411764705882353
sg33
S'yellow'
p1161
sba(icurlovision
Stone
p1162
(dp1163
g30
F4.602941176470588
sg31
F0.07352941176470588
sg32
F0.3235294117647059
sg33
S'yellow'
p1164
sbasba(icurlovision
StoneLayout
p1165
(dp1166
g25
F0.4791666666666667
sg26
(lp1167
(icurlovision
Stone
p1168
(dp1169
g30
F7.887931034482759
sg31
F-6.491379310344827
sg32
F0.46551724137931033
sg33
S'red'
p1170
sba(icurlovision
Stone
p1171
(dp1172
g30
F3.155172413793103
sg31
F0.6982758620689655
sg32
F0.34913793103448276
sg33
S'red'
p1173
sba(icurlovision
Stone
p1174
(dp1175
g30
F4.241379310344827
sg31
F0.12931034482758622
sg32
F0.34913793103448276
sg33
S'yellow'
p1176
sba(icurlovision
Stone
p1177
(dp1178
g30
F5.663793103448276
sg31
F-0.02586206896551724
sg32
F0.34913793103448276
sg33
S'yellow'
p1179
sbasba(icurlovision
StoneLayout
p1180
(dp1181
g25
F0.4791666666666667
sg26
(lp1182
(icurlovision
Stone
p1183
(dp1184
g30
F7.369565217391304
sg31
F-6.08695652173913
sg32
F0.34782608695652173
sg33
S'red'
p1185
sba(icurlovision
Stone
p1186
(dp1187
g30
F-0.8695652173913043
sg31
F-3.434782608695652
sg32
F0.44565217391304346
sg33
S'yellow'
p1188
sba(icurlovision
Stone
p1189
(dp1190
g30
F1.6304347826086956
sg31
F0.21739130434782608
sg32
F0.34782608695652173
sg33
S'yellow'
p1191
sbasba(icurlovision
StoneLayout
p1192
(dp1193
g25
F0.4791666666666667
sg26
(lp1194
(icurlovision
Stone
p1195
(dp1196
g30
F-0.8773584905660378
sg31
F-3.509433962264151
sg32
F0.4386792452830189
sg33
S'yellow'
p1197
sba(icurlovision
Stone
p1198
(dp1199
g30
F1.1037735849056605
sg31
F-2.2358490566037736
sg32
F0.32547169811320753
sg33
S'red'
p1200
sbasba(icurlovision
StoneLayout
p1201
(dp1202
g25
F0.4791666666666667
sg26
(lp1203
(icurlovision
Stone
p1204
(dp1205
g30
F-0.6581632653061225
sg31
F1.6377551020408163
sg32
F0.45918367346938777
sg33
S'yellow'
p1206
sba(icurlovision
Stone
p1207
(dp1208
g30
F7.607142857142857
sg31
F-6.290816326530612
sg32
F0.45918367346938777
sg33
S'red'
p1209
sba(icurlovision
Stone
p1210
(dp1211
g30
F-1.3010204081632653
sg31
F-2.0357142857142856
sg32
F0.45918367346938777
sg33
S'red'
p1212
sbasba(icurlovision
StoneLayout
p1213
(dp1214
g25
F0.4791666666666667
sg26
(lp1215
(icurlovision
Stone
p1216
(dp1217
g30
F7.75
sg31
F-6.34375
sg32
F0.46875
sg33
S'red'
p1218
sba(icurlovision
Stone
p1219
(dp1220
g30
F-1.34375
sg31
F-2.375
sg32
F0.453125
sg33
S'red'
p1221
sba(icurlovision
Stone
p1222
(dp1223
g30
F-1.59375
sg31
F-1.21875
sg32
F0.46875
sg33
S'red'
p1224
sbasba(icurlovision
StoneLayout
p1225
(dp1226
g25
F0.4791666666666667
sg26
(lp1227
(icurlovision
Stone
p1228
(dp1229
g30
F-1.3526785714285714
sg31
F-2.370535714285714
sg32
F0.3214285714285714
sg33
S'red'
p1230
sba(icurlovision
Stone
p1231
(dp1232
g30
F0.17410714285714285
sg31
F-2.15625
sg32
F0.33482142857142855
sg33
S'yellow'
p1233
sba(icurlovision
Stone
p1234
(dp1235
g30
F7.700892857142857
sg31
F-6.3080357142857135
sg32
F0.46875
sg33
S'red'
p1236
sba(icurlovision
Stone
p1237
(dp1238
g30
F-1.6205357142857142
sg31
F-1.21875
sg32
F0.4821428571428571
sg33
S'red'
p1239
sbasba(icurlovision
StoneLayout
p1240
(dp1241
g25
F0.4791666666666667
sg26
(lp1242
(icurlovision
Stone
p1243
(dp1244
g30
F-2.855769230769231
sg31
F-5.307692307692308
sg32
F0.3605769230769231
sg33
S'red'
p1245
sba(icurlovision
Stone
p1246
(dp1247
g30
F-3.8365384615384617
sg31
F-5.798076923076923
sg32
F0.34615384615384615
sg33
S'yellow'
p1248
sba(icurlovision
Stone
p1249
(dp1250
g30
F7.846153846153847
sg31
F-6.403846153846154
sg32
F0.4759615384615385
sg33
S'red'
p1251
sbasbasg3
I3
sg107
I0
sba(icurlovision
EndResult
p1252
(dp1253
g2
I3
sg10
(lp1254
(I7
I8
tp1255
a(I6
I7
tp1256
a(I6
I6
tp1257
a(I5
I5
tp1258
a(I4
I5
tp1259
a(I4
I4
tp1260
a(I3
I4
tp1261
a(I3
I3
tp1262
a(I2
I3
tp1263
a(I2
I2
tp1264
a(I1
I2
tp1265
a(I1
I1
tp1266
a(I0
I1
tp1267
asg20
I8
sg21
(lp1268
(icurlovision
StoneLayout
p1269
(dp1270
g25
F0.4791666666666667
sg26
(lp1271
(icurlovision
Stone
p1272
(dp1273
g30
F1.65625
sg31
F0.25
sg32
F0.3125
sg33
S'red'
p1274
sbasba(icurlovision
StoneLayout
p1275
(dp1276
g25
F0.4791666666666667
sg26
(lp1277
(icurlovision
Stone
p1278
(dp1279
g30
F11.052631578947368
sg31
F2.8421052631578947
sg32
F0.43421052631578944
sg33
S'yellow'
p1280
sba(icurlovision
Stone
p1281
(dp1282
g30
F4.605263157894736
sg31
F-0.10526315789473684
sg32
F0.3421052631578947
sg33
S'red'
p1283
sba(icurlovision
Stone
p1284
(dp1285
g30
F1.6052631578947367
sg31
F0.2894736842105263
sg32
F0.3289473684210526
sg33
S'red'
p1286
sbasba(icurlovision
StoneLayout
p1287
(dp1288
g25
F0.4791666666666667
sg26
(lp1289
(icurlovision
Stone
p1290
(dp1291
g30
F11.762195121951219
sg31
F2.9817073170731705
sg32
F0.31097560975609756
sg33
S'yellow'
p1292
sba(icurlovision
Stone
p1293
(dp1294
g30
F-5.323170731707317
sg31
F-7.554878048780488
sg32
F0.49390243902439024
sg33
S'red'
p1295
sba(icurlovision
Stone
p1296
(dp1297
g30
F5.689024390243902
sg31
F0.1646341463414634
sg32
F0.3475609756097561
sg33
S'yellow'
p1298
sba(icurlovision
Stone
p1299
(dp1300
g30
F12.310975609756097
sg31
F-13.48170731707317
sg32
F0.31097560975609756
sg33
S'yellow'
p1301
sbasba(icurlovision
StoneLayout
p1302
(dp1303
g25
F0.4791666666666667
sg26
(lp1304
(icurlovision
Stone
p1305
(dp1306
g30
F0.9941860465116279
sg31
F2.354651162790698
sg32
F0.45348837209302323
sg33
S'yellow'
p1307
sba(icurlovision
Stone
p1308
(dp1309
g30
F11.598837209302326
sg31
F2.947674418604651
sg32
F0.436046511627907
sg33
S'yellow'
p1310
sba(icurlovision
Stone
p1311
(dp1312
g30
F-5.25
sg31
F-7.447674418604651
sg32
F0.3488372093023256
sg33
S'red'
p1313
sba(icurlovision
Stone
p1314
(dp1315
g30
F6.436046511627907
sg31
F0.19186046511627908
sg32
F0.41860465116279066
sg33
S'red'
p1316
sba(icurlovision
Stone
p1317
(dp1318
g30
F11.354651162790697
sg31
F-12.854651162790697
sg32
F0.41860465116279066
sg33
S'yellow'
p1319
sbasba(icurlovision
StoneLayout
p1320
(dp1321
g25
F0.4791666666666667
sg26
(lp1322
(icurlovision
Stone
p1323
(dp1324
g30
F-4.517857142857142
sg31
F5.339285714285714
sg32
F0.46428571428571425
sg33
S'yellow'
p1325
sba(icurlovision
Stone
p1326
(dp1327
g30
F-5.232142857142857
sg31
F-7.446428571428571
sg32
F0.46428571428571425
sg33
S'red'
p1328
sba(icurlovision
Stone
p1329
(dp1330
g30
F11.767857142857142
sg31
F3.017857142857143
sg32
F0.42857142857142855
sg33
S'yellow'
p1331
sba(icurlovision
Stone
p1332
(dp1333
g30
F6.553571428571428
sg31
F0.19642857142857142
sg32
F0.30357142857142855
sg33
S'red'
p1334
sba(icurlovision
Stone
p1335
(dp1336
g30
F-0.08928571428571427
sg31
F-0.4821428571428571
sg32
F0.4821428571428571
sg33
S'red'
p1337
sbasba(icurlovision
StoneLayout
p1338
(dp1339
g25
F0.4791666666666667
sg26
(lp1340
(icurlovision
Stone
p1341
(dp1342
g30
F6.732558139534883
sg31
F1.8313953488372092
sg32
F0.45348837209302323
sg33
S'yellow'
p1343
sba(icurlovision
Stone
p1344
(dp1345
g30
F-2.058139534883721
sg31
F-4.726744186046512
sg32
F0.3488372093023256
sg33
S'red'
p1346
sba(icurlovision
Stone
p1347
(dp1348
g30
F11.755813953488373
sg31
F2.9825581395348837
sg32
F0.45348837209302323
sg33
S'yellow'
p1349
sba(icurlovision
Stone
p1350
(dp1351
g30
F-5.372093023255814
sg31
F-7.587209302325581
sg32
F0.5058139534883721
sg33
S'red'
p1352
sbasba(icurlovision
StoneLayout
p1353
(dp1354
g25
F0.4791666666666667
sg26
(lp1355
(icurlovision
Stone
p1356
(dp1357
g30
F6.505813953488372
sg31
F1.7965116279069768
sg32
F0.45348837209302323
sg33
S'yellow'
p1358
sba(icurlovision
Stone
p1359
(dp1360
g30
F-1.9709302325581395
sg31
F-4.5523255813953485
sg32
F0.313953488372093
sg33
S'red'
p1361
sba(icurlovision
Stone
p1362
(dp1363
g30
F-5.145348837209302
sg31
F-7.343023255813954
sg32
F0.313953488372093
sg33
S'red'
p1364
sba(icurlovision
Stone
p1365
(dp1366
g30
F11.38953488372093
sg31
F2.877906976744186
sg32
F0.436046511627907
sg33
S'yellow'
p1367
sba(icurlovision
Stone
p1368
(dp1369
g30
F2.947674418604651
sg31
F1.2732558139534884
sg32
F0.313953488372093
sg33
S'red'
p1370
sbasba(icurlovision
StoneLayout
p1371
(dp1372
g25
F0.4791666666666667
sg26
(lp1373
(icurlovision
Stone
p1374
(dp1375
g30
F6.566666666666666
sg31
F1.8
sg32
F0.45
sg33
S'yellow'
p1376
sba(icurlovision
Stone
p1377
(dp1378
g30
F-1.8
sg31
F-3.6333333333333333
sg32
F0.31666666666666665
sg33
S'yellow'
p1379
sba(icurlovision
Stone
p1380
(dp1381
g30
F-2.7333333333333334
sg31
F-5.5
sg32
F0.3333333333333333
sg33
S'red'
p1382
sba(icurlovision
Stone
p1383
(dp1384
g30
F11.5
sg31
F2.933333333333333
sg32
F0.43333333333333335
sg33
S'yellow'
p1385
sba(icurlovision
Stone
p1386
(dp1387
g30
F-5.2
sg31
F-7.333333333333333
sg32
F0.43333333333333335
sg33
S'red'
p1388
sba(icurlovision
Stone
p1389
(dp1390
g30
F-5.433333333333334
sg31
F7.533333333333333
sg32
F0.31666666666666665
sg33
S'red'
p1391
sbasba(icurlovision
StoneLayout
p1392
(dp1393
g25
F0.4791666666666667
sg26
(lp1394
(icurlovision
Stone
p1395
(dp1396
g30
F6.675
sg31
F1.875
sg32
F0.46875
sg33
S'yellow'
p1397
sba(icurlovision
Stone
p1398
(dp1399
g30
F11.6625
sg31
F3.0
sg32
F0.44999999999999996
sg33
S'yellow'
p1400
sba(icurlovision
Stone
p1401
(dp1402
g30
F-2.6999999999999997
sg31
F-5.5125
sg32
F0.31875
sg33
S'red'
p1403
sba(icurlovision
Stone
p1404
(dp1405
g30
F-5.925
sg31
F2.475
sg32
F0.46875
sg33
S'red'
p1406
sba(icurlovision
Stone
p1407
(dp1408
g30
F-5.2124999999999995
sg31
F-7.35
sg32
F0.3
sg33
S'red'
p1409
sba(icurlovision
Stone
p1410
(dp1411
g30
F-7.3125
sg31
F-5.7
sg32
F0.35625
sg33
S'yellow'
p1412
sbasba(icurlovision
StoneLayout
p1413
(dp1414
g25
F0.4791666666666667
sg26
(lp1415
(icurlovision
Stone
p1416
(dp1417
g30
F-2.7209302325581395
sg31
F-5.441860465116279
sg32
F0.45348837209302323
sg33
S'red'
p1418
sba(icurlovision
Stone
p1419
(dp1420
g30
F11.441860465116278
sg31
F2.8255813953488373
sg32
F0.436046511627907
sg33
S'yellow'
p1421
sba(icurlovision
Stone
p1422
(dp1423
g30
F-5.162790697674419
sg31
F-7.290697674418604
sg32
F0.47093023255813954
sg33
S'red'
p1424
sba(icurlovision
Stone
p1425
(dp1426
g30
F-5.790697674418604
sg31
F2.197674418604651
sg32
F0.47093023255813954
sg33
S'red'
p1427
sba(icurlovision
Stone
p1428
(dp1429
g30
F4.7441860465116275
sg31
F-1.5
sg32
F0.45348837209302323
sg33
S'yellow'
p1430
sba(icurlovision
Stone
p1431
(dp1432
g30
F-0.10465116279069767
sg31
F5.406976744186046
sg32
F0.3313953488372093
sg33
S'yellow'
p1433
sba(icurlovision
Stone
p1434
(dp1435
g30
F11.05813953488372
sg31
F-12.872093023255815
sg32
F0.2965116279069767
sg33
S'yellow'
p1436
sbasba(icurlovision
StoneLayout
p1437
(dp1438
g25
F0.4791666666666667
sg26
(lp1439
(icurlovision
Stone
p1440
(dp1441
g30
F-2.86875
sg31
F-5.6812499999999995
sg32
F0.4875
sg33
S'red'
p1442
sba(icurlovision
Stone
p1443
(dp1444
g30
F12.09375
sg31
F3.05625
sg32
F0.44999999999999996
sg33
S'yellow'
p1445
sba(icurlovision
Stone
p1446
(dp1447
g30
F-6.16875
sg31
F2.38125
sg32
F0.2625
sg33
S'red'
p1448
sba(icurlovision
Stone
p1449
(dp1450
g30
F-0.09375
sg31
F5.75625
sg32
F0.33749999999999997
sg33
S'yellow'
p1451
sba(icurlovision
Stone
p1452
(dp1453
g30
F-5.45625
sg31
F-7.668749999999999
sg32
F0.50625
sg33
S'red'
p1454
sba(icurlovision
Stone
p1455
(dp1456
g30
F5.56875
sg31
F-0.43124999999999997
sg32
F0.28125
sg33
S'red'
p1457
sba(icurlovision
Stone
p1458
(dp1459
g30
F11.90625
sg31
F-13.74375
sg32
F0.2625
sg33
S'yellow'
p1460
sbasba(icurlovision
StoneLayout
p1461
(dp1462
g25
F0.4791666666666667
sg26
(lp1463
(icurlovision
Stone
p1464
(dp1465
g30
F-2.775
sg31
F-5.625
sg32
F0.33749999999999997
sg33
S'red'
p1466
sba(icurlovision
Stone
p1467
(dp1468
g30
F11.85
sg31
F3.0
sg32
F0.3
sg33
S'yellow'
p1469
sba(icurlovision
Stone
p1470
(dp1471
g30
F-0.11249999999999999
sg31
F5.55
sg32
F0.31875
sg33
S'yellow'
p1472
sba(icurlovision
Stone
p1473
(dp1474
g30
F-5.9624999999999995
sg31
F2.25
sg32
F0.33749999999999997
sg33
S'red'
p1475
sba(icurlovision
Stone
p1476
(dp1477
g30
F6.3
sg31
F-0.75
sg32
F0.33749999999999997
sg33
S'yellow'
p1478
sba(icurlovision
Stone
p1479
(dp1480
g30
F-5.2875
sg31
F-7.5375
sg32
F0.2625
sg33
S'red'
p1481
sba(icurlovision
Stone
p1482
(dp1483
g30
F11.325
sg31
F-13.8375
sg32
F0.44999999999999996
sg33
S'yellow'
p1484
sbasba(icurlovision
StoneLayout
p1485
(dp1486
g25
F0.4791666666666667
sg26
(lp1487
(icurlovision
Stone
p1488
(dp1489
g30
F-2.7777777777777777
sg31
F-5.555555555555555
sg32
F0.4722222222222222
sg33
S'red'
p1490
sba(icurlovision
Stone
p1491
(dp1492
g30
F-5.944444444444444
sg31
F2.2222222222222223
sg32
F0.4583333333333333
sg33
S'red'
p1493
sba(icurlovision
Stone
p1494
(dp1495
g30
F-5.305555555555555
sg31
F-7.472222222222221
sg32
F0.3055555555555555
sg33
S'red'
p1496
sba(icurlovision
Stone
p1497
(dp1498
g30
F6.222222222222221
sg31
F-0.7222222222222222
sg32
F0.3333333333333333
sg33
S'yellow'
p1499
sbasbasg3
I3
sg107
I0
sba(icurlovision
EndResult
p1500
(dp1501
g2
I4
sg10
(lp1502
(I8
I7
tp1503
a(I7
I7
tp1504
a(I7
I6
tp1505
a(I5
I5
tp1506
a(I4
I4
tp1507
a(I3
I3
tp1508
a(I3
I2
tp1509
a(I2
I2
tp1510
a(I2
I1
tp1511
a(I1
I1
tp1512
a(I1
I0
tp1513
asg20
I9
sg21
(lp1514
(icurlovision
StoneLayout
p1515
(dp1516
g25
F0.4791666666666667
sg26
(lp1517
(icurlovision
Stone
p1518
(dp1519
g30
F10.806122448979592
sg31
F-0.45918367346938777
sg32
F0.42857142857142855
sg33
S'yellow'
p1520
sbasba(icurlovision
StoneLayout
p1521
(dp1522
g25
F0.4791666666666667
sg26
(lp1523
(icurlovision
Stone
p1524
(dp1525
g30
F10.921875
sg31
F-0.484375
sg32
F0.453125
sg33
S'yellow'
p1526
sba(icurlovision
Stone
p1527
(dp1528
g30
F-2.453125
sg31
F3.828125
sg32
F0.359375
sg33
S'red'
p1529
sbasba(icurlovision
StoneLayout
p1530
(dp1531
g25
F0.4791666666666667
sg26
(lp1532
(icurlovision
Stone
p1533
(dp1534
g30
F10.875
sg31
F-0.4934210526315789
sg32
F0.23684210526315788
sg33
S'yellow'
p1535
sba(icurlovision
Stone
p1536
(dp1537
g30
F14.901315789473683
sg31
F-0.3355263157894737
sg32
F0.41447368421052627
sg33
S'yellow'
p1538
sba(icurlovision
Stone
p1539
(dp1540
g30
F-3.2960526315789473
sg31
F4.0855263157894735
sg32
F0.256578947368421
sg33
S'red'
p1541
sba(icurlovision
Stone
p1542
(dp1543
g30
F14.901315789473683
sg31
F-14.348684210526315
sg32
F0.2763157894736842
sg33
S'yellow'
p1544
sbasba(icurlovision
StoneLayout
p1545
(dp1546
g25
F0.4791666666666667
sg26
(lp1547
(icurlovision
Stone
p1548
(dp1549
g30
F3.0789473684210527
sg31
F-0.6710526315789473
sg32
F0.3157894736842105
sg33
S'yellow'
p1550
sba(icurlovision
Stone
p1551
(dp1552
g30
F14.605263157894736
sg31
F-1.6184210526315788
sg32
F0.41447368421052627
sg33
S'red'
p1553
sba(icurlovision
Stone
p1554
(dp1555
g30
F-3.1578947368421053
sg31
F3.8684210526315788
sg32
F0.29605263157894735
sg33
S'red'
p1556
sbasba(icurlovision
StoneLayout
p1557
(dp1558
g25
F0.4791666666666667
sg26
(lp1559
(icurlovision
Stone
p1560
(dp1561
g30
F-3.5
sg31
F7.25
sg32
F0.4583333333333333
sg33
S'red'
p1562
sba(icurlovision
Stone
p1563
(dp1564
g30
F3.208333333333333
sg31
F-0.7083333333333333
sg32
F0.4583333333333333
sg33
S'yellow'
p1565
sba(icurlovision
Stone
p1566
(dp1567
g30
F15.333333333333332
sg31
F-1.75
sg32
F0.20833333333333331
sg33
S'red'
p1568
sba(icurlovision
Stone
p1569
(dp1570
g30
F-3.375
sg31
F4.125
sg32
F0.41666666666666663
sg33
S'red'
p1571
sba(icurlovision
Stone
p1572
(dp1573
g30
F14.708333333333332
sg31
F-15.041666666666666
sg32
F0.20833333333333331
sg33
S'yellow'
p1574
sbasba(icurlovision
StoneLayout
p1575
(dp1576
g25
F0.4791666666666667
sg26
(lp1577
(icurlovision
Stone
p1578
(dp1579
g30
F8.554054054054054
sg31
F5.594594594594595
sg32
F0.4256756756756757
sg33
S'red'
p1580
sba(icurlovision
Stone
p1581
(dp1582
g30
F3.1621621621621623
sg31
F-0.6891891891891893
sg32
F0.32432432432432434
sg33
S'yellow'
p1583
sba(icurlovision
Stone
p1584
(dp1585
g30
F-1.7432432432432434
sg31
F-5.918918918918919
sg32
F0.32432432432432434
sg33
S'yellow'
p1586
sba(icurlovision
Stone
p1587
(dp1588
g30
F14.91891891891892
sg31
F-1.7432432432432434
sg32
F0.24324324324324326
sg33
S'red'
p1589
sba(icurlovision
Stone
p1590
(dp1591
g30
F-3.202702702702703
sg31
F4.013513513513514
sg32
F0.26351351351351354
sg33
S'red'
p1592
sba(icurlovision
Stone
p1593
(dp1594
g30
F10.986486486486488
sg31
F6.364864864864865
sg32
F0.4256756756756757
sg33
S'red'
p1595
sba(icurlovision
Stone
p1596
(dp1597
g30
F15.202702702702704
sg31
F-14.716216216216218
sg32
F0.28378378378378377
sg33
S'yellow'
p1598
sbasba(icurlovision
StoneLayout
p1599
(dp1600
g25
F0.4791666666666667
sg26
(lp1601
(icurlovision
Stone
p1602
(dp1603
g30
F3.2291666666666665
sg31
F-0.7291666666666666
sg32
F0.4583333333333333
sg33
S'yellow'
p1604
sba(icurlovision
Stone
p1605
(dp1606
g30
F9.645833333333332
sg31
F-0.1875
sg32
F0.4375
sg33
S'yellow'
p1607
sba(icurlovision
Stone
p1608
(dp1609
g30
F-3.3125
sg31
F4.104166666666666
sg32
F0.25
sg33
S'red'
p1610
sba(icurlovision
Stone
p1611
(dp1612
g30
F15.354166666666666
sg31
F-1.7708333333333333
sg32
F0.3958333333333333
sg33
S'red'
p1613
sbasba(icurlovision
StoneLayout
p1614
(dp1615
g25
F0.4791666666666667
sg26
(lp1616
(icurlovision
Stone
p1617
(dp1618
g30
F9.256578947368421
sg31
F1.0855263157894737
sg32
F0.41447368421052627
sg33
S'red'
p1619
sba(icurlovision
Stone
p1620
(dp1621
g30
F14.50657894736842
sg31
F-1.638157894736842
sg32
F0.41447368421052627
sg33
S'red'
p1622
sba(icurlovision
Stone
p1623
(dp1624
g30
F-3.138157894736842
sg31
F3.927631578947368
sg32
F0.2763157894736842
sg33
S'red'
p1625
sbasba(icurlovision
StoneLayout
p1626
(dp1627
g25
F0.4791666666666667
sg26
(lp1628
(icurlovision
Stone
p1629
(dp1630
g30
F9.628378378378379
sg31
F1.114864864864865
sg32
F0.44594594594594594
sg33
S'red'
p1631
sba(icurlovision
Stone
p1632
(dp1633
g30
F-3.2635135135135136
sg31
F4.033783783783784
sg32
F0.24324324324324326
sg33
S'red'
p1634
sba(icurlovision
Stone
p1635
(dp1636
g30
F1.4797297297297298
sg31
F1.0743243243243243
sg32
F0.46621621621621623
sg33
S'yellow'
p1637
sba(icurlovision
Stone
p1638
(dp1639
g30
F15.101351351351353
sg31
F-1.6824324324324325
sg32
F0.40540540540540543
sg33
S'red'
p1640
sba(icurlovision
Stone
p1641
(dp1642
g30
F14.97972972972973
sg31
F-14.736486486486488
sg32
F0.28378378378378377
sg33
S'yellow'
p1643
sbasba(icurlovision
StoneLayout
p1644
(dp1645
g25
F0.4791666666666667
sg26
(lp1646
(icurlovision
Stone
p1647
(dp1648
g30
F14.93918918918919
sg31
F-1.6824324324324325
sg32
F0.40540540540540543
sg33
S'red'
p1649
sba(icurlovision
Stone
p1650
(dp1651
g30
F10.114864864864865
sg31
F1.4797297297297298
sg32
F0.44594594594594594
sg33
S'red'
p1652
sba(icurlovision
Stone
p1653
(dp1654
g30
F-5.493243243243244
sg31
F-7.3175675675675675
sg32
F0.28378378378378377
sg33
S'red'
p1655
sbasba(icurlovision
StoneLayout
p1656
(dp1657
g25
F0.4791666666666667
sg26
(lp1658
(icurlovision
Stone
p1659
(dp1660
g30
F3.2333333333333334
sg31
F1.4666666666666666
sg32
F0.43333333333333335
sg33
S'yellow'
p1661
sba(icurlovision
Stone
p1662
(dp1663
g30
F9.9
sg31
F1.4666666666666666
sg32
F0.4166666666666667
sg33
S'red'
p1664
sba(icurlovision
Stone
p1665
(dp1666
g30
F14.633333333333333
sg31
F-1.6333333333333333
sg32
F0.4166666666666667
sg33
S'red'
p1667
sbasbasg3
I3
sg107
I1
sba(icurlovision
EndResult
p1668
(dp1669
g2
I4
sg10
(lp1670
(I8
I7
tp1671
a(I7
I6
tp1672
a(I6
I6
tp1673
a(I6
I5
tp1674
a(I5
I5
tp1675
a(I5
I4
tp1676
a(I4
I4
tp1677
a(I4
I3
tp1678
a(I3
I3
tp1679
a(I3
I2
tp1680
a(I2
I2
tp1681
a(I2
I1
tp1682
a(I1
I1
tp1683
a(I1
I0
tp1684
asg20
I10
sg21
(lp1685
(icurlovision
StoneLayout
p1686
(dp1687
g25
F0.4791666666666667
sg26
(lp1688
(icurlovision
Stone
p1689
(dp1690
g30
F9.885245901639344
sg31
F0.3688524590163934
sg32
F0.4180327868852459
sg33
S'yellow'
p1691
sbasba(icurlovision
StoneLayout
p1692
(dp1693
g25
F0.4791666666666667
sg26
(lp1694
(icurlovision
Stone
p1695
(dp1696
g30
F3.0136363636363637
sg31
F0.10909090909090909
sg32
F0.32727272727272727
sg33
S'yellow'
p1697
sba(icurlovision
Stone
p1698
(dp1699
g30
F9.913636363636364
sg31
F4.009090909090909
sg32
F0.44999999999999996
sg33
S'red'
p1700
sba(icurlovision
Stone
p1701
(dp1702
g30
F8.168181818181818
sg31
F-0.3818181818181818
sg32
F0.35454545454545455
sg33
S'yellow'
p1703
sbasba(icurlovision
StoneLayout
p1704
(dp1705
g25
F0.4791666666666667
sg26
(lp1706
(icurlovision
Stone
p1707
(dp1708
g30
F10.076086956521738
sg31
F4.076086956521739
sg32
F0.32608695652173914
sg33
S'red'
p1709
sba(icurlovision
Stone
p1710
(dp1711
g30
F8.315217391304348
sg31
F-0.358695652173913
sg32
F0.32608695652173914
sg33
S'yellow'
p1712
sba(icurlovision
Stone
p1713
(dp1714
g30
F2.510869565217391
sg31
F2.4782608695652173
sg32
F0.4891304347826087
sg33
S'red'
p1715
sba(icurlovision
Stone
p1716
(dp1717
g30
F-1.826086956521739
sg31
F-2.3478260869565215
sg32
F0.47282608695652173
sg33
S'yellow'
p1718
sbasba(icurlovision
StoneLayout
p1719
(dp1720
g25
F0.4791666666666667
sg26
(lp1721
(icurlovision
Stone
p1722
(dp1723
g30
F9.88953488372093
sg31
F4.02906976744186
sg32
F0.436046511627907
sg33
S'red'
p1724
sba(icurlovision
Stone
p1725
(dp1726
g30
F8.180232558139535
sg31
F-0.3313953488372093
sg32
F0.3488372093023256
sg33
S'yellow'
p1727
sba(icurlovision
Stone
p1728
(dp1729
g30
F-1.1337209302325582
sg31
F-1.2383720930232558
sg32
F0.3313953488372093
sg33
S'yellow'
p1730
sbasba(icurlovision
StoneLayout
p1731
(dp1732
g25
F0.4791666666666667
sg26
(lp1733
(icurlovision
Stone
p1734
(dp1735
g30
F10.1625
sg31
F3.99375
sg32
F0.24375
sg33
S'red'
p1736
sba(icurlovision
Stone
p1737
(dp1738
g30
F8.362499999999999
sg31
F-0.46875
sg32
F0.35625
sg33
S'yellow'
p1739
sba(icurlovision
Stone
p1740
(dp1741
g30
F-5.7749999999999995
sg31
F-3.05625
sg32
F0.4875
sg33
S'yellow'
p1742
sba(icurlovision
Stone
p1743
(dp1744
g30
F-1.275
sg31
F0.46875
sg32
F0.375
sg33
S'red'
p1745
sba(icurlovision
Stone
p1746
(dp1747
g30
F10.3875
sg31
F-13.85625
sg32
F0.31875
sg33
S'yellow'
p1748
sbasba(icurlovision
StoneLayout
p1749
(dp1750
g25
F0.4791666666666667
sg26
(lp1751
(icurlovision
Stone
p1752
(dp1753
g30
F-0.3529411764705882
sg31
F0.2647058823529412
sg32
F0.3382352941176471
sg33
S'yellow'
p1754
sba(icurlovision
Stone
p1755
(dp1756
g30
F9.382352941176471
sg31
F3.8529411764705883
sg32
F0.27941176470588236
sg33
S'red'
p1757
sba(icurlovision
Stone
p1758
(dp1759
g30
F7.735294117647059
sg31
F-0.29411764705882354
sg32
F0.3235294117647059
sg33
S'yellow'
p1760
sba(icurlovision
Stone
p1761
(dp1762
g30
F-2.441176470588235
sg31
F0.5588235294117647
sg32
F0.4411764705882353
sg33
S'red'
p1763
sbasba(icurlovision
StoneLayout
p1764
(dp1765
g25
F0.4791666666666667
sg26
(lp1766
(icurlovision
Stone
p1767
(dp1768
g30
F8.664473684210526
sg31
F-0.3355263157894737
sg32
F0.4934210526315789
sg33
S'yellow'
p1769
sba(icurlovision
Stone
p1770
(dp1771
g30
F-6.059210526315789
sg31
F-3.177631578947368
sg32
F0.3157894736842105
sg33
S'yellow'
p1772
sba(icurlovision
Stone
p1773
(dp1774
g30
F10.480263157894736
sg31
F4.322368421052631
sg32
F0.47368421052631576
sg33
S'red'
p1775
sba(icurlovision
Stone
p1776
(dp1777
g30
F-0.41447368421052627
sg31
F0.17763157894736842
sg32
F0.375
sg33
S'yellow'
p1778
sba(icurlovision
Stone
p1779
(dp1780
g30
F0.7697368421052632
sg31
F0.888157894736842
sg32
F0.29605263157894735
sg33
S'red'
p1781
sba(icurlovision
Stone
p1782
(dp1783
g30
F12.05921052631579
sg31
F-14.50657894736842
sg32
F0.2763157894736842
sg33
S'yellow'
p1784
sbasba(icurlovision
StoneLayout
p1785
(dp1786
g25
F0.4791666666666667
sg26
(lp1787
(icurlovision
Stone
p1788
(dp1789
g30
F-4.867021276595744
sg31
F-3.2393617021276593
sg32
F0.33510638297872336
sg33
S'yellow'
p1790
sba(icurlovision
Stone
p1791
(dp1792
g30
F3.303191489361702
sg31
F-0.526595744680851
sg32
F0.4627659574468085
sg33
S'yellow'
p1793
sba(icurlovision
Stone
p1794
(dp1795
g30
F8.28191489361702
sg31
F-0.3670212765957446
sg32
F0.44680851063829785
sg33
S'yellow'
p1796
sba(icurlovision
Stone
p1797
(dp1798
g30
F-4.930851063829786
sg31
F4.7712765957446805
sg32
F0.4627659574468085
sg33
S'red'
p1799
sba(icurlovision
Stone
p1800
(dp1801
g30
F10.037234042553191
sg31
F4.1010638297872335
sg32
F0.28723404255319146
sg33
S'red'
p1802
sba(icurlovision
Stone
p1803
(dp1804
g30
F9.398936170212766
sg31
F-11.824468085106382
sg32
F0.3829787234042553
sg33
S'yellow'
p1805
sbasba(icurlovision
StoneLayout
p1806
(dp1807
g25
F0.4791666666666667
sg26
(lp1808
(icurlovision
Stone
p1809
(dp1810
g30
F-6.535714285714286
sg31
F-3.3571428571428568
sg32
F0.46428571428571425
sg33
S'yellow'
p1811
sba(icurlovision
Stone
p1812
(dp1813
g30
F-4.892857142857142
sg31
F-3.2857142857142856
sg32
F0.33928571428571425
sg33
S'yellow'
p1814
sba(icurlovision
Stone
p1815
(dp1816
g30
F-5.035714285714286
sg31
F4.821428571428571
sg32
F0.3214285714285714
sg33
S'red'
p1817
sba(icurlovision
Stone
p1818
(dp1819
g30
F10.142857142857142
sg31
F4.142857142857142
sg32
F0.46428571428571425
sg33
S'red'
p1820
sba(icurlovision
Stone
p1821
(dp1822
g30
F3.3571428571428568
sg31
F-0.5714285714285714
sg32
F0.33928571428571425
sg33
S'yellow'
p1823
sbasba(icurlovision
StoneLayout
p1824
(dp1825
g25
F0.4791666666666667
sg26
(lp1826
(icurlovision
Stone
p1827
(dp1828
g30
F-4.928571428571428
sg31
F4.732142857142857
sg32
F0.33928571428571425
sg33
S'red'
p1829
sba(icurlovision
Stone
p1830
(dp1831
g30
F3.2857142857142856
sg31
F-0.5178571428571428
sg32
F0.4464285714285714
sg33
S'yellow'
p1832
sba(icurlovision
Stone
p1833
(dp1834
g30
F-4.821428571428571
sg31
F-3.2321428571428568
sg32
F0.33928571428571425
sg33
S'yellow'
p1835
sba(icurlovision
Stone
p1836
(dp1837
g30
F12.142857142857142
sg31
F-0.7321428571428571
sg32
F0.25
sg33
S'yellow'
p1838
sba(icurlovision
Stone
p1839
(dp1840
g30
F9.892857142857142
sg31
F3.9821428571428568
sg32
F0.4464285714285714
sg33
S'red'
p1841
sba(icurlovision
Stone
p1842
(dp1843
g30
F11.535714285714285
sg31
F-13.160714285714285
sg32
F0.30357142857142855
sg33
S'yellow'
p1844
sbasba(icurlovision
StoneLayout
p1845
(dp1846
g25
F0.4791666666666667
sg26
(lp1847
(icurlovision
Stone
p1848
(dp1849
g30
F3.3
sg31
F-0.5625
sg32
F0.46875
sg33
S'yellow'
p1850
sba(icurlovision
Stone
p1851
(dp1852
g30
F-4.875
sg31
F-3.2624999999999997
sg32
F0.33749999999999997
sg33
S'yellow'
p1853
sba(icurlovision
Stone
p1854
(dp1855
g30
F-4.9875
sg31
F4.7625
sg32
F0.4875
sg33
S'red'
p1856
sba(icurlovision
Stone
p1857
(dp1858
g30
F9.9375
sg31
F4.05
sg32
F0.44999999999999996
sg33
S'red'
p1859
sba(icurlovision
Stone
p1860
(dp1861
g30
F12.15
sg31
F-0.7125
sg32
F0.44999999999999996
sg33
S'yellow'
p1862
sba(icurlovision
Stone
p1863
(dp1864
g30
F-6.5625
sg31
F-3.525
sg32
F0.31875
sg33
S'yellow'
p1865
sba(icurlovision
Stone
p1866
(dp1867
g30
F-0.7125
sg31
F-1.2
sg32
F0.31875
sg33
S'red'
p1868
sba(icurlovision
Stone
p1869
(dp1870
g30
F11.924999999999999
sg31
F-13.8375
sg32
F0.2625
sg33
S'yellow'
p1871
sbasba(icurlovision
StoneLayout
p1872
(dp1873
g25
F0.4791666666666667
sg26
(lp1874
(icurlovision
Stone
p1875
(dp1876
g30
F-6.5
sg31
F-3.307692307692308
sg32
F0.3076923076923077
sg33
S'yellow'
p1877
sba(icurlovision
Stone
p1878
(dp1879
g30
F9.923076923076923
sg31
F3.884615384615385
sg32
F0.44230769230769235
sg33
S'red'
p1880
sba(icurlovision
Stone
p1881
(dp1882
g30
F3.230769230769231
sg31
F-0.5
sg32
F0.3076923076923077
sg33
S'yellow'
p1883
sba(icurlovision
Stone
p1884
(dp1885
g30
F-4.846153846153847
sg31
F4.769230769230769
sg32
F0.46153846153846156
sg33
S'red'
p1886
sba(icurlovision
Stone
p1887
(dp1888
g30
F0.15384615384615385
sg31
F-1.6153846153846154
sg32
F0.34615384615384615
sg33
S'yellow'
p1889
sba(icurlovision
Stone
p1890
(dp1891
g30
F-0.7692307692307693
sg31
F-1.1923076923076923
sg32
F0.2884615384615385
sg33
S'red'
p1892
sba(icurlovision
Stone
p1893
(dp1894
g30
F-4.846153846153847
sg31
F-3.1923076923076925
sg32
F0.3269230769230769
sg33
S'yellow'
p1895
sba(icurlovision
Stone
p1896
(dp1897
g30
F12.076923076923078
sg31
F-0.8461538461538463
sg32
F0.44230769230769235
sg33
S'yellow'
p1898
sba(icurlovision
Stone
p1899
(dp1900
g30
F11.76923076923077
sg31
F-14.192307692307693
sg32
F0.2692307692307693
sg33
S'yellow'
p1901
sbasba(icurlovision
StoneLayout
p1902
(dp1903
g25
F0.4791666666666667
sg26
(lp1904
(icurlovision
Stone
p1905
(dp1906
g30
F-4.767857142857142
sg31
F-3.196428571428571
sg32
F0.3214285714285714
sg33
S'yellow'
p1907
sba(icurlovision
Stone
p1908
(dp1909
g30
F12.017857142857142
sg31
F-0.7321428571428571
sg32
F0.4464285714285714
sg33
S'yellow'
p1910
sba(icurlovision
Stone
p1911
(dp1912
g30
F0.017857142857142856
sg31
F-1.8035714285714284
sg32
F0.33928571428571425
sg33
S'yellow'
p1913
sba(icurlovision
Stone
p1914
(dp1915
g30
F3.267857142857143
sg31
F-0.4821428571428571
sg32
F0.3214285714285714
sg33
S'yellow'
p1916
sba(icurlovision
Stone
p1917
(dp1918
g30
F0.9464285714285714
sg31
F-0.9821428571428571
sg32
F0.4464285714285714
sg33
S'red'
p1919
sba(icurlovision
Stone
p1920
(dp1921
g30
F-2.125
sg31
F-0.6964285714285714
sg32
F0.2857142857142857
sg33
S'red'
p1922
sba(icurlovision
Stone
p1923
(dp1924
g30
F9.803571428571429
sg31
F3.946428571428571
sg32
F0.42857142857142855
sg33
S'red'
p1925
sba(icurlovision
Stone
p1926
(dp1927
g30
F-4.839285714285714
sg31
F4.696428571428571
sg32
F0.3214285714285714
sg33
S'red'
p1928
sbasba(icurlovision
StoneLayout
p1929
(dp1930
g25
F0.4791666666666667
sg26
(lp1931
(icurlovision
Stone
p1932
(dp1933
g30
F-1.0392857142857144
sg31
F-2.517857142857143
sg32
F0.4392857142857143
sg33
S'yellow'
p1934
sba(icurlovision
Stone
p1935
(dp1936
g30
F3.032142857142857
sg31
F-0.48214285714285715
sg32
F0.4392857142857143
sg33
S'yellow'
p1937
sba(icurlovision
Stone
p1938
(dp1939
g30
F0.975
sg31
F-1.6607142857142858
sg32
F0.4392857142857143
sg33
S'red'
p1940
sba(icurlovision
Stone
p1941
(dp1942
g30
F-1.082142857142857
sg31
F2.9892857142857143
sg32
F0.41785714285714287
sg33
S'red'
p1943
sba(icurlovision
Stone
p1944
(dp1945
g30
F0.6535714285714286
sg31
F0.1392857142857143
sg32
F0.4392857142857143
sg33
S'yellow'
p1946
sba(icurlovision
Stone
p1947
(dp1948
g30
F-2.0892857142857144
sg31
F-0.6321428571428571
sg32
F0.36428571428571427
sg33
S'red'
p1949
sba(icurlovision
Stone
p1950
(dp1951
g30
F-4.617857142857143
sg31
F-3.0535714285714284
sg32
F0.33214285714285713
sg33
S'yellow'
p1952
sbasbasg3
I3
sg107
I1
sbasb.