(icurlovision
MatchResult
p0
(dp1
S'yel_score'
p2
I7
sS'red_score'
p3
I3
sS'name'
p4
S"VideoLibrary/PyeongChang.Olympics.2018.curling.women's.round-robin.USA.v.Canada.1080p.NBC.WEB-DL-FINFUNGUS.mp4"
p5
sS'end_results'
p6
(lp7
(icurlovision
EndResult
p8
(dp9
g2
I3
sS'stones_left'
p10
(lp11
(I7
I7
tp12
a(I6
I6
tp13
a(I2
I2
tp14
asS'end_num'
p15
I1
sS'stone_layouts'
p16
(lp17
(icurlovision
StoneLayout
p18
(dp19
S'stone_radius'
p20
F0.4791666666666667
sS'stones'
p21
(lp22
(icurlovision
Stone
p23
(dp24
S'y'
p25
F7.811320754716982
sS'x'
p26
F-0.19811320754716982
sS'r'
p27
F0.4528301886792453
sS'color'
p28
S'yellow'
p29
sba(icurlovision
Stone
p30
(dp31
g25
F-0.25471698113207547
sg26
F4.443396226415095
sg27
F0.3537735849056604
sg28
S'red'
p32
sbasba(icurlovision
StoneLayout
p33
(dp34
g20
F0.4791666666666667
sg21
(lp35
(icurlovision
Stone
p36
(dp37
g25
F7.75
sg26
F-0.19444444444444442
sg27
F0.3333333333333333
sg28
S'yellow'
p38
sbasba(icurlovision
StoneLayout
p39
(dp40
g20
F0.4791666666666667
sg21
(lp41
(icurlovision
Stone
p42
(dp43
g25
F1.760204081632653
sg26
F-1.1785714285714286
sg27
F0.45918367346938777
sg28
S'red'
p44
sba(icurlovision
Stone
p45
(dp46
g25
F8.525510204081632
sg26
F-0.1377551020408163
sg27
F0.44387755102040816
sg28
S'red'
p47
sba(icurlovision
Stone
p48
(dp49
g25
F1.3928571428571428
sg26
F-0.04591836734693877
sg27
F0.3214285714285714
sg28
S'yellow'
p50
sba(icurlovision
Stone
p51
(dp52
g25
F-3.38265306122449
sg26
F6.076530612244897
sg27
F0.4744897959183673
sg28
S'red'
p53
sbasbasg3
I0
sS'red_hammer'
p54
I-1
sba(icurlovision
EndResult
p55
(dp56
g2
I3
sg10
(lp57
(I5
I5
tp58
a(I4
I4
tp59
a(I2
I2
tp60
a(I1
I0
tp61
asg15
I2
sg16
(lp62
(icurlovision
StoneLayout
p63
(dp64
g20
F0.4791666666666667
sg21
(lp65
(icurlovision
Stone
p66
(dp67
g25
F2.1294642857142856
sg26
F2.611607142857143
sg27
F0.45535714285714285
sg28
S'red'
p68
sba(icurlovision
Stone
p69
(dp70
g25
F-0.84375
sg26
F0.09375
sg27
F0.3214285714285714
sg28
S'yellow'
p71
sbasba(icurlovision
StoneLayout
p72
(dp73
g20
F0.4791666666666667
sg21
(lp74
(icurlovision
Stone
p75
(dp76
g25
F2.7368421052631575
sg26
F1.9736842105263157
sg27
F0.4473684210526315
sg28
S'yellow'
p77
sba(icurlovision
Stone
p78
(dp79
g25
F0.05263157894736842
sg26
F0.0
sg27
F0.3289473684210526
sg28
S'yellow'
p80
sba(icurlovision
Stone
p81
(dp82
g25
F2.394736842105263
sg26
F-0.10526315789473684
sg27
F0.3157894736842105
sg28
S'red'
p83
sba(icurlovision
Stone
p84
(dp85
g25
F-2.4473684210526314
sg26
F0.42105263157894735
sg27
F0.4605263157894737
sg28
S'yellow'
p86
sbasba(icurlovision
StoneLayout
p87
(dp88
g20
F0.4791666666666667
sg21
(lp89
(icurlovision
Stone
p90
(dp91
g25
F2.8125
sg26
F2.008928571428571
sg27
F0.46875
sg28
S'yellow'
p92
sba(icurlovision
Stone
p93
(dp94
g25
F0.40178571428571425
sg26
F-1.7142857142857142
sg27
F0.33482142857142855
sg28
S'yellow'
p95
sba(icurlovision
Stone
p96
(dp97
g25
F1.419642857142857
sg26
F-0.10714285714285714
sg27
F0.33482142857142855
sg28
S'red'
p98
sba(icurlovision
Stone
p99
(dp100
g25
F-1.3125
sg26
F0.26785714285714285
sg27
F0.3482142857142857
sg28
S'yellow'
p101
sba(icurlovision
Stone
p102
(dp103
g25
F-2.758928571428571
sg26
F0.40178571428571425
sg27
F0.46875
sg28
S'yellow'
p104
sbasba(icurlovision
StoneLayout
p105
(dp106
g20
F0.4791666666666667
sg21
(lp107
(icurlovision
Stone
p108
(dp109
g25
F-1.9267241379310345
sg26
F0.5043103448275862
sg27
F0.46551724137931033
sg28
S'yellow'
p110
sba(icurlovision
Stone
p111
(dp112
g25
F0.40086206896551724
sg26
F-1.6939655172413792
sg27
F0.4525862068965517
sg28
S'yellow'
p113
sba(icurlovision
Stone
p114
(dp115
g25
F-5.030172413793103
sg26
F-6.995689655172414
sg27
F0.5043103448275862
sg28
S'red'
p116
sba(icurlovision
Stone
p117
(dp118
g25
F-1.5387931034482758
sg26
F4.538793103448276
sg27
F0.33620689655172414
sg28
S'yellow'
p119
sbasbasg3
I1
sg54
I1
sba(icurlovision
EndResult
p120
(dp121
g2
I4
sg10
(lp122
(I7
I7
tp123
a(I5
I6
tp124
a(I5
I5
tp125
a(I4
I5
tp126
a(I3
I4
tp127
a(I2
I2
tp128
a(I1
I2
tp129
a(I0
I1
tp130
asg15
I3
sg16
(lp131
(icurlovision
StoneLayout
p132
(dp133
g20
F0.4791666666666667
sg21
(lp134
(icurlovision
Stone
p135
(dp136
g25
F-2.34375
sg26
F-3.171875
sg27
F0.328125
sg28
S'yellow'
p137
sba(icurlovision
Stone
p138
(dp139
g25
F9.6875
sg26
F0.671875
sg27
F0.296875
sg28
S'red'
p140
sbasba(icurlovision
StoneLayout
p141
(dp142
g20
F0.4791666666666667
sg21
(lp143
(icurlovision
Stone
p144
(dp145
g25
F-2.764705882352941
sg26
F-3.2941176470588234
sg27
F0.3382352941176471
sg28
S'yellow'
p146
sba(icurlovision
Stone
p147
(dp148
g25
F-3.8235294117647056
sg26
F-1.2647058823529411
sg27
F0.3235294117647059
sg28
S'yellow'
p149
sba(icurlovision
Stone
p150
(dp151
g25
F9.558823529411764
sg26
F0.6176470588235294
sg27
F0.4411764705882353
sg28
S'red'
p152
sba(icurlovision
Stone
p153
(dp154
g25
F-0.5588235294117647
sg26
F2.235294117647059
sg27
F0.3235294117647059
sg28
S'red'
p155
sba(icurlovision
Stone
p156
(dp157
g25
F1.6176470588235294
sg26
F-0.11764705882352941
sg27
F0.3529411764705882
sg28
S'red'
p158
sbasba(icurlovision
StoneLayout
p159
(dp160
g20
F0.4791666666666667
sg21
(lp161
(icurlovision
Stone
p162
(dp163
g25
F2.5732758620689653
sg26
F-6.219827586206897
sg27
F0.3232758620689655
sg28
S'yellow'
p164
sba(icurlovision
Stone
p165
(dp166
g25
F-0.5818965517241379
sg26
F2.314655172413793
sg27
F0.3620689655172414
sg28
S'red'
p167
sba(icurlovision
Stone
p168
(dp169
g25
F1.6163793103448276
sg26
F-0.14224137931034483
sg27
F0.4396551724137931
sg28
S'red'
p170
sba(icurlovision
Stone
p171
(dp172
g25
F1.2801724137931034
sg26
F6.788793103448276
sg27
F0.46551724137931033
sg28
S'red'
p173
sba(icurlovision
Stone
p174
(dp175
g25
F-2.831896551724138
sg26
F-3.3491379310344827
sg27
F0.34913793103448276
sg28
S'yellow'
p176
sbasba(icurlovision
StoneLayout
p177
(dp178
g20
F0.4791666666666667
sg21
(lp179
(icurlovision
Stone
p180
(dp181
g25
F2.569444444444444
sg26
F-6.236111111111111
sg27
F0.4583333333333333
sg28
S'yellow'
p182
sba(icurlovision
Stone
p183
(dp184
g25
F1.4027777777777777
sg26
F-0.06944444444444445
sg27
F0.3472222222222222
sg28
S'red'
p185
sba(icurlovision
Stone
p186
(dp187
g25
F2.5416666666666665
sg26
F-0.125
sg27
F0.4583333333333333
sg28
S'red'
p188
sba(icurlovision
Stone
p189
(dp190
g25
F-0.5694444444444444
sg26
F2.2916666666666665
sg27
F0.3472222222222222
sg28
S'red'
p191
sba(icurlovision
Stone
p192
(dp193
g25
F-2.819444444444444
sg26
F-3.347222222222222
sg27
F0.3333333333333333
sg28
S'yellow'
p194
sba(icurlovision
Stone
p195
(dp196
g25
F1.3194444444444444
sg26
F6.791666666666666
sg27
F0.3472222222222222
sg28
S'red'
p197
sbasba(icurlovision
StoneLayout
p198
(dp199
g20
F0.4791666666666667
sg21
(lp200
(icurlovision
Stone
p201
(dp202
g25
F2.589622641509434
sg26
F-6.240566037735849
sg27
F0.4811320754716981
sg28
S'yellow'
p203
sba(icurlovision
Stone
p204
(dp205
g25
F-0.6084905660377359
sg26
F2.3349056603773586
sg27
F0.3537735849056604
sg28
S'red'
p206
sba(icurlovision
Stone
p207
(dp208
g25
F-2.8443396226415096
sg26
F-3.3537735849056602
sg27
F0.339622641509434
sg28
S'yellow'
p209
sba(icurlovision
Stone
p210
(dp211
g25
F3.240566037735849
sg26
F-2.44811320754717
sg27
F0.4669811320754717
sg28
S'red'
p212
sba(icurlovision
Stone
p213
(dp214
g25
F2.2783018867924527
sg26
F0.15566037735849056
sg27
F0.4528301886792453
sg28
S'red'
p215
sba(icurlovision
Stone
p216
(dp217
g25
F1.2877358490566038
sg26
F6.834905660377359
sg27
F0.32547169811320753
sg28
S'red'
p218
sbasba(icurlovision
StoneLayout
p219
(dp220
g20
F0.4791666666666667
sg21
(lp221
(icurlovision
Stone
p222
(dp223
g25
F-1.8888888888888888
sg26
F-7.166666666666666
sg27
F0.3472222222222222
sg28
S'red'
p224
sba(icurlovision
Stone
p225
(dp226
g25
F-0.611111111111111
sg26
F2.361111111111111
sg27
F0.3472222222222222
sg28
S'red'
p227
sba(icurlovision
Stone
p228
(dp229
g25
F2.2777777777777777
sg26
F1.222222222222222
sg27
F0.4722222222222222
sg28
S'yellow'
p230
sba(icurlovision
Stone
p231
(dp232
g25
F1.2777777777777777
sg26
F6.944444444444444
sg27
F0.4722222222222222
sg28
S'red'
p233
sba(icurlovision
Stone
p234
(dp235
g25
F2.611111111111111
sg26
F-6.333333333333333
sg27
F0.4722222222222222
sg28
S'yellow'
p236
sba(icurlovision
Stone
p237
(dp238
g25
F-5.388888888888888
sg26
F-0.1388888888888889
sg27
F0.3611111111111111
sg28
S'red'
p239
sbasba(icurlovision
StoneLayout
p240
(dp241
g20
F0.4791666666666667
sg21
(lp242
(icurlovision
Stone
p243
(dp244
g25
F2.571428571428571
sg26
F-6.267857142857142
sg27
F0.46875
sg28
S'yellow'
p245
sba(icurlovision
Stone
p246
(dp247
g25
F-3.080357142857143
sg26
F-1.7410714285714284
sg27
F0.46875
sg28
S'red'
p248
sba(icurlovision
Stone
p249
(dp250
g25
F1.2857142857142856
sg26
F6.803571428571428
sg27
F0.46875
sg28
S'red'
p251
sba(icurlovision
Stone
p252
(dp253
g25
F-0.5892857142857143
sg26
F2.3035714285714284
sg27
F0.45535714285714285
sg28
S'red'
p254
sbasba(icurlovision
StoneLayout
p255
(dp256
g20
F0.4791666666666667
sg21
(lp257
(icurlovision
Stone
p258
(dp259
g25
F2.4910714285714284
sg26
F-5.946428571428571
sg27
F0.45535714285714285
sg28
S'yellow'
p260
sba(icurlovision
Stone
p261
(dp262
g25
F-3.1875
sg26
F-2.4375
sg27
F0.33482142857142855
sg28
S'red'
p263
sba(icurlovision
Stone
p264
(dp265
g25
F1.2589285714285714
sg26
F6.616071428571428
sg27
F0.45535714285714285
sg28
S'red'
p266
sba(icurlovision
Stone
p267
(dp268
g25
F-0.8839285714285714
sg26
F3.8571428571428568
sg27
F0.4419642857142857
sg28
S'red'
p269
sbasbasg3
I1
sg54
I0
sba(icurlovision
EndResult
p270
(dp271
g2
I4
sg10
(lp272
(I7
I6
tp273
a(I5
I5
tp274
a(I5
I4
tp275
a(I4
I4
tp276
a(I2
I2
tp277
a(I2
I1
tp278
a(I1
I1
tp279
asg15
I4
sg16
(lp280
(icurlovision
StoneLayout
p281
(dp282
g20
F0.4791666666666667
sg21
(lp283
(icurlovision
Stone
p284
(dp285
g25
F8.853260869565217
sg26
F-3.5543478260869565
sg27
F0.27717391304347827
sg28
S'red'
p286
sba(icurlovision
Stone
p287
(dp288
g25
F3.7989130434782608
sg26
F0.2608695652173913
sg27
F0.30978260869565216
sg28
S'yellow'
p289
sba(icurlovision
Stone
p290
(dp291
g25
F0.6684782608695652
sg26
F0.2934782608695652
sg27
F0.32608695652173914
sg28
S'yellow'
p292
sbasba(icurlovision
StoneLayout
p293
(dp294
g20
F0.4791666666666667
sg21
(lp295
(icurlovision
Stone
p296
(dp297
g25
F9.051136363636363
sg26
F-3.664772727272727
sg27
F0.4602272727272727
sg28
S'red'
p298
sba(icurlovision
Stone
p299
(dp300
g25
F1.3125
sg26
F-3.5624999999999996
sg27
F0.3579545454545454
sg28
S'red'
p301
sba(icurlovision
Stone
p302
(dp303
g25
F3.8693181818181817
sg26
F0.28977272727272724
sg27
F0.4602272727272727
sg28
S'yellow'
p304
sba(icurlovision
Stone
p305
(dp306
g25
F0.6988636363636364
sg26
F0.32386363636363635
sg27
F0.3409090909090909
sg28
S'yellow'
p307
sba(icurlovision
Stone
p308
(dp309
g25
F5.778409090909091
sg26
F-15.11931818181818
sg27
F0.4431818181818181
sg28
S'red'
p310
sba(icurlovision
Stone
p311
(dp312
g25
F-4.619318181818182
sg26
F2.4715909090909087
sg27
F0.3579545454545454
sg28
S'yellow'
p313
sbasba(icurlovision
StoneLayout
p314
(dp315
g20
F0.4791666666666667
sg21
(lp316
(icurlovision
Stone
p317
(dp318
g25
F0.6201923076923077
sg26
F0.3028846153846154
sg27
F0.46153846153846156
sg28
S'yellow'
p319
sba(icurlovision
Stone
p320
(dp321
g25
F3.793269230769231
sg26
F0.27403846153846156
sg27
F0.34615384615384615
sg28
S'yellow'
p322
sba(icurlovision
Stone
p323
(dp324
g25
F1.2548076923076923
sg26
F-3.5048076923076925
sg27
F0.3605769230769231
sg28
S'red'
p325
sba(icurlovision
Stone
p326
(dp327
g25
F-4.6298076923076925
sg26
F2.4086538461538463
sg27
F0.34615384615384615
sg28
S'yellow'
p328
sba(icurlovision
Stone
p329
(dp330
g25
F-5.235576923076923
sg26
F6.216346153846154
sg27
F0.2884615384615385
sg28
S'yellow'
p331
sbasba(icurlovision
StoneLayout
p332
(dp333
g20
F0.4791666666666667
sg21
(lp334
(icurlovision
Stone
p335
(dp336
g25
F3.8915094339622645
sg26
F2.0377358490566038
sg27
F0.2971698113207547
sg28
S'red'
p337
sba(icurlovision
Stone
p338
(dp339
g25
F0.6650943396226415
sg26
F0.339622641509434
sg27
F0.4528301886792453
sg28
S'yellow'
p340
sba(icurlovision
Stone
p341
(dp342
g25
F1.259433962264151
sg26
F-3.4811320754716983
sg27
F0.4528301886792453
sg28
S'red'
p343
sba(icurlovision
Stone
p344
(dp345
g25
F-4.570754716981132
sg26
F2.4339622641509435
sg27
F0.339622641509434
sg28
S'yellow'
p346
sbasba(icurlovision
StoneLayout
p347
(dp348
g20
F0.4791666666666667
sg21
(lp349
(icurlovision
Stone
p350
(dp351
g25
F2.7333333333333334
sg26
F0.43333333333333335
sg27
F0.4666666666666667
sg28
S'red'
p352
sba(icurlovision
Stone
p353
(dp354
g25
F-0.7333333333333333
sg26
F1.1666666666666667
sg27
F0.4666666666666667
sg28
S'yellow'
p355
sba(icurlovision
Stone
p356
(dp357
g25
F0.5
sg26
F0.43333333333333335
sg27
F0.3333333333333333
sg28
S'yellow'
p358
sba(icurlovision
Stone
p359
(dp360
g25
F-6.733333333333333
sg26
F-3.8
sg27
F0.48333333333333334
sg28
S'yellow'
p361
sba(icurlovision
Stone
p362
(dp363
g25
F-1.3666666666666667
sg26
F-6.0
sg27
F0.26666666666666666
sg28
S'red'
p364
sba(icurlovision
Stone
p365
(dp366
g25
F-4.633333333333333
sg26
F2.433333333333333
sg27
F0.35
sg28
S'yellow'
p367
sba(icurlovision
Stone
p368
(dp369
g25
F5.8
sg26
F-15.266666666666666
sg27
F0.35
sg28
S'red'
p370
sba(icurlovision
Stone
p371
(dp372
g25
F2.7
sg26
F-4.3
sg27
F0.36666666666666664
sg28
S'yellow'
p373
sbasba(icurlovision
StoneLayout
p374
(dp375
g20
F0.4791666666666667
sg21
(lp376
(icurlovision
Stone
p377
(dp378
g25
F-0.7211538461538461
sg26
F1.0961538461538463
sg27
F0.44711538461538464
sg28
S'yellow'
p379
sba(icurlovision
Stone
p380
(dp381
g25
F0.4326923076923077
sg26
F0.40384615384615385
sg27
F0.3317307692307693
sg28
S'yellow'
p382
sba(icurlovision
Stone
p383
(dp384
g25
F-1.3557692307692308
sg26
F-5.798076923076923
sg27
F0.44711538461538464
sg28
S'red'
p385
sba(icurlovision
Stone
p386
(dp387
g25
F-4.528846153846154
sg26
F2.3653846153846154
sg27
F0.34615384615384615
sg28
S'yellow'
p388
sba(icurlovision
Stone
p389
(dp390
g25
F2.5673076923076925
sg26
F-4.1826923076923075
sg27
F0.31730769230769235
sg28
S'yellow'
p391
sbasba(icurlovision
StoneLayout
p392
(dp393
g20
F0.4791666666666667
sg21
(lp394
(icurlovision
Stone
p395
(dp396
g25
F-1.9649999999999999
sg26
F1.9649999999999999
sg27
F0.46499999999999997
sg28
S'yellow'
p397
sba(icurlovision
Stone
p398
(dp399
g25
F-6.675
sg26
F-3.7649999999999997
sg27
F0.32999999999999996
sg28
S'yellow'
p400
sba(icurlovision
Stone
p401
(dp402
g25
F1.005
sg26
F-0.615
sg27
F0.32999999999999996
sg28
S'red'
p403
sba(icurlovision
Stone
p404
(dp405
g25
F-1.305
sg26
F-5.865
sg27
F0.46499999999999997
sg28
S'red'
p406
sba(icurlovision
Stone
p407
(dp408
g25
F-4.545
sg26
F2.355
sg27
F0.36
sg28
S'yellow'
p409
sba(icurlovision
Stone
p410
(dp411
g25
F-0.315
sg26
F0.195
sg27
F0.32999999999999996
sg28
S'yellow'
p412
sba(icurlovision
Stone
p413
(dp414
g25
F2.655
sg26
F-4.245
sg27
F0.32999999999999996
sg28
S'yellow'
p415
sbasbasg3
I2
sg54
I1
sba(icurlovision
EndResult
p416
(dp417
g2
I7
sg10
(lp418
(I7
I7
tp419
a(I5
I6
tp420
a(I5
I5
tp421
a(I4
I5
tp422
a(I1
I2
tp423
a(I0
I1
tp424
asg15
I5
sg16
(lp425
(icurlovision
StoneLayout
p426
(dp427
g20
F0.4791666666666667
sg21
(lp428
(icurlovision
Stone
p429
(dp430
g25
F8.983695652173912
sg26
F0.9293478260869565
sg27
F0.45652173913043476
sg28
S'red'
p431
sbasba(icurlovision
StoneLayout
p432
(dp433
g20
F0.4791666666666667
sg21
(lp434
(icurlovision
Stone
p435
(dp436
g25
F-1.0714285714285714
sg26
F-3.7193877551020407
sg27
F0.45918367346938777
sg28
S'yellow'
p437
sba(icurlovision
Stone
p438
(dp439
g25
F8.693877551020408
sg26
F0.9030612244897959
sg27
F0.29081632653061223
sg28
S'red'
p440
sba(icurlovision
Stone
p441
(dp442
g25
F2.846938775510204
sg26
F0.10714285714285714
sg27
F0.336734693877551
sg28
S'yellow'
p443
sba(icurlovision
Stone
p444
(dp445
g25
F9.489795918367347
sg26
F0.413265306122449
sg27
F0.29081632653061223
sg28
S'red'
p446
sbasba(icurlovision
StoneLayout
p447
(dp448
g20
F0.4791666666666667
sg21
(lp449
(icurlovision
Stone
p450
(dp451
g25
F2.838235294117647
sg26
F0.10294117647058823
sg27
F0.4411764705882353
sg28
S'yellow'
p452
sba(icurlovision
Stone
p453
(dp454
g25
F-1.0735294117647058
sg26
F-3.75
sg27
F0.3235294117647059
sg28
S'yellow'
p455
sba(icurlovision
Stone
p456
(dp457
g25
F0.3382352941176471
sg26
F2.161764705882353
sg27
F0.45588235294117646
sg28
S'red'
p458
sba(icurlovision
Stone
p459
(dp460
g25
F3.2205882352941178
sg26
F2.2794117647058822
sg27
F0.3235294117647059
sg28
S'yellow'
p461
sba(icurlovision
Stone
p462
(dp463
g25
F8.632352941176471
sg26
F0.8970588235294118
sg27
F0.4411764705882353
sg28
S'red'
p464
sba(icurlovision
Stone
p465
(dp466
g25
F9.455882352941176
sg26
F0.39705882352941174
sg27
F0.3235294117647059
sg28
S'red'
p467
sbasba(icurlovision
StoneLayout
p468
(dp469
g20
F0.4791666666666667
sg21
(lp470
(icurlovision
Stone
p471
(dp472
g25
F2.885869565217391
sg26
F0.09782608695652173
sg27
F0.32608695652173914
sg28
S'yellow'
p473
sba(icurlovision
Stone
p474
(dp475
g25
F-1.0923913043478262
sg26
F-3.8478260869565215
sg27
F0.32608695652173914
sg28
S'yellow'
p476
sba(icurlovision
Stone
p477
(dp478
g25
F3.7010869565217392
sg26
F3.1304347826086953
sg27
F0.44021739130434784
sg28
S'red'
p479
sba(icurlovision
Stone
p480
(dp481
g25
F9.63586956521739
sg26
F0.3913043478260869
sg27
F0.2934782608695652
sg28
S'red'
p482
sba(icurlovision
Stone
p483
(dp484
g25
F8.853260869565217
sg26
F0.8804347826086957
sg27
F0.30978260869565216
sg28
S'red'
p485
sba(icurlovision
Stone
p486
(dp487
g25
F-5.494565217391304
sg26
F0.06521739130434782
sg27
F0.32608695652173914
sg28
S'yellow'
p488
sbasba(icurlovision
StoneLayout
p489
(dp490
g20
F0.4791666666666667
sg21
(lp491
(icurlovision
Stone
p492
(dp493
g25
F2.8043478260869565
sg26
F0.11413043478260869
sg27
F0.45652173913043476
sg28
S'yellow'
p494
sba(icurlovision
Stone
p495
(dp496
g25
F2.282608695652174
sg26
F1.2228260869565217
sg27
F0.44021739130434784
sg28
S'yellow'
p497
sba(icurlovision
Stone
p498
(dp499
g25
F-1.076086956521739
sg26
F-3.733695652173913
sg27
F0.32608695652173914
sg28
S'yellow'
p500
sba(icurlovision
Stone
p501
(dp502
g25
F9.42391304347826
sg26
F0.4076086956521739
sg27
F0.44021739130434784
sg28
S'red'
p503
sba(icurlovision
Stone
p504
(dp505
g25
F7.108695652173913
sg26
F3.2119565217391304
sg27
F0.27717391304347827
sg28
S'red'
p506
sba(icurlovision
Stone
p507
(dp508
g25
F4.5
sg26
F3.016304347826087
sg27
F0.44021739130434784
sg28
S'yellow'
p509
sbasba(icurlovision
StoneLayout
p510
(dp511
g20
F0.4791666666666667
sg21
(lp512
(icurlovision
Stone
p513
(dp514
g25
F2.295
sg26
F1.2449999999999999
sg27
F0.435
sg28
S'yellow'
p515
sba(icurlovision
Stone
p516
(dp517
g25
F2.835
sg26
F0.105
sg27
F0.44999999999999996
sg28
S'yellow'
p518
sba(icurlovision
Stone
p519
(dp520
g25
F-1.035
sg26
F-3.7649999999999997
sg27
F0.32999999999999996
sg28
S'yellow'
p521
sba(icurlovision
Stone
p522
(dp523
g25
F7.154999999999999
sg26
F3.225
sg27
F0.435
sg28
S'red'
p524
sba(icurlovision
Stone
p525
(dp526
g25
F-2.5949999999999998
sg26
F-0.015
sg27
F0.46499999999999997
sg28
S'red'
p527
sba(icurlovision
Stone
p528
(dp529
g25
F4.515
sg26
F3.045
sg27
F0.32999999999999996
sg28
S'yellow'
p530
sba(icurlovision
Stone
p531
(dp532
g25
F9.465
sg26
F0.375
sg27
F0.44999999999999996
sg28
S'red'
p533
sbasbasg3
I2
sg54
I0
sba(icurlovision
EndResult
p534
(dp535
g2
I7
sg10
(lp536
(I8
I7
tp537
a(I4
I4
tp538
a(I4
I3
tp539
a(I2
I1
tp540
asg15
I6
sg16
(lp541
(icurlovision
StoneLayout
p542
(dp543
g20
F0.4791666666666667
sg21
(lp544
(icurlovision
Stone
p545
(dp546
g25
F-2.1206896551724137
sg26
F0.9310344827586207
sg27
F0.3232758620689655
sg28
S'yellow'
p547
sbasba(icurlovision
StoneLayout
p548
(dp549
g20
F0.4791666666666667
sg21
(lp550
(icurlovision
Stone
p551
(dp552
g25
F3.9305555555555554
sg26
F0.9305555555555555
sg27
F0.3333333333333333
sg28
S'yellow'
p553
sba(icurlovision
Stone
p554
(dp555
g25
F2.319444444444444
sg26
F-3.2361111111111107
sg27
F0.4305555555555555
sg28
S'red'
p556
sba(icurlovision
Stone
p557
(dp558
g25
F-5.402777777777778
sg26
F0.40277777777777773
sg27
F0.3055555555555555
sg28
S'yellow'
p559
sbasba(icurlovision
StoneLayout
p560
(dp561
g20
F0.4791666666666667
sg21
(lp562
(icurlovision
Stone
p563
(dp564
g25
F3.980769230769231
sg26
F0.951923076923077
sg27
F0.31730769230769235
sg28
S'yellow'
p565
sba(icurlovision
Stone
p566
(dp567
g25
F-4.673076923076923
sg26
F-0.08653846153846154
sg27
F0.3317307692307693
sg28
S'red'
p568
sba(icurlovision
Stone
p569
(dp570
g25
F-5.278846153846154
sg26
F-3.230769230769231
sg27
F0.44711538461538464
sg28
S'red'
p571
sba(icurlovision
Stone
p572
(dp573
g25
F3.2596153846153846
sg26
F-3.375
sg27
F0.31730769230769235
sg28
S'yellow'
p574
sba(icurlovision
Stone
p575
(dp576
g25
F2.7980769230769234
sg26
F-1.0673076923076923
sg27
F0.2884615384615385
sg28
S'red'
p577
sbasba(icurlovision
StoneLayout
p578
(dp579
g20
F0.4791666666666667
sg21
(lp580
(icurlovision
Stone
p581
(dp582
g25
F-1.3235294117647058
sg26
F6.88235294117647
sg27
F0.47058823529411764
sg28
S'yellow'
p583
sba(icurlovision
Stone
p584
(dp585
g25
F3.1470588235294117
sg26
F-1.6470588235294117
sg27
F0.3382352941176471
sg28
S'yellow'
p586
sba(icurlovision
Stone
p587
(dp588
g25
F-4.147058823529412
sg26
F0.7647058823529411
sg27
F0.3382352941176471
sg28
S'yellow'
p589
sba(icurlovision
Stone
p590
(dp591
g25
F2.6470588235294117
sg26
F-4.117647058823529
sg27
F0.3676470588235294
sg28
S'yellow'
p592
sba(icurlovision
Stone
p593
(dp594
g25
F-6.852941176470588
sg26
F1.0
sg27
F0.3382352941176471
sg28
S'yellow'
p595
sba(icurlovision
Stone
p596
(dp597
g25
F-6.794117647058823
sg26
F-1.088235294117647
sg27
F0.45588235294117646
sg28
S'red'
p598
sbasbasg3
I3
sg54
I1
sba(icurlovision
EndResult
p599
(dp600
g2
I7
sg10
(lp601
(I6
I6
tp602
a(I5
I6
tp603
a(I2
I2
tp604
a(I1
I2
tp605
asg15
I7
sg16
(lp606
(icurlovision
StoneLayout
p607
(dp608
g20
F0.4791666666666667
sg21
(lp609
(icurlovision
Stone
p610
(dp611
g25
F2.0380434782608696
sg26
F-5.005434782608695
sg27
F0.32608695652173914
sg28
S'yellow'
p612
sba(icurlovision
Stone
p613
(dp614
g25
F11.070652173913043
sg26
F0.7010869565217391
sg27
F0.45652173913043476
sg28
S'red'
p615
sba(icurlovision
Stone
p616
(dp617
g25
F2.233695652173913
sg26
F3.733695652173913
sg27
F0.2934782608695652
sg28
S'yellow'
p618
sbasba(icurlovision
StoneLayout
p619
(dp620
g20
F0.4791666666666667
sg21
(lp621
sba(icurlovision
StoneLayout
p622
(dp623
g20
F0.4791666666666667
sg21
(lp624
(icurlovision
Stone
p625
(dp626
g25
F6.230769230769231
sg26
F0.028846153846153848
sg27
F0.34615384615384615
sg28
S'yellow'
p627
sba(icurlovision
Stone
p628
(dp629
g25
F2.25
sg26
F3.75
sg27
F0.34615384615384615
sg28
S'yellow'
p630
sba(icurlovision
Stone
p631
(dp632
g25
F2.076923076923077
sg26
F-5.048076923076923
sg27
F0.44711538461538464
sg28
S'yellow'
p633
sba(icurlovision
Stone
p634
(dp635
g25
F-4.673076923076923
sg26
F-4.240384615384616
sg27
F0.34615384615384615
sg28
S'yellow'
p636
sbasba(icurlovision
StoneLayout
p637
(dp638
g20
F0.4791666666666667
sg21
(lp639
(icurlovision
Stone
p640
(dp641
g25
F-3.0340909090909087
sg26
F-0.4431818181818181
sg27
F0.3579545454545454
sg28
S'red'
p642
sba(icurlovision
Stone
p643
(dp644
g25
F-6.238636363636363
sg26
F-6.477272727272727
sg27
F0.3409090909090909
sg28
S'yellow'
p645
sba(icurlovision
Stone
p646
(dp647
g25
F6.136363636363636
sg26
F-0.03409090909090909
sg27
F0.4431818181818181
sg28
S'yellow'
p648
sba(icurlovision
Stone
p649
(dp650
g25
F2.0113636363636362
sg26
F-4.977272727272727
sg27
F0.30681818181818177
sg28
S'yellow'
p651
sba(icurlovision
Stone
p652
(dp653
g25
F2.1818181818181817
sg26
F3.6818181818181817
sg27
F0.28977272727272724
sg28
S'yellow'
p654
sba(icurlovision
Stone
p655
(dp656
g25
F9.238636363636363
sg26
F-7.670454545454545
sg27
F0.30681818181818177
sg28
S'yellow'
p657
sbasbasg3
I3
sg54
I0
sbasb.