(icurlovision
MatchResult
p0
(dp1
S'yel_score'
p2
I4
sS'red_score'
p3
I8
sS'name'
p4
S"VideoLibrary/PyeongChang.Olympics.2018.curling.men's.round-robin.Sweden.v.USA.1080p.NBC.WEB-DL-FINFUNGUS.mp4"
p5
sS'end_results'
p6
(lp7
(icurlovision
EndResult
p8
(dp9
g2
I0
sS'stones_left'
p10
(lp11
(I8
I7
tp12
a(I7
I7
tp13
a(I7
I6
tp14
a(I6
I6
tp15
a(I6
I5
tp16
a(I5
I4
tp17
a(I4
I4
tp18
a(I4
I3
tp19
a(I3
I3
tp20
a(I3
I2
tp21
a(I2
I2
tp22
a(I2
I1
tp23
a(I1
I1
tp24
a(I1
I0
tp25
asS'end_num'
p26
I1
sS'stone_layouts'
p27
(lp28
(icurlovision
StoneLayout
p29
(dp30
S'stone_radius'
p31
F0.4791666666666667
sS'stones'
p32
(lp33
(icurlovision
Stone
p34
(dp35
S'y'
p36
F13.144736842105262
sS'x'
p37
F0.3157894736842105
sS'r'
p38
F0.43421052631578944
sS'color'
p39
S'yellow'
p40
sba(icurlovision
Stone
p41
(dp42
g36
F7.302631578947368
sg37
F5.605263157894736
sg38
F0.513157894736842
sg39
S'red'
p43
sbasba(icurlovision
StoneLayout
p44
(dp45
g31
F0.4791666666666667
sg32
(lp46
(icurlovision
Stone
p47
(dp48
g36
F13.32236842105263
sg37
F0.29605263157894735
sg38
F0.41447368421052627
sg39
S'yellow'
p49
sba(icurlovision
Stone
p50
(dp51
g36
F8.822368421052632
sg37
F15.80921052631579
sg38
F0.43421052631578944
sg39
S'red'
p52
sba(icurlovision
Stone
p53
(dp54
g36
F-4.519736842105263
sg37
F-5.940789473684211
sg38
F0.375
sg39
S'red'
p55
sbasba(icurlovision
StoneLayout
p56
(dp57
g31
F0.4791666666666667
sg32
(lp58
(icurlovision
Stone
p59
(dp60
g36
F8.91891891891892
sg37
F15.891891891891893
sg38
F0.44594594594594594
sg39
S'red'
p61
sba(icurlovision
Stone
p62
(dp63
g36
F13.41891891891892
sg37
F0.32432432432432434
sg38
F0.44594594594594594
sg39
S'yellow'
p64
sba(icurlovision
Stone
p65
(dp66
g36
F2.0675675675675675
sg37
F0.04054054054054054
sg38
F0.3648648648648649
sg39
S'yellow'
p67
sba(icurlovision
Stone
p68
(dp69
g36
F9.202702702702704
sg37
F19.33783783783784
sg38
F0.40540540540540543
sg39
S'yellow'
p70
sba(icurlovision
Stone
p71
(dp72
g36
F-6.081081081081082
sg37
F4.824324324324325
sg38
F0.3648648648648649
sg39
S'red'
p73
sbasba(icurlovision
StoneLayout
p74
(dp75
g31
F0.4791666666666667
sg32
(lp76
(icurlovision
Stone
p77
(dp78
g36
F1.8109756097560974
sg37
F0.1646341463414634
sg38
F0.3292682926829268
sg39
S'yellow'
p79
sba(icurlovision
Stone
p80
(dp81
g36
F13.042682926829267
sg37
F0.31097560975609756
sg38
F0.42073170731707316
sg39
S'yellow'
p82
sba(icurlovision
Stone
p83
(dp84
g36
F8.762195121951219
sg37
F15.640243902439023
sg38
F0.42073170731707316
sg39
S'red'
p85
sbasba(icurlovision
StoneLayout
p86
(dp87
g31
F0.4791666666666667
sg32
(lp88
(icurlovision
Stone
p89
(dp90
g36
F2.4729729729729732
sg37
F0.972972972972973
sg38
F0.46621621621621623
sg39
S'red'
p91
sba(icurlovision
Stone
p92
(dp93
g36
F2.22972972972973
sg37
F-0.20270270270270271
sg38
F0.46621621621621623
sg39
S'yellow'
p94
sba(icurlovision
Stone
p95
(dp96
g36
F0.6486486486486487
sg37
F-0.04054054054054054
sg38
F0.32432432432432434
sg39
S'yellow'
p97
sba(icurlovision
Stone
p98
(dp99
g36
F13.5
sg37
F0.32432432432432434
sg38
F0.38513513513513514
sg39
S'yellow'
p100
sba(icurlovision
Stone
p101
(dp102
g36
F9.04054054054054
sg37
F15.932432432432433
sg38
F0.4256756756756757
sg39
S'red'
p103
sba(icurlovision
Stone
p104
(dp105
g36
F2.22972972972973
sg37
F19.216216216216218
sg38
F0.4256756756756757
sg39
S'yellow'
p106
sbasba(icurlovision
StoneLayout
p107
(dp108
g31
F0.4791666666666667
sg32
(lp109
(icurlovision
Stone
p110
(dp111
g36
F1.0855263157894737
sg37
F-0.9276315789473684
sg38
F0.4539473684210526
sg39
S'yellow'
p112
sba(icurlovision
Stone
p113
(dp114
g36
F3.138157894736842
sg37
F1.7171052631578947
sg38
F0.47368421052631576
sg39
S'yellow'
p115
sba(icurlovision
Stone
p116
(dp117
g36
F3.0986842105263155
sg37
F-0.375
sg38
F0.256578947368421
sg39
S'red'
p118
sba(icurlovision
Stone
p119
(dp120
g36
F13.55921052631579
sg37
F0.29605263157894735
sg38
F0.43421052631578944
sg39
S'yellow'
p121
sba(icurlovision
Stone
p122
(dp123
g36
F9.05921052631579
sg37
F16.164473684210524
sg38
F0.41447368421052627
sg39
S'red'
p124
sba(icurlovision
Stone
p125
(dp126
g36
F2.1907894736842106
sg37
F17.309210526315788
sg38
F0.43421052631578944
sg39
S'yellow'
p127
sba(icurlovision
Stone
p128
(dp129
g36
F-4.3618421052631575
sg37
F1.006578947368421
sg38
F0.23684210526315788
sg39
S'red'
p130
sba(icurlovision
Stone
p131
(dp132
g36
F12.019736842105262
sg37
F-6.888157894736842
sg38
F0.35526315789473684
sg39
S'yellow'
p133
sbasba(icurlovision
StoneLayout
p134
(dp135
g31
F0.4791666666666667
sg32
(lp136
(icurlovision
Stone
p137
(dp138
g36
F1.0743243243243243
sg37
F-0.9527027027027027
sg38
F0.44594594594594594
sg39
S'yellow'
p139
sba(icurlovision
Stone
p140
(dp141
g36
F3.060810810810811
sg37
F-0.38513513513513514
sg38
F0.44594594594594594
sg39
S'red'
p142
sba(icurlovision
Stone
p143
(dp144
g36
F-5.25
sg37
F16.114864864864867
sg38
F0.44594594594594594
sg39
S'red'
p145
sba(icurlovision
Stone
p146
(dp147
g36
F3.790540540540541
sg37
F0.9121621621621622
sg38
F0.24324324324324326
sg39
S'red'
p148
sba(icurlovision
Stone
p149
(dp150
g36
F8.93918918918919
sg37
F15.75
sg38
F0.44594594594594594
sg39
S'red'
p151
sba(icurlovision
Stone
p152
(dp153
g36
F-4.3175675675675675
sg37
F0.9527027027027027
sg38
F0.3445945945945946
sg39
S'red'
p154
sba(icurlovision
Stone
p155
(dp156
g36
F13.39864864864865
sg37
F0.30405405405405406
sg38
F0.22297297297297297
sg39
S'yellow'
p157
sba(icurlovision
Stone
p158
(dp159
g36
F1.8851351351351353
sg37
F16.763513513513516
sg38
F0.44594594594594594
sg39
S'yellow'
p160
sba(icurlovision
Stone
p161
(dp162
g36
F9.222972972972974
sg37
F19.277027027027028
sg38
F0.4256756756756757
sg39
S'yellow'
p163
sbasba(icurlovision
StoneLayout
p164
(dp165
g31
F0.4791666666666667
sg32
(lp166
(icurlovision
Stone
p167
(dp168
g36
F8.703947368421051
sg37
F15.335526315789473
sg38
F0.41447368421052627
sg39
S'red'
p169
sba(icurlovision
Stone
p170
(dp171
g36
F13.046052631578947
sg37
F0.256578947368421
sg38
F0.3355263157894737
sg39
S'yellow'
p172
sba(icurlovision
Stone
p173
(dp174
g36
F3.4539473684210527
sg37
F-1.3223684210526314
sg38
F0.4539473684210526
sg39
S'yellow'
p175
sba(icurlovision
Stone
p176
(dp177
g36
F-4.243421052631579
sg37
F0.9671052631578947
sg38
F0.256578947368421
sg39
S'red'
p178
sba(icurlovision
Stone
p179
(dp180
g36
F-0.1381578947368421
sg37
F-1.8355263157894737
sg38
F0.4539473684210526
sg39
S'yellow'
p181
sba(icurlovision
Stone
p182
(dp183
g36
F8.980263157894736
sg37
F18.730263157894736
sg38
F0.41447368421052627
sg39
S'yellow'
p184
sbasba(icurlovision
StoneLayout
p185
(dp186
g31
F0.4791666666666667
sg32
(lp187
(icurlovision
Stone
p188
(dp189
g36
F3.7674418604651163
sg37
F0.9418604651162791
sg38
F0.3313953488372093
sg39
S'red'
p190
sba(icurlovision
Stone
p191
(dp192
g36
F0.20930232558139533
sg37
F-0.9767441860465116
sg38
F0.3313953488372093
sg39
S'yellow'
p193
sba(icurlovision
Stone
p194
(dp195
g36
F3.8372093023255816
sg37
F0.0
sg38
F0.3488372093023256
sg39
S'red'
p196
sba(icurlovision
Stone
p197
(dp198
g36
F-4.290697674418604
sg37
F0.9069767441860465
sg38
F0.3488372093023256
sg39
S'red'
p199
sba(icurlovision
Stone
p200
(dp201
g36
F9.104651162790697
sg37
F16.6046511627907
sg38
F0.47093023255813954
sg39
S'red'
p202
sba(icurlovision
Stone
p203
(dp204
g36
F-5.825581395348837
sg37
F-0.8023255813953488
sg38
F0.27906976744186046
sg39
S'red'
p205
sbasba(icurlovision
StoneLayout
p206
(dp207
g31
F0.4791666666666667
sg32
(lp208
(icurlovision
Stone
p209
(dp210
g36
F-0.3445945945945946
sg37
F-1.0540540540540542
sg38
F0.3445945945945946
sg39
S'yellow'
p211
sba(icurlovision
Stone
p212
(dp213
g36
F1.0337837837837838
sg37
F-0.4864864864864865
sg38
F0.3445945945945946
sg39
S'yellow'
p214
sba(icurlovision
Stone
p215
(dp216
g36
F3.871621621621622
sg37
F0.972972972972973
sg38
F0.3648648648648649
sg39
S'red'
p217
sba(icurlovision
Stone
p218
(dp219
g36
F13.601351351351353
sg37
F0.28378378378378377
sg38
F0.4256756756756757
sg39
S'yellow'
p220
sba(icurlovision
Stone
p221
(dp222
g36
F9.101351351351353
sg37
F16.054054054054056
sg38
F0.44594594594594594
sg39
S'red'
p223
sba(icurlovision
Stone
p224
(dp225
g36
F3.952702702702703
sg37
F0.0
sg38
F0.3445945945945946
sg39
S'red'
p226
sba(icurlovision
Stone
p227
(dp228
g36
F-4.3175675675675675
sg37
F0.8918918918918919
sg38
F0.32432432432432434
sg39
S'red'
p229
sbasba(icurlovision
StoneLayout
p230
(dp231
g31
F0.4791666666666667
sg32
(lp232
(icurlovision
Stone
p233
(dp234
g36
F3.890625
sg37
F0.015625
sg38
F0.34375
sg39
S'red'
p235
sba(icurlovision
Stone
p236
(dp237
g36
F-0.359375
sg37
F-1.046875
sg38
F0.453125
sg39
S'yellow'
p238
sba(icurlovision
Stone
p239
(dp240
g36
F3.796875
sg37
F1.015625
sg38
F0.359375
sg39
S'red'
p241
sba(icurlovision
Stone
p242
(dp243
g36
F-4.359375
sg37
F0.953125
sg38
F0.359375
sg39
S'red'
p244
sba(icurlovision
Stone
p245
(dp246
g36
F-5.734375
sg37
F-1.109375
sg38
F0.375
sg39
S'red'
p247
sbasba(icurlovision
StoneLayout
p248
(dp249
g31
F0.4791666666666667
sg32
(lp250
(icurlovision
Stone
p251
(dp252
g36
F3.513157894736842
sg37
F0.11842105263157894
sg38
F0.3157894736842105
sg39
S'red'
p253
sba(icurlovision
Stone
p254
(dp255
g36
F8.644736842105262
sg37
F15.43421052631579
sg38
F0.41447368421052627
sg39
S'red'
p256
sba(icurlovision
Stone
p257
(dp258
g36
F3.631578947368421
sg37
F1.0657894736842104
sg38
F0.23684210526315788
sg39
S'red'
p259
sba(icurlovision
Stone
p260
(dp261
g36
F4.263157894736842
sg37
F-0.7894736842105263
sg38
F0.3157894736842105
sg39
S'yellow'
p262
sba(icurlovision
Stone
p263
(dp264
g36
F13.026315789473683
sg37
F0.3157894736842105
sg38
F0.41447368421052627
sg39
S'yellow'
p265
sba(icurlovision
Stone
p266
(dp267
g36
F-4.263157894736842
sg37
F0.9473684210526315
sg38
F0.375
sg39
S'red'
p268
sba(icurlovision
Stone
p269
(dp270
g36
F-0.35526315789473684
sg37
F-0.9473684210526315
sg38
F0.3157894736842105
sg39
S'yellow'
p271
sba(icurlovision
Stone
p272
(dp273
g36
F1.9736842105263157
sg37
F18.63157894736842
sg38
F0.41447368421052627
sg39
S'red'
p274
sbasba(icurlovision
StoneLayout
p275
(dp276
g31
F0.4791666666666667
sg32
(lp277
(icurlovision
Stone
p278
(dp279
g36
F3.2872340425531914
sg37
F0.19148936170212766
sg38
F0.4627659574468085
sg39
S'red'
p280
sba(icurlovision
Stone
p281
(dp282
g36
F4.978723404255319
sg37
F-0.6063829787234042
sg38
F0.4308510638297872
sg39
S'red'
p283
sba(icurlovision
Stone
p284
(dp285
g36
F3.702127659574468
sg37
F1.180851063829787
sg38
F0.33510638297872336
sg39
S'red'
p286
sbasba(icurlovision
StoneLayout
p287
(dp288
g31
F0.4791666666666667
sg32
(lp289
(icurlovision
Stone
p290
(dp291
g36
F3.4375
sg37
F0.2625
sg38
F0.35000000000000003
sg39
S'red'
p292
sba(icurlovision
Stone
p293
(dp294
g36
F3.8875
sg37
F1.2625000000000002
sg38
F0.47500000000000003
sg39
S'red'
p295
sba(icurlovision
Stone
p296
(dp297
g36
F5.2625
sg37
F-0.5875
sg38
F0.35000000000000003
sg39
S'red'
p298
sbasbasg3
I4
sS'red_hammer'
p299
I1
sba(icurlovision
EndResult
p300
(dp301
g2
I0
sg10
(lp302
(I7
I7
tp303
a(I5
I6
tp304
a(I5
I5
tp305
a(I4
I4
tp306
a(I1
I2
tp307
a(I1
I1
tp308
asg26
I2
sg27
(lp309
(icurlovision
StoneLayout
p310
(dp311
g31
F0.4791666666666667
sg32
(lp312
(icurlovision
Stone
p313
(dp314
g36
F11.817567567567568
sg37
F-2.97972972972973
sg38
F0.4256756756756757
sg39
S'yellow'
p315
sba(icurlovision
Stone
p316
(dp317
g36
F1.3175675675675675
sg37
F-0.10135135135135136
sg38
F0.46621621621621623
sg39
S'red'
p318
sba(icurlovision
Stone
p319
(dp320
g36
F4.114864864864865
sg37
F-18.5472972972973
sg38
F0.30405405405405406
sg39
S'yellow'
p321
sbasba(icurlovision
StoneLayout
p322
(dp323
g31
F0.4791666666666667
sg32
(lp324
(icurlovision
Stone
p325
(dp326
g36
F1.076923076923077
sg37
F-3.1153846153846154
sg38
F0.3269230769230769
sg39
S'yellow'
p327
sba(icurlovision
Stone
p328
(dp329
g36
F1.3461538461538463
sg37
F-0.11538461538461539
sg38
F0.34615384615384615
sg39
S'red'
p330
sba(icurlovision
Stone
p331
(dp332
g36
F4.1923076923076925
sg37
F-0.2692307692307693
sg38
F0.3269230769230769
sg39
S'red'
p333
sba(icurlovision
Stone
p334
(dp335
g36
F4.846153846153847
sg37
F-18.5
sg38
F0.23076923076923078
sg39
S'red'
p336
sba(icurlovision
Stone
p337
(dp338
g36
F11.26923076923077
sg37
F-5.115384615384616
sg38
F0.34615384615384615
sg39
S'yellow'
p339
sbasba(icurlovision
StoneLayout
p340
(dp341
g31
F0.4791666666666667
sg32
(lp342
(icurlovision
Stone
p343
(dp344
g36
F1.1041666666666665
sg37
F-3.1875
sg38
F0.47916666666666663
sg39
S'yellow'
p345
sba(icurlovision
Stone
p346
(dp347
g36
F10.8125
sg37
F-3.9791666666666665
sg38
F0.4583333333333333
sg39
S'yellow'
p348
sba(icurlovision
Stone
p349
(dp350
g36
F4.354166666666666
sg37
F-0.22916666666666666
sg38
F0.35416666666666663
sg39
S'red'
p351
sba(icurlovision
Stone
p352
(dp353
g36
F1.3958333333333333
sg37
F-0.10416666666666666
sg38
F0.4583333333333333
sg39
S'red'
p354
sba(icurlovision
Stone
p355
(dp356
g36
F5.104166666666666
sg37
F-17.1875
sg38
F0.4375
sg39
S'yellow'
p357
sba(icurlovision
Stone
p358
(dp359
g36
F13.604166666666666
sg37
F-15.9375
sg38
F0.35416666666666663
sg39
S'yellow'
p360
sbasba(icurlovision
StoneLayout
p361
(dp362
g31
F0.4791666666666667
sg32
(lp363
(icurlovision
Stone
p364
(dp365
g36
F10.656976744186046
sg37
F-3.88953488372093
sg38
F0.436046511627907
sg39
S'yellow'
p366
sba(icurlovision
Stone
p367
(dp368
g36
F2.808139534883721
sg37
F-2.633720930232558
sg38
F0.27906976744186046
sg39
S'yellow'
p369
sba(icurlovision
Stone
p370
(dp371
g36
F1.3430232558139534
sg37
F-0.12209302325581395
sg38
F0.3488372093023256
sg39
S'red'
p372
sba(icurlovision
Stone
p373
(dp374
g36
F4.238372093023256
sg37
F-0.22674418604651161
sg38
F0.3488372093023256
sg39
S'red'
p375
sba(icurlovision
Stone
p376
(dp377
g36
F1.5872093023255813
sg37
F-16.063953488372093
sg38
F0.2965116279069767
sg39
S'red'
p378
sba(icurlovision
Stone
p379
(dp380
g36
F12.087209302325581
sg37
F-16.133720930232556
sg38
F0.41860465116279066
sg39
S'red'
p381
sbasba(icurlovision
StoneLayout
p382
(dp383
g31
F0.4791666666666667
sg32
(lp384
(icurlovision
Stone
p385
(dp386
g36
F-2.7443181818181817
sg37
F6.051136363636363
sg38
F0.3579545454545454
sg39
S'red'
p387
sba(icurlovision
Stone
p388
(dp389
g36
F10.27840909090909
sg37
F3.4261363636363633
sg38
F0.4602272727272727
sg39
S'yellow'
p390
sbasba(icurlovision
StoneLayout
p391
(dp392
g31
F0.4791666666666667
sg32
(lp393
(icurlovision
Stone
p394
(dp395
g36
F-2.7391304347826084
sg37
F6.0978260869565215
sg38
F0.45652173913043476
sg39
S'red'
p396
sbasbasg3
I5
sg299
I0
sba(icurlovision
EndResult
p397
(dp398
g2
I1
sg10
(lp399
(I7
I8
tp400
a(I7
I7
tp401
a(I6
I7
tp402
a(I6
I6
tp403
a(I5
I5
tp404
a(I4
I5
tp405
a(I3
I4
tp406
a(I3
I3
tp407
a(I2
I2
tp408
a(I1
I2
tp409
a(I1
I1
tp410
a(I0
I1
tp411
asg26
I3
sg27
(lp412
(icurlovision
StoneLayout
p413
(dp414
g31
F0.4791666666666667
sg32
(lp415
(icurlovision
Stone
p416
(dp417
g36
F-5.112244897959184
sg37
F-0.36734693877551017
sg38
F0.336734693877551
sg39
S'red'
p418
sbasba(icurlovision
StoneLayout
p419
(dp420
g31
F0.4791666666666667
sg32
(lp421
sba(icurlovision
StoneLayout
p422
(dp423
g31
F0.4791666666666667
sg32
(lp424
(icurlovision
Stone
p425
(dp426
g36
F1.2638888888888888
sg37
F0.8194444444444444
sg38
F0.3472222222222222
sg39
S'red'
p427
sba(icurlovision
Stone
p428
(dp429
g36
F7.486111111111111
sg37
F0.5694444444444444
sg38
F0.4583333333333333
sg39
S'yellow'
p430
sba(icurlovision
Stone
p431
(dp432
g36
F-5.013888888888888
sg37
F-0.375
sg38
F0.3472222222222222
sg39
S'red'
p433
sbasba(icurlovision
StoneLayout
p434
(dp435
g31
F0.4791666666666667
sg32
(lp436
(icurlovision
Stone
p437
(dp438
g36
F-2.5294117647058822
sg37
F0.6764705882352942
sg38
F0.45588235294117646
sg39
S'yellow'
p439
sba(icurlovision
Stone
p440
(dp441
g36
F7.735294117647059
sg37
F0.5882352941176471
sg38
F0.47058823529411764
sg39
S'yellow'
p442
sba(icurlovision
Stone
p443
(dp444
g36
F1.3823529411764706
sg37
F0.8529411764705882
sg38
F0.29411764705882354
sg39
S'red'
p445
sba(icurlovision
Stone
p446
(dp447
g36
F-5.088235294117647
sg37
F-0.3235294117647059
sg38
F0.3382352941176471
sg39
S'red'
p448
sbasba(icurlovision
StoneLayout
p449
(dp450
g31
F0.4791666666666667
sg32
(lp451
(icurlovision
Stone
p452
(dp453
g36
F-2.4767441860465116
sg37
F0.6976744186046512
sg38
F0.47093023255813954
sg39
S'yellow'
p454
sba(icurlovision
Stone
p455
(dp456
g36
F9.13953488372093
sg37
F-2.8255813953488373
sg38
F0.45348837209302323
sg39
S'yellow'
p457
sba(icurlovision
Stone
p458
(dp459
g36
F1.3604651162790697
sg37
F0.8023255813953488
sg38
F0.2965116279069767
sg39
S'red'
p460
sba(icurlovision
Stone
p461
(dp462
g36
F-5.023255813953488
sg37
F-0.38372093023255816
sg38
F0.2441860465116279
sg39
S'red'
p463
sbasba(icurlovision
StoneLayout
p464
(dp465
g31
F0.4791666666666667
sg32
(lp466
(icurlovision
Stone
p467
(dp468
g36
F-2.458333333333333
sg37
F0.6527777777777778
sg38
F0.3194444444444444
sg39
S'yellow'
p469
sba(icurlovision
Stone
p470
(dp471
g36
F-1.7638888888888888
sg37
F-6.180555555555555
sg38
F0.3333333333333333
sg39
S'yellow'
p472
sba(icurlovision
Stone
p473
(dp474
g36
F1.2916666666666665
sg37
F0.7916666666666666
sg38
F0.4444444444444444
sg39
S'red'
p475
sba(icurlovision
Stone
p476
(dp477
g36
F6.152777777777778
sg37
F3.2916666666666665
sg38
F0.3333333333333333
sg39
S'red'
p478
sba(icurlovision
Stone
p479
(dp480
g36
F-4.958333333333333
sg37
F-0.375
sg38
F0.3194444444444444
sg39
S'red'
p481
sbasba(icurlovision
StoneLayout
p482
(dp483
g31
F0.4791666666666667
sg32
(lp484
(icurlovision
Stone
p485
(dp486
g36
F-2.5555555555555554
sg37
F0.7083333333333333
sg38
F0.4722222222222222
sg39
S'yellow'
p487
sba(icurlovision
Stone
p488
(dp489
g36
F1.361111111111111
sg37
F0.875
sg38
F0.4722222222222222
sg39
S'red'
p490
sba(icurlovision
Stone
p491
(dp492
g36
F-5.194444444444444
sg37
F-0.375
sg38
F0.3333333333333333
sg39
S'red'
p493
sbasba(icurlovision
StoneLayout
p494
(dp495
g31
F0.4791666666666667
sg32
(lp496
(icurlovision
Stone
p497
(dp498
g36
F-2.56578947368421
sg37
F0.6907894736842105
sg38
F0.3355263157894737
sg39
S'yellow'
p499
sba(icurlovision
Stone
p500
(dp501
g36
F12.039473684210526
sg37
F-2.111842105263158
sg38
F0.4539473684210526
sg39
S'yellow'
p502
sba(icurlovision
Stone
p503
(dp504
g36
F1.3421052631578947
sg37
F0.8486842105263157
sg38
F0.4539473684210526
sg39
S'red'
p505
sba(icurlovision
Stone
p506
(dp507
g36
F-5.092105263157895
sg37
F-0.41447368421052627
sg38
F0.2763157894736842
sg39
S'red'
p508
sbasba(icurlovision
StoneLayout
p509
(dp510
g31
F0.4791666666666667
sg32
(lp511
(icurlovision
Stone
p512
(dp513
g36
F-2.5125
sg37
F0.6875
sg38
F0.4625
sg39
S'yellow'
p514
sba(icurlovision
Stone
p515
(dp516
g36
F1.3375000000000001
sg37
F0.8375
sg38
F0.45
sg39
S'red'
p517
sba(icurlovision
Stone
p518
(dp519
g36
F0.1875
sg37
F0.037500000000000006
sg38
F0.325
sg39
S'yellow'
p520
sbasba(icurlovision
StoneLayout
p521
(dp522
g31
F0.4791666666666667
sg32
(lp523
(icurlovision
Stone
p524
(dp525
g36
F1.342741935483871
sg37
F0.8467741935483871
sg38
F0.3508064516129032
sg39
S'red'
p526
sba(icurlovision
Stone
p527
(dp528
g36
F-5.116935483870968
sg37
F-0.3870967741935484
sg38
F0.3629032258064516
sg39
S'red'
p529
sbasba(icurlovision
StoneLayout
p530
(dp531
g31
F0.4791666666666667
sg32
(lp532
(icurlovision
Stone
p533
(dp534
g36
F1.2142857142857142
sg37
F1.0
sg38
F0.34523809523809523
sg39
S'red'
p535
sba(icurlovision
Stone
p536
(dp537
g36
F-0.19047619047619047
sg37
F-0.38095238095238093
sg38
F0.3333333333333333
sg39
S'yellow'
p538
sba(icurlovision
Stone
p539
(dp540
g36
F-4.976190476190476
sg37
F-0.3571428571428571
sg38
F0.47619047619047616
sg39
S'red'
p541
sbasba(icurlovision
StoneLayout
p542
(dp543
g31
F0.4791666666666667
sg32
(lp544
(icurlovision
Stone
p545
(dp546
g36
F1.2136363636363636
sg37
F1.0227272727272727
sg38
F0.35454545454545455
sg39
S'red'
p547
sba(icurlovision
Stone
p548
(dp549
g36
F-5.140909090909091
sg37
F-0.3409090909090909
sg38
F0.3409090909090909
sg39
S'red'
p550
sbasbasg3
I5
sg299
I0
sba(icurlovision
EndResult
p551
(dp552
g2
I1
sg10
(lp553
(I6
I6
tp554
a(I6
I5
tp555
a(I5
I5
tp556
a(I5
I4
tp557
a(I4
I4
tp558
a(I3
I3
tp559
a(I3
I2
tp560
a(I2
I2
tp561
a(I2
I1
tp562
a(I1
I1
tp563
a(I1
I0
tp564
asg26
I4
sg27
(lp565
(icurlovision
StoneLayout
p566
(dp567
g31
F0.4791666666666667
sg32
(lp568
(icurlovision
Stone
p569
(dp570
g36
F1.1320754716981132
sg37
F0.5235849056603774
sg38
F0.41037735849056606
sg39
S'red'
p571
sbasba(icurlovision
StoneLayout
p572
(dp573
g31
F0.4791666666666667
sg32
(lp574
(icurlovision
Stone
p575
(dp576
g36
F8.006756756756758
sg37
F-0.02027027027027027
sg38
F0.3445945945945946
sg39
S'yellow'
p577
sba(icurlovision
Stone
p578
(dp579
g36
F2.6554054054054057
sg37
F-0.30405405405405406
sg38
F0.44594594594594594
sg39
S'yellow'
p580
sba(icurlovision
Stone
p581
(dp582
g36
F-1.3581081081081081
sg37
F-0.02027027027027027
sg38
F0.44594594594594594
sg39
S'red'
p583
sba(icurlovision
Stone
p584
(dp585
g36
F9.06081081081081
sg37
F-15.952702702702704
sg38
F0.3648648648648649
sg39
S'yellow'
p586
sba(icurlovision
Stone
p587
(dp588
g36
F-4.236486486486487
sg37
F-0.75
sg38
F0.3445945945945946
sg39
S'red'
p589
sba(icurlovision
Stone
p590
(dp591
g36
F7.722972972972974
sg37
F-18.87162162162162
sg38
F0.4256756756756757
sg39
S'red'
p592
sba(icurlovision
Stone
p593
(dp594
g36
F3.2635135135135136
sg37
F-17.533783783783786
sg38
F0.20270270270270271
sg39
S'red'
p595
sbasba(icurlovision
StoneLayout
p596
(dp597
g31
F0.4791666666666667
sg32
(lp598
(icurlovision
Stone
p599
(dp600
g36
F8.005102040816327
sg37
F0.10714285714285714
sg38
F0.45918367346938777
sg39
S'yellow'
p601
sba(icurlovision
Stone
p602
(dp603
g36
F-1.3316326530612244
sg37
F-0.015306122448979591
sg38
F0.336734693877551
sg39
S'red'
p604
sba(icurlovision
Stone
p605
(dp606
g36
F2.6785714285714284
sg37
F-0.2602040816326531
sg38
F0.3214285714285714
sg39
S'yellow'
p607
sba(icurlovision
Stone
p608
(dp609
g36
F-4.1479591836734695
sg37
F-0.7806122448979592
sg38
F0.3214285714285714
sg39
S'red'
p610
sbasba(icurlovision
StoneLayout
p611
(dp612
g31
F0.4791666666666667
sg32
(lp613
sba(icurlovision
StoneLayout
p614
(dp615
g31
F0.4791666666666667
sg32
(lp616
(icurlovision
Stone
p617
(dp618
g36
F-1.3255813953488371
sg37
F0.0
sg38
F0.3488372093023256
sg39
S'red'
p619
sba(icurlovision
Stone
p620
(dp621
g36
F8.093023255813954
sg37
F0.03488372093023256
sg38
F0.3313953488372093
sg39
S'yellow'
p622
sba(icurlovision
Stone
p623
(dp624
g36
F2.6511627906976742
sg37
F-0.27906976744186046
sg38
F0.47093023255813954
sg39
S'yellow'
p625
sba(icurlovision
Stone
p626
(dp627
g36
F-0.13953488372093023
sg37
F-16.011627906976745
sg38
F0.41860465116279066
sg39
S'yellow'
p628
sba(icurlovision
Stone
p629
(dp630
g36
F-4.220930232558139
sg37
F-0.7325581395348837
sg38
F0.3313953488372093
sg39
S'red'
p631
sba(icurlovision
Stone
p632
(dp633
g36
F0.7674418604651163
sg37
F4.674418604651163
sg38
F0.3313953488372093
sg39
S'yellow'
p634
sba(icurlovision
Stone
p635
(dp636
g36
F9.13953488372093
sg37
F-13.151162790697674
sg38
F0.2616279069767442
sg39
S'yellow'
p637
sba(icurlovision
Stone
p638
(dp639
g36
F9.418604651162791
sg37
F-16.848837209302324
sg38
F0.436046511627907
sg39
S'yellow'
p640
sba(icurlovision
Stone
p641
(dp642
g36
F9.13953488372093
sg37
F-6.313953488372093
sg38
F0.313953488372093
sg39
S'yellow'
p643
sbasba(icurlovision
StoneLayout
p644
(dp645
g31
F0.4791666666666667
sg32
(lp646
(icurlovision
Stone
p647
(dp648
g36
F7.84090909090909
sg37
F0.08522727272727272
sg38
F0.3409090909090909
sg39
S'yellow'
p649
sba(icurlovision
Stone
p650
(dp651
g36
F2.590909090909091
sg37
F-0.2556818181818182
sg38
F0.32386363636363635
sg39
S'yellow'
p652
sba(icurlovision
Stone
p653
(dp654
g36
F-1.3295454545454544
sg37
F-0.017045454545454544
sg38
F0.3409090909090909
sg39
S'red'
p655
sba(icurlovision
Stone
p656
(dp657
g36
F-4.125
sg37
F-0.6988636363636364
sg38
F0.2727272727272727
sg39
S'red'
p658
sba(icurlovision
Stone
p659
(dp660
g36
F0.7159090909090908
sg37
F-15.221590909090908
sg38
F0.2727272727272727
sg39
S'red'
p661
sba(icurlovision
Stone
p662
(dp663
g36
F9.306818181818182
sg37
F-16.58522727272727
sg38
F0.30681818181818177
sg39
S'yellow'
p664
sba(icurlovision
Stone
p665
(dp666
g36
F9.272727272727272
sg37
F-13.005681818181817
sg38
F0.2727272727272727
sg39
S'yellow'
p667
sbasba(icurlovision
StoneLayout
p668
(dp669
g31
F0.4791666666666667
sg32
(lp670
(icurlovision
Stone
p671
(dp672
g36
F8.058510638297872
sg37
F1.180851063829787
sg38
F0.44680851063829785
sg39
S'yellow'
p673
sba(icurlovision
Stone
p674
(dp675
g36
F2.6968085106382977
sg37
F-0.2553191489361702
sg38
F0.4627659574468085
sg39
S'yellow'
p676
sba(icurlovision
Stone
p677
(dp678
g36
F-1.356382978723404
sg37
F-0.031914893617021274
sg38
F0.351063829787234
sg39
S'red'
p679
sba(icurlovision
Stone
p680
(dp681
g36
F7.803191489361701
sg37
F-0.19148936170212766
sg38
F0.33510638297872336
sg39
S'yellow'
p682
sba(icurlovision
Stone
p683
(dp684
g36
F-4.26063829787234
sg37
F-0.7659574468085106
sg38
F0.3191489361702127
sg39
S'red'
p685
sba(icurlovision
Stone
p686
(dp687
g36
F8.792553191489361
sg37
F-7.404255319148936
sg38
F0.28723404255319146
sg39
S'yellow'
p688
sbasba(icurlovision
StoneLayout
p689
(dp690
g31
F0.4791666666666667
sg32
(lp691
(icurlovision
Stone
p692
(dp693
g36
F2.505681818181818
sg37
F-0.22159090909090906
sg38
F0.4431818181818181
sg39
S'yellow'
p694
sba(icurlovision
Stone
p695
(dp696
g36
F-1.346590909090909
sg37
F-0.017045454545454544
sg38
F0.32386363636363635
sg39
S'red'
p697
sba(icurlovision
Stone
p698
(dp699
g36
F-4.142045454545454
sg37
F-0.8352272727272727
sg38
F0.3409090909090909
sg39
S'red'
p700
sba(icurlovision
Stone
p701
(dp702
g36
F10.244318181818182
sg37
F-5.607954545454545
sg38
F0.4261363636363636
sg39
S'red'
p703
sba(icurlovision
Stone
p704
(dp705
g36
F0.05113636363636363
sg37
F-16.039772727272727
sg38
F0.32386363636363635
sg39
S'red'
p706
sba(icurlovision
Stone
p707
(dp708
g36
F9.5625
sg37
F-16.482954545454543
sg38
F0.4261363636363636
sg39
S'yellow'
p709
sba(icurlovision
Stone
p710
(dp711
g36
F10.039772727272727
sg37
F-13.039772727272727
sg38
F0.2727272727272727
sg39
S'yellow'
p712
sbasba(icurlovision
StoneLayout
p713
(dp714
g31
F0.4791666666666667
sg32
(lp715
(icurlovision
Stone
p716
(dp717
g36
F2.6162790697674416
sg37
F-0.20930232558139533
sg38
F0.47093023255813954
sg39
S'yellow'
p718
sba(icurlovision
Stone
p719
(dp720
g36
F0.06976744186046512
sg37
F0.1744186046511628
sg38
F0.3313953488372093
sg39
S'yellow'
p721
sba(icurlovision
Stone
p722
(dp723
g36
F10.63953488372093
sg37
F-5.720930232558139
sg38
F0.45348837209302323
sg39
S'red'
p724
sba(icurlovision
Stone
p725
(dp726
g36
F0.13953488372093023
sg37
F-16.63953488372093
sg38
F0.3313953488372093
sg39
S'red'
p727
sba(icurlovision
Stone
p728
(dp729
g36
F-4.290697674418604
sg37
F-0.8372093023255813
sg38
F0.3313953488372093
sg39
S'red'
p730
sba(icurlovision
Stone
p731
(dp732
g36
F9.976744186046512
sg37
F-17.023255813953487
sg38
F0.36627906976744184
sg39
S'yellow'
p733
sbasba(icurlovision
StoneLayout
p734
(dp735
g31
F0.4791666666666667
sg32
(lp736
(icurlovision
Stone
p737
(dp738
g36
F2.1409090909090907
sg37
F2.631818181818182
sg38
F0.3409090909090909
sg39
S'red'
p739
sba(icurlovision
Stone
p740
(dp741
g36
F-3.8863636363636362
sg37
F0.20454545454545453
sg38
F0.35454545454545455
sg39
S'red'
p742
sbasba(icurlovision
StoneLayout
p743
(dp744
g31
F0.4791666666666667
sg32
(lp745
(icurlovision
Stone
p746
(dp747
g36
F2.0625
sg37
F2.6125000000000003
sg38
F0.45
sg39
S'red'
p748
sba(icurlovision
Stone
p749
(dp750
g36
F3.0125
sg37
F-0.1125
sg38
F0.325
sg39
S'yellow'
p751
sba(icurlovision
Stone
p752
(dp753
g36
F-3.8875
sg37
F0.1375
sg38
F0.35000000000000003
sg39
S'red'
p754
sbasbasg3
I7
sg299
I1
sba(icurlovision
EndResult
p755
(dp756
g2
I2
sg10
(lp757
(I7
I8
tp758
a(I6
I6
tp759
a(I5
I6
tp760
a(I5
I5
tp761
a(I4
I5
tp762
a(I4
I4
tp763
a(I3
I4
tp764
a(I3
I3
tp765
a(I2
I3
tp766
a(I2
I2
tp767
a(I1
I2
tp768
a(I1
I1
tp769
a(I0
I1
tp770
asg26
I5
sg27
(lp771
(icurlovision
StoneLayout
p772
(dp773
g31
F0.4791666666666667
sg32
(lp774
(icurlovision
Stone
p775
(dp776
g36
F1.3363636363636362
sg37
F0.6272727272727272
sg38
F0.35454545454545455
sg39
S'red'
p777
sbasba(icurlovision
StoneLayout
p778
(dp779
g31
F0.4791666666666667
sg32
(lp780
(icurlovision
Stone
p781
(dp782
g36
F3.256578947368421
sg37
F-1.875
sg38
F0.3355263157894737
sg39
S'yellow'
p783
sba(icurlovision
Stone
p784
(dp785
g36
F9.019736842105262
sg37
F18.019736842105264
sg38
F0.39473684210526316
sg39
S'yellow'
p786
sba(icurlovision
Stone
p787
(dp788
g36
F12.532894736842104
sg37
F-1.5592105263157894
sg38
F0.23684210526315788
sg39
S'yellow'
p789
sba(icurlovision
Stone
p790
(dp791
g36
F0.17763157894736842
sg37
F1.006578947368421
sg38
F0.23684210526315788
sg39
S'red'
p792
sbasba(icurlovision
StoneLayout
p793
(dp794
g31
F0.4791666666666667
sg32
(lp795
(icurlovision
Stone
p796
(dp797
g36
F3.1793478260869565
sg37
F-1.858695652173913
sg38
F0.30978260869565216
sg39
S'yellow'
p798
sba(icurlovision
Stone
p799
(dp800
g36
F4.646739130434782
sg37
F6.326086956521739
sg38
F0.2934782608695652
sg39
S'red'
p801
sba(icurlovision
Stone
p802
(dp803
g36
F0.1793478260869565
sg37
F0.9456521739130435
sg38
F0.44021739130434784
sg39
S'red'
p804
sba(icurlovision
Stone
p805
(dp806
g36
F-3.016304347826087
sg37
F-4.33695652173913
sg38
F0.30978260869565216
sg39
S'yellow'
p807
sbasba(icurlovision
StoneLayout
p808
(dp809
g31
F0.4791666666666667
sg32
(lp810
(icurlovision
Stone
p811
(dp812
g36
F3.3040540540540544
sg37
F-1.9256756756756759
sg38
F0.3445945945945946
sg39
S'yellow'
p813
sba(icurlovision
Stone
p814
(dp815
g36
F0.22297297297297297
sg37
F0.9932432432432433
sg38
F0.3445945945945946
sg39
S'red'
p816
sba(icurlovision
Stone
p817
(dp818
g36
F9.385135135135135
sg37
F18.466216216216218
sg38
F0.40540540540540543
sg39
S'yellow'
p819
sba(icurlovision
Stone
p820
(dp821
g36
F1.6013513513513515
sg37
F18.70945945945946
sg38
F0.44594594594594594
sg39
S'red'
p822
sba(icurlovision
Stone
p823
(dp824
g36
F15.101351351351353
sg37
F-1.8851351351351353
sg38
F0.44594594594594594
sg39
S'yellow'
p825
sba(icurlovision
Stone
p826
(dp827
g36
F2.5743243243243246
sg37
F18.425675675675677
sg38
F0.44594594594594594
sg39
S'yellow'
p828
sbasba(icurlovision
StoneLayout
p829
(dp830
g31
F0.4791666666666667
sg32
(lp831
(icurlovision
Stone
p832
(dp833
g36
F3.3243243243243246
sg37
F-1.9054054054054055
sg38
F0.3445945945945946
sg39
S'yellow'
p834
sba(icurlovision
Stone
p835
(dp836
g36
F12.405405405405405
sg37
F4.702702702702703
sg38
F0.40540540540540543
sg39
S'red'
p837
sba(icurlovision
Stone
p838
(dp839
g36
F1.6216216216216217
sg37
F18.68918918918919
sg38
F0.46621621621621623
sg39
S'red'
p840
sba(icurlovision
Stone
p841
(dp842
g36
F0.24324324324324326
sg37
F1.0135135135135136
sg38
F0.32432432432432434
sg39
S'red'
p843
sba(icurlovision
Stone
p844
(dp845
g36
F9.405405405405405
sg37
F18.445945945945947
sg38
F0.4256756756756757
sg39
S'yellow'
p846
sba(icurlovision
Stone
p847
(dp848
g36
F2.5945945945945947
sg37
F18.445945945945947
sg38
F0.28378378378378377
sg39
S'yellow'
p849
sbasba(icurlovision
StoneLayout
p850
(dp851
g31
F0.4791666666666667
sg32
(lp852
(icurlovision
Stone
p853
(dp854
g36
F3.3
sg37
F-1.8937499999999998
sg38
F0.33749999999999997
sg39
S'yellow'
p855
sba(icurlovision
Stone
p856
(dp857
g36
F0.22499999999999998
sg37
F1.03125
sg38
F0.35625
sg39
S'red'
p858
sba(icurlovision
Stone
p859
(dp860
g36
F12.4125
sg37
F4.7437499999999995
sg38
F0.43124999999999997
sg39
S'red'
p861
sba(icurlovision
Stone
p862
(dp863
g36
F-1.9874999999999998
sg37
F5.26875
sg38
F0.31875
sg39
S'yellow'
p864
sba(icurlovision
Stone
p865
(dp866
g36
F7.725
sg37
F13.81875
sg38
F0.28125
sg39
S'red'
p867
sbasba(icurlovision
StoneLayout
p868
(dp869
g31
F0.4791666666666667
sg32
(lp870
(icurlovision
Stone
p871
(dp872
g36
F0.20089285714285712
sg37
F1.0044642857142856
sg38
F0.45535714285714285
sg39
S'red'
p873
sba(icurlovision
Stone
p874
(dp875
g36
F-1.96875
sg37
F5.236607142857142
sg38
F0.36160714285714285
sg39
S'yellow'
p876
sba(icurlovision
Stone
p877
(dp878
g36
F-1.5401785714285714
sg37
F6.040178571428571
sg38
F0.30803571428571425
sg39
S'red'
p879
sbasba(icurlovision
StoneLayout
p880
(dp881
g31
F0.4791666666666667
sg32
(lp882
(icurlovision
Stone
p883
(dp884
g36
F-2.232142857142857
sg37
F5.267857142857142
sg38
F0.33928571428571425
sg39
S'yellow'
p885
sba(icurlovision
Stone
p886
(dp887
g36
F0.23214285714285712
sg37
F1.0178571428571428
sg38
F0.25
sg39
S'red'
p888
sba(icurlovision
Stone
p889
(dp890
g36
F12.089285714285714
sg37
F4.553571428571428
sg38
F0.42857142857142855
sg39
S'red'
p891
sba(icurlovision
Stone
p892
(dp893
g36
F-1.1964285714285714
sg37
F4.553571428571428
sg38
F0.3214285714285714
sg39
S'yellow'
p894
sba(icurlovision
Stone
p895
(dp896
g36
F-1.4107142857142856
sg37
F5.910714285714286
sg38
F0.3214285714285714
sg39
S'red'
p897
sba(icurlovision
Stone
p898
(dp899
g36
F8.410714285714285
sg37
F16.58928571428571
sg38
F0.4821428571428571
sg39
S'red'
p900
sbasba(icurlovision
StoneLayout
p901
(dp902
g31
F0.4791666666666667
sg32
(lp903
(icurlovision
Stone
p904
(dp905
g36
F12.5
sg37
F4.769230769230769
sg38
F0.44230769230769235
sg39
S'red'
p906
sba(icurlovision
Stone
p907
(dp908
g36
F0.23076923076923078
sg37
F1.0384615384615385
sg38
F0.34615384615384615
sg39
S'red'
p909
sba(icurlovision
Stone
p910
(dp911
g36
F-1.4615384615384617
sg37
F6.0769230769230775
sg38
F0.34615384615384615
sg39
S'red'
p912
sbasba(icurlovision
StoneLayout
p913
(dp914
g31
F0.4791666666666667
sg32
(lp915
(icurlovision
Stone
p916
(dp917
g36
F2.495192307692308
sg37
F0.7932692307692308
sg38
F0.44711538461538464
sg39
S'yellow'
p918
sba(icurlovision
Stone
p919
(dp920
g36
F0.1875
sg37
F0.9663461538461539
sg38
F0.34615384615384615
sg39
S'red'
p921
sba(icurlovision
Stone
p922
(dp923
g36
F-1.514423076923077
sg37
F5.899038461538462
sg38
F0.46153846153846156
sg39
S'red'
p924
sbasba(icurlovision
StoneLayout
p925
(dp926
g31
F0.4791666666666667
sg32
(lp927
(icurlovision
Stone
p928
(dp929
g36
F0.15517241379310345
sg37
F1.021551724137931
sg38
F0.34913793103448276
sg39
S'red'
p930
sba(icurlovision
Stone
p931
(dp932
g36
F1.6551724137931034
sg37
F2.9870689655172415
sg38
F0.4525862068965517
sg39
S'red'
p933
sba(icurlovision
Stone
p934
(dp935
g36
F-0.25862068965517243
sg37
F-0.7112068965517241
sg38
F0.33620689655172414
sg39
S'yellow'
p936
sba(icurlovision
Stone
p937
(dp938
g36
F-1.6810344827586208
sg37
F5.961206896551724
sg38
F0.46551724137931033
sg39
S'red'
p939
sbasba(icurlovision
StoneLayout
p940
(dp941
g31
F0.4791666666666667
sg32
(lp942
(icurlovision
Stone
p943
(dp944
g36
F12.4125
sg37
F4.81875
sg38
F0.28125
sg39
S'red'
p945
sba(icurlovision
Stone
p946
(dp947
g36
F0.1875
sg37
F1.03125
sg38
F0.3
sg39
S'red'
p948
sba(icurlovision
Stone
p949
(dp950
g36
F-0.44999999999999996
sg37
F5.04375
sg38
F0.33749999999999997
sg39
S'yellow'
p951
sba(icurlovision
Stone
p952
(dp953
g36
F-1.0875
sg37
F16.18125
sg38
F0.28125
sg39
S'red'
p954
sba(icurlovision
Stone
p955
(dp956
g36
F10.424999999999999
sg37
F-10.143749999999999
sg38
F0.31875
sg39
S'red'
p957
sbasba(icurlovision
StoneLayout
p958
(dp959
g31
F0.4791666666666667
sg32
(lp960
(icurlovision
Stone
p961
(dp962
g36
F-0.47560975609756095
sg37
F3.402439024390244
sg38
F0.3475609756097561
sg39
S'red'
p963
sba(icurlovision
Stone
p964
(dp965
g36
F12.329268292682926
sg37
F4.682926829268292
sg38
F0.42073170731707316
sg39
S'red'
p966
sba(icurlovision
Stone
p967
(dp968
g36
F0.2195121951219512
sg37
F0.9878048780487805
sg38
F0.45731707317073167
sg39
S'red'
p969
sba(icurlovision
Stone
p970
(dp971
g36
F-0.1097560975609756
sg37
F16.20731707317073
sg38
F0.31097560975609756
sg39
S'yellow'
p972
sbasbasg3
I7
sg299
I0
sba(icurlovision
EndResult
p973
(dp974
g2
I2
sg10
(lp975
(I7
I7
tp976
a(I7
I6
tp977
a(I6
I6
tp978
a(I6
I5
tp979
a(I5
I5
tp980
a(I5
I4
tp981
a(I4
I4
tp982
a(I4
I3
tp983
a(I3
I3
tp984
a(I3
I2
tp985
a(I2
I1
tp986
a(I1
I1
tp987
a(I1
I0
tp988
asg26
I6
sg27
(lp989
(icurlovision
StoneLayout
p990
(dp991
g31
F0.4791666666666667
sg32
(lp992
(icurlovision
Stone
p993
(dp994
g36
F-1.9166666666666667
sg37
F-2.7333333333333334
sg38
F0.45
sg39
S'red'
p995
sba(icurlovision
Stone
p996
(dp997
g36
F9.983333333333333
sg37
F1.6666666666666667
sg38
F0.43333333333333335
sg39
S'yellow'
p998
sbasba(icurlovision
StoneLayout
p999
(dp1000
g31
F0.4791666666666667
sg32
(lp1001
(icurlovision
Stone
p1002
(dp1003
g36
F6.166666666666667
sg37
F-2.533333333333333
sg38
F0.3333333333333333
sg39
S'yellow'
p1004
sba(icurlovision
Stone
p1005
(dp1006
g36
F-2.0666666666666664
sg37
F-2.8
sg38
F0.45
sg39
S'red'
p1007
sba(icurlovision
Stone
p1008
(dp1009
g36
F10.0
sg37
F1.7333333333333334
sg38
F0.2833333333333333
sg39
S'yellow'
p1010
sba(icurlovision
Stone
p1011
(dp1012
g36
F10.266666666666666
sg37
F-12.733333333333333
sg38
F0.2833333333333333
sg39
S'yellow'
p1013
sbasba(icurlovision
StoneLayout
p1014
(dp1015
g31
F0.4791666666666667
sg32
(lp1016
(icurlovision
Stone
p1017
(dp1018
g36
F1.0833333333333333
sg37
F1.6166666666666667
sg38
F0.31666666666666665
sg39
S'red'
p1019
sba(icurlovision
Stone
p1020
(dp1021
g36
F6.15
sg37
F-2.4833333333333334
sg38
F0.35
sg39
S'yellow'
p1022
sba(icurlovision
Stone
p1023
(dp1024
g36
F9.916666666666666
sg37
F1.75
sg38
F0.43333333333333335
sg39
S'yellow'
p1025
sba(icurlovision
Stone
p1026
(dp1027
g36
F-2.05
sg37
F-2.783333333333333
sg38
F0.43333333333333335
sg39
S'red'
p1028
sbasba(icurlovision
StoneLayout
p1029
(dp1030
g31
F0.4791666666666667
sg32
(lp1031
(icurlovision
Stone
p1032
(dp1033
g36
F6.428571428571428
sg37
F-2.5535714285714284
sg38
F0.46428571428571425
sg39
S'yellow'
p1034
sba(icurlovision
Stone
p1035
(dp1036
g36
F-2.107142857142857
sg37
F-1.9107142857142856
sg38
F0.3214285714285714
sg39
S'yellow'
p1037
sba(icurlovision
Stone
p1038
(dp1039
g36
F10.285714285714285
sg37
F1.875
sg38
F0.4464285714285714
sg39
S'yellow'
p1040
sba(icurlovision
Stone
p1041
(dp1042
g36
F1.0714285714285714
sg37
F1.5892857142857142
sg38
F0.26785714285714285
sg39
S'red'
p1043
sba(icurlovision
Stone
p1044
(dp1045
g36
F-2.357142857142857
sg37
F-3.1607142857142856
sg38
F0.46428571428571425
sg39
S'red'
p1046
sba(icurlovision
Stone
p1047
(dp1048
g36
F9.678571428571429
sg37
F-5.625
sg38
F0.3214285714285714
sg39
S'yellow'
p1049
sbasba(icurlovision
StoneLayout
p1050
(dp1051
g31
F0.4791666666666667
sg32
(lp1052
(icurlovision
Stone
p1053
(dp1054
g36
F-2.066326530612245
sg37
F-1.7908163265306123
sg38
F0.3214285714285714
sg39
S'yellow'
p1055
sba(icurlovision
Stone
p1056
(dp1057
g36
F1.1173469387755102
sg37
F1.5765306122448979
sg38
F0.336734693877551
sg39
S'red'
p1058
sba(icurlovision
Stone
p1059
(dp1060
g36
F-2.3418367346938775
sg37
F-3.0459183673469385
sg38
F0.336734693877551
sg39
S'red'
p1061
sba(icurlovision
Stone
p1062
(dp1063
g36
F-3.9948979591836733
sg37
F-5.5561224489795915
sg38
F0.45918367346938777
sg39
S'yellow'
p1064
sba(icurlovision
Stone
p1065
(dp1066
g36
F-6.321428571428571
sg37
F6.137755102040816
sg38
F0.29081632653061223
sg39
S'yellow'
p1067
sbasba(icurlovision
StoneLayout
p1068
(dp1069
g31
F0.4791666666666667
sg32
(lp1070
(icurlovision
Stone
p1071
(dp1072
g36
F-2.1
sg37
F-1.7999999999999998
sg38
F0.46875
sg39
S'yellow'
p1073
sba(icurlovision
Stone
p1074
(dp1075
g36
F-2.3625
sg37
F-3.0749999999999997
sg38
F0.33749999999999997
sg39
S'red'
p1076
sba(icurlovision
Stone
p1077
(dp1078
g36
F1.125
sg37
F1.6125
sg38
F0.44999999999999996
sg39
S'red'
p1079
sba(icurlovision
Stone
p1080
(dp1081
g36
F10.424999999999999
sg37
F-2.25
sg38
F0.44999999999999996
sg39
S'yellow'
p1082
sba(icurlovision
Stone
p1083
(dp1084
g36
F2.4375
sg37
F-14.8875
sg38
F0.31875
sg39
S'red'
p1085
sba(icurlovision
Stone
p1086
(dp1087
g36
F12.299999999999999
sg37
F-18.0
sg38
F0.50625
sg39
S'yellow'
p1088
sbasba(icurlovision
StoneLayout
p1089
(dp1090
g31
F0.4791666666666667
sg32
(lp1091
(icurlovision
Stone
p1092
(dp1093
g36
F1.107142857142857
sg37
F1.607142857142857
sg38
F0.46428571428571425
sg39
S'red'
p1094
sba(icurlovision
Stone
p1095
(dp1096
g36
F-2.142857142857143
sg37
F-1.8928571428571428
sg38
F0.33928571428571425
sg39
S'yellow'
p1097
sba(icurlovision
Stone
p1098
(dp1099
g36
F-2.4285714285714284
sg37
F-3.142857142857143
sg38
F0.46428571428571425
sg39
S'red'
p1100
sba(icurlovision
Stone
p1101
(dp1102
g36
F2.5
sg37
F-15.357142857142856
sg38
F0.3214285714285714
sg39
S'red'
p1103
sbasba(icurlovision
StoneLayout
p1104
(dp1105
g31
F0.4791666666666667
sg32
(lp1106
(icurlovision
Stone
p1107
(dp1108
g36
F1.1111111111111112
sg37
F1.597222222222222
sg38
F0.4583333333333333
sg39
S'red'
p1109
sba(icurlovision
Stone
p1110
(dp1111
g36
F-2.0277777777777777
sg37
F-1.875
sg38
F0.3472222222222222
sg39
S'yellow'
p1112
sba(icurlovision
Stone
p1113
(dp1114
g36
F2.333333333333333
sg37
F-2.6805555555555554
sg38
F0.3194444444444444
sg39
S'yellow'
p1115
sba(icurlovision
Stone
p1116
(dp1117
g36
F-2.2777777777777777
sg37
F-3.125
sg38
F0.4583333333333333
sg39
S'red'
p1118
sbasba(icurlovision
StoneLayout
p1119
(dp1120
g31
F0.4791666666666667
sg32
(lp1121
(icurlovision
Stone
p1122
(dp1123
g36
F1.0694444444444444
sg37
F1.611111111111111
sg38
F0.3472222222222222
sg39
S'red'
p1124
sba(icurlovision
Stone
p1125
(dp1126
g36
F-2.208333333333333
sg37
F-3.083333333333333
sg38
F0.4444444444444444
sg39
S'red'
p1127
sba(icurlovision
Stone
p1128
(dp1129
g36
F-6.736111111111111
sg37
F-3.194444444444444
sg38
F0.3333333333333333
sg39
S'red'
p1130
sbasba(icurlovision
StoneLayout
p1131
(dp1132
g31
F0.4791666666666667
sg32
(lp1133
(icurlovision
Stone
p1134
(dp1135
g36
F13.482558139534884
sg37
F-17.96511627906977
sg38
F0.2441860465116279
sg39
S'yellow'
p1136
sbasba(icurlovision
StoneLayout
p1137
(dp1138
g31
F0.4791666666666667
sg32
(lp1139
(icurlovision
Stone
p1140
(dp1141
g36
F3.485294117647059
sg37
F0.6323529411764706
sg38
F0.3235294117647059
sg39
S'yellow'
p1142
sba(icurlovision
Stone
p1143
(dp1144
g36
F1.0441176470588236
sg37
F1.6029411764705883
sg38
F0.3382352941176471
sg39
S'red'
p1145
sba(icurlovision
Stone
p1146
(dp1147
g36
F-2.338235294117647
sg37
F-3.0735294117647056
sg38
F0.3235294117647059
sg39
S'red'
p1148
sbasba(icurlovision
StoneLayout
p1149
(dp1150
g31
F0.4791666666666667
sg32
(lp1151
(icurlovision
Stone
p1152
(dp1153
g36
F1.0833333333333333
sg37
F1.607142857142857
sg38
F0.46428571428571425
sg39
S'red'
p1154
sbasba(icurlovision
StoneLayout
p1155
(dp1156
g31
F0.4791666666666667
sg32
(lp1157
(icurlovision
Stone
p1158
(dp1159
g36
F1.064516129032258
sg37
F1.5725806451612903
sg38
F0.3387096774193548
sg39
S'red'
p1160
sba(icurlovision
Stone
p1161
(dp1162
g36
F-2.225806451612903
sg37
F-3.120967741935484
sg38
F0.3387096774193548
sg39
S'red'
p1163
sbasbasg3
I8
sg299
I1
sba(icurlovision
EndResult
p1164
(dp1165
g2
I4
sg10
(lp1166
(I3
I3
tp1167
a(I2
I3
tp1168
a(I2
I2
tp1169
a(I1
I1
tp1170
a(I0
I1
tp1171
asg26
I7
sg27
(lp1172
(icurlovision
StoneLayout
p1173
(dp1174
g31
F0.4791666666666667
sg32
(lp1175
(icurlovision
Stone
p1176
(dp1177
g36
F-3.339622641509434
sg37
F-0.22641509433962265
sg38
F0.4528301886792453
sg39
S'red'
p1178
sba(icurlovision
Stone
p1179
(dp1180
g36
F2.4622641509433962
sg37
F-0.14150943396226415
sg38
F0.4528301886792453
sg39
S'yellow'
p1181
sba(icurlovision
Stone
p1182
(dp1183
g36
F-0.2830188679245283
sg37
F-0.3113207547169811
sg38
F0.2971698113207547
sg39
S'red'
p1184
sba(icurlovision
Stone
p1185
(dp1186
g36
F-3.509433962264151
sg37
F3.3962264150943398
sg38
F0.339622641509434
sg39
S'yellow'
p1187
sbasba(icurlovision
StoneLayout
p1188
(dp1189
g31
F0.4791666666666667
sg32
(lp1190
(icurlovision
Stone
p1191
(dp1192
g36
F-3.2704918032786883
sg37
F-0.19672131147540983
sg38
F0.3319672131147541
sg39
S'red'
p1193
sba(icurlovision
Stone
p1194
(dp1195
g36
F-0.29508196721311475
sg37
F-0.2704918032786885
sg38
F0.3442622950819672
sg39
S'red'
p1196
sba(icurlovision
Stone
p1197
(dp1198
g36
F-3.4672131147540983
sg37
F3.3688524590163933
sg38
F0.3442622950819672
sg39
S'yellow'
p1199
sbasba(icurlovision
StoneLayout
p1200
(dp1201
g31
F0.4791666666666667
sg32
(lp1202
(icurlovision
Stone
p1203
(dp1204
g36
F-3.3
sg37
F-0.20454545454545453
sg38
F0.44999999999999996
sg39
S'red'
p1205
sba(icurlovision
Stone
p1206
(dp1207
g36
F0.3
sg37
F0.44999999999999996
sg38
F0.32727272727272727
sg39
S'yellow'
p1208
sba(icurlovision
Stone
p1209
(dp1210
g36
F-0.32727272727272727
sg37
F-0.3136363636363636
sg38
F0.3409090909090909
sg39
S'red'
p1211
sba(icurlovision
Stone
p1212
(dp1213
g36
F-3.4909090909090907
sg37
F3.368181818181818
sg38
F0.3409090909090909
sg39
S'yellow'
p1214
sbasba(icurlovision
StoneLayout
p1215
(dp1216
g31
F0.4791666666666667
sg32
(lp1217
(icurlovision
Stone
p1218
(dp1219
g36
F-3.7379032258064515
sg37
F-0.4475806451612903
sg38
F0.3629032258064516
sg39
S'red'
p1220
sba(icurlovision
Stone
p1221
(dp1222
g36
F-5.310483870967742
sg37
F1.8024193548387095
sg38
F0.3387096774193548
sg39
S'yellow'
p1223
sba(icurlovision
Stone
p1224
(dp1225
g36
F-3.3024193548387095
sg37
F0.907258064516129
sg38
F0.3387096774193548
sg39
S'yellow'
p1226
sbasba(icurlovision
StoneLayout
p1227
(dp1228
g31
F0.4791666666666667
sg32
(lp1229
(icurlovision
Stone
p1230
(dp1231
g36
F-4.192622950819672
sg37
F4.561475409836065
sg38
F0.4426229508196721
sg39
S'red'
p1232
sba(icurlovision
Stone
p1233
(dp1234
g36
F-3.651639344262295
sg37
F-0.4057377049180328
sg38
F0.319672131147541
sg39
S'red'
p1235
sba(icurlovision
Stone
p1236
(dp1237
g36
F-5.151639344262295
sg37
F1.7581967213114753
sg38
F0.3319672131147541
sg39
S'yellow'
p1238
sbasbasg3
I8
sg299
I0
sba(icurlovision
EndResult
p1239
(dp1240
g2
I4
sg10
(lp1241
(I6
I6
tp1242
a(I4
I4
tp1243
a(I2
I2
tp1244
a(I2
I1
tp1245
a(I1
I1
tp1246
a(I1
I0
tp1247
asg26
I8
sg27
(lp1248
(icurlovision
StoneLayout
p1249
(dp1250
g31
F0.4791666666666667
sg32
(lp1251
(icurlovision
Stone
p1252
(dp1253
g36
F7.9875
sg37
F2.2125
sg38
F0.31875
sg39
S'yellow'
p1254
sba(icurlovision
Stone
p1255
(dp1256
g36
F-0.2625
sg37
F-3.7125
sg38
F0.33749999999999997
sg39
S'yellow'
p1257
sba(icurlovision
Stone
p1258
(dp1259
g36
F10.275
sg37
F-2.2875
sg38
F0.43124999999999997
sg39
S'yellow'
p1260
sba(icurlovision
Stone
p1261
(dp1262
g36
F-1.3125
sg37
F-3.1125
sg38
F0.44999999999999996
sg39
S'red'
p1263
sba(icurlovision
Stone
p1264
(dp1265
g36
F12.6
sg37
F-14.4375
sg38
F0.3
sg39
S'yellow'
p1266
sbasba(icurlovision
StoneLayout
p1267
(dp1268
g31
F0.4791666666666667
sg32
(lp1269
(icurlovision
Stone
p1270
(dp1271
g36
F-1.2704081632653061
sg37
F-3.137755102040816
sg38
F0.336734693877551
sg39
S'red'
p1272
sba(icurlovision
Stone
p1273
(dp1274
g36
F-0.1989795918367347
sg37
F-3.780612244897959
sg38
F0.336734693877551
sg39
S'yellow'
p1275
sba(icurlovision
Stone
p1276
(dp1277
g36
F-6.627551020408163
sg37
F4.362244897959184
sg38
F0.3214285714285714
sg39
S'yellow'
p1278
sbasba(icurlovision
StoneLayout
p1279
(dp1280
g31
F0.4791666666666667
sg32
(lp1281
(icurlovision
Stone
p1282
(dp1283
g36
F-0.2578125
sg37
F-3.6796875
sg38
F0.328125
sg39
S'yellow'
p1284
sbasba(icurlovision
StoneLayout
p1285
(dp1286
g31
F0.4791666666666667
sg32
(lp1287
(icurlovision
Stone
p1288
(dp1289
g36
F-1.3581081081081081
sg37
F-3.141891891891892
sg38
F0.46621621621621623
sg39
S'red'
p1290
sba(icurlovision
Stone
p1291
(dp1292
g36
F12.587837837837839
sg37
F-2.9391891891891895
sg38
F0.4256756756756757
sg39
S'yellow'
p1293
sba(icurlovision
Stone
p1294
(dp1295
g36
F-0.30405405405405406
sg37
F-3.75
sg38
F0.44594594594594594
sg39
S'yellow'
p1296
sba(icurlovision
Stone
p1297
(dp1298
g36
F3.831081081081081
sg37
F-17.736486486486488
sg38
F0.26351351351351354
sg39
S'red'
p1299
sbasba(icurlovision
StoneLayout
p1300
(dp1301
g31
F0.4791666666666667
sg32
(lp1302
(icurlovision
Stone
p1303
(dp1304
g36
F-0.5892857142857143
sg37
F-3.883928571428571
sg38
F0.33482142857142855
sg39
S'yellow'
p1305
sbasba(icurlovision
StoneLayout
p1306
(dp1307
g31
F0.4791666666666667
sg32
(lp1308
(icurlovision
Stone
p1309
(dp1310
g36
F0.6118421052631579
sg37
F-3.532894736842105
sg38
F0.3355263157894737
sg39
S'red'
p1311
sba(icurlovision
Stone
p1312
(dp1313
g36
F-0.5723684210526315
sg37
F-2.269736842105263
sg38
F0.47368421052631576
sg39
S'yellow'
p1314
sba(icurlovision
Stone
p1315
(dp1316
g36
F-1.282894736842105
sg37
F-3.138157894736842
sg38
F0.3157894736842105
sg39
S'red'
p1317
sba(icurlovision
Stone
p1318
(dp1319
g36
F-0.5723684210526315
sg37
F-3.888157894736842
sg38
F0.3355263157894737
sg39
S'yellow'
p1320
sba(icurlovision
Stone
p1321
(dp1322
g36
F12.730263157894736
sg37
F-2.8223684210526314
sg38
F0.3355263157894737
sg39
S'yellow'
p1323
sba(icurlovision
Stone
p1324
(dp1325
g36
F4.0855263157894735
sg37
F-17.861842105263158
sg38
F0.3355263157894737
sg39
S'red'
p1326
sba(icurlovision
Stone
p1327
(dp1328
g36
F13.32236842105263
sg37
F-15.177631578947368
sg38
F0.3157894736842105
sg39
S'yellow'
p1329
sba(icurlovision
Stone
p1330
(dp1331
g36
F1.9934210526315788
sg37
F-18.967105263157894
sg38
F0.3355263157894737
sg39
S'yellow'
p1332
sbasbasg3
I8
sg299
I1
sbasb.