(icurlovision
MatchResult
p0
(dp1
S'yel_score'
p2
I4
sS'name'
p3
S"VideoLibrary/PyeongChang.Olympics.2018.curling.women's.round-robin.Japan.v.Sweden.1080p.NBC.WEB-DL-FINFUNGUS.mp4"
p4
sS'end_results'
p5
(lp6
(icurlovision
EndResult
p7
(dp8
g2
I0
sS'stones_left'
p9
(lp10
(I8
I7
tp11
a(I7
I6
tp12
a(I6
I6
tp13
a(I5
I5
tp14
a(I4
I4
tp15
a(I3
I3
tp16
a(I3
I2
tp17
a(I2
I2
tp18
a(I2
I1
tp19
a(I1
I1
tp20
a(I1
I0
tp21
asS'end_num'
p22
I1
sS'stone_layouts'
p23
(lp24
(icurlovision
StoneLayout
p25
(dp26
S'stone_radius'
p27
F0.4791666666666667
sS'stones'
p28
(lp29
(icurlovision
Stone
p30
(dp31
S'y'
p32
F2.290178571428571
sS'x'
p33
F1.325892857142857
sS'r'
p34
F0.45535714285714285
sS'color'
p35
S'yellow'
p36
sba(icurlovision
Stone
p37
(dp38
g32
F3.5223214285714284
sg33
F3.0669642857142856
sg34
F0.30803571428571425
sg35
S'yellow'
p39
sba(icurlovision
Stone
p40
(dp41
g32
F3.2008928571428568
sg33
F-1.700892857142857
sg34
F0.4419642857142857
sg35
S'yellow'
p42
sba(icurlovision
Stone
p43
(dp44
g32
F3.174107142857143
sg33
F2.852678571428571
sg34
F0.40178571428571425
sg35
S'yellow'
p45
sbasba(icurlovision
StoneLayout
p46
(dp47
g27
F0.4791666666666667
sg28
(lp48
(icurlovision
Stone
p49
(dp50
g32
F-1.3160377358490567
sg33
F4.202830188679245
sg34
F0.3537735849056604
sg35
S'yellow'
p51
sba(icurlovision
Stone
p52
(dp53
g32
F5.9575471698113205
sg33
F-0.2688679245283019
sg34
F0.3113207547169811
sg35
S'yellow'
p54
sba(icurlovision
Stone
p55
(dp56
g32
F6.014150943396227
sg33
F2.1650943396226414
sg34
F0.32547169811320753
sg35
S'yellow'
p57
sba(icurlovision
Stone
p58
(dp59
g32
F5.7594339622641515
sg33
F1.9669811320754718
sg34
F0.4811320754716981
sg35
S'yellow'
p60
sbasba(icurlovision
StoneLayout
p61
(dp62
g27
F0.4791666666666667
sg28
(lp63
(icurlovision
Stone
p64
(dp65
g32
F0.15
sg33
F5.9399999999999995
sg34
F0.3
sg35
S'yellow'
p66
sba(icurlovision
Stone
p67
(dp68
g32
F0.51
sg33
F6.87
sg34
F0.495
sg35
S'yellow'
p69
sbasba(icurlovision
StoneLayout
p70
(dp71
g27
F0.4791666666666667
sg28
(lp72
(icurlovision
Stone
p73
(dp74
g32
F-2.5991379310344827
sg33
F-0.5301724137931034
sg34
F0.34913793103448276
sg35
S'yellow'
p75
sba(icurlovision
Stone
p76
(dp77
g32
F-5.780172413793103
sg33
F6.426724137931035
sg34
F0.46551724137931033
sg35
S'red'
p78
sbasba(icurlovision
StoneLayout
p79
(dp80
g27
F0.4791666666666667
sg28
(lp81
(icurlovision
Stone
p82
(dp83
g32
F-2.676470588235294
sg33
F1.2941176470588236
sg34
F0.3382352941176471
sg35
S'yellow'
p84
sba(icurlovision
Stone
p85
(dp86
g32
F5.38235294117647
sg33
F-0.4117647058823529
sg34
F0.3235294117647059
sg35
S'red'
p87
sba(icurlovision
Stone
p88
(dp89
g32
F0.7058823529411764
sg33
F0.1764705882352941
sg34
F0.45588235294117646
sg35
S'yellow'
p90
sbasba(icurlovision
StoneLayout
p91
(dp92
g27
F0.4791666666666667
sg28
(lp93
(icurlovision
Stone
p94
(dp95
g32
F-2.676470588235294
sg33
F1.3235294117647058
sg34
F0.47058823529411764
sg35
S'yellow'
p96
sba(icurlovision
Stone
p97
(dp98
g32
F3.911764705882353
sg33
F4.0588235294117645
sg34
F0.29411764705882354
sg35
S'red'
p99
sba(icurlovision
Stone
p100
(dp101
g32
F-0.4117647058823529
sg33
F4.617647058823529
sg34
F0.5
sg35
S'yellow'
p102
sbasba(icurlovision
StoneLayout
p103
(dp104
g27
F0.4791666666666667
sg28
(lp105
(icurlovision
Stone
p106
(dp107
g32
F-2.547169811320755
sg33
F1.3018867924528301
sg34
F0.4528301886792453
sg35
S'yellow'
p108
sba(icurlovision
Stone
p109
(dp110
g32
F4.30188679245283
sg33
F2.8867924528301887
sg34
F0.3679245283018868
sg35
S'yellow'
p111
sbasba(icurlovision
StoneLayout
p112
(dp113
g27
F0.4791666666666667
sg28
(lp114
(icurlovision
Stone
p115
(dp116
g32
F-1.7596153846153848
sg33
F1.3846153846153846
sg34
F0.46153846153846156
sg35
S'red'
p117
sba(icurlovision
Stone
p118
(dp119
g32
F4.355769230769231
sg33
F3.028846153846154
sg34
F0.3317307692307693
sg35
S'yellow'
p120
sba(icurlovision
Stone
p121
(dp122
g32
F2.653846153846154
sg33
F0.057692307692307696
sg34
F0.4326923076923077
sg35
S'yellow'
p123
sbasba(icurlovision
StoneLayout
p124
(dp125
g27
F0.4791666666666667
sg28
(lp126
(icurlovision
Stone
p127
(dp128
g32
F-0.8839285714285714
sg33
F1.7142857142857142
sg34
F0.4821428571428571
sg35
S'yellow'
p129
sba(icurlovision
Stone
p130
(dp131
g32
F4.392857142857142
sg33
F3.026785714285714
sg34
F0.4419642857142857
sg35
S'yellow'
p132
sbasba(icurlovision
StoneLayout
p133
(dp134
g27
F0.4791666666666667
sg28
(lp135
(icurlovision
Stone
p136
(dp137
g32
F-0.058823529411764705
sg33
F2.1176470588235294
sg34
F0.3529411764705882
sg35
S'red'
p138
sba(icurlovision
Stone
p139
(dp140
g32
F4.38235294117647
sg33
F3.0294117647058822
sg34
F0.47058823529411764
sg35
S'yellow'
p141
sbasba(icurlovision
StoneLayout
p142
(dp143
g27
F0.4791666666666667
sg28
(lp144
(icurlovision
Stone
p145
(dp146
g32
F4.370192307692308
sg33
F3.014423076923077
sg34
F0.4326923076923077
sg35
S'yellow'
p147
sbasbasS'red_score'
p148
I0
sS'red_hammer'
p149
I1
sba(icurlovision
EndResult
p150
(dp151
g2
I0
sg9
(lp152
(I8
I7
tp153
a(I7
I6
tp154
a(I6
I5
tp155
a(I5
I5
tp156
a(I4
I4
tp157
a(I4
I3
tp158
a(I3
I3
tp159
a(I3
I2
tp160
a(I2
I1
tp161
a(I1
I1
tp162
a(I1
I0
tp163
asg22
I2
sg23
(lp164
(icurlovision
StoneLayout
p165
(dp166
g27
F0.4791666666666667
sg28
(lp167
(icurlovision
Stone
p168
(dp169
g32
F1.1323529411764706
sg33
F0.16176470588235295
sg34
F0.3382352941176471
sg35
S'yellow'
p170
sba(icurlovision
Stone
p171
(dp172
g32
F6.779411764705882
sg33
F3.0735294117647056
sg34
F0.4852941176470588
sg35
S'yellow'
p173
sbasba(icurlovision
StoneLayout
p174
(dp175
g27
F0.4791666666666667
sg28
(lp176
(icurlovision
Stone
p177
(dp178
g32
F2.7613636363636362
sg33
F-0.40909090909090906
sg34
F0.47727272727272724
sg35
S'yellow'
p179
sba(icurlovision
Stone
p180
(dp181
g32
F1.125
sg33
F0.13636363636363635
sg34
F0.2727272727272727
sg35
S'yellow'
p182
sba(icurlovision
Stone
p183
(dp184
g32
F11.284090909090908
sg33
F-3.9886363636363633
sg34
F0.4431818181818181
sg35
S'red'
p185
sbasba(icurlovision
StoneLayout
p186
(dp187
g27
F0.4791666666666667
sg28
(lp188
(icurlovision
Stone
p189
(dp190
g32
F-2.5357142857142856
sg33
F0.6785714285714285
sg34
F0.46428571428571425
sg35
S'yellow'
p191
sba(icurlovision
Stone
p192
(dp193
g32
F11.035714285714285
sg33
F-3.964285714285714
sg34
F0.42857142857142855
sg35
S'red'
p194
sba(icurlovision
Stone
p195
(dp196
g32
F1.9642857142857142
sg33
F-0.10714285714285714
sg34
F0.3214285714285714
sg35
S'yellow'
p197
sbasba(icurlovision
StoneLayout
p198
(dp199
g27
F0.4791666666666667
sg28
(lp200
(icurlovision
Stone
p201
(dp202
g32
F-2.6346153846153846
sg33
F0.6730769230769231
sg34
F0.4807692307692308
sg35
S'yellow'
p203
sba(icurlovision
Stone
p204
(dp205
g32
F11.51923076923077
sg33
F-4.134615384615385
sg34
F0.2692307692307693
sg35
S'red'
p206
sba(icurlovision
Stone
p207
(dp208
g32
F-2.75
sg33
F-6.557692307692308
sg34
F0.5
sg35
S'yellow'
p209
sbasba(icurlovision
StoneLayout
p210
(dp211
g27
F0.4791666666666667
sg28
(lp212
(icurlovision
Stone
p213
(dp214
g32
F-2.5833333333333335
sg33
F0.6833333333333333
sg34
F0.4666666666666667
sg35
S'yellow'
p215
sba(icurlovision
Stone
p216
(dp217
g32
F10.85
sg33
F-3.6166666666666667
sg34
F0.3
sg35
S'red'
p218
sba(icurlovision
Stone
p219
(dp220
g32
F11.583333333333334
sg33
F-6.083333333333333
sg34
F0.3
sg35
S'yellow'
p221
sba(icurlovision
Stone
p222
(dp223
g32
F5.65
sg33
F-3.5833333333333335
sg34
F0.5166666666666666
sg35
S'yellow'
p224
sbasba(icurlovision
StoneLayout
p225
(dp226
g27
F0.4791666666666667
sg28
(lp227
(icurlovision
Stone
p228
(dp229
g32
F-2.5212765957446805
sg33
F0.6702127659574467
sg34
F0.33510638297872336
sg35
S'yellow'
p230
sba(icurlovision
Stone
p231
(dp232
g32
F-3.4468085106382977
sg33
F-6.861702127659574
sg34
F0.4627659574468085
sg35
S'red'
p233
sbasba(icurlovision
StoneLayout
p234
(dp235
g27
F0.4791666666666667
sg28
(lp236
(icurlovision
Stone
p237
(dp238
g32
F-2.5227272727272725
sg33
F0.6818181818181818
sg34
F0.4602272727272727
sg35
S'yellow'
p239
sba(icurlovision
Stone
p240
(dp241
g32
F-3.443181818181818
sg33
F-6.920454545454545
sg34
F0.32386363636363635
sg35
S'red'
p242
sba(icurlovision
Stone
p243
(dp244
g32
F9.477272727272727
sg33
F2.5568181818181817
sg34
F0.28977272727272724
sg35
S'red'
p245
sbasba(icurlovision
StoneLayout
p246
(dp247
g27
F0.4791666666666667
sg28
(lp248
(icurlovision
Stone
p249
(dp250
g32
F-2.5096153846153846
sg33
F0.6923076923076923
sg34
F0.44711538461538464
sg35
S'yellow'
p251
sba(icurlovision
Stone
p252
(dp253
g32
F8.336538461538462
sg33
F-0.8076923076923077
sg34
F0.31730769230769235
sg35
S'yellow'
p254
sba(icurlovision
Stone
p255
(dp256
g32
F-3.432692307692308
sg33
F-6.865384615384616
sg34
F0.4759615384615385
sg35
S'red'
p257
sbasba(icurlovision
StoneLayout
p258
(dp259
g27
F0.4791666666666667
sg28
(lp260
(icurlovision
Stone
p261
(dp262
g32
F-2.4948979591836733
sg33
F0.6887755102040816
sg34
F0.45918367346938777
sg35
S'yellow'
p263
sba(icurlovision
Stone
p264
(dp265
g32
F9.107142857142858
sg33
F-1.3010204081632653
sg34
F0.336734693877551
sg35
S'yellow'
p266
sba(icurlovision
Stone
p267
(dp268
g32
F-3.4132653061224487
sg33
F-6.872448979591836
sg34
F0.45918367346938777
sg35
S'red'
p269
sba(icurlovision
Stone
p270
(dp271
g32
F-2.892857142857143
sg33
F5.096938775510204
sg34
F0.3214285714285714
sg35
S'yellow'
p272
sba(icurlovision
Stone
p273
(dp274
g32
F-4.637755102040816
sg33
F-4.545918367346939
sg34
F0.45918367346938777
sg35
S'red'
p275
sbasba(icurlovision
StoneLayout
p276
(dp277
g27
F0.4791666666666667
sg28
(lp278
(icurlovision
Stone
p279
(dp280
g32
F-2.510869565217391
sg33
F0.6684782608695652
sg34
F0.45652173913043476
sg35
S'yellow'
p281
sba(icurlovision
Stone
p282
(dp283
g32
F-3.391304347826087
sg33
F-6.864130434782608
sg34
F0.45652173913043476
sg35
S'red'
p284
sba(icurlovision
Stone
p285
(dp286
g32
F7.434782608695652
sg33
F-2.8532608695652173
sg34
F0.27717391304347827
sg35
S'red'
p287
sba(icurlovision
Stone
p288
(dp289
g32
F9.0
sg33
F-1.2880434782608696
sg34
F0.44021739130434784
sg35
S'yellow'
p290
sbasba(icurlovision
StoneLayout
p291
(dp292
g27
F0.4791666666666667
sg28
(lp293
(icurlovision
Stone
p294
(dp295
g32
F-2.5
sg33
F0.65625
sg34
F0.453125
sg35
S'yellow'
p296
sba(icurlovision
Stone
p297
(dp298
g32
F9.1875
sg33
F0.1875
sg34
F0.453125
sg35
S'yellow'
p299
sba(icurlovision
Stone
p300
(dp301
g32
F8.9375
sg33
F-1.3125
sg34
F0.4375
sg35
S'yellow'
p302
sba(icurlovision
Stone
p303
(dp304
g32
F7.375
sg33
F-2.875
sg34
F0.4375
sg35
S'red'
p305
sba(icurlovision
Stone
p306
(dp307
g32
F-3.40625
sg33
F-6.84375
sg34
F0.296875
sg35
S'red'
p308
sbasbasg148
I1
sg149
I1
sba(icurlovision
EndResult
p309
(dp310
g2
I1
sg9
(lp311
(I7
I7
tp312
a(I6
I7
tp313
a(I4
I5
tp314
a(I4
I4
tp315
a(I3
I4
tp316
a(I2
I2
tp317
a(I1
I2
tp318
a(I0
I1
tp319
asg22
I3
sg23
(lp320
(icurlovision
StoneLayout
p321
(dp322
g27
F0.4791666666666667
sg28
(lp323
(icurlovision
Stone
p324
(dp325
g32
F11.331521739130434
sg33
F-0.5380434782608695
sg34
F0.42391304347826086
sg35
S'red'
p326
sba(icurlovision
Stone
p327
(dp328
g32
F7.125
sg33
F3.244565217391304
sg34
F0.34239130434782605
sg35
S'yellow'
p329
sba(icurlovision
Stone
p330
(dp331
g32
F8.918478260869565
sg33
F1.2880434782608696
sg34
F0.47282608695652173
sg35
S'yellow'
p332
sbasba(icurlovision
StoneLayout
p333
(dp334
g27
F0.4791666666666667
sg28
(lp335
(icurlovision
Stone
p336
(dp337
g32
F7.132978723404254
sg33
F3.223404255319149
sg34
F0.44680851063829785
sg35
S'yellow'
p338
sba(icurlovision
Stone
p339
(dp340
g32
F0.14361702127659573
sg33
F0.3829787234042553
sg34
F0.33510638297872336
sg35
S'red'
p341
sba(icurlovision
Stone
p342
(dp343
g32
F11.409574468085106
sg33
F-0.5744680851063829
sg34
F0.4308510638297872
sg35
S'red'
p344
sbasba(icurlovision
StoneLayout
p345
(dp346
g27
F0.4791666666666667
sg28
(lp347
(icurlovision
Stone
p348
(dp349
g32
F6.878048780487805
sg33
F-1.2804878048780488
sg34
F0.4390243902439024
sg35
S'red'
p350
sba(icurlovision
Stone
p351
(dp352
g32
F-1.8658536585365852
sg33
F-0.5853658536585366
sg34
F0.3292682926829268
sg35
S'yellow'
p353
sba(icurlovision
Stone
p354
(dp355
g32
F7.317073170731707
sg33
F3.3658536585365852
sg34
F0.45731707317073167
sg35
S'yellow'
p356
sba(icurlovision
Stone
p357
(dp358
g32
F11.670731707317072
sg33
F-0.548780487804878
sg34
F0.4390243902439024
sg35
S'red'
p359
sba(icurlovision
Stone
p360
(dp361
g32
F-3.3292682926829267
sg33
F-4.2073170731707314
sg34
F0.31097560975609756
sg35
S'red'
p362
sba(icurlovision
Stone
p363
(dp364
g32
F-1.573170731707317
sg33
F1.9024390243902438
sg34
F0.5121951219512195
sg35
S'yellow'
p365
sbasba(icurlovision
StoneLayout
p366
(dp367
g27
F0.4791666666666667
sg28
(lp368
(icurlovision
Stone
p369
(dp370
g32
F7.390243902439024
sg33
F3.3292682926829267
sg34
F0.4390243902439024
sg35
S'yellow'
p371
sba(icurlovision
Stone
p372
(dp373
g32
F6.951219512195122
sg33
F-1.3536585365853657
sg34
F0.45731707317073167
sg35
S'red'
p374
sba(icurlovision
Stone
p375
(dp376
g32
F-3.3658536585365852
sg33
F-4.2073170731707314
sg34
F0.3292682926829268
sg35
S'red'
p377
sba(icurlovision
Stone
p378
(dp379
g32
F11.780487804878048
sg33
F-0.6219512195121951
sg34
F0.4390243902439024
sg35
S'red'
p380
sba(icurlovision
Stone
p381
(dp382
g32
F-1.8658536585365852
sg33
F-0.5853658536585366
sg34
F0.3292682926829268
sg35
S'yellow'
p383
sba(icurlovision
Stone
p384
(dp385
g32
F-4.24390243902439
sg33
F0.036585365853658534
sg34
F0.3475609756097561
sg35
S'yellow'
p386
sbasba(icurlovision
StoneLayout
p387
(dp388
g27
F0.4791666666666667
sg28
(lp389
(icurlovision
Stone
p390
(dp391
g32
F-1.857142857142857
sg33
F-0.5714285714285714
sg34
F0.3214285714285714
sg35
S'yellow'
p392
sba(icurlovision
Stone
p393
(dp394
g32
F-3.321428571428571
sg33
F-4.214285714285714
sg34
F0.2857142857142857
sg35
S'red'
p395
sba(icurlovision
Stone
p396
(dp397
g32
F6.857142857142857
sg33
F-1.3214285714285714
sg34
F0.4464285714285714
sg35
S'red'
p398
sba(icurlovision
Stone
p399
(dp400
g32
F7.285714285714286
sg33
F3.321428571428571
sg34
F0.4464285714285714
sg35
S'yellow'
p401
sba(icurlovision
Stone
p402
(dp403
g32
F11.642857142857142
sg33
F-0.5357142857142857
sg34
F0.4464285714285714
sg35
S'red'
p404
sba(icurlovision
Stone
p405
(dp406
g32
F0.42857142857142855
sg33
F-0.5714285714285714
sg34
F0.46428571428571425
sg35
S'red'
p407
sba(icurlovision
Stone
p408
(dp409
g32
F-4.214285714285714
sg33
F0.0
sg34
F0.33928571428571425
sg35
S'yellow'
p410
sba(icurlovision
Stone
p411
(dp412
g32
F-4.392857142857142
sg33
F1.0357142857142856
sg34
F0.3571428571428571
sg35
S'yellow'
p413
sbasba(icurlovision
StoneLayout
p414
(dp415
g27
F0.4791666666666667
sg28
(lp416
(icurlovision
Stone
p417
(dp418
g32
F-1.875
sg33
F-0.5625
sg34
F0.3605769230769231
sg35
S'yellow'
p419
sba(icurlovision
Stone
p420
(dp421
g32
F7.096153846153847
sg33
F-1.0528846153846154
sg34
F0.46153846153846156
sg35
S'red'
p422
sba(icurlovision
Stone
p423
(dp424
g32
F7.413461538461539
sg33
F3.447115384615385
sg34
F0.3605769230769231
sg35
S'yellow'
p425
sba(icurlovision
Stone
p426
(dp427
g32
F-3.057692307692308
sg33
F-3.245192307692308
sg34
F0.3317307692307693
sg35
S'red'
p428
sba(icurlovision
Stone
p429
(dp430
g32
F-4.730769230769231
sg33
F6.418269230769231
sg34
F0.4759615384615385
sg35
S'red'
p431
sba(icurlovision
Stone
p432
(dp433
g32
F-3.375
sg33
F-4.283653846153847
sg34
F0.3317307692307693
sg35
S'red'
p434
sba(icurlovision
Stone
p435
(dp436
g32
F-4.240384615384616
sg33
F0.014423076923076924
sg34
F0.34615384615384615
sg35
S'yellow'
p437
sbasba(icurlovision
StoneLayout
p438
(dp439
g27
F0.4791666666666667
sg28
(lp440
(icurlovision
Stone
p441
(dp442
g32
F7.125
sg33
F-1.09375
sg34
F0.46875
sg35
S'red'
p443
sba(icurlovision
Stone
p444
(dp445
g32
F-3.875
sg33
F1.0
sg34
F0.359375
sg35
S'red'
p446
sba(icurlovision
Stone
p447
(dp448
g32
F-1.875
sg33
F-0.5625
sg34
F0.3125
sg35
S'yellow'
p449
sba(icurlovision
Stone
p450
(dp451
g32
F7.375
sg33
F3.40625
sg34
F0.453125
sg35
S'yellow'
p452
sba(icurlovision
Stone
p453
(dp454
g32
F-3.40625
sg33
F-4.3125
sg34
F0.4375
sg35
S'red'
p455
sba(icurlovision
Stone
p456
(dp457
g32
F-3.0625
sg33
F-3.28125
sg34
F0.328125
sg35
S'red'
p458
sba(icurlovision
Stone
p459
(dp460
g32
F-4.71875
sg33
F6.4375
sg34
F0.484375
sg35
S'red'
p461
sba(icurlovision
Stone
p462
(dp463
g32
F-4.90625
sg33
F-0.5
sg34
F0.34375
sg35
S'yellow'
p464
sba(icurlovision
Stone
p465
(dp466
g32
F-5.75
sg33
F4.03125
sg34
F0.296875
sg35
S'yellow'
p467
sbasba(icurlovision
StoneLayout
p468
(dp469
g27
F0.4791666666666667
sg28
(lp470
(icurlovision
Stone
p471
(dp472
g32
F-2.25
sg33
F-0.5735294117647058
sg34
F0.45588235294117646
sg35
S'yellow'
p473
sba(icurlovision
Stone
p474
(dp475
g32
F-1.6911764705882353
sg33
F0.3382352941176471
sg34
F0.47058823529411764
sg35
S'yellow'
p476
sba(icurlovision
Stone
p477
(dp478
g32
F-3.338235294117647
sg33
F-4.25
sg34
F0.3382352941176471
sg35
S'red'
p479
sba(icurlovision
Stone
p480
(dp481
g32
F-1.3088235294117647
sg33
F-1.5147058823529411
sg34
F0.3382352941176471
sg35
S'red'
p482
sba(icurlovision
Stone
p483
(dp484
g32
F-3.8088235294117645
sg33
F0.9852941176470588
sg34
F0.3529411764705882
sg35
S'red'
p485
sba(icurlovision
Stone
p486
(dp487
g32
F7.3088235294117645
sg33
F3.338235294117647
sg34
F0.45588235294117646
sg35
S'yellow'
p488
sba(icurlovision
Stone
p489
(dp490
g32
F7.073529411764706
sg33
F-1.1029411764705883
sg34
F0.3235294117647059
sg35
S'red'
p491
sba(icurlovision
Stone
p492
(dp493
g32
F-3.014705882352941
sg33
F-3.2794117647058822
sg34
F0.3529411764705882
sg35
S'red'
p494
sba(icurlovision
Stone
p495
(dp496
g32
F-4.661764705882353
sg33
F6.338235294117647
sg34
F0.47058823529411764
sg35
S'red'
p497
sba(icurlovision
Stone
p498
(dp499
g32
F-4.838235294117647
sg33
F-0.4852941176470588
sg34
F0.3529411764705882
sg35
S'yellow'
p500
sbasbasg148
I1
sg149
I0
sba(icurlovision
EndResult
p501
(dp502
g2
I2
sg9
(lp503
(I6
I6
tp504
a(I5
I5
tp505
a(I5
I4
tp506
a(I4
I4
tp507
a(I2
I1
tp508
a(I1
I1
tp509
a(I1
I0
tp510
asg22
I4
sg23
(lp511
(icurlovision
StoneLayout
p512
(dp513
g27
F0.4791666666666667
sg28
(lp514
(icurlovision
Stone
p515
(dp516
g32
F2.7162162162162162
sg33
F0.28378378378378377
sg34
F0.3445945945945946
sg35
S'yellow'
p517
sba(icurlovision
Stone
p518
(dp519
g32
F15.121621621621623
sg33
F-3.5675675675675675
sg34
F0.44594594594594594
sg35
S'red'
p520
sba(icurlovision
Stone
p521
(dp522
g32
F5.635135135135135
sg33
F-2.675675675675676
sg34
F0.32432432432432434
sg35
S'yellow'
p523
sbasba(icurlovision
StoneLayout
p524
(dp525
g27
F0.4791666666666667
sg28
(lp526
(icurlovision
Stone
p527
(dp528
g32
F2.7828947368421053
sg33
F0.256578947368421
sg34
F0.35526315789473684
sg35
S'yellow'
p529
sba(icurlovision
Stone
p530
(dp531
g32
F9.256578947368421
sg33
F2.3486842105263155
sg34
F0.43421052631578944
sg35
S'red'
p532
sba(icurlovision
Stone
p533
(dp534
g32
F15.414473684210526
sg33
F-3.5723684210526314
sg34
F0.41447368421052627
sg35
S'red'
p535
sba(icurlovision
Stone
p536
(dp537
g32
F5.782894736842105
sg33
F-2.7434210526315788
sg34
F0.3355263157894737
sg35
S'yellow'
p538
sba(icurlovision
Stone
p539
(dp540
g32
F-3.019736842105263
sg33
F-2.3092105263157894
sg34
F0.35526315789473684
sg35
S'yellow'
p541
sbasba(icurlovision
StoneLayout
p542
(dp543
g27
F0.4791666666666667
sg28
(lp544
(icurlovision
Stone
p545
(dp546
g32
F9.470930232558139
sg33
F0.2965116279069767
sg34
F0.436046511627907
sg35
S'yellow'
p547
sba(icurlovision
Stone
p548
(dp549
g32
F7.970930232558139
sg33
F4.238372093023256
sg34
F0.436046511627907
sg35
S'red'
p550
sba(icurlovision
Stone
p551
(dp552
g32
F15.122093023255815
sg33
F-3.505813953488372
sg34
F0.41860465116279066
sg35
S'red'
p553
sba(icurlovision
Stone
p554
(dp555
g32
F2.738372093023256
sg33
F0.22674418604651161
sg34
F0.45348837209302323
sg35
S'yellow'
p556
sba(icurlovision
Stone
p557
(dp558
g32
F5.703488372093023
sg33
F-2.6686046511627906
sg34
F0.3313953488372093
sg35
S'yellow'
p559
sba(icurlovision
Stone
p560
(dp561
g32
F10.691860465116278
sg33
F-2.2151162790697674
sg34
F0.5058139534883721
sg35
S'yellow'
p562
sba(icurlovision
Stone
p563
(dp564
g32
F10.831395348837209
sg33
F2.7732558139534884
sg34
F0.3313953488372093
sg35
S'yellow'
p565
sbasba(icurlovision
StoneLayout
p566
(dp567
g27
F0.4791666666666667
sg28
(lp568
(icurlovision
Stone
p569
(dp570
g32
F8.195121951219512
sg33
F4.371951219512195
sg34
F0.45731707317073167
sg35
S'red'
p571
sba(icurlovision
Stone
p572
(dp573
g32
F9.548780487804878
sg33
F0.3841463414634146
sg34
F0.4390243902439024
sg35
S'yellow'
p574
sba(icurlovision
Stone
p575
(dp576
g32
F2.817073170731707
sg33
F0.274390243902439
sg34
F0.3475609756097561
sg35
S'yellow'
p577
sba(icurlovision
Stone
p578
(dp579
g32
F13.207317073170731
sg33
F0.0548780487804878
sg34
F0.45731707317073167
sg35
S'yellow'
p580
sba(icurlovision
Stone
p581
(dp582
g32
F5.817073170731707
sg33
F-2.7621951219512195
sg34
F0.274390243902439
sg35
S'yellow'
p583
sba(icurlovision
Stone
p584
(dp585
g32
F15.548780487804876
sg33
F-3.6036585365853657
sg34
F0.4390243902439024
sg35
S'red'
p586
sbasba(icurlovision
StoneLayout
p587
(dp588
g27
F0.4791666666666667
sg28
(lp589
(icurlovision
Stone
p590
(dp591
g32
F2.714285714285714
sg33
F0.25
sg34
F0.3214285714285714
sg35
S'yellow'
p592
sba(icurlovision
Stone
p593
(dp594
g32
F8.607142857142856
sg33
F3.964285714285714
sg34
F0.42857142857142855
sg35
S'yellow'
p595
sba(icurlovision
Stone
p596
(dp597
g32
F10.5
sg33
F-5.5
sg34
F0.4107142857142857
sg35
S'red'
p598
sba(icurlovision
Stone
p599
(dp600
g32
F12.892857142857142
sg33
F0.14285714285714285
sg34
F0.39285714285714285
sg35
S'yellow'
p601
sba(icurlovision
Stone
p602
(dp603
g32
F5.642857142857142
sg33
F-2.607142857142857
sg34
F0.33928571428571425
sg35
S'yellow'
p604
sba(icurlovision
Stone
p605
(dp606
g32
F6.535714285714286
sg33
F-5.178571428571428
sg34
F0.4464285714285714
sg35
S'red'
p607
sba(icurlovision
Stone
p608
(dp609
g32
F14.964285714285714
sg33
F-3.464285714285714
sg34
F0.39285714285714285
sg35
S'red'
p610
sbasba(icurlovision
StoneLayout
p611
(dp612
g27
F0.4791666666666667
sg28
(lp613
(icurlovision
Stone
p614
(dp615
g32
F2.703488372093023
sg33
F0.27906976744186046
sg34
F0.3313953488372093
sg35
S'yellow'
p616
sba(icurlovision
Stone
p617
(dp618
g32
F8.703488372093023
sg33
F3.9767441860465116
sg34
F0.45348837209302323
sg35
S'yellow'
p619
sba(icurlovision
Stone
p620
(dp621
g32
F6.575581395348837
sg33
F-5.232558139534883
sg34
F0.436046511627907
sg35
S'red'
p622
sba(icurlovision
Stone
p623
(dp624
g32
F5.6686046511627906
sg33
F-2.6162790697674416
sg34
F0.436046511627907
sg35
S'yellow'
p625
sba(icurlovision
Stone
p626
(dp627
g32
F15.122093023255815
sg33
F-3.488372093023256
sg34
F0.41860465116279066
sg35
S'red'
p628
sba(icurlovision
Stone
p629
(dp630
g32
F12.226744186046512
sg33
F1.1511627906976745
sg34
F0.4011627906976744
sg35
S'yellow'
p631
sba(icurlovision
Stone
p632
(dp633
g32
F10.587209302325581
sg33
F-5.5813953488372094
sg34
F0.2965116279069767
sg35
S'red'
p634
sba(icurlovision
Stone
p635
(dp636
g32
F4.377906976744186
sg33
F-4.151162790697675
sg34
F0.2965116279069767
sg35
S'red'
p637
sbasba(icurlovision
StoneLayout
p638
(dp639
g27
F0.4791666666666667
sg28
(lp640
(icurlovision
Stone
p641
(dp642
g32
F8.797297297297298
sg33
F4.054054054054054
sg34
F0.44594594594594594
sg35
S'yellow'
p643
sba(icurlovision
Stone
p644
(dp645
g32
F15.202702702702704
sg33
F-3.527027027027027
sg34
F0.40540540540540543
sg35
S'red'
p646
sba(icurlovision
Stone
p647
(dp648
g32
F12.405405405405405
sg33
F1.1756756756756757
sg34
F0.44594594594594594
sg35
S'yellow'
p649
sba(icurlovision
Stone
p650
(dp651
g32
F10.662162162162163
sg33
F-5.594594594594595
sg34
F0.4256756756756757
sg35
S'red'
p652
sba(icurlovision
Stone
p653
(dp654
g32
F5.675675675675676
sg33
F-2.675675675675676
sg34
F0.28378378378378377
sg35
S'yellow'
p655
sba(icurlovision
Stone
p656
(dp657
g32
F6.608108108108109
sg33
F-5.27027027027027
sg34
F0.44594594594594594
sg35
S'red'
p658
sba(icurlovision
Stone
p659
(dp660
g32
F7.013513513513514
sg33
F-0.28378378378378377
sg34
F0.46621621621621623
sg35
S'yellow'
p661
sba(icurlovision
Stone
p662
(dp663
g32
F4.45945945945946
sg33
F-4.175675675675676
sg34
F0.26351351351351354
sg35
S'red'
p664
sba(icurlovision
Stone
p665
(dp666
g32
F2.7162162162162162
sg33
F0.28378378378378377
sg34
F0.46621621621621623
sg35
S'yellow'
p667
sbasbasg148
I1
sg149
I1
sba(icurlovision
EndResult
p668
(dp669
g2
I2
sg9
(lp670
(I8
I7
tp671
a(I7
I7
tp672
a(I7
I6
tp673
a(I6
I6
tp674
a(I6
I5
tp675
a(I5
I5
tp676
a(I4
I4
tp677
a(I4
I3
tp678
a(I3
I3
tp679
a(I3
I2
tp680
a(I2
I2
tp681
a(I2
I1
tp682
a(I1
I1
tp683
a(I1
I0
tp684
asg22
I5
sg23
(lp685
(icurlovision
StoneLayout
p686
(dp687
g27
F0.4791666666666667
sg28
(lp688
(icurlovision
Stone
p689
(dp690
g32
F12.313953488372093
sg33
F0.27906976744186046
sg34
F0.436046511627907
sg35
S'yellow'
p691
sbasba(icurlovision
StoneLayout
p692
(dp693
g27
F0.4791666666666667
sg28
(lp694
(icurlovision
Stone
p695
(dp696
g32
F7.183333333333334
sg33
F0.2833333333333333
sg34
F0.31666666666666665
sg35
S'red'
p697
sba(icurlovision
Stone
p698
(dp699
g32
F11.95
sg33
F0.31666666666666665
sg34
F0.43333333333333335
sg35
S'yellow'
p700
sbasba(icurlovision
StoneLayout
p701
(dp702
g27
F0.4791666666666667
sg28
(lp703
(icurlovision
Stone
p704
(dp705
g32
F3.2560975609756095
sg33
F2.0853658536585367
sg34
F0.3292682926829268
sg35
S'yellow'
p706
sba(icurlovision
Stone
p707
(dp708
g32
F7.573170731707316
sg33
F0.2195121951219512
sg34
F0.3292682926829268
sg35
S'red'
p709
sba(icurlovision
Stone
p710
(dp711
g32
F12.585365853658535
sg33
F0.18292682926829268
sg34
F0.4390243902439024
sg35
S'yellow'
p712
sbasba(icurlovision
StoneLayout
p713
(dp714
g27
F0.4791666666666667
sg28
(lp715
(icurlovision
Stone
p716
(dp717
g32
F7.410714285714286
sg33
F0.30357142857142855
sg34
F0.2857142857142857
sg35
S'red'
p718
sba(icurlovision
Stone
p719
(dp720
g32
F2.089285714285714
sg33
F5.232142857142857
sg34
F0.33928571428571425
sg35
S'red'
p721
sba(icurlovision
Stone
p722
(dp723
g32
F12.375
sg33
F0.375
sg34
F0.4464285714285714
sg35
S'yellow'
p724
sba(icurlovision
Stone
p725
(dp726
g32
F-5.482142857142857
sg33
F-1.732142857142857
sg34
F0.33928571428571425
sg35
S'yellow'
p727
sbasba(icurlovision
StoneLayout
p728
(dp729
g27
F0.4791666666666667
sg28
(lp730
(icurlovision
Stone
p731
(dp732
g32
F7.385869565217391
sg33
F0.24456521739130435
sg34
F0.45652173913043476
sg35
S'red'
p733
sba(icurlovision
Stone
p734
(dp735
g32
F12.309782608695652
sg33
F0.27717391304347827
sg34
F0.44021739130434784
sg35
S'yellow'
p736
sbasba(icurlovision
StoneLayout
p737
(dp738
g27
F0.4791666666666667
sg28
(lp739
(icurlovision
Stone
p740
(dp741
g32
F9.951219512195122
sg33
F5.817073170731707
sg34
F0.4390243902439024
sg35
S'red'
p742
sba(icurlovision
Stone
p743
(dp744
g32
F7.353658536585366
sg33
F0.2926829268292683
sg34
F0.45731707317073167
sg35
S'red'
p745
sbasba(icurlovision
StoneLayout
p746
(dp747
g27
F0.4791666666666667
sg28
(lp748
(icurlovision
Stone
p749
(dp750
g32
F8.116666666666667
sg33
F0.21666666666666667
sg34
F0.3
sg35
S'red'
p751
sba(icurlovision
Stone
p752
(dp753
g32
F-0.016666666666666666
sg33
F-3.3833333333333333
sg34
F0.4666666666666667
sg35
S'red'
p754
sba(icurlovision
Stone
p755
(dp756
g32
F9.95
sg33
F5.85
sg34
F0.45
sg35
S'red'
p757
sba(icurlovision
Stone
p758
(dp759
g32
F9.683333333333334
sg33
F-5.816666666666666
sg34
F0.3
sg35
S'yellow'
p760
sbasba(icurlovision
StoneLayout
p761
(dp762
g27
F0.4791666666666667
sg28
(lp763
(icurlovision
Stone
p764
(dp765
g32
F10.13265306122449
sg33
F5.969387755102041
sg34
F0.45918367346938777
sg35
S'red'
p766
sba(icurlovision
Stone
p767
(dp768
g32
F8.26530612244898
sg33
F0.18367346938775508
sg34
F0.45918367346938777
sg35
S'red'
p769
sba(icurlovision
Stone
p770
(dp771
g32
F0.3979591836734694
sg33
F-2.326530612244898
sg34
F0.336734693877551
sg35
S'yellow'
p772
sba(icurlovision
Stone
p773
(dp774
g32
F0.45918367346938777
sg33
F-6.642857142857142
sg34
F0.30612244897959184
sg35
S'yellow'
p775
sba(icurlovision
Stone
p776
(dp777
g32
F2.2959183673469385
sg33
F0.9489795918367346
sg34
F0.4744897959183673
sg35
S'yellow'
p778
sbasba(icurlovision
StoneLayout
p779
(dp780
g27
F0.4791666666666667
sg28
(lp781
(icurlovision
Stone
p782
(dp783
g32
F0.3088235294117647
sg33
F-2.1029411764705883
sg34
F0.45588235294117646
sg35
S'yellow'
p784
sba(icurlovision
Stone
p785
(dp786
g32
F8.220588235294118
sg33
F0.19117647058823528
sg34
F0.45588235294117646
sg35
S'red'
p787
sba(icurlovision
Stone
p788
(dp789
g32
F10.102941176470589
sg33
F5.955882352941177
sg34
F0.45588235294117646
sg35
S'red'
p790
sba(icurlovision
Stone
p791
(dp792
g32
F-2.191176470588235
sg33
F-3.3970588235294117
sg34
F0.3235294117647059
sg35
S'red'
p793
sbasba(icurlovision
StoneLayout
p794
(dp795
g27
F0.4791666666666667
sg28
(lp796
(icurlovision
Stone
p797
(dp798
g32
F0.2712765957446808
sg33
F-2.106382978723404
sg34
F0.4787234042553191
sg35
S'yellow'
p799
sba(icurlovision
Stone
p800
(dp801
g32
F-1.228723404255319
sg33
F0.5744680851063829
sg34
F0.4787234042553191
sg35
S'yellow'
p802
sba(icurlovision
Stone
p803
(dp804
g32
F8.25
sg33
F0.19148936170212766
sg34
F0.3191489361702127
sg35
S'red'
p805
sba(icurlovision
Stone
p806
(dp807
g32
F10.101063829787233
sg33
F5.968085106382978
sg34
F0.3191489361702127
sg35
S'red'
p808
sbasba(icurlovision
StoneLayout
p809
(dp810
g27
F0.4791666666666667
sg28
(lp811
(icurlovision
Stone
p812
(dp813
g32
F0.2830188679245283
sg33
F-2.0943396226415096
sg34
F0.4528301886792453
sg35
S'yellow'
p814
sba(icurlovision
Stone
p815
(dp816
g32
F-1.1886792452830188
sg33
F0.5660377358490566
sg34
F0.4669811320754717
sg35
S'yellow'
p817
sba(icurlovision
Stone
p818
(dp819
g32
F8.037735849056604
sg33
F0.169811320754717
sg34
F0.339622641509434
sg35
S'red'
p820
sba(icurlovision
Stone
p821
(dp822
g32
F9.849056603773585
sg33
F5.80188679245283
sg34
F0.4528301886792453
sg35
S'red'
p823
sba(icurlovision
Stone
p824
(dp825
g32
F1.6132075471698113
sg33
F-0.0849056603773585
sg34
F0.339622641509434
sg35
S'red'
p826
sbasba(icurlovision
StoneLayout
p827
(dp828
g27
F0.4791666666666667
sg28
(lp829
(icurlovision
Stone
p830
(dp831
g32
F0.3894230769230769
sg33
F-0.2451923076923077
sg34
F0.3317307692307693
sg35
S'yellow'
p832
sba(icurlovision
Stone
p833
(dp834
g32
F8.235576923076923
sg33
F0.1875
sg34
F0.44711538461538464
sg35
S'red'
p835
sba(icurlovision
Stone
p836
(dp837
g32
F1.6875
sg33
F-0.04326923076923077
sg34
F0.3605769230769231
sg35
S'red'
p838
sba(icurlovision
Stone
p839
(dp840
g32
F10.110576923076923
sg33
F5.985576923076923
sg34
F0.44711538461538464
sg35
S'red'
p841
sba(icurlovision
Stone
p842
(dp843
g32
F-1.1682692307692308
sg33
F0.5913461538461539
sg34
F0.3028846153846154
sg35
S'yellow'
p844
sbasba(icurlovision
StoneLayout
p845
(dp846
g27
F0.4791666666666667
sg28
(lp847
(icurlovision
Stone
p848
(dp849
g32
F10.09090909090909
sg33
F5.965909090909091
sg34
F0.30681818181818177
sg35
S'red'
p850
sba(icurlovision
Stone
p851
(dp852
g32
F-1.1931818181818181
sg33
F0.6136363636363635
sg34
F0.4602272727272727
sg35
S'yellow'
p853
sba(icurlovision
Stone
p854
(dp855
g32
F1.1931818181818181
sg33
F0.03409090909090909
sg34
F0.3579545454545454
sg35
S'red'
p856
sba(icurlovision
Stone
p857
(dp858
g32
F9.0
sg33
F0.2727272727272727
sg34
F0.4431818181818181
sg35
S'red'
p859
sba(icurlovision
Stone
p860
(dp861
g32
F2.3863636363636362
sg33
F0.40909090909090906
sg34
F0.2727272727272727
sg35
S'red'
p862
sbasba(icurlovision
StoneLayout
p863
(dp864
g27
F0.4791666666666667
sg28
(lp865
(icurlovision
Stone
p866
(dp867
g32
F-1.2228260869565217
sg33
F0.6032608695652174
sg34
F0.45652173913043476
sg35
S'yellow'
p868
sba(icurlovision
Stone
p869
(dp870
g32
F9.96195652173913
sg33
F5.788043478260869
sg34
F0.44021739130434784
sg35
S'red'
p871
sba(icurlovision
Stone
p872
(dp873
g32
F1.190217391304348
sg33
F-0.016304347826086956
sg34
F0.34239130434782605
sg35
S'red'
p874
sba(icurlovision
Stone
p875
(dp876
g32
F8.853260869565217
sg33
F0.24456521739130435
sg34
F0.42391304347826086
sg35
S'red'
p877
sba(icurlovision
Stone
p878
(dp879
g32
F13.059782608695652
sg33
F2.135869565217391
sg34
F0.44021739130434784
sg35
S'yellow'
p880
sba(icurlovision
Stone
p881
(dp882
g32
F2.3641304347826084
sg33
F0.34239130434782605
sg34
F0.45652173913043476
sg35
S'red'
p883
sbasbasg148
I2
sg149
I1
sba(icurlovision
EndResult
p884
(dp885
g2
I3
sg9
(lp886
(I7
I7
tp887
a(I6
I7
tp888
a(I6
I6
tp889
a(I5
I6
tp890
a(I5
I5
tp891
a(I4
I5
tp892
a(I3
I4
tp893
a(I3
I3
tp894
a(I2
I3
tp895
a(I2
I2
tp896
a(I1
I1
tp897
a(I0
I1
tp898
asg22
I6
sg23
(lp899
(icurlovision
StoneLayout
p900
(dp901
g27
F0.4791666666666667
sg28
(lp902
(icurlovision
Stone
p903
(dp904
g32
F5.544117647058823
sg33
F-4.161764705882353
sg34
F0.3529411764705882
sg35
S'yellow'
p905
sba(icurlovision
Stone
p906
(dp907
g32
F0.75
sg33
F-0.5735294117647058
sg34
F0.45588235294117646
sg35
S'red'
p908
sba(icurlovision
Stone
p909
(dp910
g32
F6.514705882352941
sg33
F-2.161764705882353
sg34
F0.47058823529411764
sg35
S'yellow'
p911
sbasba(icurlovision
StoneLayout
p912
(dp913
g27
F0.4791666666666667
sg28
(lp914
(icurlovision
Stone
p915
(dp916
g32
F0.7777777777777777
sg33
F-0.5833333333333333
sg34
F0.3472222222222222
sg35
S'red'
p917
sba(icurlovision
Stone
p918
(dp919
g32
F5.5
sg33
F-4.25
sg34
F0.4444444444444444
sg35
S'yellow'
p920
sba(icurlovision
Stone
p921
(dp922
g32
F5.777777777777778
sg33
F-0.38888888888888884
sg34
F0.3472222222222222
sg35
S'red'
p923
sbasba(icurlovision
StoneLayout
p924
(dp925
g27
F0.4791666666666667
sg28
(lp926
(icurlovision
Stone
p927
(dp928
g32
F5.265
sg33
F-3.9749999999999996
sg34
F0.435
sg35
S'yellow'
p929
sba(icurlovision
Stone
p930
(dp931
g32
F0.765
sg33
F-0.525
sg34
F0.32999999999999996
sg35
S'red'
p932
sba(icurlovision
Stone
p933
(dp934
g32
F3.435
sg33
F-4.8149999999999995
sg34
F0.44999999999999996
sg35
S'yellow'
p935
sba(icurlovision
Stone
p936
(dp937
g32
F4.665
sg33
F0.255
sg34
F0.36
sg35
S'yellow'
p938
sba(icurlovision
Stone
p939
(dp940
g32
F4.155
sg33
F0.705
sg34
F0.40499999999999997
sg35
S'yellow'
p941
sbasba(icurlovision
StoneLayout
p942
(dp943
g27
F0.4791666666666667
sg28
(lp944
(icurlovision
Stone
p945
(dp946
g32
F2.122340425531915
sg33
F2.0904255319148937
sg34
F0.4627659574468085
sg35
S'red'
p947
sba(icurlovision
Stone
p948
(dp949
g32
F0.7499999999999999
sg33
F-0.5904255319148936
sg34
F0.351063829787234
sg35
S'red'
p950
sbasba(icurlovision
StoneLayout
p951
(dp952
g27
F0.4791666666666667
sg28
(lp953
(icurlovision
Stone
p954
(dp955
g32
F2.0943396226415096
sg33
F2.0660377358490565
sg34
F0.3113207547169811
sg35
S'red'
p956
sba(icurlovision
Stone
p957
(dp958
g32
F0.7641509433962265
sg33
F-0.5943396226415094
sg34
F0.3537735849056604
sg35
S'red'
p959
sba(icurlovision
Stone
p960
(dp961
g32
F4.160377358490567
sg33
F-4.10377358490566
sg34
F0.32547169811320753
sg35
S'yellow'
p962
sbasba(icurlovision
StoneLayout
p963
(dp964
g27
F0.4791666666666667
sg28
(lp965
(icurlovision
Stone
p966
(dp967
g32
F2.102678571428571
sg33
F2.075892857142857
sg34
F0.45535714285714285
sg35
S'red'
p968
sba(icurlovision
Stone
p969
(dp970
g32
F0.22767857142857142
sg33
F2.049107142857143
sg34
F0.45535714285714285
sg35
S'red'
p971
sba(icurlovision
Stone
p972
(dp973
g32
F0.7633928571428571
sg33
F-0.5491071428571428
sg34
F0.3482142857142857
sg35
S'red'
p974
sbasba(icurlovision
StoneLayout
p975
(dp976
g27
F0.4791666666666667
sg28
(lp977
(icurlovision
Stone
p978
(dp979
g32
F0.22641509433962265
sg33
F2.0660377358490565
sg34
F0.3537735849056604
sg35
S'red'
p980
sba(icurlovision
Stone
p981
(dp982
g32
F2.349056603773585
sg33
F-0.7075471698113208
sg34
F0.4811320754716981
sg35
S'red'
p983
sbasba(icurlovision
StoneLayout
p984
(dp985
g27
F0.4791666666666667
sg28
(lp986
(icurlovision
Stone
p987
(dp988
g32
F0.1875
sg33
F2.0357142857142856
sg34
F0.33482142857142855
sg35
S'red'
p989
sba(icurlovision
Stone
p990
(dp991
g32
F0.08035714285714285
sg33
F5.142857142857142
sg34
F0.3214285714285714
sg35
S'yellow'
p992
sba(icurlovision
Stone
p993
(dp994
g32
F6.669642857142857
sg33
F4.098214285714286
sg34
F0.36160714285714285
sg35
S'yellow'
p995
sba(icurlovision
Stone
p996
(dp997
g32
F6.455357142857142
sg33
F4.553571428571428
sg34
F0.4151785714285714
sg35
S'yellow'
p998
sbasba(icurlovision
StoneLayout
p999
(dp1000
g27
F0.4791666666666667
sg28
(lp1001
(icurlovision
Stone
p1002
(dp1003
g32
F0.21610169491525424
sg33
F2.0593220338983054
sg34
F0.35593220338983056
sg35
S'red'
p1004
sba(icurlovision
Stone
p1005
(dp1006
g32
F0.9279661016949153
sg33
F5.186440677966102
sg34
F0.3305084745762712
sg35
S'red'
p1007
sba(icurlovision
Stone
p1008
(dp1009
g32
F-5.504237288135593
sg33
F5.415254237288136
sg34
F0.3432203389830509
sg35
S'yellow'
p1010
sbasba(icurlovision
StoneLayout
p1011
(dp1012
g27
F0.4791666666666667
sg28
(lp1013
(icurlovision
Stone
p1014
(dp1015
g32
F0.5660377358490566
sg33
F1.9811320754716981
sg34
F0.4528301886792453
sg35
S'red'
p1016
sba(icurlovision
Stone
p1017
(dp1018
g32
F1.6415094339622642
sg33
F6.367924528301887
sg34
F0.4528301886792453
sg35
S'red'
p1019
sbasba(icurlovision
StoneLayout
p1020
(dp1021
g27
F0.4791666666666667
sg28
(lp1022
(icurlovision
Stone
p1023
(dp1024
g32
F0.44491525423728817
sg33
F6.673728813559323
sg34
F0.3432203389830509
sg35
S'red'
p1025
sba(icurlovision
Stone
p1026
(dp1027
g32
F0.5211864406779662
sg33
F5.504237288135593
sg34
F0.31779661016949157
sg35
S'red'
p1028
sbasba(icurlovision
StoneLayout
p1029
(dp1030
g27
F0.4791666666666667
sg28
(lp1031
(icurlovision
Stone
p1032
(dp1033
g32
F0.4148936170212766
sg33
F6.606382978723404
sg34
F0.3191489361702127
sg35
S'red'
p1034
sba(icurlovision
Stone
p1035
(dp1036
g32
F4.75531914893617
sg33
F0.9574468085106382
sg34
F0.44680851063829785
sg35
S'red'
p1037
sba(icurlovision
Stone
p1038
(dp1039
g32
F0.5425531914893617
sg33
F5.489361702127659
sg34
F0.3191489361702127
sg35
S'red'
p1040
sbasbasg148
I2
sg149
I0
sba(icurlovision
EndResult
p1041
(dp1042
g2
I3
sg9
(lp1043
(I7
I7
tp1044
a(I6
I6
tp1045
a(I6
I5
tp1046
a(I5
I5
tp1047
a(I5
I4
tp1048
a(I4
I3
tp1049
a(I3
I3
tp1050
a(I3
I2
tp1051
a(I2
I2
tp1052
a(I1
I1
tp1053
a(I1
I0
tp1054
asg22
I7
sg23
(lp1055
(icurlovision
StoneLayout
p1056
(dp1057
g27
F0.4791666666666667
sg28
(lp1058
(icurlovision
Stone
p1059
(dp1060
g32
F-0.9375
sg33
F4.727678571428571
sg34
F0.4419642857142857
sg35
S'red'
p1061
sbasba(icurlovision
StoneLayout
p1062
(dp1063
g27
F0.4791666666666667
sg28
(lp1064
(icurlovision
Stone
p1065
(dp1066
g32
F7.163265306122449
sg33
F2.9846938775510203
sg34
F0.44387755102040816
sg35
S'red'
p1067
sba(icurlovision
Stone
p1068
(dp1069
g32
F-0.9795918367346939
sg33
F6.38265306122449
sg34
F0.29081632653061223
sg35
S'yellow'
p1070
sba(icurlovision
Stone
p1071
(dp1072
g32
F0.8571428571428571
sg33
F4.1479591836734695
sg34
F0.5204081632653061
sg35
S'yellow'
p1073
sbasba(icurlovision
StoneLayout
p1074
(dp1075
g27
F0.4791666666666667
sg28
(lp1076
(icurlovision
Stone
p1077
(dp1078
g32
F-1.0528846153846154
sg33
F6.548076923076923
sg34
F0.3028846153846154
sg35
S'yellow'
p1079
sba(icurlovision
Stone
p1080
(dp1081
g32
F-5.697115384615385
sg33
F-1.5865384615384617
sg34
F0.31730769230769235
sg35
S'red'
p1082
sba(icurlovision
Stone
p1083
(dp1084
g32
F-0.15865384615384617
sg33
F4.7019230769230775
sg34
F0.3317307692307693
sg35
S'yellow'
p1085
sbasba(icurlovision
StoneLayout
p1086
(dp1087
g27
F0.4791666666666667
sg28
(lp1088
(icurlovision
Stone
p1089
(dp1090
g32
F1.5899999999999999
sg33
F-3.3449999999999998
sg34
F0.285
sg35
S'red'
p1091
sba(icurlovision
Stone
p1092
(dp1093
g32
F-1.05
sg33
F6.675
sg34
F0.48
sg35
S'yellow'
p1094
sbasba(icurlovision
StoneLayout
p1095
(dp1096
g27
F0.4791666666666667
sg28
(lp1097
(icurlovision
Stone
p1098
(dp1099
g32
F-3.453125
sg33
F1.734375
sg34
F0.328125
sg35
S'yellow'
p1100
sba(icurlovision
Stone
p1101
(dp1102
g32
F-1.078125
sg33
F6.546875
sg34
F0.46875
sg35
S'yellow'
p1103
sba(icurlovision
Stone
p1104
(dp1105
g32
F-4.828125
sg33
F-5.515625
sg34
F0.5
sg35
S'yellow'
p1106
sbasba(icurlovision
StoneLayout
p1107
(dp1108
g27
F0.4791666666666667
sg28
(lp1109
(icurlovision
Stone
p1110
(dp1111
g32
F-2.902173913043478
sg33
F-6.195652173913043
sg34
F0.4891304347826087
sg35
S'red'
p1112
sba(icurlovision
Stone
p1113
(dp1114
g32
F-1.0434782608695652
sg33
F6.554347826086956
sg34
F0.47282608695652173
sg35
S'yellow'
p1115
sba(icurlovision
Stone
p1116
(dp1117
g32
F8.347826086956522
sg33
F5.478260869565217
sg34
F0.45652173913043476
sg35
S'yellow'
p1118
sbasba(icurlovision
StoneLayout
p1119
(dp1120
g27
F0.4791666666666667
sg28
(lp1121
(icurlovision
Stone
p1122
(dp1123
g32
F-1.0636363636363635
sg33
F6.627272727272727
sg34
F0.44999999999999996
sg35
S'yellow'
p1124
sba(icurlovision
Stone
p1125
(dp1126
g32
F-0.6272727272727272
sg33
F5.454545454545454
sg34
F0.3409090909090909
sg35
S'red'
p1127
sbasba(icurlovision
StoneLayout
p1128
(dp1129
g27
F0.4791666666666667
sg28
(lp1130
(icurlovision
Stone
p1131
(dp1132
g32
F-0.9117647058823529
sg33
F6.5588235294117645
sg34
F0.29411764705882354
sg35
S'yellow'
p1133
sba(icurlovision
Stone
p1134
(dp1135
g32
F0.3235294117647059
sg33
F5.529411764705882
sg34
F0.3235294117647059
sg35
S'yellow'
p1136
sba(icurlovision
Stone
p1137
(dp1138
g32
F2.176470588235294
sg33
F3.6176470588235294
sg34
F0.4117647058823529
sg35
S'yellow'
p1139
sba(icurlovision
Stone
p1140
(dp1141
g32
F1.588235294117647
sg33
F3.6470588235294117
sg34
F0.4117647058823529
sg35
S'yellow'
p1142
sbasba(icurlovision
StoneLayout
p1143
(dp1144
g27
F0.4791666666666667
sg28
(lp1145
(icurlovision
Stone
p1146
(dp1147
g32
F0.988095238095238
sg33
F5.035714285714286
sg34
F0.3571428571428571
sg35
S'red'
p1148
sba(icurlovision
Stone
p1149
(dp1150
g32
F-4.726190476190476
sg33
F5.083333333333333
sg34
F0.44047619047619047
sg35
S'yellow'
p1151
sbasba(icurlovision
StoneLayout
p1152
(dp1153
g27
F0.4791666666666667
sg28
(lp1154
(icurlovision
Stone
p1155
(dp1156
g32
F2.7606382978723403
sg33
F5.042553191489361
sg34
F0.3031914893617021
sg35
S'red'
p1157
sba(icurlovision
Stone
p1158
(dp1159
g32
F-2.4414893617021276
sg33
F6.031914893617021
sg34
F0.44680851063829785
sg35
S'yellow'
p1160
sbasba(icurlovision
StoneLayout
p1161
(dp1162
g27
F0.4791666666666667
sg28
(lp1163
(icurlovision
Stone
p1164
(dp1165
g32
F3.635593220338983
sg33
F4.919491525423729
sg34
F0.3686440677966102
sg35
S'yellow'
p1166
sbasbasg148
I2
sg149
I1
sba(icurlovision
EndResult
p1167
(dp1168
g2
I4
sg9
(lp1169
(I7
I7
tp1170
a(I7
I6
tp1171
a(I6
I6
tp1172
a(I5
I4
tp1173
a(I4
I4
tp1174
asg22
I8
sg23
(lp1175
(icurlovision
StoneLayout
p1176
(dp1177
g27
F0.4791666666666667
sg28
(lp1178
(icurlovision
Stone
p1179
(dp1180
g32
F-0.44230769230769235
sg33
F0.826923076923077
sg34
F0.46153846153846156
sg35
S'yellow'
p1181
sba(icurlovision
Stone
p1182
(dp1183
g32
F11.211538461538462
sg33
F-3.980769230769231
sg34
F0.42307692307692313
sg35
S'red'
p1184
sbasba(icurlovision
StoneLayout
p1185
(dp1186
g27
F0.4791666666666667
sg28
(lp1187
(icurlovision
Stone
p1188
(dp1189
g32
F-0.39204545454545453
sg33
F0.8011363636363635
sg34
F0.4602272727272727
sg35
S'yellow'
p1190
sba(icurlovision
Stone
p1191
(dp1192
g32
F10.176136363636363
sg33
F-4.346590909090909
sg34
F0.4261363636363636
sg35
S'red'
p1193
sba(icurlovision
Stone
p1194
(dp1195
g32
F6.2556818181818175
sg33
F-0.1875
sg34
F0.32386363636363635
sg35
S'yellow'
p1196
sbasba(icurlovision
StoneLayout
p1197
(dp1198
g27
F0.4791666666666667
sg28
(lp1199
(icurlovision
Stone
p1200
(dp1201
g32
F-0.39204545454545453
sg33
F0.8693181818181818
sg34
F0.47727272727272724
sg35
S'yellow'
p1202
sba(icurlovision
Stone
p1203
(dp1204
g32
F10.517045454545453
sg33
F-4.448863636363636
sg34
F0.4431818181818181
sg35
S'red'
p1205
sba(icurlovision
Stone
p1206
(dp1207
g32
F3.528409090909091
sg33
F-5.028409090909091
sg34
F0.40909090909090906
sg35
S'red'
p1208
sba(icurlovision
Stone
p1209
(dp1210
g32
F-3.767045454545454
sg33
F-6.051136363636363
sg34
F0.32386363636363635
sg35
S'yellow'
p1211
sbasba(icurlovision
StoneLayout
p1212
(dp1213
g27
F0.4791666666666667
sg28
(lp1214
(icurlovision
Stone
p1215
(dp1216
g32
F0.6382978723404255
sg33
F1.978723404255319
sg34
F0.33510638297872336
sg35
S'yellow'
p1217
sba(icurlovision
Stone
p1218
(dp1219
g32
F10.436170212765957
sg33
F-4.5
sg34
F0.44680851063829785
sg35
S'red'
p1220
sba(icurlovision
Stone
p1221
(dp1222
g32
F-3.3191489361702127
sg33
F2.840425531914893
sg34
F0.4787234042553191
sg35
S'red'
p1223
sba(icurlovision
Stone
p1224
(dp1225
g32
F3.478723404255319
sg33
F-5.074468085106383
sg34
F0.3191489361702127
sg35
S'red'
p1226
sba(icurlovision
Stone
p1227
(dp1228
g32
F2.3936170212765955
sg33
F5.617021276595744
sg34
F0.5106382978723404
sg35
S'yellow'
p1229
sbasba(icurlovision
StoneLayout
p1230
(dp1231
g27
F0.4791666666666667
sg28
(lp1232
(icurlovision
Stone
p1233
(dp1234
g32
F-0.27717391304347827
sg33
F2.135869565217391
sg34
F0.32608695652173914
sg35
S'yellow'
p1235
sba(icurlovision
Stone
p1236
(dp1237
g32
F10.255434782608695
sg33
F-4.418478260869565
sg34
F0.44021739130434784
sg35
S'red'
p1238
sba(icurlovision
Stone
p1239
(dp1240
g32
F1.3532608695652173
sg33
F1.3532608695652173
sg34
F0.44021739130434784
sg35
S'red'
p1241
sba(icurlovision
Stone
p1242
(dp1243
g32
F3.407608695652174
sg33
F-4.875
sg34
F0.44021739130434784
sg35
S'red'
p1244
sba(icurlovision
Stone
p1245
(dp1246
g32
F11.13586956521739
sg33
F-5.951086956521739
sg34
F0.2934782608695652
sg35
S'yellow'
p1247
sbasbasg148
I2
sg149
I1
sba(icurlovision
EndResult
p1248
(dp1249
g2
I4
sg9
(lp1250
(I8
I7
tp1251
a(I7
I6
tp1252
a(I6
I6
tp1253
a(I6
I5
tp1254
a(I5
I4
tp1255
a(I4
I4
tp1256
a(I4
I3
tp1257
a(I3
I3
tp1258
a(I3
I2
tp1259
a(I2
I2
tp1260
a(I1
I1
tp1261
a(I1
I0
tp1262
asg22
I9
sg23
(lp1263
(icurlovision
StoneLayout
p1264
(dp1265
g27
F0.4791666666666667
sg28
(lp1266
(icurlovision
Stone
p1267
(dp1268
g32
F8.048076923076923
sg33
F-0.17307692307692307
sg34
F0.4759615384615385
sg35
S'yellow'
p1269
sbasba(icurlovision
StoneLayout
p1270
(dp1271
g27
F0.4791666666666667
sg28
(lp1272
(icurlovision
Stone
p1273
(dp1274
g32
F1.5714285714285714
sg33
F1.107142857142857
sg34
F0.3214285714285714
sg35
S'yellow'
p1275
sba(icurlovision
Stone
p1276
(dp1277
g32
F3.5
sg33
F-0.6071428571428571
sg34
F0.3214285714285714
sg35
S'yellow'
p1278
sba(icurlovision
Stone
p1279
(dp1280
g32
F14.785714285714285
sg33
F3.25
sg34
F0.25
sg35
S'red'
p1281
sbasba(icurlovision
StoneLayout
p1282
(dp1283
g27
F0.4791666666666667
sg28
(lp1284
(icurlovision
Stone
p1285
(dp1286
g32
F1.569767441860465
sg33
F1.0465116279069768
sg34
F0.313953488372093
sg35
S'yellow'
p1287
sba(icurlovision
Stone
p1288
(dp1289
g32
F3.453488372093023
sg33
F-0.6627906976744186
sg34
F0.436046511627907
sg35
S'yellow'
p1290
sba(icurlovision
Stone
p1291
(dp1292
g32
F13.709302325581396
sg33
F2.058139534883721
sg34
F0.41860465116279066
sg35
S'red'
p1293
sba(icurlovision
Stone
p1294
(dp1295
g32
F14.581395348837209
sg33
F3.244186046511628
sg34
F0.41860465116279066
sg35
S'red'
p1296
sbasba(icurlovision
StoneLayout
p1297
(dp1298
g27
F0.4791666666666667
sg28
(lp1299
(icurlovision
Stone
p1300
(dp1301
g32
F1.5511363636363635
sg33
F1.0738636363636362
sg34
F0.32386363636363635
sg35
S'yellow'
p1302
sba(icurlovision
Stone
p1303
(dp1304
g32
F3.4602272727272725
sg33
F-0.5965909090909091
sg34
F0.32386363636363635
sg35
S'yellow'
p1305
sba(icurlovision
Stone
p1306
(dp1307
g32
F-5.198863636363636
sg33
F-6.051136363636363
sg34
F0.28977272727272724
sg35
S'red'
p1308
sba(icurlovision
Stone
p1309
(dp1310
g32
F-1.5852272727272727
sg33
F6.6306818181818175
sg34
F0.32386363636363635
sg35
S'yellow'
p1311
sbasba(icurlovision
StoneLayout
p1312
(dp1313
g27
F0.4791666666666667
sg28
(lp1314
(icurlovision
Stone
p1315
(dp1316
g32
F3.407894736842105
sg33
F-0.6184210526315789
sg34
F0.4473684210526315
sg35
S'yellow'
p1317
sba(icurlovision
Stone
p1318
(dp1319
g32
F1.513157894736842
sg33
F1.013157894736842
sg34
F0.4473684210526315
sg35
S'yellow'
p1320
sba(icurlovision
Stone
p1321
(dp1322
g32
F10.092105263157894
sg33
F6.302631578947368
sg34
F0.43421052631578944
sg35
S'red'
p1323
sba(icurlovision
Stone
p1324
(dp1325
g32
F10.644736842105262
sg33
F-3.381578947368421
sg34
F0.3421052631578947
sg35
S'yellow'
p1326
sba(icurlovision
Stone
p1327
(dp1328
g32
F11.592105263157894
sg33
F6.013157894736842
sg34
F0.3289473684210526
sg35
S'yellow'
p1329
sbasba(icurlovision
StoneLayout
p1330
(dp1331
g27
F0.4791666666666667
sg28
(lp1332
(icurlovision
Stone
p1333
(dp1334
g32
F-2.2227272727272727
sg33
F-1.4045454545454545
sg34
F0.35454545454545455
sg35
S'red'
p1335
sba(icurlovision
Stone
p1336
(dp1337
g32
F3.586363636363636
sg33
F-0.6409090909090909
sg34
F0.3409090909090909
sg35
S'yellow'
p1338
sba(icurlovision
Stone
p1339
(dp1340
g32
F1.5954545454545455
sg33
F1.1045454545454545
sg34
F0.3409090909090909
sg35
S'yellow'
p1341
sbasba(icurlovision
StoneLayout
p1342
(dp1343
g27
F0.4791666666666667
sg28
(lp1344
(icurlovision
Stone
p1345
(dp1346
g32
F3.4703389830508478
sg33
F-0.6483050847457628
sg34
F0.3305084745762712
sg35
S'yellow'
p1347
sba(icurlovision
Stone
p1348
(dp1349
g32
F1.538135593220339
sg33
F1.055084745762712
sg34
F0.3305084745762712
sg35
S'yellow'
p1350
sba(icurlovision
Stone
p1351
(dp1352
g32
F-4.411016949152542
sg33
F-5.377118644067797
sg34
F0.4576271186440678
sg35
S'yellow'
p1353
sba(icurlovision
Stone
p1354
(dp1355
g32
F-3.2161016949152543
sg33
F-6.5974576271186445
sg34
F0.4703389830508475
sg35
S'yellow'
p1356
sbasba(icurlovision
StoneLayout
p1357
(dp1358
g27
F0.4791666666666667
sg28
(lp1359
(icurlovision
Stone
p1360
(dp1361
g32
F3.413793103448276
sg33
F-0.5948275862068966
sg34
F0.4525862068965517
sg35
S'yellow'
p1362
sba(icurlovision
Stone
p1363
(dp1364
g32
F1.5258620689655171
sg33
F1.0862068965517242
sg34
F0.3232758620689655
sg35
S'yellow'
p1365
sba(icurlovision
Stone
p1366
(dp1367
g32
F-0.5948275862068966
sg33
F-0.4396551724137931
sg34
F0.4525862068965517
sg35
S'yellow'
p1368
sba(icurlovision
Stone
p1369
(dp1370
g32
F-0.7758620689655172
sg33
F-1.293103448275862
sg34
F0.3620689655172414
sg35
S'yellow'
p1371
sba(icurlovision
Stone
p1372
(dp1373
g32
F-2.043103448275862
sg33
F-0.7241379310344828
sg34
F0.4525862068965517
sg35
S'yellow'
p1374
sbasba(icurlovision
StoneLayout
p1375
(dp1376
g27
F0.4791666666666667
sg28
(lp1377
(icurlovision
Stone
p1378
(dp1379
g32
F1.6141304347826086
sg33
F1.0923913043478262
sg34
F0.34239130434782605
sg35
S'yellow'
p1380
sba(icurlovision
Stone
p1381
(dp1382
g32
F-3.016304347826087
sg33
F5.690217391304348
sg34
F0.47282608695652173
sg35
S'yellow'
p1383
sba(icurlovision
Stone
p1384
(dp1385
g32
F3.7989130434782608
sg33
F-2.0380434782608696
sg34
F0.44021739130434784
sg35
S'yellow'
p1386
sbasba(icurlovision
StoneLayout
p1387
(dp1388
g27
F0.4791666666666667
sg28
(lp1389
(icurlovision
Stone
p1390
(dp1391
g32
F1.5789473684210527
sg33
F1.0789473684210527
sg34
F0.4473684210526315
sg35
S'yellow'
p1392
sba(icurlovision
Stone
p1393
(dp1394
g32
F-3.0
sg33
F5.657894736842105
sg34
F0.4605263157894737
sg35
S'yellow'
p1395
sba(icurlovision
Stone
p1396
(dp1397
g32
F-2.052631578947368
sg33
F-1.9473684210526314
sg34
F0.4605263157894737
sg35
S'red'
p1398
sba(icurlovision
Stone
p1399
(dp1400
g32
F3.789473684210526
sg33
F-2.026315789473684
sg34
F0.3289473684210526
sg35
S'yellow'
p1401
sbasba(icurlovision
StoneLayout
p1402
(dp1403
g27
F0.4791666666666667
sg28
(lp1404
(icurlovision
Stone
p1405
(dp1406
g32
F-2.085
sg33
F-1.98
sg34
F0.36
sg35
S'red'
p1407
sba(icurlovision
Stone
p1408
(dp1409
g32
F-3.0749999999999997
sg33
F5.7299999999999995
sg34
F0.46499999999999997
sg35
S'yellow'
p1410
sba(icurlovision
Stone
p1411
(dp1412
g32
F2.475
sg33
F1.08
sg34
F0.44999999999999996
sg35
S'red'
p1413
sbasba(icurlovision
StoneLayout
p1414
(dp1415
g27
F0.4791666666666667
sg28
(lp1416
(icurlovision
Stone
p1417
(dp1418
g32
F-1.2701612903225805
sg33
F-1.5846774193548387
sg34
F0.3387096774193548
sg35
S'yellow'
p1419
sba(icurlovision
Stone
p1420
(dp1421
g32
F2.4556451612903225
sg33
F1.0524193548387097
sg34
F0.4475806451612903
sg35
S'red'
p1422
sba(icurlovision
Stone
p1423
(dp1424
g32
F-3.036290322580645
sg33
F5.69758064516129
sg34
F0.32661290322580644
sg35
S'yellow'
p1425
sba(icurlovision
Stone
p1426
(dp1427
g32
F2.2620967741935485
sg33
F-4.657258064516129
sg34
F0.43548387096774194
sg35
S'yellow'
p1428
sbasbasg148
I4
sg149
I1
sba(icurlovision
EndResult
p1429
(dp1430
g2
I4
sg9
(lp1431
(I6
I7
tp1432
a(I6
I6
tp1433
a(I5
I5
tp1434
a(I4
I5
tp1435
a(I4
I4
tp1436
a(I3
I4
tp1437
a(I3
I3
tp1438
a(I2
I2
tp1439
a(I1
I2
tp1440
a(I1
I1
tp1441
a(I0
I1
tp1442
asg22
I10
sg23
(lp1443
(icurlovision
StoneLayout
p1444
(dp1445
g27
F0.4791666666666667
sg28
(lp1446
(icurlovision
Stone
p1447
(dp1448
g32
F10.377906976744185
sg33
F-3.7151162790697674
sg34
F0.436046511627907
sg35
S'yellow'
p1449
sba(icurlovision
Stone
p1450
(dp1451
g32
F10.831395348837209
sg33
F3.7151162790697674
sg34
F0.45348837209302323
sg35
S'red'
p1452
sba(icurlovision
Stone
p1453
(dp1454
g32
F10.098837209302326
sg33
F-0.47093023255813954
sg34
F0.41860465116279066
sg35
S'red'
p1455
sbasba(icurlovision
StoneLayout
p1456
(dp1457
g27
F0.4791666666666667
sg28
(lp1458
(icurlovision
Stone
p1459
(dp1460
g32
F10.357142857142856
sg33
F-3.75
sg34
F0.4464285714285714
sg35
S'yellow'
p1461
sba(icurlovision
Stone
p1462
(dp1463
g32
F1.8214285714285714
sg33
F-0.6785714285714285
sg34
F0.3214285714285714
sg35
S'yellow'
p1464
sba(icurlovision
Stone
p1465
(dp1466
g32
F10.107142857142856
sg33
F-0.5357142857142857
sg34
F0.4464285714285714
sg35
S'red'
p1467
sba(icurlovision
Stone
p1468
(dp1469
g32
F10.821428571428571
sg33
F3.6785714285714284
sg34
F0.42857142857142855
sg35
S'red'
p1470
sba(icurlovision
Stone
p1471
(dp1472
g32
F3.714285714285714
sg33
F-2.964285714285714
sg34
F0.39285714285714285
sg35
S'yellow'
p1473
sbasba(icurlovision
StoneLayout
p1474
(dp1475
g27
F0.4791666666666667
sg28
(lp1476
(icurlovision
Stone
p1477
(dp1478
g32
F10.5
sg33
F-3.7325581395348837
sg34
F0.45348837209302323
sg35
S'yellow'
p1479
sba(icurlovision
Stone
p1480
(dp1481
g32
F1.1860465116279069
sg33
F-0.13953488372093023
sg34
F0.45348837209302323
sg35
S'yellow'
p1482
sba(icurlovision
Stone
p1483
(dp1484
g32
F0.9418604651162791
sg33
F6.941860465116279
sg34
F0.3488372093023256
sg35
S'yellow'
p1485
sba(icurlovision
Stone
p1486
(dp1487
g32
F10.953488372093023
sg33
F3.7674418604651163
sg34
F0.45348837209302323
sg35
S'red'
p1488
sba(icurlovision
Stone
p1489
(dp1490
g32
F1.3604651162790697
sg33
F-1.5348837209302326
sg34
F0.313953488372093
sg35
S'red'
p1491
sba(icurlovision
Stone
p1492
(dp1493
g32
F-5.093023255813954
sg33
F-5.476744186046512
sg34
F0.36627906976744184
sg35
S'red'
p1494
sbasba(icurlovision
StoneLayout
p1495
(dp1496
g27
F0.4791666666666667
sg28
(lp1497
(icurlovision
Stone
p1498
(dp1499
g32
F10.589285714285714
sg33
F-3.75
sg34
F0.2857142857142857
sg35
S'yellow'
p1500
sba(icurlovision
Stone
p1501
(dp1502
g32
F1.375
sg33
F-1.5
sg34
F0.46428571428571425
sg35
S'red'
p1503
sba(icurlovision
Stone
p1504
(dp1505
g32
F11.017857142857142
sg33
F3.75
sg34
F0.42857142857142855
sg35
S'red'
p1506
sba(icurlovision
Stone
p1507
(dp1508
g32
F1.1964285714285714
sg33
F-0.14285714285714285
sg34
F0.33928571428571425
sg35
S'yellow'
p1509
sba(icurlovision
Stone
p1510
(dp1511
g32
F12.875
sg33
F-1.0714285714285714
sg34
F0.42857142857142855
sg35
S'red'
p1512
sbasba(icurlovision
StoneLayout
p1513
(dp1514
g27
F0.4791666666666667
sg28
(lp1515
(icurlovision
Stone
p1516
(dp1517
g32
F10.441176470588236
sg33
F3.6176470588235294
sg34
F0.4117647058823529
sg35
S'red'
p1518
sba(icurlovision
Stone
p1519
(dp1520
g32
F1.2941176470588236
sg33
F-1.3823529411764706
sg34
F0.4411764705882353
sg35
S'red'
p1521
sba(icurlovision
Stone
p1522
(dp1523
g32
F1.4411764705882353
sg33
F-6.676470588235294
sg34
F0.3529411764705882
sg35
S'yellow'
p1524
sba(icurlovision
Stone
p1525
(dp1526
g32
F1.7941176470588236
sg33
F6.911764705882353
sg34
F0.45588235294117646
sg35
S'red'
p1527
sba(icurlovision
Stone
p1528
(dp1529
g32
F1.1470588235294117
sg33
F-0.11764705882352941
sg34
F0.3088235294117647
sg35
S'yellow'
p1530
sba(icurlovision
Stone
p1531
(dp1532
g32
F11.5
sg33
F-5.5588235294117645
sg34
F0.3382352941176471
sg35
S'yellow'
p1533
sbasba(icurlovision
StoneLayout
p1534
(dp1535
g27
F0.4791666666666667
sg28
(lp1536
(icurlovision
Stone
p1537
(dp1538
g32
F1.2142857142857142
sg33
F-0.14285714285714285
sg34
F0.33928571428571425
sg35
S'yellow'
p1539
sba(icurlovision
Stone
p1540
(dp1541
g32
F11.142857142857142
sg33
F3.7857142857142856
sg34
F0.4464285714285714
sg35
S'red'
p1542
sba(icurlovision
Stone
p1543
(dp1544
g32
F12.857142857142856
sg33
F-0.75
sg34
F0.2857142857142857
sg35
S'red'
p1545
sba(icurlovision
Stone
p1546
(dp1547
g32
F1.357142857142857
sg33
F-1.5
sg34
F0.4821428571428571
sg35
S'red'
p1548
sba(icurlovision
Stone
p1549
(dp1550
g32
F13.678571428571427
sg33
F-6.535714285714286
sg34
F0.3214285714285714
sg35
S'yellow'
p1551
sbasba(icurlovision
StoneLayout
p1552
(dp1553
g27
F0.4791666666666667
sg28
(lp1554
(icurlovision
Stone
p1555
(dp1556
g32
F1.346938775510204
sg33
F-1.530612244897959
sg34
F0.3214285714285714
sg35
S'red'
p1557
sba(icurlovision
Stone
p1558
(dp1559
g32
F8.60204081632653
sg33
F-6.704081632653061
sg34
F0.336734693877551
sg35
S'yellow'
p1560
sba(icurlovision
Stone
p1561
(dp1562
g32
F1.1326530612244898
sg33
F-0.18367346938775508
sg34
F0.3520408163265306
sg35
S'yellow'
p1563
sba(icurlovision
Stone
p1564
(dp1565
g32
F10.89795918367347
sg33
F3.704081632653061
sg34
F0.42857142857142855
sg35
S'red'
p1566
sba(icurlovision
Stone
p1567
(dp1568
g32
F0.673469387755102
sg33
F5.540816326530612
sg34
F0.3214285714285714
sg35
S'red'
p1569
sbasba(icurlovision
StoneLayout
p1570
(dp1571
g27
F0.4791666666666667
sg28
(lp1572
(icurlovision
Stone
p1573
(dp1574
g32
F10.859375
sg33
F3.703125
sg34
F0.4375
sg35
S'red'
p1575
sba(icurlovision
Stone
p1576
(dp1577
g32
F1.328125
sg33
F-1.484375
sg34
F0.453125
sg35
S'red'
p1578
sba(icurlovision
Stone
p1579
(dp1580
g32
F1.140625
sg33
F-0.140625
sg34
F0.34375
sg35
S'yellow'
p1581
sbasba(icurlovision
StoneLayout
p1582
(dp1583
g27
F0.4791666666666667
sg28
(lp1584
(icurlovision
Stone
p1585
(dp1586
g32
F0.734375
sg33
F0.046875
sg34
F0.328125
sg35
S'yellow'
p1587
sba(icurlovision
Stone
p1588
(dp1589
g32
F11.015625
sg33
F3.765625
sg34
F0.453125
sg35
S'red'
p1590
sba(icurlovision
Stone
p1591
(dp1592
g32
F1.921875
sg33
F-0.703125
sg34
F0.46875
sg35
S'red'
p1593
sba(icurlovision
Stone
p1594
(dp1595
g32
F1.328125
sg33
F-1.484375
sg34
F0.328125
sg35
S'red'
p1596
sbasba(icurlovision
StoneLayout
p1597
(dp1598
g27
F0.4791666666666667
sg28
(lp1599
(icurlovision
Stone
p1600
(dp1601
g32
F0.7333333333333333
sg33
F0.1
sg34
F0.35
sg35
S'yellow'
p1602
sba(icurlovision
Stone
p1603
(dp1604
g32
F11.133333333333333
sg33
F3.8333333333333335
sg34
F0.45
sg35
S'red'
p1605
sba(icurlovision
Stone
p1606
(dp1607
g32
F1.9666666666666666
sg33
F-0.7
sg34
F0.35
sg35
S'red'
p1608
sbasba(icurlovision
StoneLayout
p1609
(dp1610
g27
F0.4791666666666667
sg28
(lp1611
(icurlovision
Stone
p1612
(dp1613
g32
F2.7717391304347827
sg33
F-0.8152173913043478
sg34
F0.45652173913043476
sg35
S'red'
p1614
sba(icurlovision
Stone
p1615
(dp1616
g32
F-0.9130434782608695
sg33
F-2.217391304347826
sg34
F0.47282608695652173
sg35
S'red'
p1617
sba(icurlovision
Stone
p1618
(dp1619
g32
F10.891304347826086
sg33
F3.8152173913043477
sg34
F0.42391304347826086
sg35
S'red'
p1620
sba(icurlovision
Stone
p1621
(dp1622
g32
F-4.141304347826087
sg33
F4.206521739130435
sg34
F0.44021739130434784
sg35
S'yellow'
p1623
sbasbasg148
I4
sg149
I0
sbasS'version'
p1624
I20180812
sg148
I4
sS'metadata'
p1625
(icurlovision
MatchMetadata
p1626
(dp1627
S'team_name_red'
p1628
S'Unknown'
p1629
sS'event_name'
p1630
g1629
sS'gender'
p1631
g1629
sS'other_info'
p1632
g1629
sS'team_name_yel'
p1633
g1629
sS'date'
p1634
g1629
sbsb.