(icurlovision
MatchResult
p0
(dp1
S'yel_score'
p2
I10
sS'name'
p3
S"VideoLibrary/PyeongChang.Olympics.2018.curling.women's.round-robin.China.v.USA.1080p.NBC.WEB-DL-FINFUNGUS.mp4"
p4
sS'end_results'
p5
(lp6
(icurlovision
EndResult
p7
(dp8
g2
I3
sS'stones_left'
p9
(lp10
(I7
I8
tp11
a(I7
I7
tp12
a(I6
I6
tp13
a(I5
I6
tp14
a(I5
I5
tp15
a(I4
I5
tp16
a(I4
I4
tp17
a(I3
I4
tp18
a(I3
I3
tp19
a(I2
I3
tp20
a(I2
I2
tp21
a(I1
I2
tp22
a(I1
I1
tp23
a(I0
I1
tp24
asS'end_num'
p25
I1
sS'stone_layouts'
p26
(lp27
(icurlovision
StoneLayout
p28
(dp29
S'stone_radius'
p30
F0.4791666666666667
sS'stones'
p31
(lp32
(icurlovision
Stone
p33
(dp34
S'y'
p35
F-3.545454545454545
sS'x'
p36
F0.4431818181818181
sS'r'
p37
F0.3409090909090909
sS'color'
p38
S'red'
p39
sbasba(icurlovision
StoneLayout
p40
(dp41
g30
F0.4791666666666667
sg31
(lp42
(icurlovision
Stone
p43
(dp44
g35
F10.27659574468085
sg36
F1.8191489361702127
sg37
F0.44680851063829785
sg38
S'yellow'
p45
sba(icurlovision
Stone
p46
(dp47
g35
F-3.606382978723404
sg36
F0.4787234042553191
sg37
F0.33510638297872336
sg38
S'red'
p48
sbasba(icurlovision
StoneLayout
p49
(dp50
g30
F0.4791666666666667
sg31
(lp51
(icurlovision
Stone
p52
(dp53
g35
F10.180851063829786
sg36
F1.7872340425531914
sg37
F0.44680851063829785
sg38
S'yellow'
p54
sba(icurlovision
Stone
p55
(dp56
g35
F-3.574468085106383
sg36
F0.4787234042553191
sg37
F0.33510638297872336
sg38
S'red'
p57
sba(icurlovision
Stone
p58
(dp59
g35
F8.617021276595745
sg36
F0.22340425531914893
sg37
F0.44680851063829785
sg38
S'red'
p60
sba(icurlovision
Stone
p61
(dp62
g35
F4.723404255319148
sg36
F-0.5106382978723404
sg37
F0.33510638297872336
sg38
S'yellow'
p63
sbasba(icurlovision
StoneLayout
p64
(dp65
g30
F0.4791666666666667
sg31
(lp66
(icurlovision
Stone
p67
(dp68
g35
F9.964285714285714
sg36
F1.732142857142857
sg37
F0.30357142857142855
sg38
S'yellow'
p69
sba(icurlovision
Stone
p70
(dp71
g35
F-3.5357142857142856
sg36
F0.4821428571428571
sg37
F0.25
sg38
S'red'
p72
sba(icurlovision
Stone
p73
(dp74
g35
F8.464285714285714
sg36
F0.19642857142857142
sg37
F0.4464285714285714
sg38
S'red'
p75
sba(icurlovision
Stone
p76
(dp77
g35
F4.5
sg36
F-0.4464285714285714
sg37
F0.3214285714285714
sg38
S'yellow'
p78
sba(icurlovision
Stone
p79
(dp80
g35
F5.535714285714286
sg36
F-0.7678571428571428
sg37
F0.25
sg38
S'red'
p81
sbasba(icurlovision
StoneLayout
p82
(dp83
g30
F0.4791666666666667
sg31
(lp84
(icurlovision
Stone
p85
(dp86
g35
F10.239130434782608
sg36
F1.809782608695652
sg37
F0.45652173913043476
sg38
S'yellow'
p87
sba(icurlovision
Stone
p88
(dp89
g35
F6.423913043478261
sg36
F-0.47282608695652173
sg37
F0.375
sg38
S'yellow'
p90
sba(icurlovision
Stone
p91
(dp92
g35
F8.67391304347826
sg36
F0.21195652173913043
sg37
F0.45652173913043476
sg38
S'red'
p93
sba(icurlovision
Stone
p94
(dp95
g35
F-3.619565217391304
sg36
F0.44021739130434784
sg37
F0.358695652173913
sg38
S'red'
p96
sba(icurlovision
Stone
p97
(dp98
g35
F1.6956521739130435
sg36
F0.30978260869565216
sg37
F0.34239130434782605
sg38
S'yellow'
p99
sba(icurlovision
Stone
p100
(dp101
g35
F5.315217391304348
sg36
F-0.9619565217391304
sg37
F0.32608695652173914
sg38
S'red'
p102
sbasba(icurlovision
StoneLayout
p103
(dp104
g30
F0.4791666666666667
sg31
(lp105
(icurlovision
Stone
p106
(dp107
g35
F10.109375
sg36
F1.765625
sg37
F0.4375
sg38
S'yellow'
p108
sba(icurlovision
Stone
p109
(dp110
g35
F8.578125
sg36
F0.171875
sg37
F0.3125
sg38
S'red'
p111
sba(icurlovision
Stone
p112
(dp113
g35
F-1.765625
sg36
F-4.640625
sg37
F0.4375
sg38
S'red'
p114
sba(icurlovision
Stone
p115
(dp116
g35
F4.328125
sg36
F1.828125
sg37
F0.34375
sg38
S'yellow'
p117
sba(icurlovision
Stone
p118
(dp119
g35
F-3.546875
sg36
F0.453125
sg37
F0.328125
sg38
S'red'
p120
sba(icurlovision
Stone
p121
(dp122
g35
F1.671875
sg36
F0.265625
sg37
F0.328125
sg38
S'yellow'
p123
sba(icurlovision
Stone
p124
(dp125
g35
F5.296875
sg36
F-0.984375
sg37
F0.3125
sg38
S'red'
p126
sba(icurlovision
Stone
p127
(dp128
g35
F1.015625
sg36
F-2.671875
sg37
F0.375
sg38
S'yellow'
p129
sbasba(icurlovision
StoneLayout
p130
(dp131
g30
F0.4791666666666667
sg31
(lp132
(icurlovision
Stone
p133
(dp134
g35
F8.546875
sg36
F0.15625
sg37
F0.28125
sg38
S'red'
p135
sba(icurlovision
Stone
p136
(dp137
g35
F-3.515625
sg36
F0.4375
sg37
F0.34375
sg38
S'red'
p138
sba(icurlovision
Stone
p139
(dp140
g35
F10.109375
sg36
F1.78125
sg37
F0.34375
sg38
S'yellow'
p141
sba(icurlovision
Stone
p142
(dp143
g35
F4.328125
sg36
F1.8125
sg37
F0.34375
sg38
S'yellow'
p144
sba(icurlovision
Stone
p145
(dp146
g35
F-1.734375
sg36
F-4.625
sg37
F0.328125
sg38
S'red'
p147
sba(icurlovision
Stone
p148
(dp149
g35
F5.796875
sg36
F-0.1875
sg37
F0.421875
sg38
S'yellow'
p150
sba(icurlovision
Stone
p151
(dp152
g35
F1.703125
sg36
F0.28125
sg37
F0.296875
sg38
S'yellow'
p153
sba(icurlovision
Stone
p154
(dp155
g35
F8.703125
sg36
F-5.59375
sg37
F0.28125
sg38
S'yellow'
p156
sbasba(icurlovision
StoneLayout
p157
(dp158
g30
F0.4791666666666667
sg31
(lp159
(icurlovision
Stone
p160
(dp161
g35
F10.140625
sg36
F1.796875
sg37
F0.453125
sg38
S'yellow'
p162
sba(icurlovision
Stone
p163
(dp164
g35
F-1.765625
sg36
F-4.671875
sg37
F0.4375
sg38
S'red'
p165
sba(icurlovision
Stone
p166
(dp167
g35
F-3.578125
sg36
F0.453125
sg37
F0.34375
sg38
S'red'
p168
sba(icurlovision
Stone
p169
(dp170
g35
F5.828125
sg36
F-0.171875
sg37
F0.453125
sg38
S'yellow'
p171
sba(icurlovision
Stone
p172
(dp173
g35
F1.671875
sg36
F0.296875
sg37
F0.46875
sg38
S'yellow'
p174
sba(icurlovision
Stone
p175
(dp176
g35
F8.609375
sg36
F0.203125
sg37
F0.4375
sg38
S'red'
p177
sba(icurlovision
Stone
p178
(dp179
g35
F4.359375
sg36
F1.859375
sg37
F0.34375
sg38
S'yellow'
p180
sba(icurlovision
Stone
p181
(dp182
g35
F1.265625
sg36
F-0.734375
sg37
F0.28125
sg38
S'red'
p183
sbasba(icurlovision
StoneLayout
p184
(dp185
g30
F0.4791666666666667
sg31
(lp186
(icurlovision
Stone
p187
(dp188
g35
F3.5054347826086953
sg36
F-3.016304347826087
sg37
F0.34239130434782605
sg38
S'yellow'
p189
sba(icurlovision
Stone
p190
(dp191
g35
F10.190217391304348
sg36
F1.809782608695652
sg37
F0.44021739130434784
sg38
S'yellow'
p192
sba(icurlovision
Stone
p193
(dp194
g35
F1.6793478260869565
sg36
F0.27717391304347827
sg37
F0.47282608695652173
sg38
S'yellow'
p195
sba(icurlovision
Stone
p196
(dp197
g35
F-3.5706521739130435
sg36
F0.44021739130434784
sg37
F0.47282608695652173
sg38
S'red'
p198
sba(icurlovision
Stone
p199
(dp200
g35
F4.353260869565217
sg36
F2.005434782608696
sg37
F0.32608695652173914
sg38
S'yellow'
p201
sba(icurlovision
Stone
p202
(dp203
g35
F8.657608695652174
sg36
F0.21195652173913043
sg37
F0.44021739130434784
sg38
S'red'
p204
sba(icurlovision
Stone
p205
(dp206
g35
F-1.7119565217391304
sg36
F-4.679347826086956
sg37
F0.358695652173913
sg38
S'red'
p207
sba(icurlovision
Stone
p208
(dp209
g35
F1.2880434782608696
sg36
F-0.7010869565217391
sg37
F0.45652173913043476
sg38
S'red'
p210
sba(icurlovision
Stone
p211
(dp212
g35
F4.320652173913043
sg36
F0.8641304347826086
sg37
F0.44021739130434784
sg38
S'yellow'
p213
sbasba(icurlovision
StoneLayout
p214
(dp215
g30
F0.4791666666666667
sg31
(lp216
(icurlovision
Stone
p217
(dp218
g35
F6.309782608695652
sg36
F-1.2880434782608696
sg37
F0.2934782608695652
sg38
S'red'
p219
sba(icurlovision
Stone
p220
(dp221
g35
F10.190217391304348
sg36
F1.875
sg37
F0.358695652173913
sg38
S'yellow'
p222
sba(icurlovision
Stone
p223
(dp224
g35
F-3.5380434782608696
sg36
F0.4076086956521739
sg37
F0.358695652173913
sg38
S'red'
p225
sba(icurlovision
Stone
p226
(dp227
g35
F8.396739130434783
sg36
F0.5054347826086957
sg37
F0.45652173913043476
sg38
S'red'
p228
sba(icurlovision
Stone
p229
(dp230
g35
F1.6793478260869565
sg36
F0.30978260869565216
sg37
F0.45652173913043476
sg38
S'yellow'
p231
sba(icurlovision
Stone
p232
(dp233
g35
F3.5380434782608696
sg36
F-3.016304347826087
sg37
F0.32608695652173914
sg38
S'yellow'
p234
sba(icurlovision
Stone
p235
(dp236
g35
F4.353260869565217
sg36
F2.0380434782608696
sg37
F0.32608695652173914
sg38
S'yellow'
p237
sba(icurlovision
Stone
p238
(dp239
g35
F-1.6793478260869565
sg36
F-4.679347826086956
sg37
F0.44021739130434784
sg38
S'red'
p240
sba(icurlovision
Stone
p241
(dp242
g35
F4.353260869565217
sg36
F0.9293478260869565
sg37
F0.34239130434782605
sg38
S'yellow'
p243
sba(icurlovision
Stone
p244
(dp245
g35
F1.2880434782608696
sg36
F-0.7010869565217391
sg37
F0.30978260869565216
sg38
S'red'
p246
sbasba(icurlovision
StoneLayout
p247
(dp248
g30
F0.4791666666666667
sg31
(lp249
(icurlovision
Stone
p250
(dp251
g35
F10.335365853658535
sg36
F1.8109756097560974
sg37
F0.4390243902439024
sg38
S'yellow'
p252
sba(icurlovision
Stone
p253
(dp254
g35
F7.262195121951219
sg36
F-1.1524390243902438
sg37
F0.45731707317073167
sg38
S'yellow'
p255
sba(icurlovision
Stone
p256
(dp257
g35
F4.445121951219512
sg36
F1.99390243902439
sg37
F0.3292682926829268
sg38
S'yellow'
p258
sba(icurlovision
Stone
p259
(dp260
g35
F3.6036585365853657
sg36
F-3.0548780487804876
sg37
F0.31097560975609756
sg38
S'yellow'
p261
sba(icurlovision
Stone
p262
(dp263
g35
F-3.6036585365853657
sg36
F0.45731707317073167
sg37
F0.2926829268292683
sg38
S'red'
p264
sba(icurlovision
Stone
p265
(dp266
g35
F1.7378048780487805
sg36
F0.274390243902439
sg37
F0.3292682926829268
sg38
S'yellow'
p267
sba(icurlovision
Stone
p268
(dp269
g35
F8.542682926829269
sg36
F0.42073170731707316
sg37
F0.45731707317073167
sg38
S'red'
p270
sba(icurlovision
Stone
p271
(dp272
g35
F-1.7378048780487805
sg36
F-4.774390243902439
sg37
F0.36585365853658536
sg38
S'red'
p273
sba(icurlovision
Stone
p274
(dp275
g35
F1.371951219512195
sg36
F-0.75
sg37
F0.274390243902439
sg38
S'red'
p276
sba(icurlovision
Stone
p277
(dp278
g35
F4.445121951219512
sg36
F0.8597560975609756
sg37
F0.31097560975609756
sg38
S'yellow'
p279
sbasba(icurlovision
StoneLayout
p280
(dp281
g30
F0.4791666666666667
sg31
(lp282
(icurlovision
Stone
p283
(dp284
g35
F7.2102272727272725
sg36
F-1.1079545454545454
sg37
F0.4602272727272727
sg38
S'yellow'
p285
sba(icurlovision
Stone
p286
(dp287
g35
F1.6874999999999998
sg36
F0.32386363636363635
sg37
F0.3409090909090909
sg38
S'yellow'
p288
sba(icurlovision
Stone
p289
(dp290
g35
F10.27840909090909
sg36
F1.8238636363636362
sg37
F0.4602272727272727
sg38
S'yellow'
p291
sba(icurlovision
Stone
p292
(dp293
g35
F3.528409090909091
sg36
F-3.0511363636363633
sg37
F0.47727272727272724
sg38
S'yellow'
p294
sba(icurlovision
Stone
p295
(dp296
g35
F4.3806818181818175
sg36
F2.028409090909091
sg37
F0.3409090909090909
sg38
S'yellow'
p297
sba(icurlovision
Stone
p298
(dp299
g35
F-3.630681818181818
sg36
F0.4261363636363636
sg37
F0.3409090909090909
sg38
S'red'
p300
sba(icurlovision
Stone
p301
(dp302
g35
F-1.7556818181818181
sg36
F-4.721590909090909
sg37
F0.4602272727272727
sg38
S'red'
p303
sba(icurlovision
Stone
p304
(dp305
g35
F8.505681818181818
sg36
F0.4602272727272727
sg37
F0.4602272727272727
sg38
S'red'
p306
sba(icurlovision
Stone
p307
(dp308
g35
F1.3125
sg36
F-0.6988636363636364
sg37
F0.3579545454545454
sg38
S'red'
p309
sba(icurlovision
Stone
p310
(dp311
g35
F4.3806818181818175
sg36
F0.9034090909090908
sg37
F0.3409090909090909
sg38
S'yellow'
p312
sbasba(icurlovision
StoneLayout
p313
(dp314
g30
F0.4791666666666667
sg31
(lp315
(icurlovision
Stone
p316
(dp317
g35
F10.28804347826087
sg36
F1.875
sg37
F0.44021739130434784
sg38
S'yellow'
p318
sba(icurlovision
Stone
p319
(dp320
g35
F8.03804347826087
sg36
F-1.190217391304348
sg37
F0.30978260869565216
sg38
S'yellow'
p321
sba(icurlovision
Stone
p322
(dp323
g35
F2.2010869565217392
sg36
F-0.5706521739130435
sg37
F0.45652173913043476
sg38
S'yellow'
p324
sba(icurlovision
Stone
p325
(dp326
g35
F-3.6032608695652173
sg36
F0.4076086956521739
sg37
F0.32608695652173914
sg38
S'red'
p327
sba(icurlovision
Stone
p328
(dp329
g35
F8.494565217391305
sg36
F0.47282608695652173
sg37
F0.47282608695652173
sg38
S'red'
p330
sba(icurlovision
Stone
p331
(dp332
g35
F1.7119565217391304
sg36
F0.27717391304347827
sg37
F0.34239130434782605
sg38
S'yellow'
p333
sba(icurlovision
Stone
p334
(dp335
g35
F-1.7119565217391304
sg36
F-4.71195652173913
sg37
F0.34239130434782605
sg38
S'red'
p336
sba(icurlovision
Stone
p337
(dp338
g35
F4.418478260869565
sg36
F2.0380434782608696
sg37
F0.30978260869565216
sg38
S'yellow'
p339
sba(icurlovision
Stone
p340
(dp341
g35
F4.353260869565217
sg36
F0.8967391304347826
sg37
F0.47282608695652173
sg38
S'yellow'
p342
sba(icurlovision
Stone
p343
(dp344
g35
F3.5706521739130435
sg36
F-3.0489130434782608
sg37
F0.34239130434782605
sg38
S'yellow'
p345
sbasba(icurlovision
StoneLayout
p346
(dp347
g30
F0.4791666666666667
sg31
(lp348
(icurlovision
Stone
p349
(dp350
g35
F10.040816326530612
sg36
F1.7755102040816326
sg37
F0.44387755102040816
sg38
S'yellow'
p351
sba(icurlovision
Stone
p352
(dp353
g35
F-0.8877551020408163
sg36
F-4.591836734693877
sg37
F0.3520408163265306
sg38
S'yellow'
p354
sba(icurlovision
Stone
p355
(dp356
g35
F7.836734693877551
sg36
F-1.193877551020408
sg37
F0.44387755102040816
sg38
S'yellow'
p357
sba(icurlovision
Stone
p358
(dp359
g35
F2.0510204081632653
sg36
F6.091836734693877
sg37
F0.45918367346938777
sg38
S'red'
p360
sba(icurlovision
Stone
p361
(dp362
g35
F8.295918367346939
sg36
F0.42857142857142855
sg37
F0.44387755102040816
sg38
S'red'
p363
sba(icurlovision
Stone
p364
(dp365
g35
F4.316326530612245
sg36
F1.9897959183673468
sg37
F0.3214285714285714
sg38
S'yellow'
p366
sba(icurlovision
Stone
p367
(dp368
g35
F1.836734693877551
sg36
F-0.6428571428571428
sg37
F0.30612244897959184
sg38
S'yellow'
p369
sba(icurlovision
Stone
p370
(dp371
g35
F-3.489795918367347
sg36
F0.45918367346938777
sg37
F0.3214285714285714
sg38
S'red'
p372
sba(icurlovision
Stone
p373
(dp374
g35
F1.6224489795918366
sg36
F0.336734693877551
sg37
F0.336734693877551
sg38
S'yellow'
p375
sba(icurlovision
Stone
p376
(dp377
g35
F4.255102040816326
sg36
F0.8571428571428571
sg37
F0.42857142857142855
sg38
S'yellow'
p378
sbasbasS'red_score'
p379
I0
sS'red_hammer'
p380
I0
sba(icurlovision
EndResult
p381
(dp382
g2
I3
sg9
(lp383
(I7
I7
tp384
a(I6
I6
tp385
a(I6
I5
tp386
a(I5
I5
tp387
a(I5
I4
tp388
a(I3
I2
tp389
a(I2
I2
tp390
a(I2
I1
tp391
a(I1
I1
tp392
asg25
I2
sg26
(lp393
(icurlovision
StoneLayout
p394
(dp395
g30
F0.4791666666666667
sg31
(lp396
(icurlovision
Stone
p397
(dp398
g35
F3.458333333333333
sg36
F-0.20833333333333331
sg37
F0.47916666666666663
sg38
S'yellow'
p399
sba(icurlovision
Stone
p400
(dp401
g35
F15.958333333333332
sg36
F3.0
sg37
F0.4375
sg38
S'red'
p402
sbasba(icurlovision
StoneLayout
p403
(dp404
g30
F0.4791666666666667
sg31
(lp405
(icurlovision
Stone
p406
(dp407
g35
F2.1166666666666667
sg36
F-0.8833333333333333
sg37
F0.3333333333333333
sg38
S'yellow'
p408
sba(icurlovision
Stone
p409
(dp410
g35
F15.15
sg36
F2.8833333333333333
sg37
F0.4
sg38
S'red'
p411
sba(icurlovision
Stone
p412
(dp413
g35
F1.75
sg36
F-4.25
sg37
F0.26666666666666666
sg38
S'red'
p414
sbasba(icurlovision
StoneLayout
p415
(dp416
g30
F0.4791666666666667
sg31
(lp417
(icurlovision
Stone
p418
(dp419
g35
F2.168918918918919
sg36
F-0.9527027027027027
sg37
F0.44594594594594594
sg38
S'yellow'
p420
sba(icurlovision
Stone
p421
(dp422
g35
F15.506756756756758
sg36
F2.8986486486486487
sg37
F0.3648648648648649
sg38
S'red'
p423
sba(icurlovision
Stone
p424
(dp425
g35
F-4.560810810810811
sg36
F-6.871621621621622
sg37
F0.46621621621621623
sg38
S'red'
p426
sba(icurlovision
Stone
p427
(dp428
g35
F-4.277027027027027
sg36
F1.195945945945946
sg37
F0.32432432432432434
sg38
S'yellow'
p429
sbasba(icurlovision
StoneLayout
p430
(dp431
g30
F0.4791666666666667
sg31
(lp432
(icurlovision
Stone
p433
(dp434
g35
F-0.25
sg36
F2.6666666666666665
sg37
F0.4583333333333333
sg38
S'red'
p435
sba(icurlovision
Stone
p436
(dp437
g35
F15.916666666666666
sg36
F3.0
sg37
F0.41666666666666663
sg38
S'red'
p438
sba(icurlovision
Stone
p439
(dp440
g35
F2.208333333333333
sg36
F-0.9583333333333333
sg37
F0.47916666666666663
sg38
S'yellow'
p441
sba(icurlovision
Stone
p442
(dp443
g35
F-5.125
sg36
F2.208333333333333
sg37
F0.25
sg38
S'yellow'
p444
sbasba(icurlovision
StoneLayout
p445
(dp446
g30
F0.4791666666666667
sg31
(lp447
(icurlovision
Stone
p448
(dp449
g35
F0.6647727272727272
sg36
F2.4886363636363633
sg37
F0.32386363636363635
sg38
S'yellow'
p450
sba(icurlovision
Stone
p451
(dp452
g35
F2.164772727272727
sg36
F-0.9545454545454545
sg37
F0.3409090909090909
sg38
S'yellow'
p453
sba(icurlovision
Stone
p454
(dp455
g35
F7.3806818181818175
sg36
F-0.7159090909090908
sg37
F0.4261363636363636
sg38
S'red'
p456
sba(icurlovision
Stone
p457
(dp458
g35
F15.426136363636363
sg36
F2.8636363636363633
sg37
F0.40909090909090906
sg38
S'red'
p459
sbasba(icurlovision
StoneLayout
p460
(dp461
g30
F0.4791666666666667
sg31
(lp462
(icurlovision
Stone
p463
(dp464
g35
F-0.5812499999999999
sg36
F6.91875
sg37
F0.44999999999999996
sg38
S'yellow'
p465
sba(icurlovision
Stone
p466
(dp467
g35
F3.20625
sg36
F-0.84375
sg37
F0.31875
sg38
S'yellow'
p468
sba(icurlovision
Stone
p469
(dp470
g35
F15.31875
sg36
F2.86875
sg37
F0.4125
sg38
S'red'
p471
sba(icurlovision
Stone
p472
(dp473
g35
F-3.13125
sg36
F3.61875
sg37
F0.28125
sg38
S'red'
p474
sbasba(icurlovision
StoneLayout
p475
(dp476
g30
F0.4791666666666667
sg31
(lp477
(icurlovision
Stone
p478
(dp479
g35
F3.234375
sg36
F-0.765625
sg37
F0.328125
sg38
S'yellow'
p480
sba(icurlovision
Stone
p481
(dp482
g35
F15.140625
sg36
F2.890625
sg37
F0.421875
sg38
S'red'
p483
sbasba(icurlovision
StoneLayout
p484
(dp485
g30
F0.4791666666666667
sg31
(lp486
(icurlovision
Stone
p487
(dp488
g35
F3.20625
sg36
F-0.80625
sg37
F0.33749999999999997
sg38
S'yellow'
p489
sba(icurlovision
Stone
p490
(dp491
g35
F-0.91875
sg36
F4.40625
sg37
F0.44999999999999996
sg38
S'yellow'
p492
sba(icurlovision
Stone
p493
(dp494
g35
F15.206249999999999
sg36
F2.90625
sg37
F0.375
sg38
S'red'
p495
sbasba(icurlovision
StoneLayout
p496
(dp497
g30
F0.4791666666666667
sg31
(lp498
(icurlovision
Stone
p499
(dp500
g35
F3.3355263157894735
sg36
F-0.8486842105263157
sg37
F0.3157894736842105
sg38
S'yellow'
p501
sba(icurlovision
Stone
p502
(dp503
g35
F-1.243421052631579
sg36
F3.4539473684210527
sg37
F0.35526315789473684
sg38
S'red'
p504
sba(icurlovision
Stone
p505
(dp506
g35
F-0.9276315789473684
sg36
F4.519736842105263
sg37
F0.47368421052631576
sg38
S'yellow'
p507
sba(icurlovision
Stone
p508
(dp509
g35
F15.730263157894736
sg36
F2.94078947368421
sg37
F0.43421052631578944
sg38
S'red'
p510
sbasbasg379
I1
sg380
I1
sba(icurlovision
EndResult
p511
(dp512
g2
I7
sg9
(lp513
(I5
I5
tp514
a(I4
I5
tp515
a(I4
I4
tp516
a(I3
I4
tp517
a(I3
I3
tp518
a(I2
I3
tp519
a(I2
I2
tp520
a(I1
I2
tp521
a(I1
I1
tp522
a(I0
I1
tp523
asg25
I3
sg26
(lp524
(icurlovision
StoneLayout
p525
(dp526
g30
F0.4791666666666667
sg31
(lp527
(icurlovision
Stone
p528
(dp529
g35
F16.033783783783786
sg36
F-0.26351351351351354
sg37
F0.40540540540540543
sg38
S'red'
p530
sba(icurlovision
Stone
p531
(dp532
g35
F9.912162162162163
sg36
F-0.38513513513513514
sg37
F0.28378378378378377
sg38
S'red'
p533
sba(icurlovision
Stone
p534
(dp535
g35
F-1.6824324324324325
sg36
F-0.7094594594594595
sg37
F0.4864864864864865
sg38
S'yellow'
p536
sba(icurlovision
Stone
p537
(dp538
g35
F3.3851351351351355
sg36
F0.3445945945945946
sg37
F0.46621621621621623
sg38
S'yellow'
p539
sbasba(icurlovision
StoneLayout
p540
(dp541
g30
F0.4791666666666667
sg31
(lp542
(icurlovision
Stone
p543
(dp544
g35
F-1.7368421052631577
sg36
F-0.7105263157894737
sg37
F0.3355263157894737
sg38
S'yellow'
p545
sba(icurlovision
Stone
p546
(dp547
g35
F3.394736842105263
sg36
F0.35526315789473684
sg37
F0.3355263157894737
sg38
S'yellow'
p548
sba(icurlovision
Stone
p549
(dp550
g35
F8.486842105263158
sg36
F-2.3289473684210527
sg37
F0.43421052631578944
sg38
S'red'
p551
sba(icurlovision
Stone
p552
(dp553
g35
F9.276315789473683
sg36
F0.19736842105263158
sg37
F0.43421052631578944
sg38
S'red'
p554
sba(icurlovision
Stone
p555
(dp556
g35
F16.105263157894736
sg36
F-0.3157894736842105
sg37
F0.43421052631578944
sg38
S'red'
p557
sbasba(icurlovision
StoneLayout
p558
(dp559
g30
F0.4791666666666667
sg31
(lp560
(icurlovision
Stone
p561
(dp562
g35
F8.452702702702704
sg36
F-2.290540540540541
sg37
F0.44594594594594594
sg38
S'red'
p563
sba(icurlovision
Stone
p564
(dp565
g35
F3.2229729729729732
sg36
F0.38513513513513514
sg37
F0.30405405405405406
sg38
S'yellow'
p566
sba(icurlovision
Stone
p567
(dp568
g35
F15.993243243243244
sg36
F-0.30405405405405406
sg37
F0.40540540540540543
sg38
S'red'
p569
sba(icurlovision
Stone
p570
(dp571
g35
F-1.6418918918918919
sg36
F-0.7094594594594595
sg37
F0.3648648648648649
sg38
S'yellow'
p572
sba(icurlovision
Stone
p573
(dp574
g35
F9.222972972972974
sg36
F0.18243243243243246
sg37
F0.4256756756756757
sg38
S'red'
p575
sba(icurlovision
Stone
p576
(dp577
g35
F4.277027027027027
sg36
F0.18243243243243246
sg37
F0.46621621621621623
sg38
S'yellow'
p578
sbasba(icurlovision
StoneLayout
p579
(dp580
g30
F0.4791666666666667
sg31
(lp581
(icurlovision
Stone
p582
(dp583
g35
F8.108108108108109
sg36
F-2.7972972972972974
sg37
F0.44594594594594594
sg38
S'red'
p584
sba(icurlovision
Stone
p585
(dp586
g35
F-1.7027027027027029
sg36
F-0.7297297297297298
sg37
F0.46621621621621623
sg38
S'yellow'
p587
sba(icurlovision
Stone
p588
(dp589
g35
F4.054054054054054
sg36
F0.24324324324324326
sg37
F0.46621621621621623
sg38
S'yellow'
p590
sba(icurlovision
Stone
p591
(dp592
g35
F9.162162162162163
sg36
F0.20270270270270271
sg37
F0.44594594594594594
sg38
S'red'
p593
sba(icurlovision
Stone
p594
(dp595
g35
F16.054054054054056
sg36
F-0.3648648648648649
sg37
F0.4256756756756757
sg38
S'red'
p596
sba(icurlovision
Stone
p597
(dp598
g35
F-4.986486486486487
sg36
F2.1486486486486487
sg37
F0.3445945945945946
sg38
S'yellow'
p599
sba(icurlovision
Stone
p600
(dp601
g35
F5.027027027027027
sg36
F-0.20270270270270271
sg37
F0.30405405405405406
sg38
S'red'
p602
sbasba(icurlovision
StoneLayout
p603
(dp604
g30
F0.4791666666666667
sg31
(lp605
(icurlovision
Stone
p606
(dp607
g35
F8.25
sg36
F-2.8125
sg37
F0.4602272727272727
sg38
S'red'
p608
sba(icurlovision
Stone
p609
(dp610
g35
F-0.5795454545454545
sg36
F-0.5965909090909091
sg37
F0.47727272727272724
sg38
S'yellow'
p611
sba(icurlovision
Stone
p612
(dp613
g35
F9.375
sg36
F0.2556818181818182
sg37
F0.28977272727272724
sg38
S'red'
p614
sba(icurlovision
Stone
p615
(dp616
g35
F-1.7045454545454544
sg36
F-0.7329545454545454
sg37
F0.3409090909090909
sg38
S'yellow'
p617
sba(icurlovision
Stone
p618
(dp619
g35
F4.125
sg36
F0.28977272727272724
sg37
F0.4602272727272727
sg38
S'yellow'
p620
sba(icurlovision
Stone
p621
(dp622
g35
F-4.9431818181818175
sg36
F2.130681818181818
sg37
F0.375
sg38
S'yellow'
p623
sba(icurlovision
Stone
p624
(dp625
g35
F5.1477272727272725
sg36
F-0.1875
sg37
F0.375
sg38
S'red'
p626
sbasba(icurlovision
StoneLayout
p627
(dp628
g30
F0.4791666666666667
sg31
(lp629
(icurlovision
Stone
p630
(dp631
g35
F2.7972972972972974
sg36
F0.7702702702702703
sg37
F0.44594594594594594
sg38
S'yellow'
p632
sba(icurlovision
Stone
p633
(dp634
g35
F7.662162162162162
sg36
F-3.081081081081081
sg37
F0.44594594594594594
sg38
S'red'
p635
sba(icurlovision
Stone
p636
(dp637
g35
F-1.7432432432432434
sg36
F-0.6891891891891893
sg37
F0.32432432432432434
sg38
S'yellow'
p638
sba(icurlovision
Stone
p639
(dp640
g35
F-0.6081081081081081
sg36
F-0.5675675675675675
sg37
F0.46621621621621623
sg38
S'yellow'
p641
sba(icurlovision
Stone
p642
(dp643
g35
F16.013513513513516
sg36
F-0.28378378378378377
sg37
F0.4256756756756757
sg38
S'red'
p644
sba(icurlovision
Stone
p645
(dp646
g35
F9.162162162162163
sg36
F0.24324324324324326
sg37
F0.24324324324324326
sg38
S'red'
p647
sba(icurlovision
Stone
p648
(dp649
g35
F5.878378378378379
sg36
F-0.6891891891891893
sg37
F0.30405405405405406
sg38
S'red'
p650
sba(icurlovision
Stone
p651
(dp652
g35
F4.864864864864865
sg36
F-0.12162162162162163
sg37
F0.3648648648648649
sg38
S'red'
p653
sba(icurlovision
Stone
p654
(dp655
g35
F-4.986486486486487
sg36
F2.1486486486486487
sg37
F0.5067567567567568
sg38
S'yellow'
p656
sbasba(icurlovision
StoneLayout
p657
(dp658
g30
F0.4791666666666667
sg31
(lp659
(icurlovision
Stone
p660
(dp661
g35
F2.837837837837838
sg36
F0.7702702702702703
sg37
F0.3445945945945946
sg38
S'yellow'
p662
sba(icurlovision
Stone
p663
(dp664
g35
F7.540540540540541
sg36
F-3.1621621621621623
sg37
F0.24324324324324326
sg38
S'red'
p665
sba(icurlovision
Stone
p666
(dp667
g35
F-1.6621621621621623
sg36
F-0.6891891891891893
sg37
F0.46621621621621623
sg38
S'yellow'
p668
sba(icurlovision
Stone
p669
(dp670
g35
F6.405405405405406
sg36
F-1.337837837837838
sg37
F0.44594594594594594
sg38
S'yellow'
p671
sba(icurlovision
Stone
p672
(dp673
g35
F-0.6081081081081081
sg36
F-0.6081081081081081
sg37
F0.3445945945945946
sg38
S'yellow'
p674
sba(icurlovision
Stone
p675
(dp676
g35
F16.054054054054056
sg36
F-0.20270270270270271
sg37
F0.40540540540540543
sg38
S'red'
p677
sba(icurlovision
Stone
p678
(dp679
g35
F9.243243243243244
sg36
F0.28378378378378377
sg37
F0.26351351351351354
sg38
S'red'
p680
sba(icurlovision
Stone
p681
(dp682
g35
F-4.905405405405405
sg36
F2.1486486486486487
sg37
F0.26351351351351354
sg38
S'yellow'
p683
sba(icurlovision
Stone
p684
(dp685
g35
F5.797297297297297
sg36
F-0.5675675675675675
sg37
F0.20270270270270271
sg38
S'red'
p686
sba(icurlovision
Stone
p687
(dp688
g35
F4.905405405405405
sg36
F-0.08108108108108109
sg37
F0.3445945945945946
sg38
S'red'
p689
sbasba(icurlovision
StoneLayout
p690
(dp691
g30
F0.4791666666666667
sg31
(lp692
(icurlovision
Stone
p693
(dp694
g35
F2.763157894736842
sg36
F0.75
sg37
F0.3157894736842105
sg38
S'yellow'
p695
sba(icurlovision
Stone
p696
(dp697
g35
F7.223684210526315
sg36
F-3.039473684210526
sg37
F0.43421052631578944
sg38
S'red'
p698
sba(icurlovision
Stone
p699
(dp700
g35
F6.197368421052631
sg36
F-1.3421052631578947
sg37
F0.43421052631578944
sg38
S'yellow'
p701
sba(icurlovision
Stone
p702
(dp703
g35
F-3.1973684210526314
sg36
F-5.013157894736842
sg37
F0.4539473684210526
sg38
S'red'
p704
sba(icurlovision
Stone
p705
(dp706
g35
F-0.5526315789473684
sg36
F-0.5526315789473684
sg37
F0.4539473684210526
sg38
S'yellow'
p707
sba(icurlovision
Stone
p708
(dp709
g35
F-1.6184210526315788
sg36
F-0.6710526315789473
sg37
F0.4539473684210526
sg38
S'yellow'
p710
sba(icurlovision
Stone
p711
(dp712
g35
F8.960526315789473
sg36
F0.15789473684210525
sg37
F0.39473684210526316
sg38
S'red'
p713
sba(icurlovision
Stone
p714
(dp715
g35
F-4.7368421052631575
sg36
F2.131578947368421
sg37
F0.2763157894736842
sg38
S'yellow'
p716
sba(icurlovision
Stone
p717
(dp718
g35
F5.644736842105263
sg36
F-0.5526315789473684
sg37
F0.23684210526315788
sg38
S'red'
p719
sba(icurlovision
Stone
p720
(dp721
g35
F4.7368421052631575
sg36
F-0.15789473684210525
sg37
F0.2763157894736842
sg38
S'red'
p722
sba(icurlovision
Stone
p723
(dp724
g35
F15.671052631578947
sg36
F-0.3157894736842105
sg37
F0.39473684210526316
sg38
S'red'
p725
sbasba(icurlovision
StoneLayout
p726
(dp727
g30
F0.4791666666666667
sg31
(lp728
(icurlovision
Stone
p729
(dp730
g35
F7.625
sg36
F-3.25
sg37
F0.4583333333333333
sg38
S'red'
p731
sba(icurlovision
Stone
p732
(dp733
g35
F2.875
sg36
F0.75
sg37
F0.3333333333333333
sg38
S'yellow'
p734
sba(icurlovision
Stone
p735
(dp736
g35
F-3.4166666666666665
sg36
F-5.375
sg37
F0.35416666666666663
sg38
S'red'
p737
sba(icurlovision
Stone
p738
(dp739
g35
F14.791666666666666
sg36
F-2.833333333333333
sg37
F0.20833333333333331
sg38
S'yellow'
p740
sba(icurlovision
Stone
p741
(dp742
g35
F-0.625
sg36
F-0.625
sg37
F0.47916666666666663
sg38
S'yellow'
p743
sba(icurlovision
Stone
p744
(dp745
g35
F6.541666666666666
sg36
F-1.4583333333333333
sg37
F0.4583333333333333
sg38
S'yellow'
p746
sba(icurlovision
Stone
p747
(dp748
g35
F-1.75
sg36
F-0.7083333333333333
sg37
F0.3333333333333333
sg38
S'yellow'
p749
sba(icurlovision
Stone
p750
(dp751
g35
F9.458333333333332
sg36
F0.20833333333333331
sg37
F0.4583333333333333
sg38
S'red'
p752
sba(icurlovision
Stone
p753
(dp754
g35
F-5.041666666666666
sg36
F2.1666666666666665
sg37
F0.29166666666666663
sg38
S'yellow'
p755
sba(icurlovision
Stone
p756
(dp757
g35
F16.458333333333332
sg36
F-0.375
sg37
F0.3958333333333333
sg38
S'red'
p758
sba(icurlovision
Stone
p759
(dp760
g35
F5.875
sg36
F-0.6666666666666666
sg37
F0.4583333333333333
sg38
S'red'
p761
sba(icurlovision
Stone
p762
(dp763
g35
F4.958333333333333
sg36
F-0.16666666666666666
sg37
F0.29166666666666663
sg38
S'red'
p764
sbasba(icurlovision
StoneLayout
p765
(dp766
g30
F0.4791666666666667
sg31
(lp767
(icurlovision
Stone
p768
(dp769
g35
F-1.7027027027027029
sg36
F-0.6891891891891893
sg37
F0.46621621621621623
sg38
S'yellow'
p770
sba(icurlovision
Stone
p771
(dp772
g35
F-3.3243243243243246
sg36
F-5.1891891891891895
sg37
F0.3445945945945946
sg38
S'red'
p773
sba(icurlovision
Stone
p774
(dp775
g35
F2.7972972972972974
sg36
F0.7702702702702703
sg37
F0.46621621621621623
sg38
S'yellow'
p776
sba(icurlovision
Stone
p777
(dp778
g35
F14.391891891891893
sg36
F-2.7162162162162162
sg37
F0.4256756756756757
sg38
S'yellow'
p779
sba(icurlovision
Stone
p780
(dp781
g35
F6.364864864864865
sg36
F-1.337837837837838
sg37
F0.3445945945945946
sg38
S'yellow'
p782
sba(icurlovision
Stone
p783
(dp784
g35
F7.378378378378379
sg36
F-3.121621621621622
sg37
F0.4256756756756757
sg38
S'red'
p785
sba(icurlovision
Stone
p786
(dp787
g35
F-0.6081081081081081
sg36
F-0.6081081081081081
sg37
F0.46621621621621623
sg38
S'yellow'
p788
sba(icurlovision
Stone
p789
(dp790
g35
F15.972972972972974
sg36
F-0.24324324324324326
sg37
F0.40540540540540543
sg38
S'red'
p791
sba(icurlovision
Stone
p792
(dp793
g35
F9.162162162162163
sg36
F0.28378378378378377
sg37
F0.44594594594594594
sg38
S'red'
p794
sba(icurlovision
Stone
p795
(dp796
g35
F5.716216216216217
sg36
F-0.5675675675675675
sg37
F0.26351351351351354
sg38
S'red'
p797
sba(icurlovision
Stone
p798
(dp799
g35
F-4.175675675675676
sg36
F1.6216216216216217
sg37
F0.28378378378378377
sg38
S'red'
p800
sba(icurlovision
Stone
p801
(dp802
g35
F4.864864864864865
sg36
F-0.16216216216216217
sg37
F0.28378378378378377
sg38
S'red'
p803
sbasbasg379
I1
sg380
I0
sba(icurlovision
EndResult
p804
(dp805
g2
I7
sg9
(lp806
(I4
I3
tp807
a(I3
I3
tp808
a(I3
I2
tp809
a(I2
I1
tp810
a(I1
I1
tp811
a(I1
I0
tp812
asg25
I4
sg26
(lp813
(icurlovision
StoneLayout
p814
(dp815
g30
F0.4791666666666667
sg31
(lp816
(icurlovision
Stone
p817
(dp818
g35
F1.17
sg36
F0.24
sg37
F0.345
sg38
S'yellow'
p819
sba(icurlovision
Stone
p820
(dp821
g35
F5.22
sg36
F2.19
sg37
F0.32999999999999996
sg38
S'yellow'
p822
sba(icurlovision
Stone
p823
(dp824
g35
F14.25
sg36
F-4.6499999999999995
sg37
F0.44999999999999996
sg38
S'yellow'
p825
sba(icurlovision
Stone
p826
(dp827
g35
F1.5899999999999999
sg36
F-5.819999999999999
sg37
F0.36
sg38
S'red'
p828
sba(icurlovision
Stone
p829
(dp830
g35
F8.37
sg36
F0.15
sg37
F0.27
sg38
S'red'
p831
sbasba(icurlovision
StoneLayout
p832
(dp833
g30
F0.4791666666666667
sg31
(lp834
(icurlovision
Stone
p835
(dp836
g35
F13.565217391304348
sg36
F-4.467391304347826
sg37
F0.4076086956521739
sg38
S'yellow'
p837
sba(icurlovision
Stone
p838
(dp839
g35
F0.42391304347826086
sg36
F-2.119565217391304
sg37
F0.34239130434782605
sg38
S'red'
p840
sba(icurlovision
Stone
p841
(dp842
g35
F4.891304347826087
sg36
F2.0543478260869565
sg37
F0.34239130434782605
sg38
S'yellow'
p843
sba(icurlovision
Stone
p844
(dp845
g35
F1.5
sg36
F-5.478260869565217
sg37
F0.32608695652173914
sg38
S'red'
p846
sba(icurlovision
Stone
p847
(dp848
g35
F6.6521739130434785
sg36
F-2.0543478260869565
sg37
F0.45652173913043476
sg38
S'yellow'
p849
sbasba(icurlovision
StoneLayout
p850
(dp851
g30
F0.4791666666666667
sg31
(lp852
(icurlovision
Stone
p853
(dp854
g35
F1.3076923076923077
sg36
F-2.153846153846154
sg37
F0.46153846153846156
sg38
S'yellow'
p855
sba(icurlovision
Stone
p856
(dp857
g35
F5.115384615384616
sg36
F2.1923076923076925
sg37
F0.3269230769230769
sg38
S'yellow'
p858
sba(icurlovision
Stone
p859
(dp860
g35
F14.230769230769232
sg36
F-4.730769230769231
sg37
F0.44230769230769235
sg38
S'yellow'
p861
sba(icurlovision
Stone
p862
(dp863
g35
F-4.538461538461538
sg36
F2.3461538461538463
sg37
F0.46153846153846156
sg38
S'yellow'
p864
sba(icurlovision
Stone
p865
(dp866
g35
F1.5384615384615385
sg36
F-5.769230769230769
sg37
F0.3076923076923077
sg38
S'red'
p867
sbasba(icurlovision
StoneLayout
p868
(dp869
g30
F0.4791666666666667
sg31
(lp870
(icurlovision
Stone
p871
(dp872
g35
F-4.5
sg36
F2.310810810810811
sg37
F0.32432432432432434
sg38
S'yellow'
p873
sba(icurlovision
Stone
p874
(dp875
g35
F-1.0135135135135136
sg36
F6.364864864864865
sg37
F0.4864864864864865
sg38
S'yellow'
p876
sba(icurlovision
Stone
p877
(dp878
g35
F14.067567567567568
sg36
F-4.662162162162162
sg37
F0.44594594594594594
sg38
S'yellow'
p879
sba(icurlovision
Stone
p880
(dp881
g35
F5.918918918918919
sg36
F2.027027027027027
sg37
F0.4256756756756757
sg38
S'yellow'
p882
sba(icurlovision
Stone
p883
(dp884
g35
F1.337837837837838
sg36
F-2.1081081081081083
sg37
F0.46621621621621623
sg38
S'yellow'
p885
sba(icurlovision
Stone
p886
(dp887
g35
F1.5405405405405406
sg36
F-5.716216216216217
sg37
F0.3445945945945946
sg38
S'red'
p888
sbasba(icurlovision
StoneLayout
p889
(dp890
g30
F0.4791666666666667
sg31
(lp891
(icurlovision
Stone
p892
(dp893
g35
F-0.9868421052631579
sg36
F6.315789473684211
sg37
F0.23684210526315788
sg38
S'yellow'
p894
sba(icurlovision
Stone
p895
(dp896
g35
F13.93421052631579
sg36
F-4.618421052631579
sg37
F0.41447368421052627
sg38
S'yellow'
p897
sba(icurlovision
Stone
p898
(dp899
g35
F-4.421052631578947
sg36
F2.3289473684210527
sg37
F0.3157894736842105
sg38
S'yellow'
p900
sba(icurlovision
Stone
p901
(dp902
g35
F5.88157894736842
sg36
F2.013157894736842
sg37
F0.3157894736842105
sg38
S'yellow'
p903
sba(icurlovision
Stone
p904
(dp905
g35
F0.5526315789473684
sg36
F0.7105263157894737
sg37
F0.47368421052631576
sg38
S'red'
p906
sba(icurlovision
Stone
p907
(dp908
g35
F1.5
sg36
F-5.526315789473684
sg37
F0.2763157894736842
sg38
S'red'
p909
sbasba(icurlovision
StoneLayout
p910
(dp911
g30
F0.4791666666666667
sg31
(lp912
(icurlovision
Stone
p913
(dp914
g35
F-0.9937499999999999
sg36
F6.16875
sg37
F0.2625
sg38
S'yellow'
p915
sba(icurlovision
Stone
p916
(dp917
g35
F13.59375
sg36
F-4.44375
sg37
F0.4125
sg38
S'yellow'
p918
sba(icurlovision
Stone
p919
(dp920
g35
F-4.3687499999999995
sg36
F2.2312499999999997
sg37
F0.31875
sg38
S'yellow'
p921
sba(icurlovision
Stone
p922
(dp923
g35
F1.40625
sg36
F0.73125
sg37
F0.44999999999999996
sg38
S'yellow'
p924
sba(icurlovision
Stone
p925
(dp926
g35
F5.6812499999999995
sg36
F1.96875
sg37
F0.31875
sg38
S'yellow'
p927
sba(icurlovision
Stone
p928
(dp929
g35
F1.51875
sg36
F-5.45625
sg37
F0.33749999999999997
sg38
S'red'
p930
sbasbasg379
I3
sg380
I1
sba(icurlovision
EndResult
p931
(dp932
g2
I9
sg9
(lp933
(I7
I8
tp934
a(I7
I7
tp935
a(I6
I7
tp936
a(I6
I6
tp937
a(I5
I6
tp938
a(I5
I5
tp939
a(I4
I5
tp940
a(I4
I4
tp941
a(I3
I4
tp942
a(I3
I3
tp943
a(I2
I3
tp944
a(I2
I2
tp945
a(I1
I2
tp946
a(I1
I1
tp947
a(I0
I1
tp948
asg25
I5
sg26
(lp949
(icurlovision
StoneLayout
p950
(dp951
g30
F0.4791666666666667
sg31
(lp952
(icurlovision
Stone
p953
(dp954
g35
F9.75
sg36
F-0.8928571428571428
sg37
F0.2857142857142857
sg38
S'red'
p955
sbasba(icurlovision
StoneLayout
p956
(dp957
g30
F0.4791666666666667
sg31
(lp958
(icurlovision
Stone
p959
(dp960
g35
F6.15625
sg36
F-5.34375
sg37
F0.328125
sg38
S'yellow'
p961
sba(icurlovision
Stone
p962
(dp963
g35
F2.8125
sg36
F4.375
sg37
F0.46875
sg38
S'red'
p964
sbasba(icurlovision
StoneLayout
p965
(dp966
g30
F0.4791666666666667
sg31
(lp967
(icurlovision
Stone
p968
(dp969
g35
F6.0523255813953485
sg36
F-5.215116279069767
sg37
F0.436046511627907
sg38
S'yellow'
p970
sba(icurlovision
Stone
p971
(dp972
g35
F11.040697674418604
sg36
F0.12209302325581395
sg37
F0.47093023255813954
sg38
S'red'
p973
sba(icurlovision
Stone
p974
(dp975
g35
F2.7732558139534884
sg36
F4.343023255813954
sg37
F0.36627906976744184
sg38
S'red'
p976
sbasba(icurlovision
StoneLayout
p977
(dp978
g30
F0.4791666666666667
sg31
(lp979
(icurlovision
Stone
p980
(dp981
g35
F9.036585365853657
sg36
F-3.091463414634146
sg37
F0.3292682926829268
sg38
S'yellow'
p982
sba(icurlovision
Stone
p983
(dp984
g35
F6.109756097560975
sg36
F-5.25
sg37
F0.45731707317073167
sg38
S'yellow'
p985
sba(icurlovision
Stone
p986
(dp987
g35
F7.24390243902439
sg36
F3.310975609756097
sg37
F0.45731707317073167
sg38
S'red'
p988
sba(icurlovision
Stone
p989
(dp990
g35
F2.817073170731707
sg36
F4.298780487804878
sg37
F0.40243902439024387
sg38
S'red'
p991
sbasba(icurlovision
StoneLayout
p992
(dp993
g30
F0.4791666666666667
sg31
(lp994
(icurlovision
Stone
p995
(dp996
g35
F6.101351351351352
sg36
F-5.168918918918919
sg37
F0.44594594594594594
sg38
S'yellow'
p997
sba(icurlovision
Stone
p998
(dp999
g35
F8.93918918918919
sg36
F-3.060810810810811
sg37
F0.32432432432432434
sg38
S'yellow'
p1000
sba(icurlovision
Stone
p1001
(dp1002
g35
F7.1959459459459465
sg36
F3.2635135135135136
sg37
F0.32432432432432434
sg38
S'red'
p1003
sba(icurlovision
Stone
p1004
(dp1005
g35
F16.31756756756757
sg36
F0.8310810810810811
sg37
F0.38513513513513514
sg38
S'red'
p1006
sba(icurlovision
Stone
p1007
(dp1008
g35
F2.8175675675675675
sg36
F4.358108108108109
sg37
F0.3445945945945946
sg38
S'red'
p1009
sbasba(icurlovision
StoneLayout
p1010
(dp1011
g30
F0.4791666666666667
sg31
(lp1012
(icurlovision
Stone
p1013
(dp1014
g35
F7.125
sg36
F3.3173076923076925
sg37
F0.46153846153846156
sg38
S'red'
p1015
sba(icurlovision
Stone
p1016
(dp1017
g35
F8.942307692307693
sg36
F-3.1153846153846154
sg37
F0.4326923076923077
sg38
S'yellow'
p1018
sba(icurlovision
Stone
p1019
(dp1020
g35
F6.057692307692308
sg36
F-5.221153846153847
sg37
F0.46153846153846156
sg38
S'yellow'
p1021
sba(icurlovision
Stone
p1022
(dp1023
g35
F2.7403846153846154
sg36
F4.298076923076923
sg37
F0.3028846153846154
sg38
S'red'
p1024
sba(icurlovision
Stone
p1025
(dp1026
g35
F-4.471153846153847
sg36
F6.375
sg37
F0.4903846153846154
sg38
S'red'
p1027
sbasba(icurlovision
StoneLayout
p1028
(dp1029
g30
F0.4791666666666667
sg31
(lp1030
(icurlovision
Stone
p1031
(dp1032
g35
F5.770408163265306
sg36
F-4.8520408163265305
sg37
F0.413265306122449
sg38
S'yellow'
p1033
sba(icurlovision
Stone
p1034
(dp1035
g35
F8.433673469387754
sg36
F-2.8316326530612246
sg37
F0.30612244897959184
sg38
S'yellow'
p1036
sba(icurlovision
Stone
p1037
(dp1038
g35
F6.811224489795918
sg36
F3.107142857142857
sg37
F0.413265306122449
sg38
S'red'
p1039
sba(icurlovision
Stone
p1040
(dp1041
g35
F2.6785714285714284
sg36
F4.086734693877551
sg37
F0.2755102040816326
sg38
S'red'
p1042
sba(icurlovision
Stone
p1043
(dp1044
g35
F14.005102040816325
sg36
F0.22959183673469388
sg37
F0.3979591836734694
sg38
S'red'
p1045
sbasba(icurlovision
StoneLayout
p1046
(dp1047
g30
F0.4791666666666667
sg31
(lp1048
(icurlovision
Stone
p1049
(dp1050
g35
F6.059210526315789
sg36
F-5.151315789473684
sg37
F0.43421052631578944
sg38
S'yellow'
p1051
sba(icurlovision
Stone
p1052
(dp1053
g35
F8.901315789473683
sg36
F-3.019736842105263
sg37
F0.2763157894736842
sg38
S'yellow'
p1054
sba(icurlovision
Stone
p1055
(dp1056
g35
F13.00657894736842
sg36
F-4.598684210526316
sg37
F0.43421052631578944
sg38
S'yellow'
p1057
sba(icurlovision
Stone
p1058
(dp1059
g35
F2.7828947368421053
sg36
F4.282894736842105
sg37
F0.29605263157894735
sg38
S'red'
p1060
sbasba(icurlovision
StoneLayout
p1061
(dp1062
g30
F0.4791666666666667
sg31
(lp1063
(icurlovision
Stone
p1064
(dp1065
g35
F6.107142857142857
sg36
F-5.178571428571428
sg37
F0.4464285714285714
sg38
S'yellow'
p1066
sba(icurlovision
Stone
p1067
(dp1068
g35
F8.892857142857142
sg36
F-3.0357142857142856
sg37
F0.4464285714285714
sg38
S'yellow'
p1069
sba(icurlovision
Stone
p1070
(dp1071
g35
F13.071428571428571
sg36
F-4.607142857142857
sg37
F0.42857142857142855
sg38
S'yellow'
p1072
sba(icurlovision
Stone
p1073
(dp1074
g35
F2.821428571428571
sg36
F4.321428571428571
sg37
F0.4464285714285714
sg38
S'red'
p1075
sba(icurlovision
Stone
p1076
(dp1077
g35
F2.8571428571428568
sg36
F-2.714285714285714
sg37
F0.25
sg38
S'red'
p1078
sbasba(icurlovision
StoneLayout
p1079
(dp1080
g30
F0.4791666666666667
sg31
(lp1081
(icurlovision
Stone
p1082
(dp1083
g35
F8.839285714285714
sg36
F-3.017857142857143
sg37
F0.42857142857142855
sg38
S'yellow'
p1084
sba(icurlovision
Stone
p1085
(dp1086
g35
F6.017857142857142
sg36
F-5.125
sg37
F0.4464285714285714
sg38
S'yellow'
p1087
sba(icurlovision
Stone
p1088
(dp1089
g35
F12.982142857142856
sg36
F-4.625
sg37
F0.42857142857142855
sg38
S'yellow'
p1090
sba(icurlovision
Stone
p1091
(dp1092
g35
F2.8035714285714284
sg36
F4.267857142857142
sg37
F0.33928571428571425
sg38
S'red'
p1093
sbasba(icurlovision
StoneLayout
p1094
(dp1095
g30
F0.4791666666666667
sg31
(lp1096
(icurlovision
Stone
p1097
(dp1098
g35
F6.017045454545454
sg36
F-5.096590909090908
sg37
F0.30681818181818177
sg38
S'yellow'
p1099
sba(icurlovision
Stone
p1100
(dp1101
g35
F-1.6193181818181817
sg36
F-2.880681818181818
sg37
F0.4602272727272727
sg38
S'red'
p1102
sba(icurlovision
Stone
p1103
(dp1104
g35
F8.8125
sg36
F-2.9829545454545454
sg37
F0.4431818181818181
sg38
S'yellow'
p1105
sba(icurlovision
Stone
p1106
(dp1107
g35
F13.039772727272727
sg36
F-4.5852272727272725
sg37
F0.3579545454545454
sg38
S'yellow'
p1108
sba(icurlovision
Stone
p1109
(dp1110
g35
F2.778409090909091
sg36
F4.3125
sg37
F0.4602272727272727
sg38
S'red'
p1111
sbasba(icurlovision
StoneLayout
p1112
(dp1113
g30
F0.4791666666666667
sg31
(lp1114
(icurlovision
Stone
p1115
(dp1116
g35
F-1.6141304347826086
sg36
F-2.8532608695652173
sg37
F0.45652173913043476
sg38
S'red'
p1117
sba(icurlovision
Stone
p1118
(dp1119
g35
F6.016304347826087
sg36
F-5.070652173913043
sg37
F0.2934782608695652
sg38
S'yellow'
p1120
sba(icurlovision
Stone
p1121
(dp1122
g35
F0.1793478260869565
sg36
F-2.657608695652174
sg37
F0.45652173913043476
sg38
S'yellow'
p1123
sba(icurlovision
Stone
p1124
(dp1125
g35
F8.78804347826087
sg36
F-2.9510869565217392
sg37
F0.27717391304347827
sg38
S'yellow'
p1126
sba(icurlovision
Stone
p1127
(dp1128
g35
F12.929347826086957
sg36
F-4.548913043478261
sg37
F0.42391304347826086
sg38
S'yellow'
p1129
sba(icurlovision
Stone
p1130
(dp1131
g35
F2.755434782608696
sg36
F4.288043478260869
sg37
F0.44021739130434784
sg38
S'red'
p1132
sbasba(icurlovision
StoneLayout
p1133
(dp1134
g30
F0.4791666666666667
sg31
(lp1135
(icurlovision
Stone
p1136
(dp1137
g35
F5.8977272727272725
sg36
F-5.045454545454545
sg37
F0.4431818181818181
sg38
S'yellow'
p1138
sba(icurlovision
Stone
p1139
(dp1140
g35
F0.13636363636363635
sg36
F-2.6590909090909087
sg37
F0.4602272727272727
sg38
S'yellow'
p1141
sba(icurlovision
Stone
p1142
(dp1143
g35
F-1.602272727272727
sg36
F-2.8636363636363633
sg37
F0.4602272727272727
sg38
S'red'
p1144
sba(icurlovision
Stone
p1145
(dp1146
g35
F8.693181818181818
sg36
F-2.965909090909091
sg37
F0.28977272727272724
sg38
S'yellow'
p1147
sba(icurlovision
Stone
p1148
(dp1149
g35
F12.784090909090908
sg36
F-4.534090909090909
sg37
F0.4261363636363636
sg38
S'yellow'
p1150
sba(icurlovision
Stone
p1151
(dp1152
g35
F2.7613636363636362
sg36
F4.1931818181818175
sg37
F0.28977272727272724
sg38
S'red'
p1153
sba(icurlovision
Stone
p1154
(dp1155
g35
F5.659090909090908
sg36
F-1.2954545454545454
sg37
F0.4431818181818181
sg38
S'red'
p1156
sbasba(icurlovision
StoneLayout
p1157
(dp1158
g30
F0.4791666666666667
sg31
(lp1159
(icurlovision
Stone
p1160
(dp1161
g35
F6.053571428571428
sg36
F-5.160714285714286
sg37
F0.4464285714285714
sg38
S'yellow'
p1162
sba(icurlovision
Stone
p1163
(dp1164
g35
F-1.5892857142857142
sg36
F-2.9107142857142856
sg37
F0.46428571428571425
sg38
S'red'
p1165
sba(icurlovision
Stone
p1166
(dp1167
g35
F6.5892857142857135
sg36
F-0.8392857142857142
sg37
F0.4464285714285714
sg38
S'yellow'
p1168
sba(icurlovision
Stone
p1169
(dp1170
g35
F8.875
sg36
F-3.017857142857143
sg37
F0.25
sg38
S'yellow'
p1171
sba(icurlovision
Stone
p1172
(dp1173
g35
F0.19642857142857142
sg36
F-2.696428571428571
sg37
F0.3214285714285714
sg38
S'yellow'
p1174
sba(icurlovision
Stone
p1175
(dp1176
g35
F13.089285714285714
sg36
F-4.625
sg37
F0.42857142857142855
sg38
S'yellow'
p1177
sba(icurlovision
Stone
p1178
(dp1179
g35
F2.839285714285714
sg36
F4.339285714285714
sg37
F0.3571428571428571
sg38
S'red'
p1180
sba(icurlovision
Stone
p1181
(dp1182
g35
F5.767857142857142
sg36
F-1.4464285714285714
sg37
F0.30357142857142855
sg38
S'red'
p1183
sbasba(icurlovision
StoneLayout
p1184
(dp1185
g30
F0.4791666666666667
sg31
(lp1186
(icurlovision
Stone
p1187
(dp1188
g35
F5.94375
sg36
F-5.08125
sg37
F0.43124999999999997
sg38
S'yellow'
p1189
sba(icurlovision
Stone
p1190
(dp1191
g35
F8.79375
sg36
F-2.9812499999999997
sg37
F0.44999999999999996
sg38
S'yellow'
p1192
sba(icurlovision
Stone
p1193
(dp1194
g35
F-1.59375
sg36
F-2.86875
sg37
F0.44999999999999996
sg38
S'red'
p1195
sba(icurlovision
Stone
p1196
(dp1197
g35
F6.46875
sg36
F-0.80625
sg37
F0.44999999999999996
sg38
S'yellow'
p1198
sba(icurlovision
Stone
p1199
(dp1200
g35
F12.91875
sg36
F-4.5562499999999995
sg37
F0.43124999999999997
sg38
S'yellow'
p1201
sba(icurlovision
Stone
p1202
(dp1203
g35
F0.16874999999999998
sg36
F-2.68125
sg37
F0.46875
sg38
S'yellow'
p1204
sba(icurlovision
Stone
p1205
(dp1206
g35
F2.75625
sg36
F4.29375
sg37
F0.4125
sg38
S'red'
p1207
sba(icurlovision
Stone
p1208
(dp1209
g35
F-3.84375
sg36
F-0.84375
sg37
F0.33749999999999997
sg38
S'red'
p1210
sba(icurlovision
Stone
p1211
(dp1212
g35
F5.71875
sg36
F-1.36875
sg37
F0.28125
sg38
S'red'
p1213
sbasbasg379
I3
sg380
I0
sba(icurlovision
EndResult
p1214
(dp1215
g2
I9
sg9
(lp1216
(I8
I7
tp1217
a(I7
I7
tp1218
a(I6
I6
tp1219
a(I6
I5
tp1220
a(I4
I4
tp1221
a(I4
I3
tp1222
a(I3
I3
tp1223
a(I2
I2
tp1224
a(I2
I1
tp1225
a(I1
I1
tp1226
a(I1
I0
tp1227
asg25
I6
sg26
(lp1228
(icurlovision
StoneLayout
p1229
(dp1230
g30
F0.4791666666666667
sg31
(lp1231
(icurlovision
Stone
p1232
(dp1233
g35
F1.9011627906976745
sg36
F0.9941860465116279
sg37
F0.313953488372093
sg38
S'yellow'
p1234
sbasba(icurlovision
StoneLayout
p1235
(dp1236
g30
F0.4791666666666667
sg31
(lp1237
(icurlovision
Stone
p1238
(dp1239
g35
F1.8979591836734693
sg36
F1.010204081632653
sg37
F0.45918367346938777
sg38
S'yellow'
p1240
sba(icurlovision
Stone
p1241
(dp1242
g35
F-4.316326530612245
sg36
F-6.0
sg37
F0.4897959183673469
sg38
S'red'
p1243
sbasba(icurlovision
StoneLayout
p1244
(dp1245
g30
F0.4791666666666667
sg31
(lp1246
(icurlovision
Stone
p1247
(dp1248
g35
F1.8991935483870968
sg36
F1.0161290322580645
sg37
F0.3387096774193548
sg38
S'yellow'
p1249
sbasba(icurlovision
StoneLayout
p1250
(dp1251
g30
F0.4791666666666667
sg31
(lp1252
(icurlovision
Stone
p1253
(dp1254
g35
F1.9230769230769231
sg36
F1.0
sg37
F0.46153846153846156
sg38
S'yellow'
p1255
sba(icurlovision
Stone
p1256
(dp1257
g35
F11.884615384615385
sg36
F-3.7692307692307696
sg37
F0.44230769230769235
sg38
S'red'
p1258
sbasba(icurlovision
StoneLayout
p1259
(dp1260
g30
F0.4791666666666667
sg31
(lp1261
(icurlovision
Stone
p1262
(dp1263
g35
F1.8829787234042552
sg36
F0.9734042553191489
sg37
F0.4627659574468085
sg38
S'yellow'
p1264
sba(icurlovision
Stone
p1265
(dp1266
g35
F5.553191489361701
sg36
F-6.654255319148936
sg37
F0.33510638297872336
sg38
S'yellow'
p1267
sba(icurlovision
Stone
p1268
(dp1269
g35
F12.861702127659573
sg36
F-3.5265957446808507
sg37
F0.4148936170212766
sg38
S'red'
p1270
sbasba(icurlovision
StoneLayout
p1271
(dp1272
g30
F0.4791666666666667
sg31
(lp1273
(icurlovision
Stone
p1274
(dp1275
g35
F5.359375
sg36
F-6.515625
sg37
F0.3125
sg38
S'yellow'
p1276
sba(icurlovision
Stone
p1277
(dp1278
g35
F1.796875
sg36
F0.953125
sg37
F0.453125
sg38
S'yellow'
p1279
sba(icurlovision
Stone
p1280
(dp1281
g35
F8.484375
sg36
F-6.109375
sg37
F0.28125
sg38
S'yellow'
p1282
sbasba(icurlovision
StoneLayout
p1283
(dp1284
g30
F0.4791666666666667
sg31
(lp1285
(icurlovision
Stone
p1286
(dp1287
g35
F5.2644230769230775
sg36
F-6.331730769230769
sg37
F0.4326923076923077
sg38
S'yellow'
p1288
sba(icurlovision
Stone
p1289
(dp1290
g35
F1.8028846153846154
sg36
F0.9663461538461539
sg37
F0.31730769230769235
sg38
S'yellow'
p1291
sba(icurlovision
Stone
p1292
(dp1293
g35
F11.293269230769232
sg36
F-3.9375
sg37
F0.4182692307692308
sg38
S'red'
p1294
sbasba(icurlovision
StoneLayout
p1295
(dp1296
g30
F0.4791666666666667
sg31
(lp1297
(icurlovision
Stone
p1298
(dp1299
g35
F2.0625
sg36
F1.8605769230769231
sg37
F0.4759615384615385
sg38
S'red'
p1300
sba(icurlovision
Stone
p1301
(dp1302
g35
F5.610576923076923
sg36
F-6.822115384615385
sg37
F0.3028846153846154
sg38
S'yellow'
p1303
sba(icurlovision
Stone
p1304
(dp1305
g35
F1.8605769230769231
sg36
F0.9663461538461539
sg37
F0.46153846153846156
sg38
S'yellow'
p1306
sbasba(icurlovision
StoneLayout
p1307
(dp1308
g30
F0.4791666666666667
sg31
(lp1309
(icurlovision
Stone
p1310
(dp1311
g35
F5.683333333333334
sg36
F-6.916666666666667
sg37
F0.4666666666666667
sg38
S'yellow'
p1312
sba(icurlovision
Stone
p1313
(dp1314
g35
F2.9166666666666665
sg36
F2.216666666666667
sg37
F0.4666666666666667
sg38
S'yellow'
p1315
sba(icurlovision
Stone
p1316
(dp1317
g35
F1.6166666666666667
sg36
F0.48333333333333334
sg37
F0.4666666666666667
sg38
S'yellow'
p1318
sbasba(icurlovision
StoneLayout
p1319
(dp1320
g30
F0.4791666666666667
sg31
(lp1321
(icurlovision
Stone
p1322
(dp1323
g35
F5.669491525423729
sg36
F-6.9406779661016955
sg37
F0.3686440677966102
sg38
S'yellow'
p1324
sbasba(icurlovision
StoneLayout
p1325
(dp1326
g30
F0.4791666666666667
sg31
(lp1327
(icurlovision
Stone
p1328
(dp1329
g35
F6.609375
sg36
F-1.640625
sg37
F0.359375
sg38
S'yellow'
p1330
sba(icurlovision
Stone
p1331
(dp1332
g35
F5.546875
sg36
F-6.796875
sg37
F0.46875
sg38
S'yellow'
p1333
sbasbasg379
I3
sg380
I1
sba(icurlovision
EndResult
p1334
(dp1335
g2
I10
sg9
(lp1336
(I7
I7
tp1337
a(I6
I6
tp1338
a(I5
I5
tp1339
a(I4
I4
tp1340
a(I4
I3
tp1341
a(I3
I3
tp1342
a(I3
I2
tp1343
a(I2
I2
tp1344
a(I2
I1
tp1345
a(I1
I1
tp1346
a(I1
I0
tp1347
asg25
I7
sg26
(lp1348
(icurlovision
StoneLayout
p1349
(dp1350
g30
F0.4791666666666667
sg31
(lp1351
(icurlovision
Stone
p1352
(dp1353
g35
F13.7625
sg36
F2.1374999999999997
sg37
F0.4125
sg38
S'red'
p1354
sba(icurlovision
Stone
p1355
(dp1356
g35
F1.3125
sg36
F-1.0125
sg37
F0.46875
sg38
S'yellow'
p1357
sbasba(icurlovision
StoneLayout
p1358
(dp1359
g30
F0.4791666666666667
sg31
(lp1360
(icurlovision
Stone
p1361
(dp1362
g35
F13.81578947368421
sg36
F2.0921052631578947
sg37
F0.2763157894736842
sg38
S'red'
p1363
sba(icurlovision
Stone
p1364
(dp1365
g35
F1.3026315789473684
sg36
F-1.026315789473684
sg37
F0.47368421052631576
sg38
S'yellow'
p1366
sba(icurlovision
Stone
p1367
(dp1368
g35
F3.9868421052631575
sg36
F-4.342105263157895
sg37
F0.3355263157894737
sg38
S'red'
p1369
sba(icurlovision
Stone
p1370
(dp1371
g35
F-2.881578947368421
sg36
F-5.092105263157895
sg37
F0.5328947368421052
sg38
S'yellow'
p1372
sbasba(icurlovision
StoneLayout
p1373
(dp1374
g30
F0.4791666666666667
sg31
(lp1375
(icurlovision
Stone
p1376
(dp1377
g35
F7.371951219512194
sg36
F2.25
sg37
F0.4390243902439024
sg38
S'red'
p1378
sba(icurlovision
Stone
p1379
(dp1380
g35
F13.554878048780488
sg36
F2.067073170731707
sg37
F0.2926829268292683
sg38
S'red'
p1381
sba(icurlovision
Stone
p1382
(dp1383
g35
F1.2621951219512195
sg36
F-1.0426829268292683
sg37
F0.4390243902439024
sg38
S'yellow'
p1384
sbasba(icurlovision
StoneLayout
p1385
(dp1386
g30
F0.4791666666666667
sg31
(lp1387
(icurlovision
Stone
p1388
(dp1389
g35
F7.078125
sg36
F2.890625
sg37
F0.34375
sg38
S'red'
p1390
sba(icurlovision
Stone
p1391
(dp1392
g35
F8.015625
sg36
F1.328125
sg37
F0.46875
sg38
S'red'
p1393
sba(icurlovision
Stone
p1394
(dp1395
g35
F1.265625
sg36
F-1.078125
sg37
F0.453125
sg38
S'yellow'
p1396
sbasba(icurlovision
StoneLayout
p1397
(dp1398
g30
F0.4791666666666667
sg31
(lp1399
(icurlovision
Stone
p1400
(dp1401
g35
F6.236111111111111
sg36
F6.875
sg37
F0.4722222222222222
sg38
S'red'
p1402
sba(icurlovision
Stone
p1403
(dp1404
g35
F1.2638888888888888
sg36
F-1.0138888888888888
sg37
F0.3194444444444444
sg38
S'yellow'
p1405
sbasba(icurlovision
StoneLayout
p1406
(dp1407
g30
F0.4791666666666667
sg31
(lp1408
(icurlovision
Stone
p1409
(dp1410
g35
F6.171875
sg36
F6.828125
sg37
F0.453125
sg38
S'red'
p1411
sba(icurlovision
Stone
p1412
(dp1413
g35
F6.234375
sg36
F-1.421875
sg37
F0.421875
sg38
S'red'
p1414
sbasba(icurlovision
StoneLayout
p1415
(dp1416
g30
F0.4791666666666667
sg31
(lp1417
(icurlovision
Stone
p1418
(dp1419
g35
F6.159836065573771
sg36
F6.823770491803279
sg37
F0.45491803278688525
sg38
S'red'
p1420
sba(icurlovision
Stone
p1421
(dp1422
g35
F1.2172131147540983
sg36
F-0.9959016393442622
sg37
F0.3319672131147541
sg38
S'yellow'
p1423
sbasba(icurlovision
StoneLayout
p1424
(dp1425
g30
F0.4791666666666667
sg31
(lp1426
(icurlovision
Stone
p1427
(dp1428
g35
F1.9528301886792454
sg36
F-0.4528301886792453
sg37
F0.3537735849056604
sg38
S'red'
p1429
sba(icurlovision
Stone
p1430
(dp1431
g35
F6.113207547169812
sg36
F6.764150943396227
sg37
F0.4528301886792453
sg38
S'red'
p1432
sba(icurlovision
Stone
p1433
(dp1434
g35
F0.8490566037735849
sg36
F-1.2452830188679245
sg37
F0.32547169811320753
sg38
S'yellow'
p1435
sbasba(icurlovision
StoneLayout
p1436
(dp1437
g30
F0.4791666666666667
sg31
(lp1438
(icurlovision
Stone
p1439
(dp1440
g35
F0.8454545454545455
sg36
F-1.2818181818181817
sg37
F0.3409090909090909
sg38
S'yellow'
p1441
sba(icurlovision
Stone
p1442
(dp1443
g35
F6.218181818181818
sg36
F6.845454545454545
sg37
F0.3136363636363636
sg38
S'red'
p1444
sbasba(icurlovision
StoneLayout
p1445
(dp1446
g30
F0.4791666666666667
sg31
(lp1447
(icurlovision
Stone
p1448
(dp1449
g35
F0.8114754098360656
sg36
F-1.3032786885245902
sg37
F0.3442622950819672
sg38
S'yellow'
p1450
sba(icurlovision
Stone
p1451
(dp1452
g35
F6.270491803278689
sg36
F6.983606557377049
sg37
F0.319672131147541
sg38
S'red'
p1453
sbasba(icurlovision
StoneLayout
p1454
(dp1455
g30
F0.4791666666666667
sg31
(lp1456
(icurlovision
Stone
p1457
(dp1458
g35
F0.7777777777777777
sg36
F-1.361111111111111
sg37
F0.3333333333333333
sg38
S'yellow'
p1459
sba(icurlovision
Stone
p1460
(dp1461
g35
F6.277777777777778
sg36
F7.0
sg37
F0.4861111111111111
sg38
S'red'
p1462
sba(icurlovision
Stone
p1463
(dp1464
g35
F1.75
sg36
F-1.0555555555555556
sg37
F0.4722222222222222
sg38
S'red'
p1465
sba(icurlovision
Stone
p1466
(dp1467
g35
F-0.16666666666666666
sg36
F1.0
sg37
F0.4722222222222222
sg38
S'yellow'
p1468
sbasbasg379
I3
sg380
I1
sba(icurlovision
EndResult
p1469
(dp1470
g2
I10
sg9
(lp1471
(I8
I7
tp1472
a(I7
I6
tp1473
a(I6
I5
tp1474
a(I5
I4
tp1475
a(I4
I3
tp1476
a(I3
I3
tp1477
a(I3
I2
tp1478
a(I2
I2
tp1479
a(I2
I1
tp1480
a(I1
I1
tp1481
a(I1
I0
tp1482
asg25
I8
sg26
(lp1483
(icurlovision
StoneLayout
p1484
(dp1485
g30
F0.4791666666666667
sg31
(lp1486
sba(icurlovision
StoneLayout
p1487
(dp1488
g30
F0.4791666666666667
sg31
(lp1489
(icurlovision
Stone
p1490
(dp1491
g35
F11.936170212765957
sg36
F-2.585106382978723
sg37
F0.4627659574468085
sg38
S'red'
p1492
sba(icurlovision
Stone
p1493
(dp1494
g35
F-3.25531914893617
sg36
F3.351063829787234
sg37
F0.39893617021276595
sg38
S'yellow'
p1495
sbasba(icurlovision
StoneLayout
p1496
(dp1497
g30
F0.4791666666666667
sg31
(lp1498
(icurlovision
Stone
p1499
(dp1500
g35
F12.684782608695652
sg36
F3.2282608695652173
sg37
F0.42391304347826086
sg38
S'red'
p1501
sbasba(icurlovision
StoneLayout
p1502
(dp1503
g30
F0.4791666666666667
sg31
(lp1504
(icurlovision
Stone
p1505
(dp1506
g35
F5.367647058823529
sg36
F3.485294117647059
sg37
F0.4264705882352941
sg38
S'red'
p1507
sbasba(icurlovision
StoneLayout
p1508
(dp1509
g30
F0.4791666666666667
sg31
(lp1510
(icurlovision
Stone
p1511
(dp1512
g35
F6.0588235294117645
sg36
F2.691176470588235
sg37
F0.4411764705882353
sg38
S'yellow'
p1513
sbasba(icurlovision
StoneLayout
p1514
(dp1515
g30
F0.4791666666666667
sg31
(lp1516
(icurlovision
Stone
p1517
(dp1518
g35
F6.043269230769231
sg36
F2.7548076923076925
sg37
F0.31730769230769235
sg38
S'yellow'
p1519
sba(icurlovision
Stone
p1520
(dp1521
g35
F4.543269230769231
sg36
F1.6875
sg37
F0.34615384615384615
sg38
S'red'
p1522
sbasba(icurlovision
StoneLayout
p1523
(dp1524
g30
F0.4791666666666667
sg31
(lp1525
(icurlovision
Stone
p1526
(dp1527
g35
F5.953125
sg36
F2.765625
sg37
F0.3125
sg38
S'yellow'
p1528
sba(icurlovision
Stone
p1529
(dp1530
g35
F2.390625
sg36
F-3.078125
sg37
F0.4375
sg38
S'yellow'
p1531
sbasba(icurlovision
StoneLayout
p1532
(dp1533
g30
F0.4791666666666667
sg31
(lp1534
(icurlovision
Stone
p1535
(dp1536
g35
F-0.6923076923076923
sg36
F2.653846153846154
sg37
F0.46153846153846156
sg38
S'red'
p1537
sba(icurlovision
Stone
p1538
(dp1539
g35
F6.0
sg36
F2.855769230769231
sg37
F0.44711538461538464
sg38
S'yellow'
p1540
sba(icurlovision
Stone
p1541
(dp1542
g35
F2.480769230769231
sg36
F-3.1153846153846154
sg37
F0.31730769230769235
sg38
S'yellow'
p1543
sbasba(icurlovision
StoneLayout
p1544
(dp1545
g30
F0.4791666666666667
sg31
(lp1546
(icurlovision
Stone
p1547
(dp1548
g35
F2.4130434782608696
sg36
F-3.1304347826086953
sg37
F0.45652173913043476
sg38
S'yellow'
p1549
sba(icurlovision
Stone
p1550
(dp1551
g35
F6.032608695652174
sg36
F2.7717391304347827
sg37
F0.45652173913043476
sg38
S'yellow'
p1552
sba(icurlovision
Stone
p1553
(dp1554
g35
F-4.043478260869565
sg36
F-1.6304347826086956
sg37
F0.358695652173913
sg38
S'yellow'
p1555
sba(icurlovision
Stone
p1556
(dp1557
g35
F-6.163043478260869
sg36
F6.489130434782608
sg37
F0.30978260869565216
sg38
S'red'
p1558
sbasba(icurlovision
StoneLayout
p1559
(dp1560
g30
F0.4791666666666667
sg31
(lp1561
(icurlovision
Stone
p1562
(dp1563
g35
F6.171875
sg36
F2.875
sg37
F0.359375
sg38
S'yellow'
p1564
sba(icurlovision
Stone
p1565
(dp1566
g35
F0.328125
sg36
F2.625
sg37
F0.46875
sg38
S'red'
p1567
sba(icurlovision
Stone
p1568
(dp1569
g35
F2.484375
sg36
F-3.21875
sg37
F0.46875
sg38
S'yellow'
p1570
sbasba(icurlovision
StoneLayout
p1571
(dp1572
g30
F0.4791666666666667
sg31
(lp1573
(icurlovision
Stone
p1574
(dp1575
g35
F6.114130434782608
sg36
F2.7880434782608696
sg37
F0.34239130434782605
sg38
S'yellow'
p1576
sba(icurlovision
Stone
p1577
(dp1578
g35
F2.4619565217391304
sg36
F-3.2119565217391304
sg37
F0.34239130434782605
sg38
S'yellow'
p1579
sbasbasg379
I3
sg380
I1
sbasS'version'
p1580
I20180812
sg379
I3
sS'metadata'
p1581
(icurlovision
MatchMetadata
p1582
(dp1583
S'team_name_red'
p1584
S'Unknown'
p1585
sS'event_name'
p1586
g1585
sS'gender'
p1587
g1585
sS'other_info'
p1588
g1585
sS'team_name_yel'
p1589
g1585
sS'date'
p1590
g1585
sbsb.