(icurlovision
MatchResult
p0
(dp1
S'yel_score'
p2
I4
sS'name'
p3
S'VideoLibrary/PyeongChang.Olympics.2018.curling.mixed.doubles.bronze.1080p.NBC.WEB-DL-FINFUNGUS.mp4'
p4
sS'end_results'
p5
(lp6
(icurlovision
EndResult
p7
(dp8
g2
I0
sS'stones_left'
p9
(lp10
(I4
I3
tp11
a(I3
I3
tp12
a(I3
I2
tp13
a(I2
I2
tp14
a(I2
I1
tp15
a(I1
I1
tp16
a(I1
I0
tp17
asS'end_num'
p18
I1
sS'stone_layouts'
p19
(lp20
(icurlovision
StoneLayout
p21
(dp22
S'stone_radius'
p23
F0.4791666666666667
sS'stones'
p24
(lp25
(icurlovision
Stone
p26
(dp27
S'y'
p28
F2.505681818181818
sS'x'
p29
F1.2102272727272727
sS'r'
p30
F0.4431818181818181
sS'color'
p31
S'yellow'
p32
sba(icurlovision
Stone
p33
(dp34
g28
F-1.1761363636363635
sg29
F0.8693181818181818
sg30
F0.30681818181818177
sg31
S'yellow'
p35
sba(icurlovision
Stone
p36
(dp37
g28
F10.6875
sg29
F0.08522727272727272
sg30
F0.40909090909090906
sg31
S'yellow'
p38
sba(icurlovision
Stone
p39
(dp40
g28
F-1.5852272727272727
sg29
F-0.017045454545454544
sg30
F0.4602272727272727
sg31
S'red'
p41
sba(icurlovision
Stone
p42
(dp43
g28
F1.8238636363636362
sg29
F-0.39204545454545453
sg30
F0.2727272727272727
sg31
S'red'
p44
sbasba(icurlovision
StoneLayout
p45
(dp46
g23
F0.4791666666666667
sg24
(lp47
(icurlovision
Stone
p48
(dp49
g28
F-6.125
sg29
F1.6785714285714284
sg30
F0.4464285714285714
sg31
S'yellow'
p50
sba(icurlovision
Stone
p51
(dp52
g28
F-6.3392857142857135
sg29
F6.9642857142857135
sg30
F0.3214285714285714
sg31
S'yellow'
p53
sba(icurlovision
Stone
p54
(dp55
g28
F3.017857142857143
sg29
F0.46428571428571425
sg30
F0.4464285714285714
sg31
S'red'
p56
sba(icurlovision
Stone
p57
(dp58
g28
F10.410714285714285
sg29
F0.07142857142857142
sg30
F0.42857142857142855
sg31
S'yellow'
p59
sba(icurlovision
Stone
p60
(dp61
g28
F1.6607142857142856
sg29
F-0.2857142857142857
sg30
F0.2857142857142857
sg31
S'red'
p62
sba(icurlovision
Stone
p63
(dp64
g28
F-2.875
sg29
F-3.214285714285714
sg30
F0.3214285714285714
sg31
S'red'
p65
sbasba(icurlovision
StoneLayout
p66
(dp67
g23
F0.4791666666666667
sg24
(lp68
(icurlovision
Stone
p69
(dp70
g28
F-6.1395348837209305
sg29
F1.6744186046511627
sg30
F0.3313953488372093
sg31
S'yellow'
p71
sba(icurlovision
Stone
p72
(dp73
g28
F-6.348837209302325
sg29
F6.941860465116279
sg30
F0.313953488372093
sg31
S'yellow'
p74
sba(icurlovision
Stone
p75
(dp76
g28
F9.767441860465116
sg29
F-3.383720930232558
sg30
F0.2441860465116279
sg31
S'yellow'
p77
sba(icurlovision
Stone
p78
(dp79
g28
F3.0348837209302326
sg29
F0.41860465116279066
sg30
F0.436046511627907
sg31
S'red'
p80
sba(icurlovision
Stone
p81
(dp82
g28
F1.744186046511628
sg29
F-0.313953488372093
sg30
F0.2965116279069767
sg31
S'red'
p83
sba(icurlovision
Stone
p84
(dp85
g28
F-2.8255813953488373
sg29
F-3.244186046511628
sg30
F0.3313953488372093
sg31
S'red'
p86
sbasba(icurlovision
StoneLayout
p87
(dp88
g23
F0.4791666666666667
sg24
(lp89
(icurlovision
Stone
p90
(dp91
g28
F9.952702702702704
sg29
F-3.4662162162162162
sg30
F0.4256756756756757
sg31
S'yellow'
p92
sba(icurlovision
Stone
p93
(dp94
g28
F15.466216216216218
sg29
F-0.38513513513513514
sg30
F0.4256756756756757
sg31
S'red'
p95
sba(icurlovision
Stone
p96
(dp97
g28
F3.141891891891892
sg29
F0.4256756756756757
sg30
F0.44594594594594594
sg31
S'red'
p98
sba(icurlovision
Stone
p99
(dp100
g28
F1.7635135135135136
sg29
F-0.38513513513513514
sg30
F0.46621621621621623
sg31
S'red'
p101
sba(icurlovision
Stone
p102
(dp103
g28
F-2.9391891891891895
sg29
F-3.425675675675676
sg30
F0.32432432432432434
sg31
S'red'
p104
sbasba(icurlovision
StoneLayout
p105
(dp106
g23
F0.4791666666666667
sg24
(lp107
(icurlovision
Stone
p108
(dp109
g28
F9.631578947368421
sg29
F-3.3552631578947367
sg30
F0.41447368421052627
sg31
S'yellow'
p110
sba(icurlovision
Stone
p111
(dp112
g28
F2.6052631578947367
sg29
F2.6842105263157894
sg30
F0.23684210526315788
sg31
S'yellow'
p113
sba(icurlovision
Stone
p114
(dp115
g28
F15.0
sg29
F-0.43421052631578944
sg30
F0.39473684210526316
sg31
S'red'
p116
sbasba(icurlovision
StoneLayout
p117
(dp118
g23
F0.4791666666666667
sg24
(lp119
(icurlovision
Stone
p120
(dp121
g28
F9.912162162162163
sg29
F-3.4662162162162162
sg30
F0.4256756756756757
sg31
S'yellow'
p122
sba(icurlovision
Stone
p123
(dp124
g28
F15.425675675675677
sg29
F-0.38513513513513514
sg30
F0.4256756756756757
sg31
S'red'
p125
sba(icurlovision
Stone
p126
(dp127
g28
F2.6554054054054057
sg29
F2.777027027027027
sg30
F0.3445945945945946
sg31
S'yellow'
p128
sba(icurlovision
Stone
p129
(dp130
g28
F2.0472972972972974
sg29
F-0.75
sg30
F0.30405405405405406
sg31
S'red'
p131
sba(icurlovision
Stone
p132
(dp133
g28
F-5.736486486486487
sg29
F6.506756756756757
sg30
F0.28378378378378377
sg31
S'red'
p134
sbasba(icurlovision
StoneLayout
p135
(dp136
g23
F0.4791666666666667
sg24
(lp137
(icurlovision
Stone
p138
(dp139
g28
F-6.098684210526315
sg29
F1.6973684210526314
sg30
F0.3157894736842105
sg31
S'yellow'
p140
sba(icurlovision
Stone
p141
(dp142
g28
F5.5855263157894735
sg29
F-3.31578947368421
sg30
F0.29605263157894735
sg31
S'yellow'
p143
sba(icurlovision
Stone
p144
(dp145
g28
F-5.546052631578947
sg29
F6.355263157894736
sg30
F0.43421052631578944
sg31
S'red'
p146
sba(icurlovision
Stone
p147
(dp148
g28
F10.046052631578947
sg29
F-5.13157894736842
sg30
F0.256578947368421
sg31
S'yellow'
p149
sba(icurlovision
Stone
p150
(dp151
g28
F13.835526315789473
sg29
F1.2236842105263157
sg30
F0.39473684210526316
sg31
S'red'
p152
sba(icurlovision
Stone
p153
(dp154
g28
F2.625
sg29
F2.6842105263157894
sg30
F0.29605263157894735
sg31
S'yellow'
p155
sba(icurlovision
Stone
p156
(dp157
g28
F2.0328947368421053
sg29
F-0.7105263157894737
sg30
F0.43421052631578944
sg31
S'red'
p158
sbasbasS'red_score'
p159
I2
sS'red_hammer'
p160
I1
sba(icurlovision
EndResult
p161
(dp162
g2
I0
sg9
(lp163
(I4
I5
tp164
a(I4
I4
tp165
a(I3
I4
tp166
a(I3
I3
tp167
a(I2
I3
tp168
a(I1
I2
tp169
a(I1
I1
tp170
asg18
I2
sg19
(lp171
(icurlovision
StoneLayout
p172
(dp173
g23
F0.4791666666666667
sg24
(lp174
(icurlovision
Stone
p175
(dp176
g28
F-1.653061224489796
sg29
F-0.061224489795918366
sg30
F0.3520408163265306
sg31
S'yellow'
p177
sba(icurlovision
Stone
p178
(dp179
g28
F10.653061224489795
sg29
F0.061224489795918366
sg30
F0.42857142857142855
sg31
S'red'
p180
sba(icurlovision
Stone
p181
(dp182
g28
F1.2857142857142856
sg29
F-0.30612244897959184
sg30
F0.336734693877551
sg31
S'red'
p183
sba(icurlovision
Stone
p184
(dp185
g28
F10.10204081632653
sg29
F-4.5
sg30
F0.2755102040816326
sg31
S'yellow'
p186
sbasba(icurlovision
StoneLayout
p187
(dp188
g23
F0.4791666666666667
sg24
(lp189
(icurlovision
Stone
p190
(dp191
g28
F10.744565217391305
sg29
F0.08152173913043478
sg30
F0.42391304347826086
sg31
S'red'
p192
sba(icurlovision
Stone
p193
(dp194
g28
F-1.6467391304347825
sg29
F-0.016304347826086956
sg30
F0.47282608695652173
sg31
S'yellow'
p195
sba(icurlovision
Stone
p196
(dp197
g28
F1.842391304347826
sg29
F0.5054347826086957
sg30
F0.30978260869565216
sg31
S'yellow'
p198
sba(icurlovision
Stone
p199
(dp200
g28
F1.0923913043478262
sg29
F-0.5054347826086957
sg30
F0.34239130434782605
sg31
S'red'
p201
sba(icurlovision
Stone
p202
(dp203
g28
F10.614130434782608
sg29
F-5.592391304347826
sg30
F0.2934782608695652
sg31
S'yellow'
p204
sbasba(icurlovision
StoneLayout
p205
(dp206
g23
F0.4791666666666667
sg24
(lp207
(icurlovision
Stone
p208
(dp209
g28
F10.892045454545453
sg29
F0.05113636363636363
sg30
F0.4431818181818181
sg31
S'red'
p210
sba(icurlovision
Stone
p211
(dp212
g28
F-1.6874999999999998
sg29
F-0.05113636363636363
sg30
F0.3409090909090909
sg31
S'yellow'
p213
sba(icurlovision
Stone
p214
(dp215
g28
F2.6761363636363633
sg29
F0.05113636363636363
sg30
F0.4602272727272727
sg31
S'red'
p216
sba(icurlovision
Stone
p217
(dp218
g28
F1.6193181818181817
sg29
F0.5284090909090908
sg30
F0.32386363636363635
sg31
S'yellow'
p219
sba(icurlovision
Stone
p220
(dp221
g28
F1.1420454545454544
sg29
F-0.5625
sg30
F0.3409090909090909
sg31
S'red'
p222
sba(icurlovision
Stone
p223
(dp224
g28
F-4.3806818181818175
sg29
F-3.3579545454545454
sg30
F0.32386363636363635
sg31
S'yellow'
p225
sbasba(icurlovision
StoneLayout
p226
(dp227
g23
F0.4791666666666667
sg24
(lp228
(icurlovision
Stone
p229
(dp230
g28
F-0.8
sg29
F-2.8666666666666667
sg30
F0.31666666666666665
sg31
S'yellow'
p231
sba(icurlovision
Stone
p232
(dp233
g28
F2.6666666666666665
sg29
F0.06666666666666667
sg30
F0.4666666666666667
sg31
S'red'
p234
sba(icurlovision
Stone
p235
(dp236
g28
F-1.7
sg29
F-0.03333333333333333
sg30
F0.3333333333333333
sg31
S'yellow'
p237
sba(icurlovision
Stone
p238
(dp239
g28
F10.766666666666666
sg29
F0.06666666666666667
sg30
F0.45
sg31
S'red'
p240
sba(icurlovision
Stone
p241
(dp242
g28
F1.5666666666666667
sg29
F0.5666666666666667
sg30
F0.3333333333333333
sg31
S'yellow'
p243
sba(icurlovision
Stone
p244
(dp245
g28
F-0.3333333333333333
sg29
F0.5666666666666667
sg30
F0.2833333333333333
sg31
S'red'
p246
sbasba(icurlovision
StoneLayout
p247
(dp248
g23
F0.4791666666666667
sg24
(lp249
(icurlovision
Stone
p250
(dp251
g28
F2.6648936170212765
sg29
F0.047872340425531915
sg30
F0.3670212765957446
sg31
S'red'
p252
sba(icurlovision
Stone
p253
(dp254
g28
F-1.675531914893617
sg29
F-0.07978723404255318
sg30
F0.4627659574468085
sg31
S'yellow'
p255
sba(icurlovision
Stone
p256
(dp257
g28
F10.707446808510637
sg29
F0.047872340425531915
sg30
F0.44680851063829785
sg31
S'red'
p258
sba(icurlovision
Stone
p259
(dp260
g28
F-0.3031914893617021
sg29
F0.49468085106382975
sg30
F0.3031914893617021
sg31
S'red'
p261
sba(icurlovision
Stone
p262
(dp263
g28
F1.5797872340425532
sg29
F0.5585106382978723
sg30
F0.3191489361702127
sg31
S'yellow'
p264
sba(icurlovision
Stone
p265
(dp266
g28
F-3.7499999999999996
sg29
F-0.015957446808510637
sg30
F0.33510638297872336
sg31
S'yellow'
p267
sbasba(icurlovision
StoneLayout
p268
(dp269
g23
F0.4791666666666667
sg24
(lp270
(icurlovision
Stone
p271
(dp272
g28
F-2.686046511627907
sg29
F-2.7906976744186047
sg30
F0.3488372093023256
sg31
S'yellow'
p273
sba(icurlovision
Stone
p274
(dp275
g28
F2.686046511627907
sg29
F0.06976744186046512
sg30
F0.38372093023255816
sg31
S'red'
p276
sba(icurlovision
Stone
p277
(dp278
g28
F1.8488372093023255
sg29
F1.9534883720930232
sg30
F0.45348837209302323
sg31
S'red'
p279
sba(icurlovision
Stone
p280
(dp281
g28
F10.813953488372093
sg29
F0.06976744186046512
sg30
F0.45348837209302323
sg31
S'red'
p282
sba(icurlovision
Stone
p283
(dp284
g28
F-1.6744186046511627
sg29
F-0.03488372093023256
sg30
F0.3488372093023256
sg31
S'yellow'
p285
sba(icurlovision
Stone
p286
(dp287
g28
F-0.38372093023255816
sg29
F0.627906976744186
sg30
F0.2965116279069767
sg31
S'red'
p288
sba(icurlovision
Stone
p289
(dp290
g28
F-4.151162790697675
sg29
F1.0116279069767442
sg30
F0.3313953488372093
sg31
S'yellow'
p291
sbasba(icurlovision
StoneLayout
p292
(dp293
g23
F0.4791666666666667
sg24
(lp294
(icurlovision
Stone
p295
(dp296
g28
F-1.6785714285714284
sg29
F-0.03571428571428571
sg30
F0.33928571428571425
sg31
S'yellow'
p297
sba(icurlovision
Stone
p298
(dp299
g28
F10.892857142857142
sg29
F0.07142857142857142
sg30
F0.42857142857142855
sg31
S'red'
p300
sba(icurlovision
Stone
p301
(dp302
g28
F2.6785714285714284
sg29
F0.07142857142857142
sg30
F0.4464285714285714
sg31
S'red'
p303
sba(icurlovision
Stone
p304
(dp305
g28
F-0.3571428571428571
sg29
F0.5714285714285714
sg30
F0.4821428571428571
sg31
S'red'
p306
sbasbasg159
I3
sg160
I0
sba(icurlovision
EndResult
p307
(dp308
g2
I2
sg9
(lp309
(I4
I4
tp310
a(I3
I4
tp311
a(I3
I3
tp312
a(I2
I2
tp313
a(I1
I2
tp314
asg18
I3
sg19
(lp315
(icurlovision
StoneLayout
p316
(dp317
g23
F0.4791666666666667
sg24
(lp318
(icurlovision
Stone
p319
(dp320
g28
F-1.588235294117647
sg29
F0.0
sg30
F0.3382352941176471
sg31
S'yellow'
p321
sba(icurlovision
Stone
p322
(dp323
g28
F10.382352941176471
sg29
F0.029411764705882353
sg30
F0.4264705882352941
sg31
S'red'
p324
sba(icurlovision
Stone
p325
(dp326
g28
F3.5588235294117645
sg29
F-0.5588235294117647
sg30
F0.3382352941176471
sg31
S'yellow'
p327
sba(icurlovision
Stone
p328
(dp329
g28
F-0.3529411764705882
sg29
F-0.7647058823529411
sg30
F0.29411764705882354
sg31
S'red'
p330
sbasba(icurlovision
StoneLayout
p331
(dp332
g23
F0.4791666666666667
sg24
(lp333
(icurlovision
Stone
p334
(dp335
g28
F0.21195652173913043
sg29
F-0.11413043478260869
sg30
F0.358695652173913
sg31
S'red'
p336
sba(icurlovision
Stone
p337
(dp338
g28
F10.907608695652174
sg29
F0.048913043478260865
sg30
F0.27717391304347827
sg31
S'red'
p339
sba(icurlovision
Stone
p340
(dp341
g28
F-1.6467391304347825
sg29
F0.016304347826086956
sg30
F0.358695652173913
sg31
S'yellow'
p342
sba(icurlovision
Stone
p343
(dp344
g28
F3.733695652173913
sg29
F-0.5706521739130435
sg30
F0.34239130434782605
sg31
S'yellow'
p345
sba(icurlovision
Stone
p346
(dp347
g28
F-0.4076086956521739
sg29
F-0.8967391304347826
sg30
F0.34239130434782605
sg31
S'red'
p348
sbasba(icurlovision
StoneLayout
p349
(dp350
g23
F0.4791666666666667
sg24
(lp351
(icurlovision
Stone
p352
(dp353
g28
F-1.5489130434782608
sg29
F-0.016304347826086956
sg30
F0.32608695652173914
sg31
S'yellow'
p354
sba(icurlovision
Stone
p355
(dp356
g28
F-0.1793478260869565
sg29
F0.11413043478260869
sg30
F0.45652173913043476
sg31
S'red'
p357
sba(icurlovision
Stone
p358
(dp359
g28
F10.516304347826086
sg29
F0.016304347826086956
sg30
F0.42391304347826086
sg31
S'red'
p360
sba(icurlovision
Stone
p361
(dp362
g28
F1.125
sg29
F-0.048913043478260865
sg30
F0.32608695652173914
sg31
S'yellow'
p363
sba(icurlovision
Stone
p364
(dp365
g28
F-0.5706521739130435
sg29
F-0.9945652173913043
sg30
F0.32608695652173914
sg31
S'red'
p366
sba(icurlovision
Stone
p367
(dp368
g28
F4.483695652173913
sg29
F-0.7663043478260869
sg30
F0.30978260869565216
sg31
S'yellow'
p369
sbasba(icurlovision
StoneLayout
p370
(dp371
g23
F0.4791666666666667
sg24
(lp372
(icurlovision
Stone
p373
(dp374
g28
F-2.9605263157894735
sg29
F-0.47368421052631576
sg30
F0.47368421052631576
sg31
S'yellow'
p375
sba(icurlovision
Stone
p376
(dp377
g28
F-0.8289473684210525
sg29
F0.5526315789473684
sg30
F0.256578947368421
sg31
S'red'
p378
sba(icurlovision
Stone
p379
(dp380
g28
F0.75
sg29
F0.23684210526315788
sg30
F0.35526315789473684
sg31
S'yellow'
p381
sba(icurlovision
Stone
p382
(dp383
g28
F1.3026315789473684
sg29
F-1.381578947368421
sg30
F0.23684210526315788
sg31
S'yellow'
p384
sba(icurlovision
Stone
p385
(dp386
g28
F10.855263157894736
sg29
F0.0
sg30
F0.43421052631578944
sg31
S'red'
p387
sba(icurlovision
Stone
p388
(dp389
g28
F-0.6710526315789473
sg29
F-0.9868421052631579
sg30
F0.47368421052631576
sg31
S'red'
p390
sba(icurlovision
Stone
p391
(dp392
g28
F5.526315789473684
sg29
F-0.9868421052631579
sg30
F0.3157894736842105
sg31
S'yellow'
p393
sbasba(icurlovision
StoneLayout
p394
(dp395
g23
F0.4791666666666667
sg24
(lp396
(icurlovision
Stone
p397
(dp398
g28
F1.276315789473684
sg29
F-1.3552631578947367
sg30
F0.3289473684210526
sg31
S'yellow'
p399
sba(icurlovision
Stone
p400
(dp401
g28
F0.5657894736842105
sg29
F0.19736842105263158
sg30
F0.3289473684210526
sg31
S'yellow'
p402
sba(icurlovision
Stone
p403
(dp404
g28
F-2.8552631578947367
sg29
F-0.4605263157894737
sg30
F0.3157894736842105
sg31
S'yellow'
p405
sba(icurlovision
Stone
p406
(dp407
g28
F-0.8026315789473684
sg29
F0.5657894736842105
sg30
F0.4473684210526315
sg31
S'red'
p408
sba(icurlovision
Stone
p409
(dp410
g28
F-0.6447368421052632
sg29
F-1.013157894736842
sg30
F0.3421052631578947
sg31
S'red'
p411
sba(icurlovision
Stone
p412
(dp413
g28
F1.644736842105263
sg29
F0.22368421052631576
sg30
F0.3421052631578947
sg31
S'red'
p414
sba(icurlovision
Stone
p415
(dp416
g28
F5.434210526315789
sg29
F-0.9342105263157894
sg30
F0.3421052631578947
sg31
S'yellow'
p417
sbasbasg159
I3
sg160
I0
sba(icurlovision
EndResult
p418
(dp419
g2
I2
sg9
(lp420
(I5
I4
tp421
a(I4
I4
tp422
a(I4
I3
tp423
a(I3
I3
tp424
a(I3
I2
tp425
a(I2
I2
tp426
a(I2
I1
tp427
a(I1
I1
tp428
a(I1
I0
tp429
asg18
I4
sg19
(lp430
(icurlovision
StoneLayout
p431
(dp432
g23
F0.4791666666666667
sg24
(lp433
(icurlovision
Stone
p434
(dp435
g28
F-0.9
sg29
F-0.5666666666666667
sg30
F0.35
sg31
S'yellow'
p436
sba(icurlovision
Stone
p437
(dp438
g28
F10.866666666666667
sg29
F0.1
sg30
F0.3
sg31
S'yellow'
p439
sba(icurlovision
Stone
p440
(dp441
g28
F-1.7
sg29
F0.0
sg30
F0.3333333333333333
sg31
S'red'
p442
sbasba(icurlovision
StoneLayout
p443
(dp444
g23
F0.4791666666666667
sg24
(lp445
(icurlovision
Stone
p446
(dp447
g28
F10.5
sg29
F0.06382978723404255
sg30
F0.4308510638297872
sg31
S'yellow'
p448
sba(icurlovision
Stone
p449
(dp450
g28
F-0.8617021276595744
sg29
F-0.5425531914893617
sg30
F0.4627659574468085
sg31
S'yellow'
p451
sba(icurlovision
Stone
p452
(dp453
g28
F-0.031914893617021274
sg29
F0.0
sg30
F0.351063829787234
sg31
S'red'
p454
sba(icurlovision
Stone
p455
(dp456
g28
F-1.6595744680851063
sg29
F0.0
sg30
F0.3191489361702127
sg31
S'red'
p457
sbasba(icurlovision
StoneLayout
p458
(dp459
g23
F0.4791666666666667
sg24
(lp460
(icurlovision
Stone
p461
(dp462
g28
F-0.953125
sg29
F-0.609375
sg30
F0.359375
sg31
S'yellow'
p463
sba(icurlovision
Stone
p464
(dp465
g28
F11.234375
sg29
F0.046875
sg30
F0.453125
sg31
S'yellow'
p466
sba(icurlovision
Stone
p467
(dp468
g28
F0.546875
sg29
F-0.765625
sg30
F0.375
sg31
S'yellow'
p469
sba(icurlovision
Stone
p470
(dp471
g28
F-1.859375
sg29
F0.015625
sg30
F0.375
sg31
S'red'
p472
sba(icurlovision
Stone
p473
(dp474
g28
F-0.296875
sg29
F0.234375
sg30
F0.34375
sg31
S'red'
p475
sbasba(icurlovision
StoneLayout
p476
(dp477
g23
F0.4791666666666667
sg24
(lp478
(icurlovision
Stone
p479
(dp480
g28
F-1.1079545454545454
sg29
F-0.5965909090909091
sg30
F0.3409090909090909
sg31
S'yellow'
p481
sba(icurlovision
Stone
p482
(dp483
g28
F-0.017045454545454544
sg29
F-0.7329545454545454
sg30
F0.3579545454545454
sg31
S'yellow'
p484
sba(icurlovision
Stone
p485
(dp486
g28
F1.4829545454545454
sg29
F-0.5284090909090908
sg30
F0.3409090909090909
sg31
S'red'
p487
sba(icurlovision
Stone
p488
(dp489
g28
F-1.9602272727272725
sg29
F0.08522727272727272
sg30
F0.30681818181818177
sg31
S'red'
p490
sba(icurlovision
Stone
p491
(dp492
g28
F11.198863636363635
sg29
F0.08522727272727272
sg30
F0.3579545454545454
sg31
S'yellow'
p493
sba(icurlovision
Stone
p494
(dp495
g28
F-0.28977272727272724
sg29
F0.28977272727272724
sg30
F0.32386363636363635
sg31
S'red'
p496
sbasba(icurlovision
StoneLayout
p497
(dp498
g23
F0.4791666666666667
sg24
(lp499
(icurlovision
Stone
p500
(dp501
g28
F-1.228723404255319
sg29
F-0.8138297872340425
sg30
F0.33510638297872336
sg31
S'yellow'
p502
sba(icurlovision
Stone
p503
(dp504
g28
F0.5585106382978723
sg29
F0.5585106382978723
sg30
F0.4627659574468085
sg31
S'yellow'
p505
sba(icurlovision
Stone
p506
(dp507
g28
F-1.803191489361702
sg29
F0.175531914893617
sg30
F0.33510638297872336
sg31
S'red'
p508
sba(icurlovision
Stone
p509
(dp510
g28
F10.643617021276595
sg29
F-0.175531914893617
sg30
F0.3031914893617021
sg31
S'yellow'
p511
sba(icurlovision
Stone
p512
(dp513
g28
F1.3882978723404253
sg29
F-0.5585106382978723
sg30
F0.44680851063829785
sg31
S'red'
p514
sba(icurlovision
Stone
p515
(dp516
g28
F0.047872340425531915
sg29
F-0.7180851063829786
sg30
F0.351063829787234
sg31
S'yellow'
p517
sba(icurlovision
Stone
p518
(dp519
g28
F-0.4627659574468085
sg29
F0.23936170212765956
sg30
F0.28723404255319146
sg31
S'red'
p520
sbasba(icurlovision
StoneLayout
p521
(dp522
g23
F0.4791666666666667
sg24
(lp523
(icurlovision
Stone
p524
(dp525
g28
F11.94512195121951
sg29
F0.018292682926829267
sg30
F0.47560975609756095
sg31
S'yellow'
p526
sba(icurlovision
Stone
p527
(dp528
g28
F-0.42073170731707316
sg29
F-1.0060975609756098
sg30
F0.40243902439024387
sg31
S'yellow'
p529
sba(icurlovision
Stone
p530
(dp531
g28
F-2.1036585365853657
sg29
F0.0548780487804878
sg30
F0.49390243902439024
sg31
S'red'
p532
sba(icurlovision
Stone
p533
(dp534
g28
F0.8597560975609756
sg29
F-0.42073170731707316
sg30
F0.3475609756097561
sg31
S'red'
p535
sba(icurlovision
Stone
p536
(dp537
g28
F-0.6402439024390244
sg29
F0.20121951219512194
sg30
F0.36585365853658536
sg31
S'red'
p538
sba(icurlovision
Stone
p539
(dp540
g28
F-5.359756097560975
sg29
F5.871951219512194
sg30
F0.4390243902439024
sg31
S'yellow'
p541
sbasba(icurlovision
StoneLayout
p542
(dp543
g23
F0.4791666666666667
sg24
(lp544
(icurlovision
Stone
p545
(dp546
g28
F-1.858695652173913
sg29
F0.09782608695652173
sg30
F0.45652173913043476
sg31
S'red'
p547
sba(icurlovision
Stone
p548
(dp549
g28
F-0.32608695652173914
sg29
F-0.8478260869565217
sg30
F0.32608695652173914
sg31
S'yellow'
p550
sba(icurlovision
Stone
p551
(dp552
g28
F10.66304347826087
sg29
F-0.06521739130434782
sg30
F0.44021739130434784
sg31
S'yellow'
p553
sba(icurlovision
Stone
p554
(dp555
g28
F9.91304347826087
sg29
F1.0434782608695652
sg30
F0.44021739130434784
sg31
S'yellow'
p556
sba(icurlovision
Stone
p557
(dp558
g28
F0.7826086956521738
sg29
F-0.2934782608695652
sg30
F0.32608695652173914
sg31
S'red'
p559
sba(icurlovision
Stone
p560
(dp561
g28
F-0.4891304347826087
sg29
F0.2608695652173913
sg30
F0.375
sg31
S'red'
p562
sbasba(icurlovision
StoneLayout
p563
(dp564
g23
F0.4791666666666667
sg24
(lp565
(icurlovision
Stone
p566
(dp567
g28
F10.875
sg29
F-0.048913043478260865
sg30
F0.32608695652173914
sg31
S'yellow'
p568
sba(icurlovision
Stone
p569
(dp570
g28
F-1.9076086956521738
sg29
F0.08152173913043478
sg30
F0.47282608695652173
sg31
S'red'
p571
sba(icurlovision
Stone
p572
(dp573
g28
F10.092391304347826
sg29
F1.059782608695652
sg30
F0.45652173913043476
sg31
S'yellow'
p574
sba(icurlovision
Stone
p575
(dp576
g28
F-0.44021739130434784
sg29
F-0.8967391304347826
sg30
F0.47282608695652173
sg31
S'yellow'
p577
sba(icurlovision
Stone
p578
(dp579
g28
F1.7445652173913042
sg29
F-0.5706521739130435
sg30
F0.45652173913043476
sg31
S'red'
p580
sba(icurlovision
Stone
p581
(dp582
g28
F0.30978260869565216
sg29
F-0.11413043478260869
sg30
F0.27717391304347827
sg31
S'red'
p583
sba(icurlovision
Stone
p584
(dp585
g28
F-0.6032608695652174
sg29
F0.21195652173913043
sg30
F0.45652173913043476
sg31
S'red'
p586
sbasba(icurlovision
StoneLayout
p587
(dp588
g23
F0.4791666666666667
sg24
(lp589
(icurlovision
Stone
p590
(dp591
g28
F-1.684782608695652
sg29
F0.15217391304347827
sg30
F0.43478260869565216
sg31
S'red'
p592
sba(icurlovision
Stone
p593
(dp594
g28
F-0.358695652173913
sg29
F-0.7826086956521738
sg30
F0.41304347826086957
sg31
S'yellow'
p595
sba(icurlovision
Stone
p596
(dp597
g28
F1.641304347826087
sg29
F-0.4782608695652174
sg30
F0.41304347826086957
sg31
S'red'
p598
sba(icurlovision
Stone
p599
(dp600
g28
F-0.46739130434782605
sg29
F0.2608695652173913
sg30
F0.44565217391304346
sg31
S'red'
p601
sba(icurlovision
Stone
p602
(dp603
g28
F0.33695652173913043
sg29
F-0.06521739130434782
sg30
F0.34782608695652173
sg31
S'red'
p604
sbasbasg159
I5
sg160
I1
sba(icurlovision
EndResult
p605
(dp606
g2
I4
sg9
(lp607
(I4
I5
tp608
a(I4
I4
tp609
a(I3
I4
tp610
a(I3
I3
tp611
a(I2
I3
tp612
a(I2
I2
tp613
a(I1
I2
tp614
a(I1
I1
tp615
a(I0
I1
tp616
asg18
I5
sg19
(lp617
(icurlovision
StoneLayout
p618
(dp619
g23
F0.4791666666666667
sg24
(lp620
(icurlovision
Stone
p621
(dp622
g28
F11.071428571428571
sg29
F4.535714285714286
sg30
F0.4464285714285714
sg31
S'red'
p623
sba(icurlovision
Stone
p624
(dp625
g28
F0.5
sg29
F4.071428571428571
sg30
F0.3214285714285714
sg31
S'yellow'
p626
sba(icurlovision
Stone
p627
(dp628
g28
F-4.392857142857142
sg29
F-1.5357142857142856
sg30
F0.25
sg31
S'red'
p629
sbasba(icurlovision
StoneLayout
p630
(dp631
g23
F0.4791666666666667
sg24
(lp632
(icurlovision
Stone
p633
(dp634
g28
F10.8
sg29
F4.4
sg30
F0.43333333333333335
sg31
S'red'
p635
sba(icurlovision
Stone
p636
(dp637
g28
F0.4666666666666667
sg29
F3.933333333333333
sg30
F0.31666666666666665
sg31
S'yellow'
p638
sba(icurlovision
Stone
p639
(dp640
g28
F3.3
sg29
F3.7666666666666666
sg30
F0.31666666666666665
sg31
S'yellow'
p641
sba(icurlovision
Stone
p642
(dp643
g28
F-4.333333333333333
sg29
F-1.5
sg30
F0.4
sg31
S'red'
p644
sbasba(icurlovision
StoneLayout
p645
(dp646
g23
F0.4791666666666667
sg24
(lp647
(icurlovision
Stone
p648
(dp649
g28
F-1.0988372093023255
sg29
F3.191860465116279
sg30
F0.47093023255813954
sg31
S'red'
p650
sba(icurlovision
Stone
p651
(dp652
g28
F0.47093023255813954
sg29
F4.063953488372093
sg30
F0.3313953488372093
sg31
S'yellow'
p653
sba(icurlovision
Stone
p654
(dp655
g28
F11.145348837209303
sg29
F4.587209302325581
sg30
F0.436046511627907
sg31
S'red'
p656
sba(icurlovision
Stone
p657
(dp658
g28
F-4.517441860465116
sg29
F-1.5872093023255813
sg30
F0.27906976744186046
sg31
S'red'
p659
sba(icurlovision
Stone
p660
(dp661
g28
F3.436046511627907
sg29
F3.9244186046511627
sg30
F0.3488372093023256
sg31
S'yellow'
p662
sba(icurlovision
Stone
p663
(dp664
g28
F10.133720930232558
sg29
F-5.843023255813954
sg30
F0.313953488372093
sg31
S'yellow'
p665
sbasba(icurlovision
StoneLayout
p666
(dp667
g23
F0.4791666666666667
sg24
(lp668
(icurlovision
Stone
p669
(dp670
g28
F-1.2102272727272727
sg29
F1.721590909090909
sg30
F0.3409090909090909
sg31
S'yellow'
p671
sba(icurlovision
Stone
p672
(dp673
g28
F0.4602272727272727
sg29
F3.9715909090909087
sg30
F0.4602272727272727
sg31
S'yellow'
p674
sba(icurlovision
Stone
p675
(dp676
g28
F10.994318181818182
sg29
F4.482954545454545
sg30
F0.4431818181818181
sg31
S'red'
p677
sba(icurlovision
Stone
p678
(dp679
g28
F3.3579545454545454
sg29
F3.8352272727272725
sg30
F0.3409090909090909
sg31
S'yellow'
p680
sba(icurlovision
Stone
p681
(dp682
g28
F-4.448863636363636
sg29
F-1.5170454545454544
sg30
F0.28977272727272724
sg31
S'red'
p683
sbasba(icurlovision
StoneLayout
p684
(dp685
g23
F0.4791666666666667
sg24
(lp686
(icurlovision
Stone
p687
(dp688
g28
F-6.45
sg29
F-0.375
sg30
F0.44999999999999996
sg31
S'yellow'
p689
sba(icurlovision
Stone
p690
(dp691
g28
F-1.2
sg29
F1.65
sg30
F0.46875
sg31
S'yellow'
p692
sba(icurlovision
Stone
p693
(dp694
g28
F11.0625
sg29
F4.575
sg30
F0.43124999999999997
sg31
S'red'
p695
sba(icurlovision
Stone
p696
(dp697
g28
F-4.425
sg29
F-1.5374999999999999
sg30
F0.31875
sg31
S'red'
p698
sbasba(icurlovision
StoneLayout
p699
(dp700
g23
F0.4791666666666667
sg24
(lp701
(icurlovision
Stone
p702
(dp703
g28
F-1.2439024390243902
sg29
F1.6280487804878048
sg30
F0.3292682926829268
sg31
S'yellow'
p704
sba(icurlovision
Stone
p705
(dp706
g28
F11.048780487804878
sg29
F4.554878048780488
sg30
F0.4390243902439024
sg31
S'red'
p707
sba(icurlovision
Stone
p708
(dp709
g28
F-6.512195121951219
sg29
F-0.42073170731707316
sg30
F0.3475609756097561
sg31
S'yellow'
p710
sba(icurlovision
Stone
p711
(dp712
g28
F-4.060975609756097
sg29
F-0.7134146341463414
sg30
F0.47560975609756095
sg31
S'yellow'
p713
sba(icurlovision
Stone
p714
(dp715
g28
F-4.646341463414634
sg29
F-1.7378048780487805
sg30
F0.2926829268292683
sg31
S'red'
p716
sbasba(icurlovision
StoneLayout
p717
(dp718
g23
F0.4791666666666667
sg24
(lp719
(icurlovision
Stone
p720
(dp721
g28
F11.025
sg29
F4.5375
sg30
F0.44999999999999996
sg31
S'red'
p722
sba(icurlovision
Stone
p723
(dp724
g28
F-0.6375
sg29
F0.7875
sg30
F0.44999999999999996
sg31
S'red'
p725
sba(icurlovision
Stone
p726
(dp727
g28
F-4.0125
sg29
F-0.75
sg30
F0.31875
sg31
S'yellow'
p728
sba(icurlovision
Stone
p729
(dp730
g28
F-4.6499999999999995
sg29
F-1.7625
sg30
F0.33749999999999997
sg31
S'red'
p731
sbasba(icurlovision
StoneLayout
p732
(dp733
g23
F0.4791666666666667
sg24
(lp734
(icurlovision
Stone
p735
(dp736
g28
F0.2195121951219512
sg29
F0.823170731707317
sg30
F0.3292682926829268
sg31
S'yellow'
p737
sba(icurlovision
Stone
p738
(dp739
g28
F-6.329268292682927
sg29
F-0.3841463414634146
sg30
F0.31097560975609756
sg31
S'yellow'
p740
sba(icurlovision
Stone
p741
(dp742
g28
F10.829268292682926
sg29
F4.445121951219512
sg30
F0.4390243902439024
sg31
S'red'
p743
sba(icurlovision
Stone
p744
(dp745
g28
F-3.951219512195122
sg29
F-0.7134146341463414
sg30
F0.3292682926829268
sg31
S'yellow'
p746
sba(icurlovision
Stone
p747
(dp748
g28
F-4.536585365853658
sg29
F-1.701219512195122
sg30
F0.31097560975609756
sg31
S'red'
p749
sbasba(icurlovision
StoneLayout
p750
(dp751
g23
F0.4791666666666667
sg24
(lp752
(icurlovision
Stone
p753
(dp754
g28
F-6.513157894736842
sg29
F-0.39473684210526316
sg30
F0.29605263157894735
sg31
S'yellow'
p755
sba(icurlovision
Stone
p756
(dp757
g28
F11.131578947368421
sg29
F4.578947368421052
sg30
F0.43421052631578944
sg31
S'red'
p758
sba(icurlovision
Stone
p759
(dp760
g28
F-4.144736842105263
sg29
F-0.7105263157894737
sg30
F0.3355263157894737
sg31
S'yellow'
p761
sba(icurlovision
Stone
p762
(dp763
g28
F1.1052631578947367
sg29
F0.7105263157894737
sg30
F0.29605263157894735
sg31
S'red'
p764
sba(icurlovision
Stone
p765
(dp766
g28
F-4.697368421052631
sg29
F-1.7368421052631577
sg30
F0.29605263157894735
sg31
S'red'
p767
sbasbasg159
I5
sg160
I0
sba(icurlovision
EndResult
p768
(dp769
g2
I4
sg9
(lp770
(I4
I4
tp771
a(I4
I3
tp772
a(I3
I3
tp773
a(I3
I2
tp774
a(I2
I2
tp775
a(I2
I1
tp776
a(I1
I1
tp777
a(I1
I0
tp778
asg18
I6
sg19
(lp779
(icurlovision
StoneLayout
p780
(dp781
g23
F0.4791666666666667
sg24
(lp782
(icurlovision
Stone
p783
(dp784
g28
F10.723404255319148
sg29
F0.06382978723404255
sg30
F0.4308510638297872
sg31
S'yellow'
p785
sba(icurlovision
Stone
p786
(dp787
g28
F1.3404255319148934
sg29
F1.180851063829787
sg30
F0.33510638297872336
sg31
S'yellow'
p788
sba(icurlovision
Stone
p789
(dp790
g28
F0.5106382978723404
sg29
F-0.4787234042553191
sg30
F0.351063829787234
sg31
S'red'
p791
sba(icurlovision
Stone
p792
(dp793
g28
F-1.6595744680851063
sg29
F-0.06382978723404255
sg30
F0.33510638297872336
sg31
S'red'
p794
sba(icurlovision
Stone
p795
(dp796
g28
F10.436170212765957
sg29
F-5.489361702127659
sg30
F0.3031914893617021
sg31
S'yellow'
p797
sbasba(icurlovision
StoneLayout
p798
(dp799
g23
F0.4791666666666667
sg24
(lp800
(icurlovision
Stone
p801
(dp802
g28
F10.703125
sg29
F0.046875
sg30
F0.4375
sg31
S'yellow'
p803
sba(icurlovision
Stone
p804
(dp805
g28
F1.328125
sg29
F1.171875
sg30
F0.328125
sg31
S'yellow'
p806
sba(icurlovision
Stone
p807
(dp808
g28
F-1.640625
sg29
F-0.078125
sg30
F0.328125
sg31
S'red'
p809
sba(icurlovision
Stone
p810
(dp811
g28
F-0.421875
sg29
F0.546875
sg30
F0.296875
sg31
S'red'
p812
sbasba(icurlovision
StoneLayout
p813
(dp814
g23
F0.4791666666666667
sg24
(lp815
(icurlovision
Stone
p816
(dp817
g28
F10.704545454545453
sg29
F0.06818181818181818
sg30
F0.4261363636363636
sg31
S'yellow'
p818
sba(icurlovision
Stone
p819
(dp820
g28
F-1.3636363636363635
sg29
F-3.7499999999999996
sg30
F0.3579545454545454
sg31
S'red'
p821
sba(icurlovision
Stone
p822
(dp823
g28
F-1.6363636363636362
sg29
F-0.06818181818181818
sg30
F0.4602272727272727
sg31
S'red'
p824
sba(icurlovision
Stone
p825
(dp826
g28
F-0.375
sg29
F0.5795454545454545
sg30
F0.32386363636363635
sg31
S'red'
p827
sbasba(icurlovision
StoneLayout
p828
(dp829
g23
F0.4791666666666667
sg24
(lp830
(icurlovision
Stone
p831
(dp832
g28
F-1.4333333333333333
sg29
F-3.8
sg30
F0.35
sg31
S'red'
p833
sba(icurlovision
Stone
p834
(dp835
g28
F0.7333333333333333
sg29
F1.0333333333333332
sg30
F0.35
sg31
S'yellow'
p836
sba(icurlovision
Stone
p837
(dp838
g28
F11.033333333333333
sg29
F0.1
sg30
F0.3
sg31
S'yellow'
p839
sba(icurlovision
Stone
p840
(dp841
g28
F-1.7333333333333334
sg29
F0.0
sg30
F0.2833333333333333
sg31
S'red'
p842
sba(icurlovision
Stone
p843
(dp844
g28
F-0.4666666666666667
sg29
F0.6666666666666666
sg30
F0.3333333333333333
sg31
S'red'
p845
sbasba(icurlovision
StoneLayout
p846
(dp847
g23
F0.4791666666666667
sg24
(lp848
(icurlovision
Stone
p849
(dp850
g28
F9.764999999999999
sg29
F2.475
sg30
F0.27
sg31
S'yellow'
p851
sba(icurlovision
Stone
p852
(dp853
g28
F0.6749999999999999
sg29
F0.975
sg30
F0.46499999999999997
sg31
S'yellow'
p854
sba(icurlovision
Stone
p855
(dp856
g28
F-1.665
sg29
F-0.015
sg30
F0.32999999999999996
sg31
S'red'
p857
sba(icurlovision
Stone
p858
(dp859
g28
F-0.40499999999999997
sg29
F0.585
sg30
F0.32999999999999996
sg31
S'red'
p860
sbasba(icurlovision
StoneLayout
p861
(dp862
g23
F0.4791666666666667
sg24
(lp863
(icurlovision
Stone
p864
(dp865
g28
F9.441176470588236
sg29
F2.411764705882353
sg30
F0.4411764705882353
sg31
S'yellow'
p866
sba(icurlovision
Stone
p867
(dp868
g28
F0.6764705882352942
sg29
F0.9117647058823529
sg30
F0.45588235294117646
sg31
S'yellow'
p869
sba(icurlovision
Stone
p870
(dp871
g28
F7.588235294117647
sg29
F0.23529411764705882
sg30
F0.4264705882352941
sg31
S'yellow'
p872
sba(icurlovision
Stone
p873
(dp874
g28
F-0.4117647058823529
sg29
F0.5588235294117647
sg30
F0.29411764705882354
sg31
S'red'
p875
sba(icurlovision
Stone
p876
(dp877
g28
F-1.588235294117647
sg29
F-0.08823529411764705
sg30
F0.3088235294117647
sg31
S'red'
p878
sbasba(icurlovision
StoneLayout
p879
(dp880
g23
F0.4791666666666667
sg24
(lp881
(icurlovision
Stone
p882
(dp883
g28
F9.673469387755102
sg29
F2.4948979591836733
sg30
F0.42857142857142855
sg31
S'yellow'
p884
sba(icurlovision
Stone
p885
(dp886
g28
F0.673469387755102
sg29
F0.9642857142857143
sg30
F0.3214285714285714
sg31
S'yellow'
p887
sba(icurlovision
Stone
p888
(dp889
g28
F-1.653061224489796
sg29
F-0.04591836734693877
sg30
F0.45918367346938777
sg31
S'red'
p890
sba(icurlovision
Stone
p891
(dp892
g28
F-0.42857142857142855
sg29
F0.5663265306122449
sg30
F0.3214285714285714
sg31
S'red'
p893
sbasba(icurlovision
StoneLayout
p894
(dp895
g23
F0.4791666666666667
sg24
(lp896
(icurlovision
Stone
p897
(dp898
g28
F9.823529411764707
sg29
F2.5588235294117645
sg30
F0.47058823529411764
sg31
S'yellow'
p899
sba(icurlovision
Stone
p900
(dp901
g28
F0.1764705882352941
sg29
F1.4117647058823528
sg30
F0.47058823529411764
sg31
S'yellow'
p902
sba(icurlovision
Stone
p903
(dp904
g28
F1.4705882352941175
sg29
F0.5294117647058824
sg30
F0.47058823529411764
sg31
S'yellow'
p905
sba(icurlovision
Stone
p906
(dp907
g28
F-1.6470588235294117
sg29
F-0.058823529411764705
sg30
F0.3382352941176471
sg31
S'red'
p908
sba(icurlovision
Stone
p909
(dp910
g28
F-0.6176470588235294
sg29
F0.5294117647058824
sg30
F0.3235294117647059
sg31
S'red'
p911
sbasbasg159
I6
sg160
I1
sba(icurlovision
EndResult
p912
(dp913
g2
I4
sg9
(lp914
(I4
I5
tp915
a(I4
I4
tp916
a(I3
I4
tp917
a(I3
I3
tp918
a(I2
I3
tp919
a(I2
I2
tp920
a(I1
I2
tp921
a(I1
I1
tp922
a(I0
I1
tp923
asg18
I7
sg19
(lp924
(icurlovision
StoneLayout
p925
(dp926
g23
F0.4791666666666667
sg24
(lp927
(icurlovision
Stone
p928
(dp929
g28
F-1.575
sg29
F0.015
sg30
F0.32999999999999996
sg31
S'yellow'
p930
sba(icurlovision
Stone
p931
(dp932
g28
F10.424999999999999
sg29
F0.075
sg30
F0.32999999999999996
sg31
S'red'
p933
sba(icurlovision
Stone
p934
(dp935
g28
F-0.525
sg29
F-0.345
sg30
F0.44999999999999996
sg31
S'red'
p936
sbasba(icurlovision
StoneLayout
p937
(dp938
g23
F0.4791666666666667
sg24
(lp939
(icurlovision
Stone
p940
(dp941
g28
F-2.936170212765957
sg29
F-1.053191489361702
sg30
F0.4627659574468085
sg31
S'yellow'
p942
sba(icurlovision
Stone
p943
(dp944
g28
F-2.1382978723404253
sg29
F1.4999999999999998
sg30
F0.4627659574468085
sg31
S'yellow'
p945
sba(icurlovision
Stone
p946
(dp947
g28
F10.819148936170212
sg29
F0.0
sg30
F0.4308510638297872
sg31
S'red'
p948
sba(icurlovision
Stone
p949
(dp950
g28
F-0.5744680851063829
sg29
F-0.3191489361702127
sg30
F0.3031914893617021
sg31
S'red'
p951
sbasba(icurlovision
StoneLayout
p952
(dp953
g23
F0.4791666666666667
sg24
(lp954
(icurlovision
Stone
p955
(dp956
g28
F-2.130681818181818
sg29
F1.5511363636363635
sg30
F0.3409090909090909
sg31
S'yellow'
p957
sba(icurlovision
Stone
p958
(dp959
g28
F-2.9488636363636362
sg29
F-1.0056818181818181
sg30
F0.4602272727272727
sg31
S'yellow'
p960
sba(icurlovision
Stone
p961
(dp962
g28
F10.857954545454545
sg29
F0.017045454545454544
sg30
F0.4431818181818181
sg31
S'red'
p963
sba(icurlovision
Stone
p964
(dp965
g28
F0.9715909090909091
sg29
F0.05113636363636363
sg30
F0.4431818181818181
sg31
S'red'
p966
sba(icurlovision
Stone
p967
(dp968
g28
F-0.5625
sg29
F-0.3579545454545454
sg30
F0.4602272727272727
sg31
S'red'
p969
sbasba(icurlovision
StoneLayout
p970
(dp971
g23
F0.4791666666666667
sg24
(lp972
(icurlovision
Stone
p973
(dp974
g28
F-3.1436170212765955
sg29
F-1.0691489361702127
sg30
F0.44680851063829785
sg31
S'yellow'
p975
sba(icurlovision
Stone
p976
(dp977
g28
F-2.0265957446808507
sg29
F1.4840425531914891
sg30
F0.4627659574468085
sg31
S'yellow'
p978
sba(icurlovision
Stone
p979
(dp980
g28
F10.452127659574467
sg29
F0.047872340425531915
sg30
F0.4148936170212766
sg31
S'red'
p981
sba(icurlovision
Stone
p982
(dp983
g28
F-1.9946808510638296
sg29
F-0.6542553191489361
sg30
F0.4148936170212766
sg31
S'red'
p984
sba(icurlovision
Stone
p985
(dp986
g28
F1.7074468085106382
sg29
F0.49468085106382975
sg30
F0.28723404255319146
sg31
S'yellow'
p987
sba(icurlovision
Stone
p988
(dp989
g28
F0.3670212765957446
sg29
F-0.07978723404255318
sg30
F0.3191489361702127
sg31
S'red'
p990
sbasba(icurlovision
StoneLayout
p991
(dp992
g23
F0.4791666666666667
sg24
(lp993
(icurlovision
Stone
p994
(dp995
g28
F-3.2393617021276593
sg29
F-1.1329787234042552
sg30
F0.4627659574468085
sg31
S'yellow'
p996
sba(icurlovision
Stone
p997
(dp998
g28
F-2.0265957446808507
sg29
F-0.7180851063829786
sg30
F0.351063829787234
sg31
S'red'
p999
sba(icurlovision
Stone
p1000
(dp1001
g28
F1.7393617021276595
sg29
F0.49468085106382975
sg30
F0.33510638297872336
sg31
S'yellow'
p1002
sba(icurlovision
Stone
p1003
(dp1004
g28
F10.739361702127658
sg29
F0.015957446808510637
sg30
F0.4308510638297872
sg31
S'red'
p1005
sba(icurlovision
Stone
p1006
(dp1007
g28
F2.0904255319148937
sg29
F-0.39893617021276595
sg30
F0.3031914893617021
sg31
S'red'
p1008
sba(icurlovision
Stone
p1009
(dp1010
g28
F0.33510638297872336
sg29
F-0.14361702127659573
sg30
F0.4627659574468085
sg31
S'red'
p1011
sba(icurlovision
Stone
p1012
(dp1013
g28
F-2.0904255319148937
sg29
F1.5159574468085104
sg30
F0.4627659574468085
sg31
S'yellow'
p1014
sbasba(icurlovision
StoneLayout
p1015
(dp1016
g23
F0.4791666666666667
sg24
(lp1017
(icurlovision
Stone
p1018
(dp1019
g28
F-2.196428571428571
sg29
F1.5535714285714284
sg30
F0.33928571428571425
sg31
S'yellow'
p1020
sba(icurlovision
Stone
p1021
(dp1022
g28
F-3.1607142857142856
sg29
F0.08928571428571427
sg30
F0.4821428571428571
sg31
S'red'
p1023
sba(icurlovision
Stone
p1024
(dp1025
g28
F11.089285714285714
sg29
F0.017857142857142856
sg30
F0.46428571428571425
sg31
S'red'
p1026
sba(icurlovision
Stone
p1027
(dp1028
g28
F1.2678571428571428
sg29
F0.017857142857142856
sg30
F0.4821428571428571
sg31
S'yellow'
p1029
sba(icurlovision
Stone
p1030
(dp1031
g28
F-4.339285714285714
sg29
F-1.5178571428571428
sg30
F0.33928571428571425
sg31
S'yellow'
p1032
sba(icurlovision
Stone
p1033
(dp1034
g28
F2.125
sg29
F-0.375
sg30
F0.30357142857142855
sg31
S'red'
p1035
sbasba(icurlovision
StoneLayout
p1036
(dp1037
g23
F0.4791666666666667
sg24
(lp1038
(icurlovision
Stone
p1039
(dp1040
g28
F-1.7857142857142856
sg29
F2.9107142857142856
sg30
F0.3214285714285714
sg31
S'red'
p1041
sba(icurlovision
Stone
p1042
(dp1043
g28
F-3.0357142857142856
sg29
F0.08928571428571427
sg30
F0.4464285714285714
sg31
S'red'
p1044
sba(icurlovision
Stone
p1045
(dp1046
g28
F1.2142857142857142
sg29
F0.017857142857142856
sg30
F0.33928571428571425
sg31
S'yellow'
p1047
sba(icurlovision
Stone
p1048
(dp1049
g28
F10.642857142857142
sg29
F0.017857142857142856
sg30
F0.42857142857142855
sg31
S'red'
p1050
sba(icurlovision
Stone
p1051
(dp1052
g28
F2.071428571428571
sg29
F-0.4107142857142857
sg30
F0.25
sg31
S'red'
p1053
sba(icurlovision
Stone
p1054
(dp1055
g28
F-4.178571428571428
sg29
F-1.4464285714285714
sg30
F0.33928571428571425
sg31
S'yellow'
p1056
sbasba(icurlovision
StoneLayout
p1057
(dp1058
g23
F0.4791666666666667
sg24
(lp1059
(icurlovision
Stone
p1060
(dp1061
g28
F-1.7556818181818181
sg29
F2.880681818181818
sg30
F0.3409090909090909
sg31
S'red'
p1062
sba(icurlovision
Stone
p1063
(dp1064
g28
F-2.9829545454545454
sg29
F0.08522727272727272
sg30
F0.4431818181818181
sg31
S'red'
p1065
sba(icurlovision
Stone
p1066
(dp1067
g28
F10.482954545454545
sg29
F-0.017045454545454544
sg30
F0.4431818181818181
sg31
S'red'
p1068
sba(icurlovision
Stone
p1069
(dp1070
g28
F1.2102272727272727
sg29
F0.017045454545454544
sg30
F0.32386363636363635
sg31
S'yellow'
p1071
sba(icurlovision
Stone
p1072
(dp1073
g28
F2.028409090909091
sg29
F-0.4261363636363636
sg30
F0.4431818181818181
sg31
S'red'
p1074
sba(icurlovision
Stone
p1075
(dp1076
g28
F-4.107954545454545
sg29
F-1.414772727272727
sg30
F0.3409090909090909
sg31
S'yellow'
p1077
sbasba(icurlovision
StoneLayout
p1078
(dp1079
g23
F0.4791666666666667
sg24
(lp1080
(icurlovision
Stone
p1081
(dp1082
g28
F-1.8292682926829267
sg29
F2.9634146341463414
sg30
F0.45731707317073167
sg31
S'red'
p1083
sba(icurlovision
Stone
p1084
(dp1085
g28
F-3.1097560975609753
sg29
F0.1097560975609756
sg30
F0.25609756097560976
sg31
S'red'
p1086
sba(icurlovision
Stone
p1087
(dp1088
g28
F10.939024390243901
sg29
F0.036585365853658534
sg30
F0.4390243902439024
sg31
S'red'
p1089
sba(icurlovision
Stone
p1090
(dp1091
g28
F-4.24390243902439
sg29
F-1.4634146341463414
sg30
F0.3475609756097561
sg31
S'yellow'
p1092
sba(icurlovision
Stone
p1093
(dp1094
g28
F2.048780487804878
sg29
F-0.40243902439024387
sg30
F0.2926829268292683
sg31
S'red'
p1095
sba(icurlovision
Stone
p1096
(dp1097
g28
F-0.5121951219512195
sg29
F-4.5
sg30
F0.31097560975609756
sg31
S'red'
p1098
sbasbasg159
I7
sg160
I0
sba(icurlovision
EndResult
p1099
(dp1100
g2
I4
sg9
(lp1101
(I4
I5
tp1102
a(I4
I4
tp1103
a(I3
I4
tp1104
a(I3
I3
tp1105
a(I2
I3
tp1106
a(I2
I2
tp1107
a(I1
I2
tp1108
a(I1
I1
tp1109
a(I0
I1
tp1110
asg18
I8
sg19
(lp1111
(icurlovision
StoneLayout
p1112
(dp1113
g23
F0.4791666666666667
sg24
(lp1114
(icurlovision
Stone
p1115
(dp1116
g28
F10.907608695652174
sg29
F0.016304347826086956
sg30
F0.47282608695652173
sg31
S'red'
p1117
sba(icurlovision
Stone
p1118
(dp1119
g28
F-1.6793478260869565
sg29
F-0.048913043478260865
sg30
F0.34239130434782605
sg31
S'yellow'
p1120
sba(icurlovision
Stone
p1121
(dp1122
g28
F3.733695652173913
sg29
F0.9293478260869565
sg30
F0.45652173913043476
sg31
S'red'
p1123
sba(icurlovision
Stone
p1124
(dp1125
g28
F10.451086956521738
sg29
F-4.809782608695652
sg30
F0.2934782608695652
sg31
S'yellow'
p1126
sbasba(icurlovision
StoneLayout
p1127
(dp1128
g23
F0.4791666666666667
sg24
(lp1129
(icurlovision
Stone
p1130
(dp1131
g28
F-1.6607142857142856
sg29
F0.0
sg30
F0.3214285714285714
sg31
S'yellow'
p1132
sba(icurlovision
Stone
p1133
(dp1134
g28
F-0.40178571428571425
sg29
F0.6696428571428571
sg30
F0.3214285714285714
sg31
S'yellow'
p1135
sba(icurlovision
Stone
p1136
(dp1137
g28
F10.473214285714285
sg29
F0.05357142857142857
sg30
F0.40178571428571425
sg31
S'red'
p1138
sba(icurlovision
Stone
p1139
(dp1140
g28
F3.6160714285714284
sg29
F0.8839285714285714
sg30
F0.3214285714285714
sg31
S'red'
p1141
sbasba(icurlovision
StoneLayout
p1142
(dp1143
g23
F0.4791666666666667
sg24
(lp1144
(icurlovision
Stone
p1145
(dp1146
g28
F-0.9166666666666666
sg29
F0.8888888888888888
sg30
F0.3333333333333333
sg31
S'yellow'
p1147
sba(icurlovision
Stone
p1148
(dp1149
g28
F10.638888888888888
sg29
F0.05555555555555555
sg30
F0.4305555555555555
sg31
S'red'
p1150
sba(icurlovision
Stone
p1151
(dp1152
g28
F-1.6944444444444444
sg29
F-0.027777777777777776
sg30
F0.3333333333333333
sg31
S'yellow'
p1153
sba(icurlovision
Stone
p1154
(dp1155
g28
F3.638888888888889
sg29
F0.9166666666666666
sg30
F0.3055555555555555
sg31
S'red'
p1156
sba(icurlovision
Stone
p1157
(dp1158
g28
F0.4722222222222222
sg29
F0.3055555555555555
sg30
F0.3472222222222222
sg31
S'red'
p1159
sbasba(icurlovision
StoneLayout
p1160
(dp1161
g23
F0.4791666666666667
sg24
(lp1162
(icurlovision
Stone
p1163
(dp1164
g28
F-0.7636363636363636
sg29
F-0.24545454545454545
sg30
F0.4636363636363636
sg31
S'red'
p1165
sba(icurlovision
Stone
p1166
(dp1167
g28
F-1.7454545454545454
sg29
F-0.02727272727272727
sg30
F0.47727272727272724
sg31
S'yellow'
p1168
sba(icurlovision
Stone
p1169
(dp1170
g28
F-0.8999999999999999
sg29
F0.9272727272727272
sg30
F0.3409090909090909
sg31
S'yellow'
p1171
sba(icurlovision
Stone
p1172
(dp1173
g28
F10.69090909090909
sg29
F0.10909090909090909
sg30
F0.4636363636363636
sg31
S'red'
p1174
sba(icurlovision
Stone
p1175
(dp1176
g28
F1.1454545454545455
sg29
F0.9545454545454545
sg30
F0.4636363636363636
sg31
S'red'
p1177
sba(icurlovision
Stone
p1178
(dp1179
g28
F4.581818181818182
sg29
F0.9545454545454545
sg30
F0.32727272727272727
sg31
S'yellow'
p1180
sbasba(icurlovision
StoneLayout
p1181
(dp1182
g23
F0.4791666666666667
sg24
(lp1183
(icurlovision
Stone
p1184
(dp1185
g28
F-2.2222222222222223
sg29
F0.0
sg30
F0.4722222222222222
sg31
S'yellow'
p1186
sba(icurlovision
Stone
p1187
(dp1188
g28
F0.1111111111111111
sg29
F0.0
sg30
F0.4583333333333333
sg31
S'red'
p1189
sba(icurlovision
Stone
p1190
(dp1191
g28
F-0.8333333333333333
sg29
F-0.2777777777777778
sg30
F0.4583333333333333
sg31
S'red'
p1192
sba(icurlovision
Stone
p1193
(dp1194
g28
F10.527777777777777
sg29
F0.027777777777777776
sg30
F0.4444444444444444
sg31
S'red'
p1195
sba(icurlovision
Stone
p1196
(dp1197
g28
F-0.861111111111111
sg29
F0.8888888888888888
sg30
F0.3472222222222222
sg31
S'yellow'
p1198
sba(icurlovision
Stone
p1199
(dp1200
g28
F1.1388888888888888
sg29
F0.9444444444444444
sg30
F0.3472222222222222
sg31
S'red'
p1201
sba(icurlovision
Stone
p1202
(dp1203
g28
F4.527777777777778
sg29
F0.9166666666666666
sg30
F0.3055555555555555
sg31
S'yellow'
p1204
sbasba(icurlovision
StoneLayout
p1205
(dp1206
g23
F0.4791666666666667
sg24
(lp1207
(icurlovision
Stone
p1208
(dp1209
g28
F-2.7606382978723403
sg29
F-0.5904255319148936
sg30
F0.351063829787234
sg31
S'yellow'
p1210
sba(icurlovision
Stone
p1211
(dp1212
g28
F-2.824468085106383
sg29
F1.547872340425532
sg30
F0.4787234042553191
sg31
S'yellow'
p1213
sba(icurlovision
Stone
p1214
(dp1215
g28
F1.2606382978723403
sg29
F-0.8138297872340425
sg30
F0.33510638297872336
sg31
S'yellow'
p1216
sba(icurlovision
Stone
p1217
(dp1218
g28
F-0.4627659574468085
sg29
F2.1861702127659575
sg30
F0.28723404255319146
sg31
S'red'
p1219
sba(icurlovision
Stone
p1220
(dp1221
g28
F10.962765957446807
sg29
F0.07978723404255318
sg30
F0.4627659574468085
sg31
S'red'
p1222
sba(icurlovision
Stone
p1223
(dp1224
g28
F-0.8776595744680851
sg29
F-0.2712765957446808
sg30
F0.3191489361702127
sg31
S'red'
p1225
sba(icurlovision
Stone
p1226
(dp1227
g28
F0.14361702127659573
sg29
F0.047872340425531915
sg30
F0.3191489361702127
sg31
S'red'
p1228
sba(icurlovision
Stone
p1229
(dp1230
g28
F5.569148936170213
sg29
F1.1329787234042552
sg30
F0.33510638297872336
sg31
S'yellow'
p1231
sbasba(icurlovision
StoneLayout
p1232
(dp1233
g23
F0.4791666666666667
sg24
(lp1234
(icurlovision
Stone
p1235
(dp1236
g28
F-2.82
sg29
F1.5
sg30
F0.46499999999999997
sg31
S'yellow'
p1237
sba(icurlovision
Stone
p1238
(dp1239
g28
F-0.48
sg29
F2.13
sg30
F0.36
sg31
S'red'
p1240
sba(icurlovision
Stone
p1241
(dp1242
g28
F-2.73
sg29
F-0.6
sg30
F0.46499999999999997
sg31
S'yellow'
p1243
sba(icurlovision
Stone
p1244
(dp1245
g28
F2.13
sg29
F-0.72
sg30
F0.46499999999999997
sg31
S'red'
p1246
sba(icurlovision
Stone
p1247
(dp1248
g28
F-0.8999999999999999
sg29
F-0.27
sg30
F0.44999999999999996
sg31
S'red'
p1249
sba(icurlovision
Stone
p1250
(dp1251
g28
F10.799999999999999
sg29
F0.06
sg30
F0.44999999999999996
sg31
S'red'
p1252
sba(icurlovision
Stone
p1253
(dp1254
g28
F-0.03
sg29
F0.15
sg30
F0.48
sg31
S'red'
p1255
sba(icurlovision
Stone
p1256
(dp1257
g28
F-0.75
sg29
F-1.23
sg30
F0.345
sg31
S'yellow'
p1258
sba(icurlovision
Stone
p1259
(dp1260
g28
F5.46
sg29
F1.08
sg30
F0.345
sg31
S'yellow'
p1261
sbasba(icurlovision
StoneLayout
p1262
(dp1263
g23
F0.4791666666666667
sg24
(lp1264
(icurlovision
Stone
p1265
(dp1266
g28
F-2.4285714285714284
sg29
F-1.75
sg30
F0.4821428571428571
sg31
S'yellow'
p1267
sba(icurlovision
Stone
p1268
(dp1269
g28
F-2.0
sg29
F-0.25
sg30
F0.4821428571428571
sg31
S'red'
p1270
sba(icurlovision
Stone
p1271
(dp1272
g28
F-1.8928571428571428
sg29
F1.4642857142857142
sg30
F0.46428571428571425
sg31
S'red'
p1273
sba(icurlovision
Stone
p1274
(dp1275
g28
F10.964285714285714
sg29
F0.03571428571428571
sg30
F0.30357142857142855
sg31
S'red'
p1276
sba(icurlovision
Stone
p1277
(dp1278
g28
F0.14285714285714285
sg29
F-3.7857142857142856
sg30
F0.33928571428571425
sg31
S'red'
p1279
sba(icurlovision
Stone
p1280
(dp1281
g28
F5.607142857142857
sg29
F1.107142857142857
sg30
F0.30357142857142855
sg31
S'yellow'
p1282
sba(icurlovision
Stone
p1283
(dp1284
g28
F-4.285714285714286
sg29
F1.75
sg30
F0.4464285714285714
sg31
S'yellow'
p1285
sbasba(icurlovision
StoneLayout
p1286
(dp1287
g23
F0.4791666666666667
sg24
(lp1288
(icurlovision
Stone
p1289
(dp1290
g28
F-5.733050847457627
sg29
F1.843220338983051
sg30
F0.35593220338983056
sg31
S'yellow'
p1291
sba(icurlovision
Stone
p1292
(dp1293
g28
F-1.8940677966101696
sg29
F1.4618644067796611
sg30
F0.3432203389830509
sg31
S'red'
p1294
sba(icurlovision
Stone
p1295
(dp1296
g28
F-5.300847457627119
sg29
F6.877118644067797
sg30
F0.48305084745762716
sg31
S'red'
p1297
sba(icurlovision
Stone
p1298
(dp1299
g28
F-7.029661016949153
sg29
F-2.3516949152542375
sg30
F0.48305084745762716
sg31
S'yellow'
p1300
sba(icurlovision
Stone
p1301
(dp1302
g28
F5.707627118644068
sg29
F1.13135593220339
sg30
F0.3686440677966102
sg31
S'yellow'
p1303
sbasbasg159
I7
sg160
I0
sbasS'version'
p1304
I20180812
sg159
I7
sS'metadata'
p1305
(icurlovision
MatchMetadata
p1306
(dp1307
S'team_name_red'
p1308
S'Unknown'
p1309
sS'event_name'
p1310
g1309
sS'gender'
p1311
g1309
sS'other_info'
p1312
g1309
sS'team_name_yel'
p1313
g1309
sS'date'
p1314
g1309
sbsb.