(icurlovision
MatchResult
p0
(dp1
S'yel_score'
p2
I6
sS'name'
p3
S"VideoLibrary/PyeongChang.Olympics.2018.curling.men's.round-robin.Sweden.v.Norway.1080p.NBC.WEB-DL-FINFUNGUS.mp4"
p4
sS'end_results'
p5
(lp6
(icurlovision
EndResult
p7
(dp8
g2
I1
sS'stones_left'
p9
(lp10
(I8
I7
tp11
a(I7
I7
tp12
a(I7
I6
tp13
a(I5
I5
tp14
a(I5
I4
tp15
a(I4
I4
tp16
a(I3
I3
tp17
a(I3
I2
tp18
a(I2
I2
tp19
a(I2
I1
tp20
a(I1
I1
tp21
a(I1
I0
tp22
asS'end_num'
p23
I1
sS'stone_layouts'
p24
(lp25
(icurlovision
StoneLayout
p26
(dp27
S'stone_radius'
p28
F0.4791666666666667
sS'stones'
p29
(lp30
(icurlovision
Stone
p31
(dp32
S'y'
p33
F9.16875
sS'x'
p34
F0.01875
sS'r'
p35
F0.44999999999999996
sS'color'
p36
S'yellow'
p37
sbasba(icurlovision
StoneLayout
p38
(dp39
g28
F0.4791666666666667
sg29
(lp40
(icurlovision
Stone
p41
(dp42
g33
F9.375
sg34
F0.016304347826086956
sg35
F0.45652173913043476
sg36
S'yellow'
p43
sba(icurlovision
Stone
p44
(dp45
g33
F3.0489130434782608
sg34
F-0.1793478260869565
sg35
F0.27717391304347827
sg36
S'red'
p46
sbasba(icurlovision
StoneLayout
p47
(dp48
g28
F0.4791666666666667
sg29
(lp49
(icurlovision
Stone
p50
(dp51
g33
F1.569767441860465
sg34
F-1.6395348837209303
sg35
F0.436046511627907
sg36
S'yellow'
p52
sba(icurlovision
Stone
p53
(dp54
g33
F9.55813953488372
sg34
F-0.06976744186046512
sg35
F0.3488372093023256
sg36
S'yellow'
p55
sba(icurlovision
Stone
p56
(dp57
g33
F2.8255813953488373
sg34
F0.03488372093023256
sg35
F0.47093023255813954
sg36
S'red'
p58
sbasba(icurlovision
StoneLayout
p59
(dp60
g28
F0.4791666666666667
sg29
(lp61
(icurlovision
Stone
p62
(dp63
g33
F1.185
sg34
F-3.5549999999999997
sg35
F0.36
sg36
S'red'
p64
sba(icurlovision
Stone
p65
(dp66
g33
F9.735
sg34
F-0.645
sg35
F0.345
sg36
S'yellow'
p67
sba(icurlovision
Stone
p68
(dp69
g33
F-0.975
sg34
F4.035
sg35
F0.345
sg36
S'red'
p70
sbasba(icurlovision
StoneLayout
p71
(dp72
g28
F0.4791666666666667
sg29
(lp73
(icurlovision
Stone
p74
(dp75
g33
F-1.2383720930232558
sg34
F0.9767441860465116
sg35
F0.3313953488372093
sg36
S'yellow'
p76
sba(icurlovision
Stone
p77
(dp78
g33
F9.819767441860465
sg34
F-0.627906976744186
sg35
F0.436046511627907
sg36
S'yellow'
p79
sba(icurlovision
Stone
p80
(dp81
g33
F-0.9244186046511628
sg34
F4.011627906976744
sg35
F0.3488372093023256
sg36
S'red'
p82
sbasba(icurlovision
StoneLayout
p83
(dp84
g28
F0.4791666666666667
sg29
(lp85
(icurlovision
Stone
p86
(dp87
g33
F9.80232558139535
sg34
F-0.6627906976744186
sg35
F0.436046511627907
sg36
S'yellow'
p88
sba(icurlovision
Stone
p89
(dp90
g33
F-1.255813953488372
sg34
F0.9767441860465116
sg35
F0.3488372093023256
sg36
S'yellow'
p91
sba(icurlovision
Stone
p92
(dp93
g33
F-0.9418604651162791
sg34
F3.9767441860465116
sg35
F0.313953488372093
sg36
S'red'
p94
sbasba(icurlovision
StoneLayout
p95
(dp96
g28
F0.4791666666666667
sg29
(lp97
(icurlovision
Stone
p98
(dp99
g33
F10.142045454545453
sg34
F-0.6988636363636364
sg35
F0.4602272727272727
sg36
S'yellow'
p100
sba(icurlovision
Stone
p101
(dp102
g33
F-1.5170454545454544
sg34
F-1.1420454545454544
sg35
F0.3579545454545454
sg36
S'red'
p103
sba(icurlovision
Stone
p104
(dp105
g33
F1.414772727272727
sg34
F-0.8011363636363635
sg35
F0.28977272727272724
sg36
S'red'
p106
sba(icurlovision
Stone
p107
(dp108
g33
F0.5965909090909091
sg34
F-0.22159090909090906
sg35
F0.3409090909090909
sg36
S'yellow'
p109
sba(icurlovision
Stone
p110
(dp111
g33
F-0.9374999999999999
sg34
F4.107954545454545
sg35
F0.2727272727272727
sg36
S'red'
p112
sbasba(icurlovision
StoneLayout
p113
(dp114
g28
F0.4791666666666667
sg29
(lp115
(icurlovision
Stone
p116
(dp117
g33
F0.5666666666666667
sg34
F-0.23333333333333334
sg35
F0.3333333333333333
sg36
S'yellow'
p118
sba(icurlovision
Stone
p119
(dp120
g33
F9.866666666666667
sg34
F-0.7
sg35
F0.26666666666666666
sg36
S'yellow'
p121
sba(icurlovision
Stone
p122
(dp123
g33
F-1.5
sg34
F-1.1333333333333333
sg35
F0.35
sg36
S'red'
p124
sba(icurlovision
Stone
p125
(dp126
g33
F1.2333333333333334
sg34
F-0.9
sg35
F0.4666666666666667
sg36
S'red'
p127
sba(icurlovision
Stone
p128
(dp129
g33
F2.1
sg34
F-0.3
sg35
F0.3333333333333333
sg36
S'yellow'
p130
sba(icurlovision
Stone
p131
(dp132
g33
F-0.9666666666666667
sg34
F4.033333333333333
sg35
F0.35
sg36
S'red'
p133
sbasba(icurlovision
StoneLayout
p134
(dp135
g28
F0.4791666666666667
sg29
(lp136
(icurlovision
Stone
p137
(dp138
g33
F-2.0535714285714284
sg34
F-4.125
sg35
F0.3571428571428571
sg36
S'red'
p139
sba(icurlovision
Stone
p140
(dp141
g33
F1.5178571428571428
sg34
F6.3392857142857135
sg35
F0.46428571428571425
sg36
S'yellow'
p142
sba(icurlovision
Stone
p143
(dp144
g33
F-1.0178571428571428
sg34
F-0.23214285714285712
sg35
F0.46428571428571425
sg36
S'yellow'
p145
sba(icurlovision
Stone
p146
(dp147
g33
F10.732142857142856
sg34
F-0.6964285714285714
sg35
F0.30357142857142855
sg36
S'red'
p148
sba(icurlovision
Stone
p149
(dp150
g33
F-3.589285714285714
sg34
F-2.4107142857142856
sg35
F0.3571428571428571
sg36
S'red'
p151
sbasba(icurlovision
StoneLayout
p152
(dp153
g28
F0.4791666666666667
sg29
(lp154
(icurlovision
Stone
p155
(dp156
g33
F10.589285714285714
sg34
F-0.5892857142857143
sg35
F0.30357142857142855
sg36
S'red'
p157
sba(icurlovision
Stone
p158
(dp159
g33
F1.482142857142857
sg34
F6.267857142857142
sg35
F0.42857142857142855
sg36
S'yellow'
p160
sba(icurlovision
Stone
p161
(dp162
g33
F-1.982142857142857
sg34
F-4.089285714285714
sg35
F0.3571428571428571
sg36
S'red'
p163
sba(icurlovision
Stone
p164
(dp165
g33
F-1.0178571428571428
sg34
F-0.23214285714285712
sg35
F0.3214285714285714
sg36
S'yellow'
p166
sba(icurlovision
Stone
p167
(dp168
g33
F1.1964285714285714
sg34
F-0.5178571428571428
sg35
F0.46428571428571425
sg36
S'yellow'
p169
sba(icurlovision
Stone
p170
(dp171
g33
F-3.517857142857143
sg34
F-2.4107142857142856
sg35
F0.3571428571428571
sg36
S'red'
p172
sbasba(icurlovision
StoneLayout
p173
(dp174
g28
F0.4791666666666667
sg29
(lp175
(icurlovision
Stone
p176
(dp177
g33
F-3.589285714285714
sg34
F-6.785714285714286
sg35
F0.46428571428571425
sg36
S'red'
p178
sba(icurlovision
Stone
p179
(dp180
g33
F-1.5892857142857142
sg34
F-3.142857142857143
sg35
F0.46428571428571425
sg36
S'yellow'
p181
sba(icurlovision
Stone
p182
(dp183
g33
F1.482142857142857
sg34
F6.357142857142857
sg35
F0.3214285714285714
sg36
S'yellow'
p184
sba(icurlovision
Stone
p185
(dp186
g33
F-0.9821428571428571
sg34
F-0.21428571428571427
sg35
F0.46428571428571425
sg36
S'yellow'
p187
sba(icurlovision
Stone
p188
(dp189
g33
F11.160714285714285
sg34
F-1.4285714285714284
sg35
F0.4464285714285714
sg36
S'red'
p190
sba(icurlovision
Stone
p191
(dp192
g33
F-3.4821428571428568
sg34
F-2.357142857142857
sg35
F0.30357142857142855
sg36
S'red'
p193
sbasba(icurlovision
StoneLayout
p194
(dp195
g28
F0.4791666666666667
sg29
(lp196
(icurlovision
Stone
p197
(dp198
g33
F-1.5833333333333333
sg34
F-3.0833333333333335
sg35
F0.4666666666666667
sg36
S'yellow'
p199
sba(icurlovision
Stone
p200
(dp201
g33
F1.45
sg34
F6.283333333333333
sg35
F0.43333333333333335
sg36
S'yellow'
p202
sba(icurlovision
Stone
p203
(dp204
g33
F-3.5833333333333335
sg34
F-6.716666666666667
sg35
F0.4666666666666667
sg36
S'red'
p205
sba(icurlovision
Stone
p206
(dp207
g33
F11.016666666666666
sg34
F-1.3833333333333333
sg35
F0.45
sg36
S'red'
p208
sba(icurlovision
Stone
p209
(dp210
g33
F-3.4833333333333334
sg34
F-2.35
sg35
F0.3333333333333333
sg36
S'red'
p211
sba(icurlovision
Stone
p212
(dp213
g33
F-1.0166666666666666
sg34
F-0.21666666666666667
sg35
F0.4666666666666667
sg36
S'yellow'
p214
sba(icurlovision
Stone
p215
(dp216
g33
F-0.08333333333333333
sg34
F-0.21666666666666667
sg35
F0.3333333333333333
sg36
S'yellow'
p217
sbasbasS'red_score'
p218
I0
sS'red_hammer'
p219
I1
sba(icurlovision
EndResult
p220
(dp221
g2
I1
sg9
(lp222
(I8
I7
tp223
a(I7
I6
tp224
a(I6
I6
tp225
a(I5
I5
tp226
a(I5
I4
tp227
a(I3
I2
tp228
a(I2
I2
tp229
a(I2
I1
tp230
a(I1
I1
tp231
a(I1
I0
tp232
asg23
I2
sg24
(lp233
(icurlovision
StoneLayout
p234
(dp235
g28
F0.4791666666666667
sg29
(lp236
(icurlovision
Stone
p237
(dp238
g33
F9.786585365853657
sg34
F-0.2926829268292683
sg35
F0.4390243902439024
sg36
S'yellow'
p239
sbasba(icurlovision
StoneLayout
p240
(dp241
g28
F0.4791666666666667
sg29
(lp242
(icurlovision
Stone
p243
(dp244
g33
F9.146739130434783
sg34
F2.2010869565217392
sg35
F0.45652173913043476
sg36
S'red'
p245
sba(icurlovision
Stone
p246
(dp247
g33
F2.885869565217391
sg34
F-0.375
sg35
F0.34239130434782605
sg36
S'yellow'
p248
sba(icurlovision
Stone
p249
(dp250
g33
F10.059782608695652
sg34
F-0.34239130434782605
sg35
F0.45652173913043476
sg36
S'yellow'
p251
sbasba(icurlovision
StoneLayout
p252
(dp253
g28
F0.4791666666666667
sg29
(lp254
(icurlovision
Stone
p255
(dp256
g33
F10.071428571428571
sg34
F-0.3826530612244898
sg35
F0.44387755102040816
sg36
S'yellow'
p257
sba(icurlovision
Stone
p258
(dp259
g33
F-0.9183673469387755
sg34
F0.5357142857142857
sg35
F0.30612244897959184
sg36
S'red'
p260
sba(icurlovision
Stone
p261
(dp262
g33
F2.877551020408163
sg34
F-0.3214285714285714
sg35
F0.36734693877551017
sg36
S'yellow'
p263
sba(icurlovision
Stone
p264
(dp265
g33
F9.183673469387754
sg34
F2.188775510204082
sg35
F0.336734693877551
sg36
S'red'
p266
sbasba(icurlovision
StoneLayout
p267
(dp268
g28
F0.4791666666666667
sg29
(lp269
(icurlovision
Stone
p270
(dp271
g33
F-4.953488372093023
sg34
F6.540697674418604
sg35
F0.47093023255813954
sg36
S'yellow'
p272
sba(icurlovision
Stone
p273
(dp274
g33
F2.9302325581395348
sg34
F-0.36627906976744184
sg35
F0.47093023255813954
sg36
S'yellow'
p275
sba(icurlovision
Stone
p276
(dp277
g33
F9.313953488372093
sg34
F2.2151162790697674
sg35
F0.47093023255813954
sg36
S'red'
p278
sba(icurlovision
Stone
p279
(dp280
g33
F7.709302325581395
sg34
F-6.575581395348837
sg35
F0.45348837209302323
sg36
S'red'
p281
sbasba(icurlovision
StoneLayout
p282
(dp283
g28
F0.4791666666666667
sg29
(lp284
(icurlovision
Stone
p285
(dp286
g33
F-5.015625
sg34
F6.578125
sg35
F0.484375
sg36
S'yellow'
p287
sba(icurlovision
Stone
p288
(dp289
g33
F7.171875
sg34
F6.828125
sg35
F0.328125
sg36
S'red'
p290
sba(icurlovision
Stone
p291
(dp292
g33
F7.703125
sg34
F-6.609375
sg35
F0.46875
sg36
S'red'
p293
sbasba(icurlovision
StoneLayout
p294
(dp295
g28
F0.4791666666666667
sg29
(lp296
(icurlovision
Stone
p297
(dp298
g33
F0.03409090909090909
sg34
F3.4090909090909087
sg35
F0.3409090909090909
sg36
S'yellow'
p299
sba(icurlovision
Stone
p300
(dp301
g33
F-5.011363636363636
sg34
F6.6477272727272725
sg35
F0.47727272727272724
sg36
S'yellow'
p302
sba(icurlovision
Stone
p303
(dp304
g33
F7.261363636363636
sg34
F6.954545454545454
sg35
F0.4602272727272727
sg36
S'red'
p305
sba(icurlovision
Stone
p306
(dp307
g33
F7.7727272727272725
sg34
F-6.681818181818182
sg35
F0.47727272727272724
sg36
S'red'
p308
sbasba(icurlovision
StoneLayout
p309
(dp310
g28
F0.4791666666666667
sg29
(lp311
(icurlovision
Stone
p312
(dp313
g33
F-4.875
sg34
F6.375
sg35
F0.328125
sg36
S'yellow'
p314
sba(icurlovision
Stone
p315
(dp316
g33
F0.6875
sg34
F2.59375
sg35
F0.453125
sg36
S'red'
p317
sba(icurlovision
Stone
p318
(dp319
g33
F6.875
sg34
F6.5625
sg35
F0.3125
sg36
S'red'
p320
sba(icurlovision
Stone
p321
(dp322
g33
F7.375
sg34
F-6.34375
sg35
F0.453125
sg36
S'red'
p323
sbasba(icurlovision
StoneLayout
p324
(dp325
g28
F0.4791666666666667
sg29
(lp326
(icurlovision
Stone
p327
(dp328
g33
F1.5765306122448979
sg34
F2.5255102040816326
sg35
F0.45918367346938777
sg36
S'yellow'
p329
sba(icurlovision
Stone
p330
(dp331
g33
F7.0561224489795915
sg34
F6.872448979591836
sg35
F0.45918367346938777
sg36
S'red'
p332
sba(icurlovision
Stone
p333
(dp334
g33
F-5.005102040816326
sg34
F6.535714285714286
sg35
F0.29081632653061223
sg36
S'yellow'
p335
sba(icurlovision
Stone
p336
(dp337
g33
F7.698979591836735
sg34
F-6.505102040816326
sg35
F0.29081632653061223
sg36
S'red'
p338
sbasba(icurlovision
StoneLayout
p339
(dp340
g28
F0.4791666666666667
sg29
(lp341
(icurlovision
Stone
p342
(dp343
g33
F2.53125
sg34
F2.453125
sg35
F0.296875
sg36
S'red'
p344
sba(icurlovision
Stone
p345
(dp346
g33
F-5.0625
sg34
F6.640625
sg35
F0.328125
sg36
S'yellow'
p347
sba(icurlovision
Stone
p348
(dp349
g33
F7.15625
sg34
F6.890625
sg35
F0.453125
sg36
S'red'
p350
sba(icurlovision
Stone
p351
(dp352
g33
F7.6875
sg34
F-6.640625
sg35
F0.296875
sg36
S'red'
p353
sbasba(icurlovision
StoneLayout
p354
(dp355
g28
F0.4791666666666667
sg29
(lp356
(icurlovision
Stone
p357
(dp358
g33
F-4.646739130434782
sg34
F6.146739130434782
sg35
F0.45652173913043476
sg36
S'yellow'
p359
sba(icurlovision
Stone
p360
(dp361
g33
F6.635869565217391
sg34
F6.407608695652174
sg35
F0.44021739130434784
sg36
S'red'
p362
sba(icurlovision
Stone
p363
(dp364
g33
F2.0380434782608696
sg34
F-6.766304347826087
sg35
F0.44021739130434784
sg36
S'yellow'
p365
sba(icurlovision
Stone
p366
(dp367
g33
F7.125
sg34
F-6.114130434782608
sg35
F0.42391304347826086
sg36
S'red'
p368
sba(icurlovision
Stone
p369
(dp370
g33
F3.1793478260869565
sg34
F2.266304347826087
sg35
F0.30978260869565216
sg36
S'yellow'
p371
sbasbasg218
I0
sg219
I1
sba(icurlovision
EndResult
p372
(dp373
g2
I1
sg9
(lp374
(I6
I6
tp375
a(I5
I5
tp376
a(I5
I4
tp377
a(I4
I4
tp378
a(I4
I3
tp379
a(I3
I3
tp380
a(I3
I2
tp381
a(I2
I2
tp382
a(I2
I1
tp383
a(I1
I1
tp384
a(I1
I0
tp385
asg23
I3
sg24
(lp386
(icurlovision
StoneLayout
p387
(dp388
g28
F0.4791666666666667
sg29
(lp389
(icurlovision
Stone
p390
(dp391
g33
F3.5666666666666664
sg34
F-1.9333333333333333
sg35
F0.43333333333333335
sg36
S'red'
p392
sbasba(icurlovision
StoneLayout
p393
(dp394
g28
F0.4791666666666667
sg29
(lp395
(icurlovision
Stone
p396
(dp397
g33
F0.5425531914893617
sg34
F-0.5425531914893617
sg35
F0.4627659574468085
sg36
S'yellow'
p398
sba(icurlovision
Stone
p399
(dp400
g33
F8.425531914893616
sg34
F-0.6063829787234042
sg35
F0.351063829787234
sg36
S'yellow'
p401
sba(icurlovision
Stone
p402
(dp403
g33
F1.9468085106382977
sg34
F0.9574468085106382
sg35
F0.44680851063829785
sg36
S'yellow'
p404
sba(icurlovision
Stone
p405
(dp406
g33
F1.5319148936170213
sg34
F-0.19148936170212766
sg35
F0.33510638297872336
sg36
S'red'
p407
sba(icurlovision
Stone
p408
(dp409
g33
F9.670212765957446
sg34
F3.382978723404255
sg35
F0.4627659574468085
sg36
S'red'
p410
sba(icurlovision
Stone
p411
(dp412
g33
F2.3936170212765955
sg34
F0.06382978723404255
sg35
F0.4627659574468085
sg36
S'red'
p413
sbasba(icurlovision
StoneLayout
p414
(dp415
g28
F0.4791666666666667
sg29
(lp416
(icurlovision
Stone
p417
(dp418
g33
F8.597560975609756
sg34
F-0.5121951219512195
sg35
F0.2926829268292683
sg36
S'yellow'
p419
sba(icurlovision
Stone
p420
(dp421
g33
F-3.3292682926829267
sg34
F-1.792682926829268
sg35
F0.49390243902439024
sg36
S'yellow'
p422
sba(icurlovision
Stone
p423
(dp424
g33
F9.841463414634145
sg34
F3.512195121951219
sg35
F0.45731707317073167
sg36
S'red'
p425
sba(icurlovision
Stone
p426
(dp427
g33
F1.4634146341463414
sg34
F-0.2926829268292683
sg35
F0.47560975609756095
sg36
S'red'
p428
sba(icurlovision
Stone
p429
(dp430
g33
F3.3658536585365852
sg34
F0.25609756097560976
sg35
F0.49390243902439024
sg36
S'yellow'
p431
sba(icurlovision
Stone
p432
(dp433
g33
F2.0121951219512195
sg34
F0.9878048780487805
sg35
F0.31097560975609756
sg36
S'yellow'
p434
sba(icurlovision
Stone
p435
(dp436
g33
F2.451219512195122
sg34
F0.0
sg35
F0.25609756097560976
sg36
S'red'
p437
sbasba(icurlovision
StoneLayout
p438
(dp439
g28
F0.4791666666666667
sg29
(lp440
(icurlovision
Stone
p441
(dp442
g33
F8.173469387755102
sg34
F-0.5204081632653061
sg35
F0.336734693877551
sg36
S'yellow'
p443
sba(icurlovision
Stone
p444
(dp445
g33
F3.2142857142857144
sg34
F0.336734693877551
sg35
F0.3214285714285714
sg36
S'yellow'
p446
sba(icurlovision
Stone
p447
(dp448
g33
F-3.183673469387755
sg34
F-1.6224489795918366
sg35
F0.29081632653061223
sg36
S'yellow'
p449
sba(icurlovision
Stone
p450
(dp451
g33
F1.8673469387755102
sg34
F1.010204081632653
sg35
F0.44387755102040816
sg36
S'yellow'
p452
sba(icurlovision
Stone
p453
(dp454
g33
F9.39795918367347
sg34
F3.306122448979592
sg35
F0.3214285714285714
sg36
S'red'
p455
sba(icurlovision
Stone
p456
(dp457
g33
F2.357142857142857
sg34
F0.061224489795918366
sg35
F0.3214285714285714
sg36
S'red'
p458
sba(icurlovision
Stone
p459
(dp460
g33
F1.4081632653061225
sg34
F-0.18367346938775508
sg35
F0.3214285714285714
sg36
S'red'
p461
sba(icurlovision
Stone
p462
(dp463
g33
F0.4897959183673469
sg34
F4.040816326530612
sg35
F0.45918367346938777
sg36
S'red'
p464
sbasba(icurlovision
StoneLayout
p465
(dp466
g28
F0.4791666666666667
sg29
(lp467
(icurlovision
Stone
p468
(dp469
g33
F8.392857142857142
sg34
F-0.6071428571428571
sg35
F0.33928571428571425
sg36
S'yellow'
p470
sba(icurlovision
Stone
p471
(dp472
g33
F-2.142857142857143
sg34
F-1.6785714285714284
sg35
F0.26785714285714285
sg36
S'red'
p473
sba(icurlovision
Stone
p474
(dp475
g33
F3.2857142857142856
sg34
F0.25
sg35
F0.46428571428571425
sg36
S'yellow'
p476
sba(icurlovision
Stone
p477
(dp478
g33
F-3.25
sg34
F-1.6785714285714284
sg35
F0.3571428571428571
sg36
S'yellow'
p479
sba(icurlovision
Stone
p480
(dp481
g33
F3.25
sg34
F1.7857142857142856
sg35
F0.4464285714285714
sg36
S'yellow'
p482
sba(icurlovision
Stone
p483
(dp484
g33
F2.0
sg34
F1.0
sg35
F0.33928571428571425
sg36
S'yellow'
p485
sba(icurlovision
Stone
p486
(dp487
g33
F0.5
sg34
F4.142857142857142
sg35
F0.33928571428571425
sg36
S'red'
p488
sba(icurlovision
Stone
p489
(dp490
g33
F9.607142857142856
sg34
F3.3571428571428568
sg35
F0.4464285714285714
sg36
S'red'
p491
sba(icurlovision
Stone
p492
(dp493
g33
F2.321428571428571
sg34
F0.0
sg35
F0.3571428571428571
sg36
S'red'
p494
sbasba(icurlovision
StoneLayout
p495
(dp496
g28
F0.4791666666666667
sg29
(lp497
(icurlovision
Stone
p498
(dp499
g33
F-3.2229729729729732
sg34
F-1.6418918918918919
sg35
F0.44594594594594594
sg36
S'yellow'
p500
sba(icurlovision
Stone
p501
(dp502
g33
F-2.087837837837838
sg34
F-1.6824324324324325
sg35
F0.46621621621621623
sg36
S'red'
p503
sba(icurlovision
Stone
p504
(dp505
g33
F8.371621621621623
sg34
F-0.5472972972972974
sg35
F0.44594594594594594
sg36
S'yellow'
p506
sba(icurlovision
Stone
p507
(dp508
g33
F9.587837837837839
sg34
F3.3445945945945947
sg35
F0.44594594594594594
sg36
S'red'
p509
sba(icurlovision
Stone
p510
(dp511
g33
F3.2635135135135136
sg34
F0.18243243243243246
sg35
F0.32432432432432434
sg36
S'yellow'
p512
sba(icurlovision
Stone
p513
(dp514
g33
F0.5067567567567568
sg34
F4.155405405405405
sg35
F0.30405405405405406
sg36
S'red'
p515
sba(icurlovision
Stone
p516
(dp517
g33
F1.9662162162162162
sg34
F0.9932432432432433
sg35
F0.26351351351351354
sg36
S'yellow'
p518
sba(icurlovision
Stone
p519
(dp520
g33
F2.290540540540541
sg34
F0.02027027027027027
sg35
F0.3445945945945946
sg36
S'red'
p521
sba(icurlovision
Stone
p522
(dp523
g33
F3.9121621621621623
sg34
F0.9932432432432433
sg35
F0.3445945945945946
sg36
S'red'
p524
sbasba(icurlovision
StoneLayout
p525
(dp526
g28
F0.4791666666666667
sg29
(lp527
(icurlovision
Stone
p528
(dp529
g33
F-2.321428571428571
sg34
F-1.6428571428571428
sg35
F0.46428571428571425
sg36
S'red'
p530
sba(icurlovision
Stone
p531
(dp532
g33
F-3.6071428571428568
sg34
F5.392857142857142
sg35
F0.4821428571428571
sg36
S'yellow'
p533
sba(icurlovision
Stone
p534
(dp535
g33
F3.3571428571428568
sg34
F-2.2857142857142856
sg35
F0.30357142857142855
sg36
S'yellow'
p536
sba(icurlovision
Stone
p537
(dp538
g33
F9.642857142857142
sg34
F3.392857142857143
sg35
F0.4464285714285714
sg36
S'red'
p539
sba(icurlovision
Stone
p540
(dp541
g33
F8.392857142857142
sg34
F-0.5714285714285714
sg35
F0.4464285714285714
sg36
S'yellow'
p542
sba(icurlovision
Stone
p543
(dp544
g33
F1.6428571428571428
sg34
F0.8214285714285714
sg35
F0.3214285714285714
sg36
S'yellow'
p545
sba(icurlovision
Stone
p546
(dp547
g33
F1.2142857142857142
sg34
F3.7857142857142856
sg35
F0.3571428571428571
sg36
S'red'
p548
sbasba(icurlovision
StoneLayout
p549
(dp550
g28
F0.4791666666666667
sg29
(lp551
(icurlovision
Stone
p552
(dp553
g33
F-2.25
sg34
F-1.625
sg35
F0.3125
sg36
S'red'
p554
sba(icurlovision
Stone
p555
(dp556
g33
F8.25
sg34
F-0.5625
sg35
F0.4375
sg36
S'yellow'
p557
sba(icurlovision
Stone
p558
(dp559
g33
F3.28125
sg34
F-2.25
sg35
F0.3125
sg36
S'yellow'
p560
sba(icurlovision
Stone
p561
(dp562
g33
F1.03125
sg34
F3.875
sg35
F0.34375
sg36
S'red'
p563
sba(icurlovision
Stone
p564
(dp565
g33
F9.46875
sg34
F3.3125
sg35
F0.453125
sg36
S'red'
p566
sba(icurlovision
Stone
p567
(dp568
g33
F1.5
sg34
F2.875
sg35
F0.359375
sg36
S'red'
p569
sbasba(icurlovision
StoneLayout
p570
(dp571
g28
F0.4791666666666667
sg29
(lp572
(icurlovision
Stone
p573
(dp574
g33
F-4.587209302325581
sg34
F-4.8313953488372094
sg35
F0.47093023255813954
sg36
S'yellow'
p575
sba(icurlovision
Stone
p576
(dp577
g33
F8.38953488372093
sg34
F-0.5755813953488372
sg35
F0.45348837209302323
sg36
S'yellow'
p578
sba(icurlovision
Stone
p579
(dp580
g33
F3.4011627906976742
sg34
F-2.3197674418604652
sg35
F0.313953488372093
sg36
S'yellow'
p581
sba(icurlovision
Stone
p582
(dp583
g33
F9.645348837209303
sg34
F3.3662790697674416
sg35
F0.436046511627907
sg36
S'red'
p584
sba(icurlovision
Stone
p585
(dp586
g33
F-2.3197674418604652
sg34
F-1.6569767441860466
sg35
F0.47093023255813954
sg36
S'red'
p587
sbasba(icurlovision
StoneLayout
p588
(dp589
g28
F0.4791666666666667
sg29
(lp590
(icurlovision
Stone
p591
(dp592
g33
F-4.793478260869565
sg34
F-4.989130434782608
sg35
F0.4891304347826087
sg36
S'yellow'
p593
sba(icurlovision
Stone
p594
(dp595
g33
F3.4239130434782608
sg34
F-2.3478260869565215
sg35
F0.34239130434782605
sg36
S'yellow'
p596
sba(icurlovision
Stone
p597
(dp598
g33
F-2.4130434782608696
sg34
F-1.6956521739130435
sg35
F0.4891304347826087
sg36
S'red'
p599
sba(icurlovision
Stone
p600
(dp601
g33
F8.608695652173912
sg34
F-0.5869565217391304
sg35
F0.358695652173913
sg36
S'yellow'
p602
sba(icurlovision
Stone
p603
(dp604
g33
F9.880434782608695
sg34
F3.5217391304347827
sg35
F0.32608695652173914
sg36
S'red'
p605
sba(icurlovision
Stone
p606
(dp607
g33
F2.608695652173913
sg34
F-0.42391304347826086
sg35
F0.47282608695652173
sg36
S'red'
p608
sbasba(icurlovision
StoneLayout
p609
(dp610
g28
F0.4791666666666667
sg29
(lp611
(icurlovision
Stone
p612
(dp613
g33
F-2.3197674418604652
sg34
F-1.691860465116279
sg35
F0.47093023255813954
sg36
S'red'
p614
sba(icurlovision
Stone
p615
(dp616
g33
F1.063953488372093
sg34
F-2.2848837209302326
sg35
F0.3313953488372093
sg36
S'yellow'
p617
sba(icurlovision
Stone
p618
(dp619
g33
F3.3662790697674416
sg34
F-3.9593023255813953
sg35
F0.3313953488372093
sg36
S'yellow'
p620
sba(icurlovision
Stone
p621
(dp622
g33
F9.75
sg34
F3.436046511627907
sg35
F0.436046511627907
sg36
S'red'
p623
sba(icurlovision
Stone
p624
(dp625
g33
F9.156976744186046
sg34
F-0.1569767441860465
sg35
F0.45348837209302323
sg36
S'yellow'
p626
sbasbasg218
I2
sg219
I1
sba(icurlovision
EndResult
p627
(dp628
g2
I4
sg9
(lp629
(I7
I8
tp630
a(I7
I7
tp631
a(I6
I7
tp632
a(I6
I6
tp633
a(I5
I6
tp634
a(I5
I5
tp635
a(I4
I5
tp636
a(I4
I4
tp637
a(I3
I4
tp638
a(I3
I3
tp639
a(I2
I3
tp640
a(I2
I2
tp641
a(I1
I2
tp642
a(I1
I1
tp643
a(I0
I1
tp644
asg23
I4
sg24
(lp645
(icurlovision
StoneLayout
p646
(dp647
g28
F0.4791666666666667
sg29
(lp648
(icurlovision
Stone
p649
(dp650
g33
F1.9261363636363635
sg34
F0.05113636363636363
sg35
F0.2727272727272727
sg36
S'red'
p651
sbasba(icurlovision
StoneLayout
p652
(dp653
g28
F0.4791666666666667
sg29
(lp654
(icurlovision
Stone
p655
(dp656
g33
F9.75
sg34
F-3.1785714285714284
sg35
F0.4464285714285714
sg36
S'yellow'
p657
sba(icurlovision
Stone
p658
(dp659
g33
F2.0
sg34
F0.03571428571428571
sg35
F0.3571428571428571
sg36
S'red'
p660
sbasba(icurlovision
StoneLayout
p661
(dp662
g28
F0.4791666666666667
sg29
(lp663
(icurlovision
Stone
p664
(dp665
g33
F9.714285714285714
sg34
F-3.1785714285714284
sg35
F0.26785714285714285
sg36
S'yellow'
p666
sba(icurlovision
Stone
p667
(dp668
g33
F8.25
sg34
F0.39285714285714285
sg35
F0.4464285714285714
sg36
S'red'
p669
sba(icurlovision
Stone
p670
(dp671
g33
F2.0357142857142856
sg34
F0.07142857142857142
sg35
F0.33928571428571425
sg36
S'red'
p672
sbasba(icurlovision
StoneLayout
p673
(dp674
g28
F0.4791666666666667
sg29
(lp675
(icurlovision
Stone
p676
(dp677
g33
F9.409090909090908
sg34
F-3.068181818181818
sg35
F0.4261363636363636
sg36
S'yellow'
p678
sba(icurlovision
Stone
p679
(dp680
g33
F-1.0227272727272727
sg34
F1.7727272727272725
sg35
F0.32386363636363635
sg36
S'red'
p681
sba(icurlovision
Stone
p682
(dp683
g33
F2.0113636363636362
sg34
F-1.227272727272727
sg35
F0.4602272727272727
sg36
S'yellow'
p684
sba(icurlovision
Stone
p685
(dp686
g33
F7.977272727272727
sg34
F0.3409090909090909
sg35
F0.4431818181818181
sg36
S'red'
p687
sbasba(icurlovision
StoneLayout
p688
(dp689
g28
F0.4791666666666667
sg29
(lp690
(icurlovision
Stone
p691
(dp692
g33
F2.965909090909091
sg34
F-1.3636363636363635
sg35
F0.3409090909090909
sg36
S'red'
p693
sba(icurlovision
Stone
p694
(dp695
g33
F9.647727272727272
sg34
F-3.102272727272727
sg35
F0.3579545454545454
sg36
S'yellow'
p696
sba(icurlovision
Stone
p697
(dp698
g33
F-0.9886363636363635
sg34
F1.8749999999999998
sg35
F0.4431818181818181
sg36
S'red'
p699
sba(icurlovision
Stone
p700
(dp701
g33
F8.181818181818182
sg34
F0.375
sg35
F0.4602272727272727
sg36
S'red'
p702
sbasba(icurlovision
StoneLayout
p703
(dp704
g28
F0.4791666666666667
sg29
(lp705
(icurlovision
Stone
p706
(dp707
g33
F0.17857142857142855
sg34
F-6.535714285714286
sg35
F0.46428571428571425
sg36
S'yellow'
p708
sba(icurlovision
Stone
p709
(dp710
g33
F8.357142857142856
sg34
F0.3571428571428571
sg35
F0.46428571428571425
sg36
S'red'
p711
sba(icurlovision
Stone
p712
(dp713
g33
F-1.0714285714285714
sg34
F1.8928571428571428
sg35
F0.46428571428571425
sg36
S'red'
p714
sba(icurlovision
Stone
p715
(dp716
g33
F9.928571428571429
sg34
F-3.25
sg35
F0.33928571428571425
sg36
S'yellow'
p717
sbasba(icurlovision
StoneLayout
p718
(dp719
g28
F0.4791666666666667
sg29
(lp720
(icurlovision
Stone
p721
(dp722
g33
F-1.0988372093023255
sg34
F1.9360465116279069
sg35
F0.36627906976744184
sg36
S'red'
p723
sba(icurlovision
Stone
p724
(dp725
g33
F10.203488372093023
sg34
F-3.296511627906977
sg35
F0.2965116279069767
sg36
S'yellow'
p726
sba(icurlovision
Stone
p727
(dp728
g33
F8.598837209302326
sg34
F0.36627906976744184
sg35
F0.2965116279069767
sg36
S'red'
p729
sba(icurlovision
Stone
p730
(dp731
g33
F0.19186046511627908
sg34
F-4.8313953488372094
sg35
F0.27906976744186046
sg36
S'red'
p732
sbasba(icurlovision
StoneLayout
p733
(dp734
g28
F0.4791666666666667
sg29
(lp735
(icurlovision
Stone
p736
(dp737
g33
F9.872093023255815
sg34
F-3.2093023255813953
sg35
F0.47093023255813954
sg36
S'yellow'
p738
sba(icurlovision
Stone
p739
(dp740
g33
F-1.744186046511628
sg34
F-3.383720930232558
sg35
F0.47093023255813954
sg36
S'yellow'
p741
sba(icurlovision
Stone
p742
(dp743
g33
F8.337209302325581
sg34
F0.38372093023255816
sg35
F0.313953488372093
sg36
S'red'
p744
sba(icurlovision
Stone
p745
(dp746
g33
F0.1744186046511628
sg34
F-4.709302325581396
sg35
F0.3488372093023256
sg36
S'red'
p747
sba(icurlovision
Stone
p748
(dp749
g33
F-1.0813953488372092
sg34
F1.9186046511627908
sg35
F0.45348837209302323
sg36
S'red'
p750
sbasba(icurlovision
StoneLayout
p751
(dp752
g28
F0.4791666666666667
sg29
(lp753
(icurlovision
Stone
p754
(dp755
g33
F-1.0357142857142856
sg34
F1.857142857142857
sg35
F0.33928571428571425
sg36
S'red'
p756
sba(icurlovision
Stone
p757
(dp758
g33
F9.75
sg34
F-3.214285714285714
sg35
F0.2857142857142857
sg36
S'yellow'
p759
sba(icurlovision
Stone
p760
(dp761
g33
F0.21428571428571427
sg34
F-4.607142857142857
sg35
F0.46428571428571425
sg36
S'red'
p762
sba(icurlovision
Stone
p763
(dp764
g33
F8.214285714285714
sg34
F0.3571428571428571
sg35
F0.46428571428571425
sg36
S'red'
p765
sba(icurlovision
Stone
p766
(dp767
g33
F-5.464285714285714
sg34
F0.6428571428571428
sg35
F0.30357142857142855
sg36
S'red'
p768
sbasba(icurlovision
StoneLayout
p769
(dp770
g28
F0.4791666666666667
sg29
(lp771
(icurlovision
Stone
p772
(dp773
g33
F-1.024390243902439
sg34
F1.920731707317073
sg35
F0.47560975609756095
sg36
S'red'
p774
sba(icurlovision
Stone
p775
(dp776
g33
F-2.048780487804878
sg34
F-3.6036585365853657
sg35
F0.3292682926829268
sg36
S'yellow'
p777
sba(icurlovision
Stone
p778
(dp779
g33
F9.914634146341463
sg34
F-3.201219512195122
sg35
F0.45731707317073167
sg36
S'yellow'
p780
sba(icurlovision
Stone
p781
(dp782
g33
F0.25609756097560976
sg34
F-4.73780487804878
sg35
F0.36585365853658536
sg36
S'red'
p783
sba(icurlovision
Stone
p784
(dp785
g33
F-5.524390243902439
sg34
F0.6768292682926829
sg35
F0.3292682926829268
sg36
S'red'
p786
sba(icurlovision
Stone
p787
(dp788
g33
F8.414634146341463
sg34
F0.3841463414634146
sg35
F0.45731707317073167
sg36
S'red'
p789
sbasba(icurlovision
StoneLayout
p790
(dp791
g28
F0.4791666666666667
sg29
(lp792
(icurlovision
Stone
p793
(dp794
g33
F-1.0357142857142856
sg34
F1.8214285714285714
sg35
F0.4464285714285714
sg36
S'red'
p795
sba(icurlovision
Stone
p796
(dp797
g33
F-5.392857142857142
sg34
F0.6071428571428571
sg35
F0.33928571428571425
sg36
S'red'
p798
sba(icurlovision
Stone
p799
(dp800
g33
F9.678571428571429
sg34
F-3.142857142857143
sg35
F0.4464285714285714
sg36
S'yellow'
p801
sba(icurlovision
Stone
p802
(dp803
g33
F8.178571428571429
sg34
F0.3571428571428571
sg35
F0.4464285714285714
sg36
S'red'
p804
sba(icurlovision
Stone
p805
(dp806
g33
F-1.25
sg34
F-3.8571428571428568
sg35
F0.26785714285714285
sg36
S'red'
p807
sbasba(icurlovision
StoneLayout
p808
(dp809
g28
F0.4791666666666667
sg29
(lp810
(icurlovision
Stone
p811
(dp812
g33
F9.589285714285714
sg34
F-3.125
sg35
F0.42857142857142855
sg36
S'yellow'
p813
sba(icurlovision
Stone
p814
(dp815
g33
F-0.9821428571428571
sg34
F1.8392857142857142
sg35
F0.46428571428571425
sg36
S'red'
p816
sba(icurlovision
Stone
p817
(dp818
g33
F-5.339285714285714
sg34
F0.625
sg35
F0.33928571428571425
sg36
S'red'
p819
sba(icurlovision
Stone
p820
(dp821
g33
F-0.33928571428571425
sg34
F0.5535714285714285
sg35
F0.46428571428571425
sg36
S'yellow'
p822
sba(icurlovision
Stone
p823
(dp824
g33
F8.125
sg34
F0.375
sg35
F0.4464285714285714
sg36
S'red'
p825
sba(icurlovision
Stone
p826
(dp827
g33
F-1.232142857142857
sg34
F-3.875
sg35
F0.3571428571428571
sg36
S'red'
p828
sbasba(icurlovision
StoneLayout
p829
(dp830
g28
F0.4791666666666667
sg29
(lp831
(icurlovision
Stone
p832
(dp833
g33
F9.825
sg34
F-3.225
sg35
F0.44999999999999996
sg36
S'yellow'
p834
sba(icurlovision
Stone
p835
(dp836
g33
F-0.4125
sg34
F0.5625
sg35
F0.33749999999999997
sg36
S'yellow'
p837
sba(icurlovision
Stone
p838
(dp839
g33
F-1.0875
sg34
F1.875
sg35
F0.44999999999999996
sg36
S'red'
p840
sba(icurlovision
Stone
p841
(dp842
g33
F8.325
sg34
F0.375
sg35
F0.46875
sg36
S'red'
p843
sba(icurlovision
Stone
p844
(dp845
g33
F-5.55
sg34
F0.6375
sg35
F0.35625
sg36
S'red'
p846
sba(icurlovision
Stone
p847
(dp848
g33
F1.0875
sg34
F0.825
sg35
F0.22499999999999998
sg36
S'red'
p849
sba(icurlovision
Stone
p850
(dp851
g33
F-1.3499999999999999
sg34
F-4.05
sg35
F0.28125
sg36
S'red'
p852
sbasba(icurlovision
StoneLayout
p853
(dp854
g28
F0.4791666666666667
sg29
(lp855
(icurlovision
Stone
p856
(dp857
g33
F1.5178571428571428
sg34
F-0.1607142857142857
sg35
F0.46428571428571425
sg36
S'yellow'
p858
sba(icurlovision
Stone
p859
(dp860
g33
F9.839285714285714
sg34
F-3.196428571428571
sg35
F0.4464285714285714
sg36
S'yellow'
p861
sba(icurlovision
Stone
p862
(dp863
g33
F-1.0178571428571428
sg34
F1.875
sg35
F0.4821428571428571
sg36
S'red'
p864
sba(icurlovision
Stone
p865
(dp866
g33
F-5.446428571428571
sg34
F0.625
sg35
F0.30357142857142855
sg36
S'red'
p867
sba(icurlovision
Stone
p868
(dp869
g33
F1.0892857142857142
sg34
F0.8035714285714285
sg35
F0.46428571428571425
sg36
S'red'
p870
sba(icurlovision
Stone
p871
(dp872
g33
F-0.375
sg34
F0.5535714285714285
sg35
F0.30357142857142855
sg36
S'yellow'
p873
sba(icurlovision
Stone
p874
(dp875
g33
F8.339285714285714
sg34
F0.4107142857142857
sg35
F0.46428571428571425
sg36
S'red'
p876
sba(icurlovision
Stone
p877
(dp878
g33
F-1.3035714285714286
sg34
F-3.946428571428571
sg35
F0.2857142857142857
sg36
S'red'
p879
sbasba(icurlovision
StoneLayout
p880
(dp881
g28
F0.4791666666666667
sg29
(lp882
(icurlovision
Stone
p883
(dp884
g33
F9.797872340425531
sg34
F-3.1914893617021276
sg35
F0.4627659574468085
sg36
S'yellow'
p885
sba(icurlovision
Stone
p886
(dp887
g33
F-1.0212765957446808
sg34
F1.8829787234042552
sg35
F0.3670212765957446
sg36
S'red'
p888
sba(icurlovision
Stone
p889
(dp890
g33
F-5.489361702127659
sg34
F0.6702127659574467
sg35
F0.33510638297872336
sg36
S'red'
p891
sba(icurlovision
Stone
p892
(dp893
g33
F8.26595744680851
sg34
F0.3829787234042553
sg35
F0.44680851063829785
sg36
S'red'
p894
sba(icurlovision
Stone
p895
(dp896
g33
F1.4999999999999998
sg34
F-0.15957446808510636
sg35
F0.33510638297872336
sg36
S'yellow'
p897
sba(icurlovision
Stone
p898
(dp899
g33
F8.74468085106383
sg34
F-1.180851063829787
sg35
F0.44680851063829785
sg36
S'red'
p900
sba(icurlovision
Stone
p901
(dp902
g33
F-0.3829787234042553
sg34
F0.5744680851063829
sg35
F0.33510638297872336
sg36
S'yellow'
p903
sba(icurlovision
Stone
p904
(dp905
g33
F1.0851063829787233
sg34
F0.7978723404255319
sg35
F0.4627659574468085
sg36
S'red'
p906
sba(icurlovision
Stone
p907
(dp908
g33
F-1.276595744680851
sg34
F-3.9255319148936167
sg35
F0.351063829787234
sg36
S'red'
p909
sbasbasg218
I2
sg219
I0
sba(icurlovision
EndResult
p910
(dp911
g2
I6
sg9
(lp912
(I6
I6
tp913
a(I5
I5
tp914
a(I5
I4
tp915
a(I4
I4
tp916
a(I4
I3
tp917
a(I3
I3
tp918
a(I3
I2
tp919
a(I2
I2
tp920
a(I2
I1
tp921
a(I1
I1
tp922
a(I1
I0
tp923
asg23
I5
sg24
(lp924
(icurlovision
StoneLayout
p925
(dp926
g28
F0.4791666666666667
sg29
(lp927
(icurlovision
Stone
p928
(dp929
g33
F2.609375
sg34
F0.203125
sg35
F0.46875
sg36
S'yellow'
p930
sba(icurlovision
Stone
p931
(dp932
g33
F10.109375
sg34
F2.765625
sg35
F0.3125
sg36
S'red'
p933
sba(icurlovision
Stone
p934
(dp935
g33
F11.015625
sg34
F-2.984375
sg35
F0.4375
sg36
S'red'
p936
sba(icurlovision
Stone
p937
(dp938
g33
F3.578125
sg34
F-0.203125
sg35
F0.34375
sg36
S'yellow'
p939
sbasba(icurlovision
StoneLayout
p940
(dp941
g28
F0.4791666666666667
sg29
(lp942
(icurlovision
Stone
p943
(dp944
g33
F10.946428571428571
sg34
F-2.946428571428571
sg35
F0.4464285714285714
sg36
S'red'
p945
sba(icurlovision
Stone
p946
(dp947
g33
F2.589285714285714
sg34
F0.23214285714285712
sg35
F0.3214285714285714
sg36
S'yellow'
p948
sba(icurlovision
Stone
p949
(dp950
g33
F10.839285714285714
sg34
F3.767857142857143
sg35
F0.30357142857142855
sg36
S'red'
p951
sba(icurlovision
Stone
p952
(dp953
g33
F3.4821428571428568
sg34
F-0.23214285714285712
sg35
F0.30357142857142855
sg36
S'yellow'
p954
sbasba(icurlovision
StoneLayout
p955
(dp956
g28
F0.4791666666666667
sg29
(lp957
(icurlovision
Stone
p958
(dp959
g33
F2.573529411764706
sg34
F0.22058823529411764
sg35
F0.4411764705882353
sg36
S'yellow'
p960
sba(icurlovision
Stone
p961
(dp962
g33
F10.632352941176471
sg34
F3.7205882352941178
sg35
F0.4411764705882353
sg36
S'red'
p963
sba(icurlovision
Stone
p964
(dp965
g33
F3.4558823529411766
sg34
F-0.10294117647058823
sg35
F0.3088235294117647
sg36
S'yellow'
p966
sba(icurlovision
Stone
p967
(dp968
g33
F4.544117647058823
sg34
F-0.3088235294117647
sg35
F0.4264705882352941
sg36
S'yellow'
p969
sba(icurlovision
Stone
p970
(dp971
g33
F10.75
sg34
F-2.8676470588235294
sg35
F0.4411764705882353
sg36
S'red'
p972
sbasba(icurlovision
StoneLayout
p973
(dp974
g28
F0.4791666666666667
sg29
(lp975
(icurlovision
Stone
p976
(dp977
g33
F1.5
sg34
F6.5
sg35
F0.453125
sg36
S'red'
p978
sba(icurlovision
Stone
p979
(dp980
g33
F-0.0
sg34
F-4.5
sg35
F0.34375
sg36
S'yellow'
p981
sba(icurlovision
Stone
p982
(dp983
g33
F10.75
sg34
F3.75
sg35
F0.4375
sg36
S'red'
p984
sba(icurlovision
Stone
p985
(dp986
g33
F10.875
sg34
F-2.9375
sg35
F0.421875
sg36
S'red'
p987
sba(icurlovision
Stone
p988
(dp989
g33
F9.6875
sg34
F-5.5625
sg35
F0.28125
sg36
S'yellow'
p990
sbasba(icurlovision
StoneLayout
p991
(dp992
g28
F0.4791666666666667
sg29
(lp993
(icurlovision
Stone
p994
(dp995
g33
F1.4833333333333334
sg34
F6.45
sg35
F0.45
sg36
S'red'
p996
sba(icurlovision
Stone
p997
(dp998
g33
F10.616666666666667
sg34
F-2.85
sg35
F0.4166666666666667
sg36
S'red'
p999
sba(icurlovision
Stone
p1000
(dp1001
g33
F0.016666666666666666
sg34
F-4.483333333333333
sg35
F0.35
sg36
S'yellow'
p1002
sba(icurlovision
Stone
p1003
(dp1004
g33
F10.55
sg34
F3.65
sg35
F0.43333333333333335
sg36
S'red'
p1005
sba(icurlovision
Stone
p1006
(dp1007
g33
F0.5166666666666666
sg34
F-0.2833333333333333
sg35
F0.3333333333333333
sg36
S'yellow'
p1008
sbasba(icurlovision
StoneLayout
p1009
(dp1010
g28
F0.4791666666666667
sg29
(lp1011
(icurlovision
Stone
p1012
(dp1013
g33
F0.20454545454545453
sg34
F-2.965909090909091
sg35
F0.47727272727272724
sg36
S'red'
p1014
sba(icurlovision
Stone
p1015
(dp1016
g33
F1.534090909090909
sg34
F6.511363636363636
sg35
F0.4602272727272727
sg36
S'red'
p1017
sba(icurlovision
Stone
p1018
(dp1019
g33
F10.704545454545453
sg34
F3.7499999999999996
sg35
F0.4431818181818181
sg36
S'red'
p1020
sba(icurlovision
Stone
p1021
(dp1022
g33
F10.84090909090909
sg34
F-2.8977272727272725
sg35
F0.2727272727272727
sg36
S'red'
p1023
sba(icurlovision
Stone
p1024
(dp1025
g33
F-0.0
sg34
F-4.534090909090909
sg35
F0.3579545454545454
sg36
S'yellow'
p1026
sba(icurlovision
Stone
p1027
(dp1028
g33
F0.5454545454545454
sg34
F-0.2727272727272727
sg35
F0.28977272727272724
sg36
S'yellow'
p1029
sba(icurlovision
Stone
p1030
(dp1031
g33
F10.022727272727272
sg34
F-6.920454545454545
sg35
F0.30681818181818177
sg36
S'yellow'
p1032
sbasba(icurlovision
StoneLayout
p1033
(dp1034
g28
F0.4791666666666667
sg29
(lp1035
(icurlovision
Stone
p1036
(dp1037
g33
F0.1646341463414634
sg34
F-2.6158536585365852
sg35
F0.45731707317073167
sg36
S'yellow'
p1038
sba(icurlovision
Stone
p1039
(dp1040
g33
F1.5182926829268293
sg34
F6.49390243902439
sg35
F0.3292682926829268
sg36
S'red'
p1041
sba(icurlovision
Stone
p1042
(dp1043
g33
F10.73780487804878
sg34
F-2.9085365853658534
sg35
F0.4390243902439024
sg36
S'red'
p1044
sba(icurlovision
Stone
p1045
(dp1046
g33
F10.664634146341463
sg34
F3.7134146341463414
sg35
F0.42073170731707316
sg36
S'red'
p1047
sba(icurlovision
Stone
p1048
(dp1049
g33
F0.49390243902439024
sg34
F-0.23780487804878048
sg35
F0.31097560975609756
sg36
S'yellow'
p1050
sba(icurlovision
Stone
p1051
(dp1052
g33
F-0.018292682926829267
sg34
F-4.4817073170731705
sg35
F0.3292682926829268
sg36
S'yellow'
p1053
sba(icurlovision
Stone
p1054
(dp1055
g33
F-6.201219512195122
sg34
F-5.396341463414633
sg35
F0.3292682926829268
sg36
S'red'
p1056
sbasba(icurlovision
StoneLayout
p1057
(dp1058
g28
F0.4791666666666667
sg29
(lp1059
(icurlovision
Stone
p1060
(dp1061
g33
F-6.329268292682927
sg34
F-5.524390243902439
sg35
F0.3475609756097561
sg36
S'red'
p1062
sba(icurlovision
Stone
p1063
(dp1064
g33
F0.14634146341463414
sg34
F-2.670731707317073
sg35
F0.3292682926829268
sg36
S'yellow'
p1065
sba(icurlovision
Stone
p1066
(dp1067
g33
F1.5
sg34
F6.548780487804878
sg35
F0.45731707317073167
sg36
S'red'
p1068
sba(icurlovision
Stone
p1069
(dp1070
g33
F10.829268292682926
sg34
F3.768292682926829
sg35
F0.4390243902439024
sg36
S'red'
p1071
sba(icurlovision
Stone
p1072
(dp1073
g33
F10.97560975609756
sg34
F-3.0
sg35
F0.45731707317073167
sg36
S'red'
p1074
sba(icurlovision
Stone
p1075
(dp1076
g33
F-0.0
sg34
F-4.573170731707317
sg35
F0.3292682926829268
sg36
S'yellow'
p1077
sba(icurlovision
Stone
p1078
(dp1079
g33
F0.5121951219512195
sg34
F-0.2926829268292683
sg35
F0.47560975609756095
sg36
S'yellow'
p1080
sba(icurlovision
Stone
p1081
(dp1082
g33
F-3.475609756097561
sg34
F-2.4146341463414633
sg35
F0.25609756097560976
sg36
S'red'
p1083
sbasba(icurlovision
StoneLayout
p1084
(dp1085
g28
F0.4791666666666667
sg29
(lp1086
(icurlovision
Stone
p1087
(dp1088
g33
F0.20121951219512194
sg34
F-2.7073170731707314
sg35
F0.49390243902439024
sg36
S'yellow'
p1089
sba(icurlovision
Stone
p1090
(dp1091
g33
F-6.49390243902439
sg34
F-5.670731707317072
sg35
F0.47560975609756095
sg36
S'red'
p1092
sba(icurlovision
Stone
p1093
(dp1094
g33
F11.396341463414634
sg34
F-3.0731707317073167
sg35
F0.47560975609756095
sg36
S'red'
p1095
sba(icurlovision
Stone
p1096
(dp1097
g33
F1.6280487804878048
sg34
F6.804878048780488
sg35
F0.45731707317073167
sg36
S'red'
p1098
sba(icurlovision
Stone
p1099
(dp1100
g33
F-3.5304878048780486
sg34
F-2.451219512195122
sg35
F0.25609756097560976
sg36
S'red'
p1101
sba(icurlovision
Stone
p1102
(dp1103
g33
F11.286585365853657
sg34
F3.951219512195122
sg35
F0.45731707317073167
sg36
S'red'
p1104
sba(icurlovision
Stone
p1105
(dp1106
g33
F0.0548780487804878
sg34
F-4.682926829268292
sg35
F0.47560975609756095
sg36
S'yellow'
p1107
sba(icurlovision
Stone
p1108
(dp1109
g33
F3.896341463414634
sg34
F-0.6585365853658536
sg35
F0.47560975609756095
sg36
S'yellow'
p1110
sba(icurlovision
Stone
p1111
(dp1112
g33
F0.5304878048780487
sg34
F-0.25609756097560976
sg35
F0.25609756097560976
sg36
S'yellow'
p1113
sbasba(icurlovision
StoneLayout
p1114
(dp1115
g28
F0.4791666666666667
sg29
(lp1116
(icurlovision
Stone
p1117
(dp1118
g33
F-6.238636363636363
sg34
F-5.420454545454545
sg35
F0.4602272727272727
sg36
S'red'
p1119
sba(icurlovision
Stone
p1120
(dp1121
g33
F1.534090909090909
sg34
F6.477272727272727
sg35
F0.4602272727272727
sg36
S'red'
p1122
sba(icurlovision
Stone
p1123
(dp1124
g33
F10.738636363636363
sg34
F3.715909090909091
sg35
F0.4431818181818181
sg36
S'red'
p1125
sba(icurlovision
Stone
p1126
(dp1127
g33
F10.875
sg34
F-2.965909090909091
sg35
F0.4431818181818181
sg36
S'red'
p1128
sba(icurlovision
Stone
p1129
(dp1130
g33
F0.03409090909090909
sg34
F-1.7045454545454544
sg35
F0.4261363636363636
sg36
S'yellow'
p1131
sba(icurlovision
Stone
p1132
(dp1133
g33
F-0.0
sg34
F-4.534090909090909
sg35
F0.3409090909090909
sg36
S'yellow'
p1134
sba(icurlovision
Stone
p1135
(dp1136
g33
F0.5113636363636364
sg34
F-0.30681818181818177
sg35
F0.2727272727272727
sg36
S'yellow'
p1137
sba(icurlovision
Stone
p1138
(dp1139
g33
F-3.3749999999999996
sg34
F-2.352272727272727
sg35
F0.30681818181818177
sg36
S'red'
p1140
sbasba(icurlovision
StoneLayout
p1141
(dp1142
g28
F0.4791666666666667
sg29
(lp1143
(icurlovision
Stone
p1144
(dp1145
g33
F-6.434210526315789
sg34
F-5.605263157894736
sg35
F0.47368421052631576
sg36
S'red'
p1146
sba(icurlovision
Stone
p1147
(dp1148
g33
F3.2368421052631575
sg34
F-0.5921052631578947
sg35
F0.47368421052631576
sg36
S'yellow'
p1149
sba(icurlovision
Stone
p1150
(dp1151
g33
F11.171052631578947
sg34
F3.8684210526315788
sg35
F0.4539473684210526
sg36
S'red'
p1152
sba(icurlovision
Stone
p1153
(dp1154
g33
F0.039473684210526314
sg34
F-1.7368421052631577
sg35
F0.35526315789473684
sg36
S'yellow'
p1155
sba(icurlovision
Stone
p1156
(dp1157
g33
F-0.0
sg34
F-4.697368421052631
sg35
F0.47368421052631576
sg36
S'yellow'
p1158
sba(icurlovision
Stone
p1159
(dp1160
g33
F1.6184210526315788
sg34
F6.789473684210526
sg35
F0.3157894736842105
sg36
S'red'
p1161
sba(icurlovision
Stone
p1162
(dp1163
g33
F11.289473684210526
sg34
F-3.039473684210526
sg35
F0.47368421052631576
sg36
S'red'
p1164
sba(icurlovision
Stone
p1165
(dp1166
g33
F0.5526315789473684
sg34
F-0.2763157894736842
sg35
F0.47368421052631576
sg36
S'yellow'
p1167
sba(icurlovision
Stone
p1168
(dp1169
g33
F-3.552631578947368
sg34
F-2.4078947368421053
sg35
F0.3355263157894737
sg36
S'red'
p1170
sbasbasg218
I2
sg219
I1
sba(icurlovision
EndResult
p1171
(dp1172
g2
I6
sg9
(lp1173
(I8
I7
tp1174
a(I7
I7
tp1175
a(I5
I5
tp1176
a(I5
I4
tp1177
a(I4
I4
tp1178
a(I4
I3
tp1179
a(I3
I3
tp1180
a(I3
I2
tp1181
a(I2
I2
tp1182
a(I2
I1
tp1183
a(I1
I1
tp1184
a(I1
I0
tp1185
asg23
I6
sg24
(lp1186
(icurlovision
StoneLayout
p1187
(dp1188
g28
F0.4791666666666667
sg29
(lp1189
(icurlovision
Stone
p1190
(dp1191
g33
F6.348837209302325
sg34
F0.8023255813953488
sg35
F0.436046511627907
sg36
S'yellow'
p1192
sba(icurlovision
Stone
p1193
(dp1194
g33
F4.465116279069767
sg34
F2.9302325581395348
sg35
F0.2441860465116279
sg36
S'red'
p1195
sbasba(icurlovision
StoneLayout
p1196
(dp1197
g28
F0.4791666666666667
sg29
(lp1198
(icurlovision
Stone
p1199
(dp1200
g33
F2.8532608695652173
sg34
F-0.733695652173913
sg35
F0.32608695652173914
sg36
S'yellow'
p1201
sba(icurlovision
Stone
p1202
(dp1203
g33
F9.766304347826086
sg34
F-3.5706521739130435
sg35
F0.44021739130434784
sg36
S'red'
p1204
sba(icurlovision
Stone
p1205
(dp1206
g33
F-3.8315217391304346
sg34
F5.625
sg35
F0.44021739130434784
sg36
S'red'
p1207
sbasba(icurlovision
StoneLayout
p1208
(dp1209
g28
F0.4791666666666667
sg29
(lp1210
(icurlovision
Stone
p1211
(dp1212
g33
F2.151315789473684
sg34
F-1.006578947368421
sg35
F0.47368421052631576
sg36
S'yellow'
p1213
sba(icurlovision
Stone
p1214
(dp1215
g33
F9.80921052631579
sg34
F-3.5723684210526314
sg35
F0.43421052631578944
sg36
S'red'
p1216
sba(icurlovision
Stone
p1217
(dp1218
g33
F12.256578947368421
sg34
F3.3355263157894735
sg35
F0.256578947368421
sg36
S'red'
p1219
sba(icurlovision
Stone
p1220
(dp1221
g33
F3.69078947368421
sg34
F-0.17763157894736842
sg35
F0.3355263157894737
sg36
S'yellow'
p1222
sba(icurlovision
Stone
p1223
(dp1224
g33
F8.388157894736842
sg34
F3.8092105263157894
sg35
F0.375
sg36
S'red'
p1225
sba(icurlovision
Stone
p1226
(dp1227
g33
F7.717105263157895
sg34
F2.506578947368421
sg35
F0.3157894736842105
sg36
S'red'
p1228
sbasba(icurlovision
StoneLayout
p1229
(dp1230
g28
F0.4791666666666667
sg29
(lp1231
(icurlovision
Stone
p1232
(dp1233
g33
F9.391304347826086
sg34
F-2.7391304347826084
sg35
F0.32608695652173914
sg36
S'yellow'
p1234
sba(icurlovision
Stone
p1235
(dp1236
g33
F9.391304347826086
sg34
F-5.217391304347826
sg35
F0.45652173913043476
sg36
S'red'
p1237
sba(icurlovision
Stone
p1238
(dp1239
g33
F3.652173913043478
sg34
F-0.16304347826086957
sg35
F0.358695652173913
sg36
S'yellow'
p1240
sba(icurlovision
Stone
p1241
(dp1242
g33
F2.152173913043478
sg34
F-1.0434782608695652
sg35
F0.47282608695652173
sg36
S'yellow'
p1243
sbasba(icurlovision
StoneLayout
p1244
(dp1245
g28
F0.4791666666666667
sg29
(lp1246
(icurlovision
Stone
p1247
(dp1248
g33
F-2.85
sg34
F1.95
sg35
F0.4666666666666667
sg36
S'yellow'
p1249
sba(icurlovision
Stone
p1250
(dp1251
g33
F2.15
sg34
F-1.0166666666666666
sg35
F0.3333333333333333
sg36
S'yellow'
p1252
sba(icurlovision
Stone
p1253
(dp1254
g33
F9.283333333333333
sg34
F-2.716666666666667
sg35
F0.4166666666666667
sg36
S'yellow'
p1255
sba(icurlovision
Stone
p1256
(dp1257
g33
F9.25
sg34
F-5.183333333333334
sg35
F0.45
sg36
S'red'
p1258
sba(icurlovision
Stone
p1259
(dp1260
g33
F3.3833333333333333
sg34
F-2.05
sg35
F0.35
sg36
S'red'
p1261
sbasba(icurlovision
StoneLayout
p1262
(dp1263
g28
F0.4791666666666667
sg29
(lp1264
(icurlovision
Stone
p1265
(dp1266
g33
F-2.8430232558139537
sg34
F1.9709302325581395
sg35
F0.3313953488372093
sg36
S'yellow'
p1267
sba(icurlovision
Stone
p1268
(dp1269
g33
F9.156976744186046
sg34
F-2.5988372093023258
sg35
F0.436046511627907
sg36
S'yellow'
p1270
sba(icurlovision
Stone
p1271
(dp1272
g33
F2.5988372093023258
sg34
F0.3313953488372093
sg35
F0.3313953488372093
sg36
S'yellow'
p1273
sba(icurlovision
Stone
p1274
(dp1275
g33
F9.191860465116278
sg34
F-5.005813953488372
sg35
F0.3313953488372093
sg36
S'red'
p1276
sba(icurlovision
Stone
p1277
(dp1278
g33
F2.1104651162790695
sg34
F-0.9941860465116279
sg35
F0.45348837209302323
sg36
S'yellow'
p1279
sbasba(icurlovision
StoneLayout
p1280
(dp1281
g28
F0.4791666666666667
sg29
(lp1282
(icurlovision
Stone
p1283
(dp1284
g33
F-2.821428571428571
sg34
F2.071428571428571
sg35
F0.30357142857142855
sg36
S'yellow'
p1285
sba(icurlovision
Stone
p1286
(dp1287
g33
F9.321428571428571
sg34
F-2.714285714285714
sg35
F0.4464285714285714
sg36
S'yellow'
p1288
sba(icurlovision
Stone
p1289
(dp1290
g33
F2.6785714285714284
sg34
F0.3214285714285714
sg35
F0.3214285714285714
sg36
S'yellow'
p1291
sba(icurlovision
Stone
p1292
(dp1293
g33
F3.071428571428571
sg34
F-1.0357142857142856
sg35
F0.46428571428571425
sg36
S'red'
p1294
sba(icurlovision
Stone
p1295
(dp1296
g33
F9.357142857142856
sg34
F-5.178571428571428
sg35
F0.30357142857142855
sg36
S'red'
p1297
sbasba(icurlovision
StoneLayout
p1298
(dp1299
g28
F0.4791666666666667
sg29
(lp1300
(icurlovision
Stone
p1301
(dp1302
g33
F-2.808510638297872
sg34
F1.978723404255319
sg35
F0.44680851063829785
sg36
S'yellow'
p1303
sba(icurlovision
Stone
p1304
(dp1305
g33
F9.063829787234042
sg34
F-2.6489361702127656
sg35
F0.33510638297872336
sg36
S'yellow'
p1306
sba(icurlovision
Stone
p1307
(dp1308
g33
F2.5212765957446805
sg34
F0.3191489361702127
sg35
F0.4308510638297872
sg36
S'yellow'
p1309
sba(icurlovision
Stone
p1310
(dp1311
g33
F9.03191489361702
sg34
F-5.074468085106383
sg35
F0.44680851063829785
sg36
S'red'
p1312
sba(icurlovision
Stone
p1313
(dp1314
g33
F3.702127659574468
sg34
F-0.7659574468085106
sg35
F0.4308510638297872
sg36
S'yellow'
p1315
sbasba(icurlovision
StoneLayout
p1316
(dp1317
g28
F0.4791666666666667
sg29
(lp1318
(icurlovision
Stone
p1319
(dp1320
g33
F-2.895
sg34
F2.0549999999999997
sg35
F0.46499999999999997
sg36
S'yellow'
p1321
sba(icurlovision
Stone
p1322
(dp1323
g33
F9.344999999999999
sg34
F-2.775
sg35
F0.44999999999999996
sg36
S'yellow'
p1324
sba(icurlovision
Stone
p1325
(dp1326
g33
F0.375
sg34
F-3.195
sg35
F0.44999999999999996
sg36
S'red'
p1327
sba(icurlovision
Stone
p1328
(dp1329
g33
F2.625
sg34
F0.315
sg35
F0.44999999999999996
sg36
S'yellow'
p1330
sba(icurlovision
Stone
p1331
(dp1332
g33
F9.344999999999999
sg34
F-5.265
sg35
F0.44999999999999996
sg36
S'red'
p1333
sba(icurlovision
Stone
p1334
(dp1335
g33
F3.855
sg34
F-0.825
sg35
F0.44999999999999996
sg36
S'yellow'
p1336
sba(icurlovision
Stone
p1337
(dp1338
g33
F9.225
sg34
F-6.645
sg35
F0.27
sg36
S'yellow'
p1339
sbasba(icurlovision
StoneLayout
p1340
(dp1341
g28
F0.4791666666666667
sg29
(lp1342
(icurlovision
Stone
p1343
(dp1344
g33
F-2.875
sg34
F2.03125
sg35
F0.328125
sg36
S'yellow'
p1345
sba(icurlovision
Stone
p1346
(dp1347
g33
F2.625
sg34
F0.28125
sg35
F0.34375
sg36
S'yellow'
p1348
sba(icurlovision
Stone
p1349
(dp1350
g33
F9.0625
sg34
F-3.21875
sg35
F0.453125
sg36
S'yellow'
p1351
sba(icurlovision
Stone
p1352
(dp1353
g33
F3.875
sg34
F-0.84375
sg35
F0.328125
sg36
S'yellow'
p1354
sba(icurlovision
Stone
p1355
(dp1356
g33
F0.375
sg34
F-3.21875
sg35
F0.359375
sg36
S'red'
p1357
sba(icurlovision
Stone
p1358
(dp1359
g33
F9.40625
sg34
F-5.34375
sg35
F0.4375
sg36
S'red'
p1360
sba(icurlovision
Stone
p1361
(dp1362
g33
F5.78125
sg34
F-0.78125
sg35
F0.34375
sg36
S'yellow'
p1363
sbasba(icurlovision
StoneLayout
p1364
(dp1365
g28
F0.4791666666666667
sg29
(lp1366
(icurlovision
Stone
p1367
(dp1368
g33
F2.6158536585365852
sg34
F0.2926829268292683
sg35
F0.45731707317073167
sg36
S'yellow'
p1369
sba(icurlovision
Stone
p1370
(dp1371
g33
F-1.99390243902439
sg34
F1.6829268292682926
sg35
F0.45731707317073167
sg36
S'red'
p1372
sba(icurlovision
Stone
p1373
(dp1374
g33
F9.23780487804878
sg34
F-5.2317073170731705
sg35
F0.4390243902439024
sg36
S'red'
p1375
sba(icurlovision
Stone
p1376
(dp1377
g33
F8.908536585365853
sg34
F-3.1829268292682924
sg35
F0.4390243902439024
sg36
S'yellow'
p1378
sba(icurlovision
Stone
p1379
(dp1380
g33
F3.8597560975609753
sg34
F-0.8414634146341463
sg35
F0.3292682926829268
sg36
S'yellow'
p1381
sba(icurlovision
Stone
p1382
(dp1383
g33
F0.3475609756097561
sg34
F-3.219512195121951
sg35
F0.31097560975609756
sg36
S'red'
p1384
sba(icurlovision
Stone
p1385
(dp1386
g33
F5.798780487804878
sg34
F-0.7682926829268292
sg35
F0.3475609756097561
sg36
S'yellow'
p1387
sbasba(icurlovision
StoneLayout
p1388
(dp1389
g28
F0.4791666666666667
sg29
(lp1390
(icurlovision
Stone
p1391
(dp1392
g33
F-1.404255319148936
sg34
F0.925531914893617
sg35
F0.4787234042553191
sg36
S'yellow'
p1393
sba(icurlovision
Stone
p1394
(dp1395
g33
F0.3829787234042553
sg34
F-3.223404255319149
sg35
F0.4627659574468085
sg36
S'red'
p1396
sba(icurlovision
Stone
p1397
(dp1398
g33
F9.063829787234042
sg34
F-3.1595744680851063
sg35
F0.44680851063829785
sg36
S'yellow'
p1399
sba(icurlovision
Stone
p1400
(dp1401
g33
F2.6489361702127656
sg34
F0.3191489361702127
sg35
F0.4627659574468085
sg36
S'yellow'
p1402
sba(icurlovision
Stone
p1403
(dp1404
g33
F3.8936170212765955
sg34
F-0.7978723404255319
sg35
F0.351063829787234
sg36
S'yellow'
p1405
sba(icurlovision
Stone
p1406
(dp1407
g33
F9.446808510638297
sg34
F-5.234042553191489
sg35
F0.4627659574468085
sg36
S'red'
p1408
sba(icurlovision
Stone
p1409
(dp1410
g33
F5.776595744680851
sg34
F-0.7340425531914893
sg35
F0.3829787234042553
sg36
S'yellow'
p1411
sba(icurlovision
Stone
p1412
(dp1413
g33
F-4.914893617021276
sg34
F2.1382978723404253
sg35
F0.3191489361702127
sg36
S'red'
p1414
sbasbasg218
I2
sg219
I1
sbasS'version'
p1415
I20180812
sg218
I2
sS'metadata'
p1416
(icurlovision
MatchMetadata
p1417
(dp1418
S'team_name_red'
p1419
S'Unknown'
p1420
sS'event_name'
p1421
g1420
sS'gender'
p1422
g1420
sS'other_info'
p1423
g1420
sS'team_name_yel'
p1424
g1420
sS'date'
p1425
g1420
sbsb.