(icurlovision
MatchResult
p0
(dp1
S'yel_score'
p2
I8
sS'name'
p3
S"VideoLibrary/PyeongChang.Olympics.2018.curling.women's.round-robin.Russia.v.Canada.1080p.NBC.WEB-DL-FINFUNGUS.mp4"
p4
sS'end_results'
p5
(lp6
(icurlovision
EndResult
p7
(dp8
g2
I0
sS'stones_left'
p9
(lp10
(I8
I7
tp11
a(I7
I7
tp12
a(I7
I6
tp13
a(I6
I6
tp14
a(I6
I5
tp15
a(I5
I5
tp16
a(I5
I4
tp17
a(I4
I4
tp18
a(I4
I3
tp19
a(I3
I3
tp20
a(I3
I2
tp21
a(I2
I2
tp22
a(I2
I1
tp23
a(I1
I1
tp24
a(I1
I0
tp25
asS'end_num'
p26
I1
sS'stone_layouts'
p27
(lp28
(icurlovision
StoneLayout
p29
(dp30
S'stone_radius'
p31
F0.4791666666666667
sS'stones'
p32
(lp33
(icurlovision
Stone
p34
(dp35
S'y'
p36
F8.505681818181818
sS'x'
p37
F0.2556818181818182
sS'r'
p38
F0.3409090909090909
sS'color'
p39
S'yellow'
p40
sba(icurlovision
Stone
p41
(dp42
g36
F-4.892045454545454
sg37
F-5.232954545454545
sg38
F0.49431818181818177
sg39
S'yellow'
p43
sbasba(icurlovision
StoneLayout
p44
(dp45
g31
F0.4791666666666667
sg32
(lp46
(icurlovision
Stone
p47
(dp48
g36
F8.357142857142858
sg37
F0.2602040816326531
sg38
F0.44387755102040816
sg39
S'yellow'
p49
sba(icurlovision
Stone
p50
(dp51
g36
F-1.5
sg37
F0.07653061224489796
sg38
F0.3214285714285714
sg39
S'red'
p52
sbasba(icurlovision
StoneLayout
p53
(dp54
g31
F0.4791666666666667
sg32
(lp55
(icurlovision
Stone
p56
(dp57
g36
F8.569148936170212
sg37
F1.1968085106382977
sg38
F0.44680851063829785
sg39
S'yellow'
p58
sba(icurlovision
Stone
p59
(dp60
g36
F8.569148936170212
sg37
F0.2712765957446808
sg38
F0.351063829787234
sg39
S'yellow'
p61
sba(icurlovision
Stone
p62
(dp63
g36
F-1.547872340425532
sg37
F0.11170212765957446
sg38
F0.3191489361702127
sg39
S'red'
p64
sba(icurlovision
Stone
p65
(dp66
g36
F-5.026595744680851
sg37
F-5.664893617021276
sg38
F0.351063829787234
sg39
S'yellow'
p67
sbasba(icurlovision
StoneLayout
p68
(dp69
g31
F0.4791666666666667
sg32
(lp70
(icurlovision
Stone
p71
(dp72
g36
F-1.1785714285714286
sg37
F-0.7806122448979592
sg38
F0.336734693877551
sg39
S'red'
p73
sba(icurlovision
Stone
p74
(dp75
g36
F8.494897959183673
sg37
F0.2602040816326531
sg38
F0.44387755102040816
sg39
S'yellow'
p76
sba(icurlovision
Stone
p77
(dp78
g36
F8.494897959183673
sg37
F1.2091836734693877
sg38
F0.2755102040816326
sg39
S'yellow'
p79
sba(icurlovision
Stone
p80
(dp81
g36
F-1.8520408163265305
sg37
F0.29081632653061223
sg38
F0.29081632653061223
sg39
S'red'
p82
sbasba(icurlovision
StoneLayout
p83
(dp84
g31
F0.4791666666666667
sg32
(lp85
(icurlovision
Stone
p86
(dp87
g36
F-1.1511627906976745
sg37
F1.5348837209302326
sg38
F0.3313953488372093
sg39
S'yellow'
p88
sba(icurlovision
Stone
p89
(dp90
g36
F8.651162790697674
sg37
F0.2441860465116279
sg38
F0.3488372093023256
sg39
S'yellow'
p91
sba(icurlovision
Stone
p92
(dp93
g36
F8.616279069767442
sg37
F1.1860465116279069
sg38
F0.45348837209302323
sg39
S'yellow'
p94
sba(icurlovision
Stone
p95
(dp96
g36
F-1.9534883720930232
sg37
F0.2441860465116279
sg38
F0.3313953488372093
sg39
S'red'
p97
sba(icurlovision
Stone
p98
(dp99
g36
F-5.127906976744186
sg37
F-2.755813953488372
sg38
F0.3488372093023256
sg39
S'red'
p100
sba(icurlovision
Stone
p101
(dp102
g36
F-4.77906976744186
sg37
F-5.476744186046512
sg38
F0.313953488372093
sg39
S'yellow'
p103
sbasba(icurlovision
StoneLayout
p104
(dp105
g31
F0.4791666666666667
sg32
(lp106
(icurlovision
Stone
p107
(dp108
g36
F-1.1686046511627908
sg37
F1.622093023255814
sg38
F0.4883720930232558
sg39
S'yellow'
p109
sba(icurlovision
Stone
p110
(dp111
g36
F8.668604651162791
sg37
F1.2383720930232558
sg38
F0.436046511627907
sg39
S'yellow'
p112
sba(icurlovision
Stone
p113
(dp114
g36
F8.668604651162791
sg37
F0.2616279069767442
sg38
F0.436046511627907
sg39
S'yellow'
p115
sba(icurlovision
Stone
p116
(dp117
g36
F-0.05232558139534883
sg37
F0.6453488372093024
sg38
F0.3488372093023256
sg39
S'red'
p118
sba(icurlovision
Stone
p119
(dp120
g36
F-5.145348837209302
sg37
F-2.738372093023256
sg38
F0.45348837209302323
sg39
S'red'
p121
sba(icurlovision
Stone
p122
(dp123
g36
F-1.9709302325581395
sg37
F0.3313953488372093
sg38
F0.3313953488372093
sg39
S'red'
p124
sbasba(icurlovision
StoneLayout
p125
(dp126
g31
F0.4791666666666667
sg32
(lp127
(icurlovision
Stone
p128
(dp129
g36
F-1.1686046511627908
sg37
F1.5872093023255813
sg38
F0.47093023255813954
sg39
S'yellow'
p130
sba(icurlovision
Stone
p131
(dp132
g36
F8.703488372093023
sg37
F1.2034883720930232
sg38
F0.45348837209302323
sg39
S'yellow'
p133
sba(icurlovision
Stone
p134
(dp135
g36
F8.668604651162791
sg37
F0.2616279069767442
sg38
F0.45348837209302323
sg39
S'yellow'
p136
sba(icurlovision
Stone
p137
(dp138
g36
F-0.05232558139534883
sg37
F0.6453488372093024
sg38
F0.3488372093023256
sg39
S'red'
p139
sba(icurlovision
Stone
p140
(dp141
g36
F-2.005813953488372
sg37
F0.2616279069767442
sg38
F0.2965116279069767
sg39
S'red'
p142
sba(icurlovision
Stone
p143
(dp144
g36
F-5.075581395348837
sg37
F-2.703488372093023
sg38
F0.38372093023255816
sg39
S'red'
p145
sbasba(icurlovision
StoneLayout
p146
(dp147
g31
F0.4791666666666667
sg32
(lp148
(icurlovision
Stone
p149
(dp150
g36
F-1.7142857142857142
sg37
F-0.7040816326530612
sg38
F0.4744897959183673
sg39
S'yellow'
p151
sba(icurlovision
Stone
p152
(dp153
g36
F-1.163265306122449
sg37
F1.5918367346938775
sg38
F0.4744897959183673
sg39
S'yellow'
p154
sba(icurlovision
Stone
p155
(dp156
g36
F-2.2346938775510203
sg37
F0.4897959183673469
sg38
F0.3520408163265306
sg39
S'red'
p157
sba(icurlovision
Stone
p158
(dp159
g36
F8.63265306122449
sg37
F0.2755102040816326
sg38
F0.36734693877551017
sg39
S'yellow'
p160
sba(icurlovision
Stone
p161
(dp162
g36
F8.63265306122449
sg37
F1.193877551020408
sg38
F0.45918367346938777
sg39
S'yellow'
p163
sba(icurlovision
Stone
p164
(dp165
g36
F-5.142857142857142
sg37
F-2.7244897959183674
sg38
F0.3520408163265306
sg39
S'red'
p166
sba(icurlovision
Stone
p167
(dp168
g36
F0.9795918367346939
sg37
F0.36734693877551017
sg38
F0.3520408163265306
sg39
S'red'
p169
sba(icurlovision
Stone
p170
(dp171
g36
F-0.030612244897959183
sg37
F0.6428571428571428
sg38
F0.3214285714285714
sg39
S'red'
p172
sbasba(icurlovision
StoneLayout
p173
(dp174
g31
F0.4791666666666667
sg32
(lp175
(icurlovision
Stone
p176
(dp177
g36
F-1.2065217391304348
sg37
F1.6304347826086956
sg38
F0.34239130434782605
sg39
S'yellow'
p178
sba(icurlovision
Stone
p179
(dp180
g36
F8.804347826086957
sg37
F0.2934782608695652
sg38
F0.45652173913043476
sg39
S'yellow'
p181
sba(icurlovision
Stone
p182
(dp183
g36
F-5.217391304347826
sg37
F-2.7717391304347827
sg38
F0.47282608695652173
sg39
S'red'
p184
sba(icurlovision
Stone
p185
(dp186
g36
F-1.7608695652173914
sg37
F-0.717391304347826
sg38
F0.47282608695652173
sg39
S'yellow'
p187
sba(icurlovision
Stone
p188
(dp189
g36
F-2.282608695652174
sg37
F0.4891304347826087
sg38
F0.30978260869565216
sg39
S'red'
p190
sba(icurlovision
Stone
p191
(dp192
g36
F1.0108695652173914
sg37
F0.358695652173913
sg38
F0.47282608695652173
sg39
S'red'
p193
sba(icurlovision
Stone
p194
(dp195
g36
F8.83695652173913
sg37
F1.2391304347826086
sg38
F0.2934782608695652
sg39
S'yellow'
p196
sba(icurlovision
Stone
p197
(dp198
g36
F2.4782608695652173
sg37
F-0.32608695652173914
sg38
F0.47282608695652173
sg39
S'yellow'
p199
sba(icurlovision
Stone
p200
(dp201
g36
F-5.380434782608695
sg37
F0.3913043478260869
sg38
F0.32608695652173914
sg39
S'yellow'
p202
sbasba(icurlovision
StoneLayout
p203
(dp204
g31
F0.4791666666666667
sg32
(lp205
(icurlovision
Stone
p206
(dp207
g36
F-1.5852272727272727
sg37
F1.4829545454545454
sg38
F0.4431818181818181
sg39
S'yellow'
p208
sba(icurlovision
Stone
p209
(dp210
g36
F-1.721590909090909
sg37
F-0.6647727272727272
sg38
F0.32386363636363635
sg39
S'yellow'
p211
sba(icurlovision
Stone
p212
(dp213
g36
F-4.9602272727272725
sg37
F-2.642045454545454
sg38
F0.3409090909090909
sg39
S'red'
p214
sba(icurlovision
Stone
p215
(dp216
g36
F8.267045454545453
sg37
F1.1761363636363635
sg38
F0.2727272727272727
sg39
S'yellow'
p217
sba(icurlovision
Stone
p218
(dp219
g36
F-2.164772727272727
sg37
F0.49431818181818177
sg38
F0.32386363636363635
sg39
S'red'
p220
sba(icurlovision
Stone
p221
(dp222
g36
F2.3011363636363633
sg37
F-0.28977272727272724
sg38
F0.30681818181818177
sg39
S'yellow'
p223
sba(icurlovision
Stone
p224
(dp225
g36
F8.232954545454545
sg37
F0.2556818181818182
sg38
F0.4431818181818181
sg39
S'yellow'
p226
sba(icurlovision
Stone
p227
(dp228
g36
F-0.28977272727272724
sg37
F1.6874999999999998
sg38
F0.4261363636363636
sg39
S'red'
p229
sba(icurlovision
Stone
p230
(dp231
g36
F0.9034090909090908
sg37
F0.32386363636363635
sg38
F0.4431818181818181
sg39
S'red'
p232
sbasba(icurlovision
StoneLayout
p233
(dp234
g31
F0.4791666666666667
sg32
(lp235
(icurlovision
Stone
p236
(dp237
g36
F-1.75
sg37
F-0.71875
sg38
F0.328125
sg39
S'yellow'
p238
sba(icurlovision
Stone
p239
(dp240
g36
F0.6875
sg37
F1.71875
sg38
F0.328125
sg39
S'yellow'
p241
sba(icurlovision
Stone
p242
(dp243
g36
F-1.8125
sg37
F1.59375
sg38
F0.4375
sg39
S'yellow'
p244
sba(icurlovision
Stone
p245
(dp246
g36
F-0.6875
sg37
F1.6875
sg38
F0.34375
sg39
S'red'
p247
sba(icurlovision
Stone
p248
(dp249
g36
F2.40625
sg37
F-0.3125
sg38
F0.328125
sg39
S'yellow'
p250
sba(icurlovision
Stone
p251
(dp252
g36
F-2.21875
sg37
F0.5
sg38
F0.34375
sg39
S'red'
p253
sba(icurlovision
Stone
p254
(dp255
g36
F-5.125
sg37
F-2.71875
sg38
F0.34375
sg39
S'red'
p256
sba(icurlovision
Stone
p257
(dp258
g36
F8.59375
sg37
F0.28125
sg38
F0.296875
sg39
S'yellow'
p259
sba(icurlovision
Stone
p260
(dp261
g36
F8.59375
sg37
F1.21875
sg38
F0.453125
sg39
S'yellow'
p262
sba(icurlovision
Stone
p263
(dp264
g36
F0.96875
sg37
F0.40625
sg38
F0.328125
sg39
S'red'
p265
sbasba(icurlovision
StoneLayout
p266
(dp267
g31
F0.4791666666666667
sg32
(lp268
(icurlovision
Stone
p269
(dp270
g36
F0.21428571428571427
sg37
F1.5
sg38
F0.336734693877551
sg39
S'yellow'
p271
sba(icurlovision
Stone
p272
(dp273
g36
F-1.7755102040816326
sg37
F1.530612244897959
sg38
F0.45918367346938777
sg39
S'yellow'
p274
sba(icurlovision
Stone
p275
(dp276
g36
F1.4081632653061225
sg37
F2.173469387755102
sg38
F0.44387755102040816
sg39
S'red'
p277
sba(icurlovision
Stone
p278
(dp279
g36
F-1.7142857142857142
sg37
F-0.7040816326530612
sg38
F0.45918367346938777
sg39
S'yellow'
p280
sba(icurlovision
Stone
p281
(dp282
g36
F8.418367346938775
sg37
F1.193877551020408
sg38
F0.42857142857142855
sg39
S'yellow'
p283
sba(icurlovision
Stone
p284
(dp285
g36
F-5.020408163265306
sg37
F-2.6632653061224487
sg38
F0.45918367346938777
sg39
S'red'
p286
sba(icurlovision
Stone
p287
(dp288
g36
F8.448979591836734
sg37
F0.2755102040816326
sg38
F0.44387755102040816
sg39
S'yellow'
p289
sba(icurlovision
Stone
p290
(dp291
g36
F-0.7346938775510203
sg37
F1.653061224489796
sg38
F0.3520408163265306
sg39
S'red'
p292
sba(icurlovision
Stone
p293
(dp294
g36
F-2.142857142857143
sg37
F0.4897959183673469
sg38
F0.30612244897959184
sg39
S'red'
p295
sba(icurlovision
Stone
p296
(dp297
g36
F0.9489795918367346
sg37
F0.36734693877551017
sg38
F0.3520408163265306
sg39
S'red'
p298
sba(icurlovision
Stone
p299
(dp300
g36
F-0.12244897959183673
sg37
F0.5816326530612245
sg38
F0.336734693877551
sg39
S'red'
p301
sba(icurlovision
Stone
p302
(dp303
g36
F2.326530612244898
sg37
F-0.336734693877551
sg38
F0.45918367346938777
sg39
S'yellow'
p304
sbasba(icurlovision
StoneLayout
p305
(dp306
g31
F0.4791666666666667
sg32
(lp307
(icurlovision
Stone
p308
(dp309
g36
F-2.5
sg37
F-1.6176470588235294
sg38
F0.3382352941176471
sg39
S'yellow'
p310
sba(icurlovision
Stone
p311
(dp312
g36
F-1.8235294117647058
sg37
F1.5588235294117647
sg38
F0.47058823529411764
sg39
S'yellow'
p313
sba(icurlovision
Stone
p314
(dp315
g36
F-2.235294117647059
sg37
F0.47058823529411764
sg38
F0.3382352941176471
sg39
S'red'
p316
sba(icurlovision
Stone
p317
(dp318
g36
F0.23529411764705882
sg37
F1.5294117647058822
sg38
F0.3382352941176471
sg39
S'yellow'
p319
sba(icurlovision
Stone
p320
(dp321
g36
F8.76470588235294
sg37
F1.2058823529411764
sg38
F0.27941176470588236
sg39
S'yellow'
p322
sba(icurlovision
Stone
p323
(dp324
g36
F-5.176470588235294
sg37
F-2.7941176470588234
sg38
F0.45588235294117646
sg39
S'red'
p325
sba(icurlovision
Stone
p326
(dp327
g36
F1.4411764705882353
sg37
F2.264705882352941
sg38
F0.3235294117647059
sg39
S'red'
p328
sba(icurlovision
Stone
p329
(dp330
g36
F-1.7647058823529411
sg37
F-0.7352941176470588
sg38
F0.47058823529411764
sg39
S'yellow'
p331
sba(icurlovision
Stone
p332
(dp333
g36
F-0.7352941176470588
sg37
F1.7058823529411764
sg38
F0.3676470588235294
sg39
S'red'
p334
sba(icurlovision
Stone
p335
(dp336
g36
F8.76470588235294
sg37
F0.29411764705882354
sg38
F0.3382352941176471
sg39
S'yellow'
p337
sba(icurlovision
Stone
p338
(dp339
g36
F2.441176470588235
sg37
F-0.3529411764705882
sg38
F0.3382352941176471
sg39
S'yellow'
p340
sba(icurlovision
Stone
p341
(dp342
g36
F0.9705882352941176
sg37
F0.3235294117647059
sg38
F0.4411764705882353
sg39
S'red'
p343
sbasba(icurlovision
StoneLayout
p344
(dp345
g31
F0.4791666666666667
sg32
(lp346
(icurlovision
Stone
p347
(dp348
g36
F8.640625
sg37
F1.203125
sg38
F0.46875
sg39
S'yellow'
p349
sba(icurlovision
Stone
p350
(dp351
g36
F-2.484375
sg37
F-1.609375
sg38
F0.46875
sg39
S'yellow'
p352
sba(icurlovision
Stone
p353
(dp354
g36
F0.265625
sg37
F1.484375
sg38
F0.453125
sg39
S'yellow'
p355
sba(icurlovision
Stone
p356
(dp357
g36
F-1.703125
sg37
F-0.703125
sg38
F0.3125
sg39
S'yellow'
p358
sba(icurlovision
Stone
p359
(dp360
g36
F-1.828125
sg37
F1.578125
sg38
F0.34375
sg39
S'yellow'
p361
sba(icurlovision
Stone
p362
(dp363
g36
F2.421875
sg37
F-0.359375
sg38
F0.46875
sg39
S'yellow'
p364
sba(icurlovision
Stone
p365
(dp366
g36
F-2.234375
sg37
F0.484375
sg38
F0.46875
sg39
S'red'
p367
sba(icurlovision
Stone
p368
(dp369
g36
F1.453125
sg37
F2.203125
sg38
F0.453125
sg39
S'red'
p370
sba(icurlovision
Stone
p371
(dp372
g36
F8.640625
sg37
F0.234375
sg38
F0.296875
sg39
S'yellow'
p373
sba(icurlovision
Stone
p374
(dp375
g36
F-0.734375
sg37
F1.671875
sg38
F0.46875
sg39
S'red'
p376
sba(icurlovision
Stone
p377
(dp378
g36
F0.203125
sg37
F-1.515625
sg38
F0.34375
sg39
S'red'
p379
sba(icurlovision
Stone
p380
(dp381
g36
F-0.109375
sg37
F0.578125
sg38
F0.34375
sg39
S'red'
p382
sba(icurlovision
Stone
p383
(dp384
g36
F0.984375
sg37
F0.359375
sg38
F0.359375
sg39
S'red'
p385
sbasba(icurlovision
StoneLayout
p386
(dp387
g31
F0.4791666666666667
sg32
(lp388
(icurlovision
Stone
p389
(dp390
g36
F-2.5255102040816326
sg37
F-1.6683673469387754
sg38
F0.336734693877551
sg39
S'yellow'
p391
sba(icurlovision
Stone
p392
(dp393
g36
F0.29081632653061223
sg37
F1.5459183673469388
sg38
F0.336734693877551
sg39
S'yellow'
p394
sba(icurlovision
Stone
p395
(dp396
g36
F-1.8214285714285714
sg37
F1.5765306122448979
sg38
F0.4744897959183673
sg39
S'yellow'
p397
sba(icurlovision
Stone
p398
(dp399
g36
F-3.4132653061224487
sg37
F-0.3826530612244898
sg38
F0.336734693877551
sg39
S'yellow'
p400
sba(icurlovision
Stone
p401
(dp402
g36
F-0.9030612244897959
sg37
F-1.2091836734693877
sg38
F0.336734693877551
sg39
S'red'
p403
sba(icurlovision
Stone
p404
(dp405
g36
F1.5153061224489797
sg37
F2.2806122448979593
sg38
F0.4744897959183673
sg39
S'red'
p406
sba(icurlovision
Stone
p407
(dp408
g36
F0.9948979591836734
sg37
F-2.1581632653061225
sg38
F0.336734693877551
sg39
S'yellow'
p409
sba(icurlovision
Stone
p410
(dp411
g36
F8.923469387755102
sg37
F1.2704081632653061
sg38
F0.4744897959183673
sg39
S'yellow'
p412
sba(icurlovision
Stone
p413
(dp414
g36
F-0.7193877551020408
sg37
F1.7295918367346939
sg38
F0.36734693877551017
sg39
S'red'
p415
sba(icurlovision
Stone
p416
(dp417
g36
F-2.2806122448979593
sg37
F0.5357142857142857
sg38
F0.4897959183673469
sg39
S'red'
p418
sba(icurlovision
Stone
p419
(dp420
g36
F2.4948979591836733
sg37
F-0.3520408163265306
sg38
F0.4744897959183673
sg39
S'yellow'
p421
sba(icurlovision
Stone
p422
(dp423
g36
F8.923469387755102
sg37
F0.3214285714285714
sg38
F0.4897959183673469
sg39
S'yellow'
p424
sba(icurlovision
Stone
p425
(dp426
g36
F1.0255102040816326
sg37
F0.3520408163265306
sg38
F0.4744897959183673
sg39
S'red'
p427
sba(icurlovision
Stone
p428
(dp429
g36
F-5.25
sg37
F-2.8622448979591835
sg38
F0.2755102040816326
sg39
S'red'
p430
sbasbasS'red_score'
p431
I4
sS'red_hammer'
p432
I1
sba(icurlovision
EndResult
p433
(dp434
g2
I2
sg9
(lp435
(I7
I7
tp436
a(I6
I7
tp437
a(I6
I6
tp438
a(I5
I6
tp439
a(I4
I4
tp440
a(I3
I4
tp441
a(I3
I3
tp442
a(I2
I3
tp443
a(I2
I2
tp444
a(I1
I2
tp445
a(I1
I1
tp446
a(I0
I1
tp447
asg26
I2
sg27
(lp448
(icurlovision
StoneLayout
p449
(dp450
g31
F0.4791666666666667
sg32
(lp451
(icurlovision
Stone
p452
(dp453
g36
F14.75625
sg37
F-2.26875
sg38
F0.4125
sg39
S'yellow'
p454
sba(icurlovision
Stone
p455
(dp456
g36
F1.74375
sg37
F0.01875
sg38
F0.4125
sg39
S'red'
p457
sbasba(icurlovision
StoneLayout
p458
(dp459
g31
F0.4791666666666667
sg32
(lp460
(icurlovision
Stone
p461
(dp462
g36
F14.652439024390244
sg37
F-2.469512195121951
sg38
F0.4390243902439024
sg39
S'yellow'
p463
sba(icurlovision
Stone
p464
(dp465
g36
F1.701219512195122
sg37
F-0.018292682926829267
sg38
F0.2926829268292683
sg39
S'red'
p466
sba(icurlovision
Stone
p467
(dp468
g36
F5.9451219512195115
sg37
F-0.49390243902439024
sg38
F0.42073170731707316
sg39
S'red'
p469
sbasba(icurlovision
StoneLayout
p470
(dp471
g31
F0.4791666666666667
sg32
(lp472
(icurlovision
Stone
p473
(dp474
g36
F14.307692307692308
sg37
F-2.6923076923076925
sg38
F0.40384615384615385
sg39
S'yellow'
p475
sba(icurlovision
Stone
p476
(dp477
g36
F14.846153846153847
sg37
F-1.6923076923076925
sg38
F0.40384615384615385
sg39
S'yellow'
p478
sba(icurlovision
Stone
p479
(dp480
g36
F1.653846153846154
sg37
F0.0
sg38
F0.34615384615384615
sg39
S'red'
p481
sba(icurlovision
Stone
p482
(dp483
g36
F5.846153846153847
sg37
F-0.5384615384615385
sg38
F0.3076923076923077
sg39
S'red'
p484
sbasba(icurlovision
StoneLayout
p485
(dp486
g31
F0.4791666666666667
sg32
(lp487
(icurlovision
Stone
p488
(dp489
g36
F1.6704545454545454
sg37
F0.03409090909090909
sg38
F0.32386363636363635
sg39
S'red'
p490
sbasba(icurlovision
StoneLayout
p491
(dp492
g31
F0.4791666666666667
sg32
(lp493
(icurlovision
Stone
p494
(dp495
g36
F1.6527777777777777
sg37
F0.013888888888888888
sg38
F0.3055555555555555
sg39
S'red'
p496
sbasba(icurlovision
StoneLayout
p497
(dp498
g31
F0.4791666666666667
sg32
(lp499
(icurlovision
Stone
p500
(dp501
g36
F0.4264705882352941
sg37
F5.5
sg38
F0.3529411764705882
sg39
S'red'
p502
sba(icurlovision
Stone
p503
(dp504
g36
F1.6617647058823528
sg37
F0.029411764705882353
sg38
F0.3676470588235294
sg39
S'red'
p505
sbasba(icurlovision
StoneLayout
p506
(dp507
g31
F0.4791666666666667
sg32
(lp508
(icurlovision
Stone
p509
(dp510
g36
F2.601063829787234
sg37
F0.2074468085106383
sg38
F0.33510638297872336
sg39
S'yellow'
p511
sba(icurlovision
Stone
p512
(dp513
g36
F0.4627659574468085
sg37
F5.441489361702128
sg38
F0.3031914893617021
sg39
S'red'
p514
sba(icurlovision
Stone
p515
(dp516
g36
F1.547872340425532
sg37
F-0.015957446808510637
sg38
F0.4627659574468085
sg39
S'red'
p517
sba(icurlovision
Stone
p518
(dp519
g36
F8.952127659574467
sg37
F-6.2712765957446805
sg38
F0.3031914893617021
sg39
S'yellow'
p520
sbasba(icurlovision
StoneLayout
p521
(dp522
g31
F0.4791666666666667
sg32
(lp523
(icurlovision
Stone
p524
(dp525
g36
F0.75
sg37
F4.56
sg38
F0.315
sg39
S'yellow'
p526
sbasba(icurlovision
StoneLayout
p527
(dp528
g31
F0.4791666666666667
sg32
(lp529
(icurlovision
Stone
p530
(dp531
g36
F0.765625
sg37
F4.640625
sg38
F0.328125
sg39
S'yellow'
p532
sba(icurlovision
Stone
p533
(dp534
g36
F1.515625
sg37
F-4.265625
sg38
F0.46875
sg39
S'yellow'
p535
sbasba(icurlovision
StoneLayout
p536
(dp537
g31
F0.4791666666666667
sg32
(lp538
(icurlovision
Stone
p539
(dp540
g36
F0.75
sg37
F4.563559322033899
sg38
F0.3305084745762712
sg39
S'yellow'
p541
sba(icurlovision
Stone
p542
(dp543
g36
F2.2245762711864407
sg37
F-3.6228813559322037
sg38
F0.35593220338983056
sg39
S'red'
p544
sba(icurlovision
Stone
p545
(dp546
g36
F-6.3940677966101696
sg37
F-5.65677966101695
sg38
F0.3432203389830509
sg39
S'yellow'
p547
sbasba(icurlovision
StoneLayout
p548
(dp549
g31
F0.4791666666666667
sg32
(lp550
(icurlovision
Stone
p551
(dp552
g36
F0.7216981132075472
sg37
F4.627358490566038
sg38
F0.32547169811320753
sg39
S'yellow'
p553
sba(icurlovision
Stone
p554
(dp555
g36
F3.2122641509433962
sg37
F-3.5235849056603774
sg38
F0.32547169811320753
sg39
S'yellow'
p556
sbasba(icurlovision
StoneLayout
p557
(dp558
g31
F0.4791666666666667
sg32
(lp559
(icurlovision
Stone
p560
(dp561
g36
F0.75
sg37
F4.635
sg38
F0.3
sg39
S'yellow'
p562
sba(icurlovision
Stone
p563
(dp564
g36
F4.05
sg37
F-3.5549999999999997
sg38
F0.36
sg39
S'red'
p565
sbasbasg431
I4
sg432
I0
sba(icurlovision
EndResult
p566
(dp567
g2
I2
sg9
(lp568
(I8
I7
tp569
a(I7
I7
tp570
a(I7
I6
tp571
a(I6
I6
tp572
a(I6
I5
tp573
a(I5
I5
tp574
a(I5
I4
tp575
a(I4
I4
tp576
a(I4
I3
tp577
a(I3
I2
tp578
a(I2
I2
tp579
a(I2
I1
tp580
a(I1
I1
tp581
a(I1
I0
tp582
asg26
I3
sg27
(lp583
(icurlovision
StoneLayout
p584
(dp585
g31
F0.4791666666666667
sg32
(lp586
(icurlovision
Stone
p587
(dp588
g36
F10.8
sg37
F-0.43333333333333335
sg38
F0.43333333333333335
sg39
S'yellow'
p589
sbasba(icurlovision
StoneLayout
p590
(dp591
g31
F0.4791666666666667
sg32
(lp592
(icurlovision
Stone
p593
(dp594
g36
F10.813953488372093
sg37
F-0.41860465116279066
sg38
F0.3313953488372093
sg39
S'yellow'
p595
sba(icurlovision
Stone
p596
(dp597
g36
F0.2441860465116279
sg37
F-0.13953488372093023
sg38
F0.45348837209302323
sg39
S'red'
p598
sbasba(icurlovision
StoneLayout
p599
(dp600
g31
F0.4791666666666667
sg32
(lp601
(icurlovision
Stone
p602
(dp603
g36
F10.866666666666667
sg37
F-0.36666666666666664
sg38
F0.31666666666666665
sg39
S'yellow'
p604
sba(icurlovision
Stone
p605
(dp606
g36
F0.06666666666666667
sg37
F-0.13333333333333333
sg38
F0.45
sg39
S'red'
p607
sba(icurlovision
Stone
p608
(dp609
g36
F1.1
sg37
F0.2
sg38
F0.35
sg39
S'yellow'
p610
sbasba(icurlovision
StoneLayout
p611
(dp612
g31
F0.4791666666666667
sg32
(lp613
(icurlovision
Stone
p614
(dp615
g36
F0.9619565217391304
sg37
F0.11413043478260869
sg38
F0.44021739130434784
sg39
S'yellow'
p616
sba(icurlovision
Stone
p617
(dp618
g36
F10.744565217391305
sg37
F-0.4076086956521739
sg38
F0.32608695652173914
sg39
S'yellow'
p619
sba(icurlovision
Stone
p620
(dp621
g36
F1.9076086956521738
sg37
F0.5706521739130435
sg38
F0.45652173913043476
sg39
S'red'
p622
sba(icurlovision
Stone
p623
(dp624
g36
F0.08152173913043478
sg37
F-0.11413043478260869
sg38
F0.34239130434782605
sg39
S'red'
p625
sbasba(icurlovision
StoneLayout
p626
(dp627
g31
F0.4791666666666667
sg32
(lp628
(icurlovision
Stone
p629
(dp630
g36
F1.9468085106382977
sg37
F0.6063829787234042
sg38
F0.4627659574468085
sg39
S'red'
p631
sba(icurlovision
Stone
p632
(dp633
g36
F0.9893617021276595
sg37
F0.1276595744680851
sg38
F0.4627659574468085
sg39
S'yellow'
p634
sba(icurlovision
Stone
p635
(dp636
g36
F0.09574468085106383
sg37
F-0.1276595744680851
sg38
F0.33510638297872336
sg39
S'red'
p637
sbasba(icurlovision
StoneLayout
p638
(dp639
g31
F0.4791666666666667
sg32
(lp640
(icurlovision
Stone
p641
(dp642
g36
F0.9951923076923077
sg37
F0.12980769230769232
sg38
F0.34615384615384615
sg39
S'yellow'
p643
sba(icurlovision
Stone
p644
(dp645
g36
F1.9759615384615385
sg37
F0.6201923076923077
sg38
F0.3605769230769231
sg39
S'red'
p646
sba(icurlovision
Stone
p647
(dp648
g36
F0.10096153846153846
sg37
F-0.12980769230769232
sg38
F0.3605769230769231
sg39
S'red'
p649
sba(icurlovision
Stone
p650
(dp651
g36
F0.6778846153846154
sg37
F-1.514423076923077
sg38
F0.4759615384615385
sg39
S'red'
p652
sbasba(icurlovision
StoneLayout
p653
(dp654
g31
F0.4791666666666667
sg32
(lp655
(icurlovision
Stone
p656
(dp657
g36
F1.95
sg37
F0.63
sg38
F0.285
sg39
S'red'
p658
sba(icurlovision
Stone
p659
(dp660
g36
F0.96
sg37
F0.12
sg38
F0.44999999999999996
sg39
S'yellow'
p661
sba(icurlovision
Stone
p662
(dp663
g36
F3.57
sg37
F-0.21
sg38
F0.44999999999999996
sg39
S'yellow'
p664
sba(icurlovision
Stone
p665
(dp666
g36
F0.69
sg37
F-1.5
sg38
F0.315
sg39
S'red'
p667
sbasba(icurlovision
StoneLayout
p668
(dp669
g31
F0.4791666666666667
sg32
(lp670
(icurlovision
Stone
p671
(dp672
g36
F-0.9051724137931034
sg37
F4.577586206896552
sg38
F0.3232758620689655
sg39
S'yellow'
p673
sba(icurlovision
Stone
p674
(dp675
g36
F3.310344827586207
sg37
F-5.043103448275862
sg38
F0.4396551724137931
sg39
S'yellow'
p676
sba(icurlovision
Stone
p677
(dp678
g36
F1.8103448275862069
sg37
F0.9310344827586207
sg38
F0.34913793103448276
sg39
S'red'
p679
sba(icurlovision
Stone
p680
(dp681
g36
F4.267241379310345
sg37
F0.3620689655172414
sg38
F0.3620689655172414
sg39
S'red'
p682
sbasba(icurlovision
StoneLayout
p683
(dp684
g31
F0.4791666666666667
sg32
(lp685
(icurlovision
Stone
p686
(dp687
g36
F3.296875
sg37
F-5.078125
sg38
F0.328125
sg39
S'yellow'
p688
sba(icurlovision
Stone
p689
(dp690
g36
F-0.921875
sg37
F4.640625
sg38
F0.3125
sg39
S'yellow'
p691
sba(icurlovision
Stone
p692
(dp693
g36
F1.828125
sg37
F0.921875
sg38
F0.359375
sg39
S'red'
p694
sba(icurlovision
Stone
p695
(dp696
g36
F3.203125
sg37
F4.078125
sg38
F0.3125
sg39
S'yellow'
p697
sbasba(icurlovision
StoneLayout
p698
(dp699
g31
F0.4791666666666667
sg32
(lp700
(icurlovision
Stone
p701
(dp702
g36
F3.225
sg37
F-4.95
sg38
F0.3
sg39
S'yellow'
p703
sba(icurlovision
Stone
p704
(dp705
g36
F2.475
sg37
F0.36
sg38
F0.44999999999999996
sg39
S'yellow'
p706
sba(icurlovision
Stone
p707
(dp708
g36
F3.135
sg37
F3.9299999999999997
sg38
F0.315
sg39
S'yellow'
p709
sba(icurlovision
Stone
p710
(dp711
g36
F-0.885
sg37
F4.5
sg38
F0.44999999999999996
sg39
S'yellow'
p712
sba(icurlovision
Stone
p713
(dp714
g36
F3.375
sg37
F-3.33
sg38
F0.36
sg39
S'red'
p715
sba(icurlovision
Stone
p716
(dp717
g36
F-2.715
sg37
F1.3199999999999998
sg38
F0.345
sg39
S'yellow'
p718
sbasba(icurlovision
StoneLayout
p719
(dp720
g31
F0.4791666666666667
sg32
(lp721
(icurlovision
Stone
p722
(dp723
g36
F3.3125
sg37
F-4.984375
sg38
F0.4375
sg39
S'yellow'
p724
sba(icurlovision
Stone
p725
(dp726
g36
F-0.9375
sg37
F4.578125
sg38
F0.34375
sg39
S'yellow'
p727
sba(icurlovision
Stone
p728
(dp729
g36
F3.15625
sg37
F4.015625
sg38
F0.359375
sg39
S'yellow'
p730
sba(icurlovision
Stone
p731
(dp732
g36
F3.4375
sg37
F-3.296875
sg38
F0.34375
sg39
S'red'
p733
sba(icurlovision
Stone
p734
(dp735
g36
F2.75
sg37
F1.765625
sg38
F0.34375
sg39
S'red'
p736
sbasba(icurlovision
StoneLayout
p737
(dp738
g31
F0.4791666666666667
sg32
(lp739
(icurlovision
Stone
p740
(dp741
g36
F2.964285714285714
sg37
F0.03571428571428571
sg38
F0.33928571428571425
sg39
S'yellow'
p742
sba(icurlovision
Stone
p743
(dp744
g36
F-0.8928571428571428
sg37
F4.678571428571428
sg38
F0.4464285714285714
sg39
S'yellow'
p745
sba(icurlovision
Stone
p746
(dp747
g36
F3.3571428571428568
sg37
F-5.107142857142857
sg38
F0.33928571428571425
sg39
S'yellow'
p748
sba(icurlovision
Stone
p749
(dp750
g36
F3.214285714285714
sg37
F4.071428571428571
sg38
F0.3571428571428571
sg39
S'yellow'
p751
sba(icurlovision
Stone
p752
(dp753
g36
F3.5
sg37
F-3.4285714285714284
sg38
F0.3571428571428571
sg39
S'red'
p754
sbasba(icurlovision
StoneLayout
p755
(dp756
g31
F0.4791666666666667
sg32
(lp757
(icurlovision
Stone
p758
(dp759
g36
F3.2295918367346936
sg37
F-4.928571428571429
sg38
F0.29081632653061223
sg39
S'yellow'
p760
sba(icurlovision
Stone
p761
(dp762
g36
F-0.8724489795918368
sg37
F4.530612244897959
sg38
F0.336734693877551
sg39
S'yellow'
p763
sba(icurlovision
Stone
p764
(dp765
g36
F3.1683673469387754
sg37
F3.9795918367346936
sg38
F0.3214285714285714
sg39
S'yellow'
p766
sba(icurlovision
Stone
p767
(dp768
g36
F3.38265306122449
sg37
F-3.306122448979592
sg38
F0.45918367346938777
sg39
S'red'
p769
sbasba(icurlovision
StoneLayout
p770
(dp771
g31
F0.4791666666666667
sg32
(lp772
(icurlovision
Stone
p773
(dp774
g36
F2.9870689655172415
sg37
F-0.6594827586206896
sg38
F0.3232758620689655
sg39
S'yellow'
p775
sba(icurlovision
Stone
p776
(dp777
g36
F-0.9439655172413793
sg37
F4.564655172413793
sg38
F0.3232758620689655
sg39
S'yellow'
p778
sba(icurlovision
Stone
p779
(dp780
g36
F3.3491379310344827
sg37
F-5.004310344827586
sg38
F0.33620689655172414
sg39
S'yellow'
p781
sba(icurlovision
Stone
p782
(dp783
g36
F3.1422413793103448
sg37
F4.047413793103448
sg38
F0.3620689655172414
sg39
S'yellow'
p784
sbasbasg431
I5
sg432
I1
sba(icurlovision
EndResult
p785
(dp786
g2
I4
sg9
(lp787
(I7
I8
tp788
a(I7
I7
tp789
a(I6
I6
tp790
a(I5
I6
tp791
a(I4
I5
tp792
a(I4
I4
tp793
a(I3
I4
tp794
a(I3
I3
tp795
a(I2
I3
tp796
a(I2
I2
tp797
a(I1
I2
tp798
a(I1
I1
tp799
a(I0
I1
tp800
asg26
I4
sg27
(lp801
(icurlovision
StoneLayout
p802
(dp803
g31
F0.4791666666666667
sg32
(lp804
(icurlovision
Stone
p805
(dp806
g36
F1.716346153846154
sg37
F-0.014423076923076924
sg38
F0.4759615384615385
sg39
S'red'
p807
sbasba(icurlovision
StoneLayout
p808
(dp809
g31
F0.4791666666666667
sg32
(lp810
(icurlovision
Stone
p811
(dp812
g36
F10.892857142857142
sg37
F-2.7857142857142856
sg38
F0.42857142857142855
sg39
S'yellow'
p813
sba(icurlovision
Stone
p814
(dp815
g36
F1.6428571428571428
sg37
F0.0
sg38
F0.25
sg39
S'red'
p816
sbasba(icurlovision
StoneLayout
p817
(dp818
g31
F0.4791666666666667
sg32
(lp819
(icurlovision
Stone
p820
(dp821
g36
F2.3048780487804876
sg37
F-0.7682926829268292
sg38
F0.3292682926829268
sg39
S'yellow'
p822
sba(icurlovision
Stone
p823
(dp824
g36
F8.890243902439025
sg37
F-1.0609756097560974
sg38
F0.2926829268292683
sg39
S'red'
p825
sba(icurlovision
Stone
p826
(dp827
g36
F11.304878048780488
sg37
F-2.926829268292683
sg38
F0.4390243902439024
sg39
S'yellow'
p828
sba(icurlovision
Stone
p829
(dp830
g36
F-6.439024390243902
sg37
F1.5
sg38
F0.274390243902439
sg39
S'red'
p831
sbasba(icurlovision
StoneLayout
p832
(dp833
g31
F0.4791666666666667
sg32
(lp834
(icurlovision
Stone
p835
(dp836
g36
F11.25
sg37
F-2.966666666666667
sg38
F0.45
sg39
S'yellow'
p837
sba(icurlovision
Stone
p838
(dp839
g36
F6.75
sg37
F4.233333333333333
sg38
F0.45
sg39
S'red'
p840
sba(icurlovision
Stone
p841
(dp842
g36
F2.3166666666666664
sg37
F-0.7666666666666666
sg38
F0.3333333333333333
sg39
S'yellow'
p843
sbasba(icurlovision
StoneLayout
p844
(dp845
g31
F0.4791666666666667
sg32
(lp846
(icurlovision
Stone
p847
(dp848
g36
F-2.808139534883721
sg37
F0.5755813953488372
sg38
F0.313953488372093
sg39
S'red'
p849
sba(icurlovision
Stone
p850
(dp851
g36
F11.075581395348838
sg37
F-2.808139534883721
sg38
F0.436046511627907
sg39
S'yellow'
p852
sba(icurlovision
Stone
p853
(dp854
g36
F6.470930232558139
sg37
F4.238372093023256
sg38
F0.436046511627907
sg39
S'red'
p855
sbasba(icurlovision
StoneLayout
p856
(dp857
g31
F0.4791666666666667
sg32
(lp858
(icurlovision
Stone
p859
(dp860
g36
F-2.82
sg37
F0.57
sg38
F0.44999999999999996
sg39
S'red'
p861
sba(icurlovision
Stone
p862
(dp863
g36
F6.39
sg37
F4.14
sg38
F0.435
sg39
S'red'
p864
sba(icurlovision
Stone
p865
(dp866
g36
F10.92
sg37
F-2.85
sg38
F0.345
sg39
S'yellow'
p867
sba(icurlovision
Stone
p868
(dp869
g36
F2.2199999999999998
sg37
F-2.52
sg38
F0.44999999999999996
sg39
S'yellow'
p870
sbasba(icurlovision
StoneLayout
p871
(dp872
g31
F0.4791666666666667
sg32
(lp873
(icurlovision
Stone
p874
(dp875
g36
F-2.9042553191489358
sg37
F0.6063829787234042
sg38
F0.351063829787234
sg39
S'red'
p876
sba(icurlovision
Stone
p877
(dp878
g36
F11.393617021276595
sg37
F-2.7765957446808507
sg38
F0.44680851063829785
sg39
S'yellow'
p879
sba(icurlovision
Stone
p880
(dp881
g36
F6.606382978723404
sg37
F4.404255319148936
sg38
F0.4627659574468085
sg39
S'red'
p882
sba(icurlovision
Stone
p883
(dp884
g36
F1.0851063829787233
sg37
F0.7659574468085106
sg38
F0.33510638297872336
sg39
S'red'
p885
sbasba(icurlovision
StoneLayout
p886
(dp887
g31
F0.4791666666666667
sg32
(lp888
(icurlovision
Stone
p889
(dp890
g36
F-2.890625
sg37
F0.59375
sg38
F0.46875
sg39
S'red'
p891
sba(icurlovision
Stone
p892
(dp893
g36
F1.984375
sg37
F0.5
sg38
F0.34375
sg39
S'yellow'
p894
sba(icurlovision
Stone
p895
(dp896
g36
F11.359375
sg37
F-2.96875
sg38
F0.4375
sg39
S'yellow'
p897
sba(icurlovision
Stone
p898
(dp899
g36
F6.671875
sg37
F4.25
sg38
F0.453125
sg39
S'red'
p900
sba(icurlovision
Stone
p901
(dp902
g36
F0.859375
sg37
F0.71875
sg38
F0.34375
sg39
S'red'
p903
sbasba(icurlovision
StoneLayout
p904
(dp905
g31
F0.4791666666666667
sg32
(lp906
(icurlovision
Stone
p907
(dp908
g36
F6.833333333333333
sg37
F0.9333333333333333
sg38
F0.45
sg39
S'red'
p909
sba(icurlovision
Stone
p910
(dp911
g36
F-2.8666666666666667
sg37
F0.5666666666666667
sg38
F0.3
sg39
S'red'
p912
sba(icurlovision
Stone
p913
(dp914
g36
F1.9666666666666666
sg37
F0.5
sg38
F0.3333333333333333
sg39
S'yellow'
p915
sba(icurlovision
Stone
p916
(dp917
g36
F6.666666666666667
sg37
F4.266666666666667
sg38
F0.35
sg39
S'red'
p918
sba(icurlovision
Stone
p919
(dp920
g36
F11.3
sg37
F-2.966666666666667
sg38
F0.43333333333333335
sg39
S'yellow'
p921
sba(icurlovision
Stone
p922
(dp923
g36
F0.8666666666666667
sg37
F0.7333333333333333
sg38
F0.35
sg39
S'red'
p924
sbasba(icurlovision
StoneLayout
p925
(dp926
g31
F0.4791666666666667
sg32
(lp927
(icurlovision
Stone
p928
(dp929
g36
F-2.8636363636363633
sg37
F0.6136363636363635
sg38
F0.4602272727272727
sg39
S'red'
p930
sba(icurlovision
Stone
p931
(dp932
g36
F11.181818181818182
sg37
F-2.9318181818181817
sg38
F0.4431818181818181
sg39
S'yellow'
p933
sba(icurlovision
Stone
p934
(dp935
g36
F2.5568181818181817
sg37
F-3.204545454545454
sg38
F0.32386363636363635
sg39
S'yellow'
p936
sba(icurlovision
Stone
p937
(dp938
g36
F1.9431818181818181
sg37
F0.5454545454545454
sg38
F0.3579545454545454
sg39
S'yellow'
p939
sba(icurlovision
Stone
p940
(dp941
g36
F6.545454545454545
sg37
F4.227272727272727
sg38
F0.4602272727272727
sg39
S'red'
p942
sba(icurlovision
Stone
p943
(dp944
g36
F3.6818181818181817
sg37
F3.5113636363636362
sg38
F0.2727272727272727
sg39
S'red'
p945
sba(icurlovision
Stone
p946
(dp947
g36
F0.8522727272727272
sg37
F0.7840909090909091
sg38
F0.3409090909090909
sg39
S'red'
p948
sbasba(icurlovision
StoneLayout
p949
(dp950
g31
F0.4791666666666667
sg32
(lp951
(icurlovision
Stone
p952
(dp953
g36
F-3.1973684210526314
sg37
F0.7302631578947368
sg38
F0.4934210526315789
sg39
S'red'
p954
sba(icurlovision
Stone
p955
(dp956
g36
F4.065789473684211
sg37
F4.006578947368421
sg38
F0.375
sg39
S'red'
p957
sba(icurlovision
Stone
p958
(dp959
g36
F12.394736842105262
sg37
F-3.2171052631578947
sg38
F0.513157894736842
sg39
S'yellow'
p960
sba(icurlovision
Stone
p961
(dp962
g36
F7.302631578947368
sg37
F4.796052631578947
sg38
F0.29605263157894735
sg39
S'red'
p963
sba(icurlovision
Stone
p964
(dp965
g36
F2.802631578947368
sg37
F-3.4934210526315788
sg38
F0.4934210526315789
sg39
S'yellow'
p966
sba(icurlovision
Stone
p967
(dp968
g36
F7.4605263157894735
sg37
F0.21710526315789472
sg38
F0.513157894736842
sg39
S'red'
p969
sba(icurlovision
Stone
p970
(dp971
g36
F2.131578947368421
sg37
F0.6513157894736842
sg38
F0.2763157894736842
sg39
S'yellow'
p972
sba(icurlovision
Stone
p973
(dp974
g36
F0.9078947368421052
sg37
F0.888157894736842
sg38
F0.29605263157894735
sg39
S'red'
p975
sbasba(icurlovision
StoneLayout
p976
(dp977
g31
F0.4791666666666667
sg32
(lp978
(icurlovision
Stone
p979
(dp980
g36
F7.6875
sg37
F0.50625
sg38
F0.46875
sg39
S'yellow'
p981
sba(icurlovision
Stone
p982
(dp983
g36
F3.8249999999999997
sg37
F3.65625
sg38
F0.2625
sg39
S'red'
p984
sba(icurlovision
Stone
p985
(dp986
g36
F-3.0
sg37
F0.61875
sg38
F0.46875
sg39
S'red'
p987
sba(icurlovision
Stone
p988
(dp989
g36
F11.6625
sg37
F-3.05625
sg38
F0.35625
sg39
S'yellow'
p990
sba(icurlovision
Stone
p991
(dp992
g36
F1.7999999999999998
sg37
F0.80625
sg38
F0.375
sg39
S'yellow'
p993
sba(icurlovision
Stone
p994
(dp995
g36
F2.625
sg37
F-3.3562499999999997
sg38
F0.33749999999999997
sg39
S'yellow'
p996
sba(icurlovision
Stone
p997
(dp998
g36
F6.7875
sg37
F4.3687499999999995
sg38
F0.3
sg39
S'red'
p999
sbasba(icurlovision
StoneLayout
p1000
(dp1001
g31
F0.4791666666666667
sg32
(lp1002
(icurlovision
Stone
p1003
(dp1004
g36
F-2.846938775510204
sg37
F0.6122448979591837
sg38
F0.45918367346938777
sg39
S'red'
p1005
sba(icurlovision
Stone
p1006
(dp1007
g36
F7.408163265306122
sg37
F0.4897959183673469
sg38
F0.336734693877551
sg39
S'yellow'
p1008
sba(icurlovision
Stone
p1009
(dp1010
g36
F1.7142857142857142
sg37
F0.7959183673469388
sg38
F0.4744897959183673
sg39
S'yellow'
p1011
sba(icurlovision
Stone
p1012
(dp1013
g36
F10.377551020408163
sg37
F-3.36734693877551
sg38
F0.44387755102040816
sg39
S'yellow'
p1014
sba(icurlovision
Stone
p1015
(dp1016
g36
F6.581632653061225
sg37
F4.255102040816326
sg38
F0.44387755102040816
sg39
S'red'
p1017
sba(icurlovision
Stone
p1018
(dp1019
g36
F3.673469387755102
sg37
F3.520408163265306
sg38
F0.44387755102040816
sg39
S'red'
p1020
sba(icurlovision
Stone
p1021
(dp1022
g36
F2.5408163265306123
sg37
F-3.2142857142857144
sg38
F0.3214285714285714
sg39
S'yellow'
p1023
sba(icurlovision
Stone
p1024
(dp1025
g36
F9.061224489795919
sg37
F-0.21428571428571427
sg38
F0.44387755102040816
sg39
S'red'
p1026
sbasbasg431
I5
sg432
I0
sba(icurlovision
EndResult
p1027
(dp1028
g2
I5
sg9
(lp1029
(I8
I7
tp1030
a(I7
I7
tp1031
a(I7
I6
tp1032
a(I6
I6
tp1033
a(I6
I5
tp1034
a(I5
I5
tp1035
a(I5
I4
tp1036
a(I4
I4
tp1037
a(I4
I3
tp1038
a(I3
I3
tp1039
a(I3
I2
tp1040
a(I2
I2
tp1041
a(I2
I1
tp1042
a(I1
I1
tp1043
a(I1
I0
tp1044
asg26
I5
sg27
(lp1045
(icurlovision
StoneLayout
p1046
(dp1047
g31
F0.4791666666666667
sg32
(lp1048
(icurlovision
Stone
p1049
(dp1050
g36
F11.05813953488372
sg37
F0.6976744186046512
sg38
F0.436046511627907
sg39
S'yellow'
p1051
sbasba(icurlovision
StoneLayout
p1052
(dp1053
g31
F0.4791666666666667
sg32
(lp1054
(icurlovision
Stone
p1055
(dp1056
g36
F-4.789772727272727
sg37
F-4.721590909090909
sg38
F0.2727272727272727
sg39
S'yellow'
p1057
sbasba(icurlovision
StoneLayout
p1058
(dp1059
g31
F0.4791666666666667
sg32
(lp1060
(icurlovision
Stone
p1061
(dp1062
g36
F11.02659574468085
sg37
F0.7340425531914893
sg38
F0.44680851063829785
sg39
S'yellow'
p1063
sba(icurlovision
Stone
p1064
(dp1065
g36
F3.8457446808510634
sg37
F1.1170212765957446
sg38
F0.351063829787234
sg39
S'red'
p1066
sba(icurlovision
Stone
p1067
(dp1068
g36
F4.51595744680851
sg37
F0.2553191489361702
sg38
F0.28723404255319146
sg39
S'yellow'
p1069
sba(icurlovision
Stone
p1070
(dp1071
g36
F-4.164893617021276
sg37
F-1.4361702127659572
sg38
F0.28723404255319146
sg39
S'yellow'
p1072
sbasba(icurlovision
StoneLayout
p1073
(dp1074
g31
F0.4791666666666667
sg32
(lp1075
(icurlovision
Stone
p1076
(dp1077
g36
F-3.3662790697674416
sg37
F0.2965116279069767
sg38
F0.47093023255813954
sg39
S'red'
p1078
sba(icurlovision
Stone
p1079
(dp1080
g36
F10.970930232558139
sg37
F0.7151162790697674
sg38
F0.436046511627907
sg39
S'yellow'
p1081
sba(icurlovision
Stone
p1082
(dp1083
g36
F3.8546511627906974
sg37
F1.0988372093023255
sg38
F0.3488372093023256
sg39
S'red'
p1084
sba(icurlovision
Stone
p1085
(dp1086
g36
F4.5523255813953485
sg37
F0.19186046511627908
sg38
F0.313953488372093
sg39
S'yellow'
p1087
sbasba(icurlovision
StoneLayout
p1088
(dp1089
g31
F0.4791666666666667
sg32
(lp1090
(icurlovision
Stone
p1091
(dp1092
g36
F-3.433333333333333
sg37
F0.3
sg38
F0.4666666666666667
sg39
S'red'
p1093
sba(icurlovision
Stone
p1094
(dp1095
g36
F11.066666666666666
sg37
F0.7333333333333333
sg38
F0.3
sg39
S'yellow'
p1096
sba(icurlovision
Stone
p1097
(dp1098
g36
F-1.6
sg37
F-0.16666666666666666
sg38
F0.3333333333333333
sg39
S'yellow'
p1099
sba(icurlovision
Stone
p1100
(dp1101
g36
F3.8333333333333335
sg37
F1.1
sg38
F0.3333333333333333
sg39
S'red'
p1102
sba(icurlovision
Stone
p1103
(dp1104
g36
F4.5
sg37
F0.2
sg38
F0.4666666666666667
sg39
S'yellow'
p1105
sbasba(icurlovision
StoneLayout
p1106
(dp1107
g31
F0.4791666666666667
sg32
(lp1108
(icurlovision
Stone
p1109
(dp1110
g36
F-3.4261363636363633
sg37
F0.28977272727272724
sg38
F0.47727272727272724
sg39
S'red'
p1111
sba(icurlovision
Stone
p1112
(dp1113
g36
F-1.9261363636363635
sg37
F-0.11931818181818181
sg38
F0.3409090909090909
sg39
S'yellow'
p1114
sba(icurlovision
Stone
p1115
(dp1116
g36
F11.130681818181817
sg37
F0.6988636363636364
sg38
F0.4431818181818181
sg39
S'yellow'
p1117
sba(icurlovision
Stone
p1118
(dp1119
g36
F-0.6306818181818181
sg37
F-0.3579545454545454
sg38
F0.3579545454545454
sg39
S'red'
p1120
sba(icurlovision
Stone
p1121
(dp1122
g36
F3.903409090909091
sg37
F1.0738636363636362
sg38
F0.3579545454545454
sg39
S'red'
p1123
sba(icurlovision
Stone
p1124
(dp1125
g36
F4.5852272727272725
sg37
F0.1875
sg38
F0.32386363636363635
sg39
S'yellow'
p1126
sbasba(icurlovision
StoneLayout
p1127
(dp1128
g31
F0.4791666666666667
sg32
(lp1129
(icurlovision
Stone
p1130
(dp1131
g36
F-2.057692307692308
sg37
F-0.17307692307692307
sg38
F0.4807692307692308
sg39
S'yellow'
p1132
sba(icurlovision
Stone
p1133
(dp1134
g36
F11.442307692307693
sg37
F0.7115384615384616
sg38
F0.4807692307692308
sg39
S'yellow'
p1135
sba(icurlovision
Stone
p1136
(dp1137
g36
F-3.5961538461538463
sg37
F0.25
sg38
F0.5
sg39
S'red'
p1138
sba(icurlovision
Stone
p1139
(dp1140
g36
F0.2884615384615385
sg37
F-0.4807692307692308
sg38
F0.34615384615384615
sg39
S'yellow'
p1141
sba(icurlovision
Stone
p1142
(dp1143
g36
F4.711538461538462
sg37
F0.17307692307692307
sg38
F0.34615384615384615
sg39
S'yellow'
p1144
sba(icurlovision
Stone
p1145
(dp1146
g36
F-0.826923076923077
sg37
F-0.3653846153846154
sg38
F0.3269230769230769
sg39
S'red'
p1147
sba(icurlovision
Stone
p1148
(dp1149
g36
F3.980769230769231
sg37
F1.0961538461538463
sg38
F0.44230769230769235
sg39
S'red'
p1150
sba(icurlovision
Stone
p1151
(dp1152
g36
F11.365384615384617
sg37
F-6.903846153846154
sg38
F0.34615384615384615
sg39
S'yellow'
p1153
sbasba(icurlovision
StoneLayout
p1154
(dp1155
g31
F0.4791666666666667
sg32
(lp1156
(icurlovision
Stone
p1157
(dp1158
g36
F-1.8879310344827587
sg37
F-0.10344827586206896
sg38
F0.46551724137931033
sg39
S'yellow'
p1159
sba(icurlovision
Stone
p1160
(dp1161
g36
F-3.336206896551724
sg37
F0.28448275862068967
sg38
F0.46551724137931033
sg39
S'red'
p1162
sba(icurlovision
Stone
p1163
(dp1164
g36
F3.7758620689655173
sg37
F1.0862068965517242
sg38
F0.3620689655172414
sg39
S'red'
p1165
sba(icurlovision
Stone
p1166
(dp1167
g36
F0.28448275862068967
sg37
F-0.41379310344827586
sg38
F0.33620689655172414
sg39
S'yellow'
p1168
sba(icurlovision
Stone
p1169
(dp1170
g36
F-0.6982758620689655
sg37
F-0.28448275862068967
sg38
F0.34913793103448276
sg39
S'red'
p1171
sba(icurlovision
Stone
p1172
(dp1173
g36
F4.448275862068965
sg37
F0.20689655172413793
sg38
F0.34913793103448276
sg39
S'yellow'
p1174
sbasba(icurlovision
StoneLayout
p1175
(dp1176
g31
F0.4791666666666667
sg32
(lp1177
(icurlovision
Stone
p1178
(dp1179
g36
F-1.9615384615384617
sg37
F-0.11538461538461539
sg38
F0.46153846153846156
sg39
S'yellow'
p1180
sba(icurlovision
Stone
p1181
(dp1182
g36
F-3.4615384615384617
sg37
F0.3076923076923077
sg38
F0.3269230769230769
sg39
S'red'
p1183
sba(icurlovision
Stone
p1184
(dp1185
g36
F13.53846153846154
sg37
F0.2692307692307693
sg38
F0.25
sg39
S'yellow'
p1186
sba(icurlovision
Stone
p1187
(dp1188
g36
F0.3076923076923077
sg37
F-0.42307692307692313
sg38
F0.3269230769230769
sg39
S'yellow'
p1189
sba(icurlovision
Stone
p1190
(dp1191
g36
F-0.6923076923076923
sg37
F-0.34615384615384615
sg38
F0.3269230769230769
sg39
S'red'
p1192
sba(icurlovision
Stone
p1193
(dp1194
g36
F3.9230769230769234
sg37
F1.076923076923077
sg38
F0.46153846153846156
sg39
S'red'
p1195
sba(icurlovision
Stone
p1196
(dp1197
g36
F4.615384615384616
sg37
F0.19230769230769232
sg38
F0.34615384615384615
sg39
S'yellow'
p1198
sbasba(icurlovision
StoneLayout
p1199
(dp1200
g31
F0.4791666666666667
sg32
(lp1201
(icurlovision
Stone
p1202
(dp1203
g36
F-3.4573170731707314
sg37
F0.274390243902439
sg38
F0.36585365853658536
sg39
S'red'
p1204
sba(icurlovision
Stone
p1205
(dp1206
g36
F-1.9573170731707317
sg37
F-0.12804878048780488
sg38
F0.3475609756097561
sg39
S'yellow'
p1207
sba(icurlovision
Stone
p1208
(dp1209
g36
F0.31097560975609756
sg37
F-0.42073170731707316
sg38
F0.3475609756097561
sg39
S'yellow'
p1210
sba(icurlovision
Stone
p1211
(dp1212
g36
F13.957317073170731
sg37
F0.31097560975609756
sg38
F0.4390243902439024
sg39
S'red'
p1213
sba(icurlovision
Stone
p1214
(dp1215
g36
F-4.73780487804878
sg37
F6.786585365853658
sg38
F0.25609756097560976
sg39
S'red'
p1216
sba(icurlovision
Stone
p1217
(dp1218
g36
F-0.7134146341463414
sg37
F-0.3475609756097561
sg38
F0.47560975609756095
sg39
S'red'
p1219
sba(icurlovision
Stone
p1220
(dp1221
g36
F4.701219512195122
sg37
F-1.5548780487804876
sg38
F0.3292682926829268
sg39
S'yellow'
p1222
sbasba(icurlovision
StoneLayout
p1223
(dp1224
g31
F0.4791666666666667
sg32
(lp1225
(icurlovision
Stone
p1226
(dp1227
g36
F-1.8937499999999998
sg37
F-0.09375
sg38
F0.33749999999999997
sg39
S'yellow'
p1228
sba(icurlovision
Stone
p1229
(dp1230
g36
F-3.31875
sg37
F0.28125
sg38
F0.44999999999999996
sg39
S'red'
p1231
sba(icurlovision
Stone
p1232
(dp1233
g36
F10.03125
sg37
F-0.80625
sg38
F0.43124999999999997
sg39
S'yellow'
p1234
sba(icurlovision
Stone
p1235
(dp1236
g36
F0.28125
sg37
F-0.39375
sg38
F0.31875
sg39
S'yellow'
p1237
sba(icurlovision
Stone
p1238
(dp1239
g36
F13.63125
sg37
F0.35625
sg38
F0.4125
sg39
S'red'
p1240
sba(icurlovision
Stone
p1241
(dp1242
g36
F-0.65625
sg37
F-0.28125
sg38
F0.31875
sg39
S'red'
p1243
sba(icurlovision
Stone
p1244
(dp1245
g36
F4.59375
sg37
F-1.48125
sg38
F0.31875
sg39
S'yellow'
p1246
sbasba(icurlovision
StoneLayout
p1247
(dp1248
g31
F0.4791666666666667
sg32
(lp1249
(icurlovision
Stone
p1250
(dp1251
g36
F-1.8920454545454544
sg37
F-0.11931818181818181
sg38
F0.4602272727272727
sg39
S'yellow'
p1252
sba(icurlovision
Stone
p1253
(dp1254
g36
F10.039772727272727
sg37
F-0.8352272727272727
sg38
F0.4261363636363636
sg39
S'yellow'
p1255
sba(icurlovision
Stone
p1256
(dp1257
g36
F-3.3238636363636362
sg37
F0.28977272727272724
sg38
F0.4431818181818181
sg39
S'red'
p1258
sba(icurlovision
Stone
p1259
(dp1260
g36
F0.2556818181818182
sg37
F-0.39204545454545453
sg38
F0.30681818181818177
sg39
S'yellow'
p1261
sba(icurlovision
Stone
p1262
(dp1263
g36
F-0.6988636363636364
sg37
F-0.32386363636363635
sg38
F0.32386363636363635
sg39
S'red'
p1264
sba(icurlovision
Stone
p1265
(dp1266
g36
F4.517045454545454
sg37
F-1.4829545454545454
sg38
F0.32386363636363635
sg39
S'yellow'
p1267
sbasba(icurlovision
StoneLayout
p1268
(dp1269
g31
F0.4791666666666667
sg32
(lp1270
(icurlovision
Stone
p1271
(dp1272
g36
F6.766666666666667
sg37
F-0.6333333333333333
sg38
F0.36666666666666664
sg39
S'yellow'
p1273
sba(icurlovision
Stone
p1274
(dp1275
g36
F10.3
sg37
F-0.8666666666666667
sg38
F0.45
sg39
S'yellow'
p1276
sba(icurlovision
Stone
p1277
(dp1278
g36
F-3.4
sg37
F0.26666666666666666
sg38
F0.45
sg39
S'red'
p1279
sba(icurlovision
Stone
p1280
(dp1281
g36
F0.3
sg37
F-0.43333333333333335
sg38
F0.35
sg39
S'yellow'
p1282
sba(icurlovision
Stone
p1283
(dp1284
g36
F4.633333333333333
sg37
F-1.5333333333333332
sg38
F0.3333333333333333
sg39
S'yellow'
p1285
sba(icurlovision
Stone
p1286
(dp1287
g36
F-1.9333333333333333
sg37
F-0.1
sg38
F0.3333333333333333
sg39
S'yellow'
p1288
sba(icurlovision
Stone
p1289
(dp1290
g36
F-0.7
sg37
F-0.36666666666666664
sg38
F0.3333333333333333
sg39
S'red'
p1291
sbasba(icurlovision
StoneLayout
p1292
(dp1293
g31
F0.4791666666666667
sg32
(lp1294
(icurlovision
Stone
p1295
(dp1296
g36
F-3.42
sg37
F0.27
sg38
F0.46499999999999997
sg39
S'red'
p1297
sba(icurlovision
Stone
p1298
(dp1299
g36
F-1.95
sg37
F-0.12
sg38
F0.32999999999999996
sg39
S'yellow'
p1300
sba(icurlovision
Stone
p1301
(dp1302
g36
F6.779999999999999
sg37
F-0.63
sg38
F0.46499999999999997
sg39
S'yellow'
p1303
sba(icurlovision
Stone
p1304
(dp1305
g36
F-0.72
sg37
F-0.3
sg38
F0.32999999999999996
sg39
S'red'
p1306
sba(icurlovision
Stone
p1307
(dp1308
g36
F0.27
sg37
F-0.39
sg38
F0.48
sg39
S'yellow'
p1309
sba(icurlovision
Stone
p1310
(dp1311
g36
F4.6499999999999995
sg37
F-1.53
sg38
F0.345
sg39
S'yellow'
p1312
sbasba(icurlovision
StoneLayout
p1313
(dp1314
g31
F0.4791666666666667
sg32
(lp1315
(icurlovision
Stone
p1316
(dp1317
g36
F7.159090909090908
sg37
F-0.75
sg38
F0.375
sg39
S'yellow'
p1318
sba(icurlovision
Stone
p1319
(dp1320
g36
F-2.0795454545454546
sg37
F-0.20454545454545453
sg38
F0.47727272727272724
sg39
S'yellow'
p1321
sba(icurlovision
Stone
p1322
(dp1323
g36
F0.2727272727272727
sg37
F-0.5113636363636364
sg38
F0.3579545454545454
sg39
S'yellow'
p1324
sba(icurlovision
Stone
p1325
(dp1326
g36
F6.681818181818182
sg37
F0.3409090909090909
sg38
F0.375
sg39
S'yellow'
p1327
sba(icurlovision
Stone
p1328
(dp1329
g36
F-3.6477272727272725
sg37
F0.2727272727272727
sg38
F0.5113636363636364
sg39
S'red'
p1330
sba(icurlovision
Stone
p1331
(dp1332
g36
F4.875
sg37
F-1.7045454545454544
sg38
F0.32386363636363635
sg39
S'yellow'
p1333
sba(icurlovision
Stone
p1334
(dp1335
g36
F-0.7840909090909091
sg37
F-0.40909090909090906
sg38
F0.3409090909090909
sg39
S'red'
p1336
sbasbasg431
I5
sg432
I1
sba(icurlovision
EndResult
p1337
(dp1338
g2
I6
sg9
(lp1339
(I8
I7
tp1340
a(I7
I6
tp1341
a(I6
I6
tp1342
a(I6
I5
tp1343
a(I5
I5
tp1344
a(I5
I4
tp1345
a(I4
I4
tp1346
a(I4
I3
tp1347
a(I3
I3
tp1348
a(I3
I2
tp1349
a(I2
I2
tp1350
a(I2
I1
tp1351
a(I1
I1
tp1352
a(I1
I0
tp1353
asg26
I6
sg27
(lp1354
(icurlovision
StoneLayout
p1355
(dp1356
g31
F0.4791666666666667
sg32
(lp1357
(icurlovision
Stone
p1358
(dp1359
g36
F9.813829787234042
sg37
F0.175531914893617
sg38
F0.351063829787234
sg39
S'yellow'
p1360
sba(icurlovision
Stone
p1361
(dp1362
g36
F-4.898936170212766
sg37
F-5.6010638297872335
sg38
F0.4627659574468085
sg39
S'yellow'
p1363
sbasba(icurlovision
StoneLayout
p1364
(dp1365
g31
F0.4791666666666667
sg32
(lp1366
(icurlovision
Stone
p1367
(dp1368
g36
F2.559782608695652
sg37
F0.44021739130434784
sg38
F0.44021739130434784
sg39
S'yellow'
p1369
sba(icurlovision
Stone
p1370
(dp1371
g36
F9.53804347826087
sg37
F0.1793478260869565
sg38
F0.32608695652173914
sg39
S'yellow'
p1372
sba(icurlovision
Stone
p1373
(dp1374
g36
F0.5380434782608695
sg37
F0.375
sg38
F0.32608695652173914
sg39
S'red'
p1375
sba(icurlovision
Stone
p1376
(dp1377
g36
F8.78804347826087
sg37
F3.5054347826086953
sg38
F0.375
sg39
S'red'
p1378
sbasba(icurlovision
StoneLayout
p1379
(dp1380
g31
F0.4791666666666667
sg32
(lp1381
(icurlovision
Stone
p1382
(dp1383
g36
F2.451923076923077
sg37
F0.4903846153846154
sg38
F0.4326923076923077
sg39
S'yellow'
p1384
sba(icurlovision
Stone
p1385
(dp1386
g36
F9.375
sg37
F0.17307692307692307
sg38
F0.4326923076923077
sg39
S'yellow'
p1387
sba(icurlovision
Stone
p1388
(dp1389
g36
F1.6730769230769231
sg37
F-0.4326923076923077
sg38
F0.44711538461538464
sg39
S'red'
p1390
sba(icurlovision
Stone
p1391
(dp1392
g36
F0.4903846153846154
sg37
F0.375
sg38
F0.4326923076923077
sg39
S'red'
p1393
sbasba(icurlovision
StoneLayout
p1394
(dp1395
g31
F0.4791666666666667
sg32
(lp1396
(icurlovision
Stone
p1397
(dp1398
g36
F-5.281914893617021
sg37
F5.425531914893616
sg38
F0.4787234042553191
sg39
S'red'
p1399
sba(icurlovision
Stone
p1400
(dp1401
g36
F2.5691489361702127
sg37
F0.4787234042553191
sg38
F0.4627659574468085
sg39
S'yellow'
p1402
sba(icurlovision
Stone
p1403
(dp1404
g36
F2.632978723404255
sg37
F-0.6382978723404255
sg38
F0.4627659574468085
sg39
S'yellow'
p1405
sba(icurlovision
Stone
p1406
(dp1407
g36
F9.718085106382977
sg37
F0.15957446808510636
sg38
F0.28723404255319146
sg39
S'yellow'
p1408
sba(icurlovision
Stone
p1409
(dp1410
g36
F-2.824468085106383
sg37
F-2.457446808510638
sg38
F0.28723404255319146
sg39
S'red'
p1411
sbasba(icurlovision
StoneLayout
p1412
(dp1413
g31
F0.4791666666666667
sg32
(lp1414
(icurlovision
Stone
p1415
(dp1416
g36
F-5.383333333333333
sg37
F5.433333333333334
sg38
F0.48333333333333334
sg39
S'red'
p1417
sba(icurlovision
Stone
p1418
(dp1419
g36
F-3.15
sg37
F-1.2666666666666666
sg38
F0.45
sg39
S'yellow'
p1420
sba(icurlovision
Stone
p1421
(dp1422
g36
F2.55
sg37
F0.6
sg38
F0.3333333333333333
sg39
S'yellow'
p1423
sba(icurlovision
Stone
p1424
(dp1425
g36
F3.4833333333333334
sg37
F0.16666666666666666
sg38
F0.35
sg39
S'red'
p1426
sba(icurlovision
Stone
p1427
(dp1428
g36
F9.783333333333333
sg37
F0.3
sg38
F0.4666666666666667
sg39
S'yellow'
p1429
sba(icurlovision
Stone
p1430
(dp1431
g36
F-3.25
sg37
F-3.0666666666666664
sg38
F0.3333333333333333
sg39
S'red'
p1432
sbasba(icurlovision
StoneLayout
p1433
(dp1434
g31
F0.4791666666666667
sg32
(lp1435
(icurlovision
Stone
p1436
(dp1437
g36
F9.5
sg37
F0.1875
sg38
F0.34375
sg39
S'yellow'
p1438
sba(icurlovision
Stone
p1439
(dp1440
g36
F-3.09375
sg37
F-1.21875
sg38
F0.4375
sg39
S'yellow'
p1441
sba(icurlovision
Stone
p1442
(dp1443
g36
F-3.21875
sg37
F-0.125
sg38
F0.296875
sg39
S'yellow'
p1444
sba(icurlovision
Stone
p1445
(dp1446
g36
F-5.1875
sg37
F5.28125
sg38
F0.46875
sg39
S'red'
p1447
sba(icurlovision
Stone
p1448
(dp1449
g36
F-3.1875
sg37
F-2.90625
sg38
F0.328125
sg39
S'red'
p1450
sba(icurlovision
Stone
p1451
(dp1452
g36
F3.3125
sg37
F0.09375
sg38
F0.328125
sg39
S'red'
p1453
sba(icurlovision
Stone
p1454
(dp1455
g36
F2.4375
sg37
F0.5625
sg38
F0.40625
sg39
S'yellow'
p1456
sbasba(icurlovision
StoneLayout
p1457
(dp1458
g31
F0.4791666666666667
sg32
(lp1459
(icurlovision
Stone
p1460
(dp1461
g36
F-5.301136363636363
sg37
F5.403409090909091
sg38
F0.4602272727272727
sg39
S'red'
p1462
sba(icurlovision
Stone
p1463
(dp1464
g36
F-3.289772727272727
sg37
F-0.11931818181818181
sg38
F0.4602272727272727
sg39
S'yellow'
p1465
sba(icurlovision
Stone
p1466
(dp1467
g36
F-3.153409090909091
sg37
F-1.2784090909090908
sg38
F0.4602272727272727
sg39
S'yellow'
p1468
sba(icurlovision
Stone
p1469
(dp1470
g36
F10.448863636363635
sg37
F-0.05113636363636363
sg38
F0.4431818181818181
sg39
S'red'
p1471
sba(icurlovision
Stone
p1472
(dp1473
g36
F-3.3238636363636362
sg37
F-2.9829545454545454
sg38
F0.3409090909090909
sg39
S'red'
p1474
sbasba(icurlovision
StoneLayout
p1475
(dp1476
g31
F0.4791666666666667
sg32
(lp1477
(icurlovision
Stone
p1478
(dp1479
g36
F-5.319767441860465
sg37
F5.3895348837209305
sg38
F0.47093023255813954
sg39
S'red'
p1480
sba(icurlovision
Stone
p1481
(dp1482
g36
F-3.191860465116279
sg37
F-1.2732558139534884
sg38
F0.3313953488372093
sg39
S'yellow'
p1483
sba(icurlovision
Stone
p1484
(dp1485
g36
F-3.296511627906977
sg37
F-0.12209302325581395
sg38
F0.47093023255813954
sg39
S'yellow'
p1486
sba(icurlovision
Stone
p1487
(dp1488
g36
F10.412790697674419
sg37
F0.01744186046511628
sg38
F0.436046511627907
sg39
S'red'
p1489
sba(icurlovision
Stone
p1490
(dp1491
g36
F-3.3313953488372094
sg37
F-3.052325581395349
sg38
F0.3313953488372093
sg39
S'red'
p1492
sba(icurlovision
Stone
p1493
(dp1494
g36
F1.4825581395348837
sg37
F-0.19186046511627908
sg38
F0.3313953488372093
sg39
S'yellow'
p1495
sbasba(icurlovision
StoneLayout
p1496
(dp1497
g31
F0.4791666666666667
sg32
(lp1498
(icurlovision
Stone
p1499
(dp1500
g36
F-3.296511627906977
sg37
F-0.0872093023255814
sg38
F0.3488372093023256
sg39
S'yellow'
p1501
sba(icurlovision
Stone
p1502
(dp1503
g36
F-3.1569767441860463
sg37
F-1.2383720930232558
sg38
F0.45348837209302323
sg39
S'yellow'
p1504
sba(icurlovision
Stone
p1505
(dp1506
g36
F10.761627906976743
sg37
F-1.3430232558139534
sg38
F0.27906976744186046
sg39
S'red'
p1507
sba(icurlovision
Stone
p1508
(dp1509
g36
F-5.319767441860465
sg37
F5.459302325581395
sg38
F0.47093023255813954
sg39
S'red'
p1510
sba(icurlovision
Stone
p1511
(dp1512
g36
F1.5174418604651163
sg37
F-0.12209302325581395
sg38
F0.47093023255813954
sg39
S'yellow'
p1513
sba(icurlovision
Stone
p1514
(dp1515
g36
F-3.3662790697674416
sg37
F-2.9825581395348837
sg38
F0.2965116279069767
sg39
S'red'
p1516
sbasba(icurlovision
StoneLayout
p1517
(dp1518
g31
F0.4791666666666667
sg32
(lp1519
(icurlovision
Stone
p1520
(dp1521
g36
F-5.25
sg37
F5.359756097560975
sg38
F0.45731707317073167
sg39
S'red'
p1522
sba(icurlovision
Stone
p1523
(dp1524
g36
F-3.2378048780487805
sg37
F-0.12804878048780488
sg38
F0.45731707317073167
sg39
S'yellow'
p1525
sba(icurlovision
Stone
p1526
(dp1527
g36
F-3.1280487804878048
sg37
F-1.2621951219512195
sg38
F0.47560975609756095
sg39
S'yellow'
p1528
sba(icurlovision
Stone
p1529
(dp1530
g36
F10.591463414634145
sg37
F-1.3353658536585364
sg38
F0.45731707317073167
sg39
S'red'
p1531
sba(icurlovision
Stone
p1532
(dp1533
g36
F11.908536585365853
sg37
F0.1646341463414634
sg38
F0.4390243902439024
sg39
S'yellow'
p1534
sba(icurlovision
Stone
p1535
(dp1536
g36
F1.5182926829268293
sg37
F-0.1646341463414634
sg38
F0.3475609756097561
sg39
S'yellow'
p1537
sba(icurlovision
Stone
p1538
(dp1539
g36
F-3.2378048780487805
sg37
F-2.9085365853658534
sg38
F0.31097560975609756
sg39
S'red'
p1540
sbasba(icurlovision
StoneLayout
p1541
(dp1542
g31
F0.4791666666666667
sg32
(lp1543
(icurlovision
Stone
p1544
(dp1545
g36
F-3.310975609756097
sg37
F-0.12804878048780488
sg38
F0.3292682926829268
sg39
S'yellow'
p1546
sba(icurlovision
Stone
p1547
(dp1548
g36
F-3.1646341463414633
sg37
F-1.2621951219512195
sg38
F0.47560975609756095
sg39
S'yellow'
p1549
sba(icurlovision
Stone
p1550
(dp1551
g36
F1.5182926829268293
sg37
F-0.1646341463414634
sg38
F0.274390243902439
sg39
S'yellow'
p1552
sba(icurlovision
Stone
p1553
(dp1554
g36
F10.73780487804878
sg37
F-1.371951219512195
sg38
F0.45731707317073167
sg39
S'red'
p1555
sba(icurlovision
Stone
p1556
(dp1557
g36
F-3.310975609756097
sg37
F-3.018292682926829
sg38
F0.3475609756097561
sg39
S'red'
p1558
sbasba(icurlovision
StoneLayout
p1559
(dp1560
g31
F0.4791666666666667
sg32
(lp1561
(icurlovision
Stone
p1562
(dp1563
g36
F-3.2857142857142856
sg37
F-0.10714285714285714
sg38
F0.4821428571428571
sg39
S'yellow'
p1564
sba(icurlovision
Stone
p1565
(dp1566
g36
F6.642857142857142
sg37
F0.46428571428571425
sg38
F0.33928571428571425
sg39
S'yellow'
p1567
sba(icurlovision
Stone
p1568
(dp1569
g36
F-3.1785714285714284
sg37
F-1.2857142857142856
sg38
F0.4821428571428571
sg39
S'yellow'
p1570
sba(icurlovision
Stone
p1571
(dp1572
g36
F-5.357142857142857
sg37
F5.428571428571428
sg38
F0.46428571428571425
sg39
S'red'
p1573
sba(icurlovision
Stone
p1574
(dp1575
g36
F10.714285714285714
sg37
F-1.2857142857142856
sg38
F0.3214285714285714
sg39
S'red'
p1576
sba(icurlovision
Stone
p1577
(dp1578
g36
F1.5357142857142856
sg37
F-0.14285714285714285
sg38
F0.33928571428571425
sg39
S'yellow'
p1579
sba(icurlovision
Stone
p1580
(dp1581
g36
F-3.214285714285714
sg37
F-3.0357142857142856
sg38
F0.2857142857142857
sg39
S'red'
p1582
sbasba(icurlovision
StoneLayout
p1583
(dp1584
g31
F0.4791666666666667
sg32
(lp1585
(icurlovision
Stone
p1586
(dp1587
g36
F-3.102272727272727
sg37
F-1.227272727272727
sg38
F0.3409090909090909
sg39
S'yellow'
p1588
sba(icurlovision
Stone
p1589
(dp1590
g36
F6.374999999999999
sg37
F0.375
sg38
F0.4261363636363636
sg39
S'yellow'
p1591
sba(icurlovision
Stone
p1592
(dp1593
g36
F-3.204545454545454
sg37
F-0.10227272727272727
sg38
F0.30681818181818177
sg39
S'yellow'
p1594
sba(icurlovision
Stone
p1595
(dp1596
g36
F11.011363636363635
sg37
F-1.909090909090909
sg38
F0.4261363636363636
sg39
S'red'
p1597
sba(icurlovision
Stone
p1598
(dp1599
g36
F2.1477272727272725
sg37
F-0.6136363636363635
sg38
F0.30681818181818177
sg39
S'red'
p1600
sba(icurlovision
Stone
p1601
(dp1602
g36
F-3.204545454545454
sg37
F-2.9318181818181817
sg38
F0.2727272727272727
sg39
S'red'
p1603
sbasba(icurlovision
StoneLayout
p1604
(dp1605
g31
F0.4791666666666667
sg32
(lp1606
(icurlovision
Stone
p1607
(dp1608
g36
F-3.1071428571428568
sg37
F-1.25
sg38
F0.4464285714285714
sg39
S'yellow'
p1609
sba(icurlovision
Stone
p1610
(dp1611
g36
F6.5
sg37
F0.5
sg38
F0.46428571428571425
sg39
S'yellow'
p1612
sba(icurlovision
Stone
p1613
(dp1614
g36
F-5.285714285714286
sg37
F5.321428571428571
sg38
F0.46428571428571425
sg39
S'red'
p1615
sba(icurlovision
Stone
p1616
(dp1617
g36
F11.214285714285714
sg37
F-1.75
sg38
F0.4464285714285714
sg39
S'red'
p1618
sba(icurlovision
Stone
p1619
(dp1620
g36
F-3.1785714285714284
sg37
F-2.964285714285714
sg38
F0.3214285714285714
sg39
S'red'
p1621
sba(icurlovision
Stone
p1622
(dp1623
g36
F-3.25
sg37
F-0.14285714285714285
sg38
F0.3214285714285714
sg39
S'yellow'
p1624
sba(icurlovision
Stone
p1625
(dp1626
g36
F0.9642857142857142
sg37
F0.3571428571428571
sg38
F0.39285714285714285
sg39
S'yellow'
p1627
sba(icurlovision
Stone
p1628
(dp1629
g36
F2.214285714285714
sg37
F-0.6071428571428571
sg38
F0.33928571428571425
sg39
S'red'
p1630
sbasbasg431
I5
sg432
I1
sba(icurlovision
EndResult
p1631
(dp1632
g2
I6
sg9
(lp1633
(I7
I7
tp1634
a(I7
I6
tp1635
a(I6
I6
tp1636
a(I6
I5
tp1637
a(I5
I5
tp1638
a(I5
I4
tp1639
a(I4
I4
tp1640
a(I3
I3
tp1641
a(I3
I2
tp1642
a(I2
I2
tp1643
a(I2
I1
tp1644
a(I1
I1
tp1645
a(I1
I0
tp1646
asg26
I7
sg27
(lp1647
(icurlovision
StoneLayout
p1648
(dp1649
g31
F0.4791666666666667
sg32
(lp1650
(icurlovision
Stone
p1651
(dp1652
g36
F9.652173913043478
sg37
F0.2934782608695652
sg38
F0.44021739130434784
sg39
S'yellow'
p1653
sba(icurlovision
Stone
p1654
(dp1655
g36
F-1.0108695652173914
sg37
F0.8804347826086957
sg38
F0.2934782608695652
sg39
S'red'
p1656
sbasba(icurlovision
StoneLayout
p1657
(dp1658
g31
F0.4791666666666667
sg32
(lp1659
(icurlovision
Stone
p1660
(dp1661
g36
F9.783333333333333
sg37
F0.2833333333333333
sg38
F0.45
sg39
S'yellow'
p1662
sba(icurlovision
Stone
p1663
(dp1664
g36
F-0.45
sg37
F0.18333333333333332
sg38
F0.35
sg39
S'yellow'
p1665
sba(icurlovision
Stone
p1666
(dp1667
g36
F-1.1166666666666667
sg37
F0.95
sg38
F0.4666666666666667
sg39
S'red'
p1668
sba(icurlovision
Stone
p1669
(dp1670
g36
F-3.9833333333333334
sg37
F-2.35
sg38
F0.3333333333333333
sg39
S'yellow'
p1671
sbasba(icurlovision
StoneLayout
p1672
(dp1673
g31
F0.4791666666666667
sg32
(lp1674
(icurlovision
Stone
p1675
(dp1676
g36
F-0.7819148936170213
sg37
F0.015957446808510637
sg38
F0.4787234042553191
sg39
S'yellow'
p1677
sba(icurlovision
Stone
p1678
(dp1679
g36
F9.75
sg37
F0.33510638297872336
sg38
F0.4627659574468085
sg39
S'yellow'
p1680
sba(icurlovision
Stone
p1681
(dp1682
g36
F-1.3882978723404253
sg37
F1.1968085106382977
sg38
F0.4787234042553191
sg39
S'red'
p1683
sba(icurlovision
Stone
p1684
(dp1685
g36
F0.49468085106382975
sg37
F0.07978723404255318
sg38
F0.33510638297872336
sg39
S'red'
p1686
sbasba(icurlovision
StoneLayout
p1687
(dp1688
g31
F0.4791666666666667
sg32
(lp1689
(icurlovision
Stone
p1690
(dp1691
g36
F-0.828125
sg37
F-0.03125
sg38
F0.34375
sg39
S'yellow'
p1692
sba(icurlovision
Stone
p1693
(dp1694
g36
F1.390625
sg37
F-0.09375
sg38
F0.453125
sg39
S'yellow'
p1695
sba(icurlovision
Stone
p1696
(dp1697
g36
F9.359375
sg37
F0.3125
sg38
F0.4375
sg39
S'yellow'
p1698
sba(icurlovision
Stone
p1699
(dp1700
g36
F-1.328125
sg37
F1.15625
sg38
F0.34375
sg39
S'red'
p1701
sba(icurlovision
Stone
p1702
(dp1703
g36
F0.171875
sg37
F0.1875
sg38
F0.328125
sg39
S'red'
p1704
sba(icurlovision
Stone
p1705
(dp1706
g36
F-4.796875
sg37
F-0.40625
sg38
F0.3125
sg39
S'yellow'
p1707
sbasba(icurlovision
StoneLayout
p1708
(dp1709
g31
F0.4791666666666667
sg32
(lp1710
(icurlovision
Stone
p1711
(dp1712
g36
F1.227272727272727
sg37
F-0.10227272727272727
sg38
F0.4602272727272727
sg39
S'yellow'
p1713
sba(icurlovision
Stone
p1714
(dp1715
g36
F0.17045454545454544
sg37
F0.23863636363636362
sg38
F0.30681818181818177
sg39
S'red'
p1716
sba(icurlovision
Stone
p1717
(dp1718
g36
F9.579545454545453
sg37
F0.30681818181818177
sg38
F0.3579545454545454
sg39
S'yellow'
p1719
sba(icurlovision
Stone
p1720
(dp1721
g36
F-0.8522727272727272
sg37
F0.0
sg38
F0.4602272727272727
sg39
S'yellow'
p1722
sba(icurlovision
Stone
p1723
(dp1724
g36
F-1.3636363636363635
sg37
F1.159090909090909
sg38
F0.47727272727272724
sg39
S'red'
p1725
sba(icurlovision
Stone
p1726
(dp1727
g36
F2.352272727272727
sg37
F0.03409090909090909
sg38
F0.28977272727272724
sg39
S'red'
p1728
sbasba(icurlovision
StoneLayout
p1729
(dp1730
g31
F0.4791666666666667
sg32
(lp1731
(icurlovision
Stone
p1732
(dp1733
g36
F2.494186046511628
sg37
F-1.063953488372093
sg38
F0.313953488372093
sg39
S'yellow'
p1734
sba(icurlovision
Stone
p1735
(dp1736
g36
F9.575581395348838
sg37
F0.2965116279069767
sg38
F0.2965116279069767
sg39
S'yellow'
p1737
sba(icurlovision
Stone
p1738
(dp1739
g36
F-0.8546511627906976
sg37
F-0.01744186046511628
sg38
F0.3488372093023256
sg39
S'yellow'
p1740
sba(icurlovision
Stone
p1741
(dp1742
g36
F1.2034883720930232
sg37
F-0.0872093023255814
sg38
F0.3313953488372093
sg39
S'yellow'
p1743
sba(icurlovision
Stone
p1744
(dp1745
g36
F0.1569767441860465
sg37
F0.19186046511627908
sg38
F0.3488372093023256
sg39
S'red'
p1746
sba(icurlovision
Stone
p1747
(dp1748
g36
F-1.3430232558139534
sg37
F1.1686046511627908
sg38
F0.2441860465116279
sg39
S'red'
p1749
sba(icurlovision
Stone
p1750
(dp1751
g36
F2.1104651162790695
sg37
F0.22674418604651161
sg38
F0.3488372093023256
sg39
S'red'
p1752
sba(icurlovision
Stone
p1753
(dp1754
g36
F-3.8197674418604652
sg37
F-0.05232558139534883
sg38
F0.2616279069767442
sg39
S'yellow'
p1755
sbasba(icurlovision
StoneLayout
p1756
(dp1757
g31
F0.4791666666666667
sg32
(lp1758
(icurlovision
Stone
p1759
(dp1760
g36
F-0.9821428571428571
sg37
F2.446428571428571
sg38
F0.4464285714285714
sg39
S'red'
p1761
sba(icurlovision
Stone
p1762
(dp1763
g36
F-0.5535714285714285
sg37
F-2.1607142857142856
sg38
F0.25
sg39
S'yellow'
p1764
sba(icurlovision
Stone
p1765
(dp1766
g36
F9.375
sg37
F0.26785714285714285
sg38
F0.4464285714285714
sg39
S'yellow'
p1767
sba(icurlovision
Stone
p1768
(dp1769
g36
F-1.3035714285714286
sg37
F1.1607142857142856
sg38
F0.2857142857142857
sg39
S'red'
p1770
sba(icurlovision
Stone
p1771
(dp1772
g36
F1.0535714285714286
sg37
F4.339285714285714
sg38
F0.3214285714285714
sg39
S'yellow'
p1773
sba(icurlovision
Stone
p1774
(dp1775
g36
F2.089285714285714
sg37
F0.19642857142857142
sg38
F0.46428571428571425
sg39
S'red'
p1776
sbasba(icurlovision
StoneLayout
p1777
(dp1778
g31
F0.4791666666666667
sg32
(lp1779
(icurlovision
Stone
p1780
(dp1781
g36
F-1.0294117647058822
sg37
F2.5294117647058822
sg38
F0.3529411764705882
sg39
S'red'
p1782
sba(icurlovision
Stone
p1783
(dp1784
g36
F2.1176470588235294
sg37
F0.1764705882352941
sg38
F0.3235294117647059
sg39
S'red'
p1785
sba(icurlovision
Stone
p1786
(dp1787
g36
F0.29411764705882354
sg37
F-2.235294117647059
sg38
F0.45588235294117646
sg39
S'red'
p1788
sba(icurlovision
Stone
p1789
(dp1790
g36
F-1.3823529411764706
sg37
F1.1470588235294117
sg38
F0.47058823529411764
sg39
S'red'
p1791
sbasba(icurlovision
StoneLayout
p1792
(dp1793
g31
F0.4791666666666667
sg32
(lp1794
(icurlovision
Stone
p1795
(dp1796
g36
F-0.5625
sg37
F1.71875
sg38
F0.328125
sg39
S'yellow'
p1797
sba(icurlovision
Stone
p1798
(dp1799
g36
F-1.125
sg37
F2.71875
sg38
F0.328125
sg39
S'red'
p1800
sba(icurlovision
Stone
p1801
(dp1802
g36
F2.125
sg37
F0.1875
sg38
F0.328125
sg39
S'red'
p1803
sba(icurlovision
Stone
p1804
(dp1805
g36
F0.3125
sg37
F-2.25
sg38
F0.46875
sg39
S'red'
p1806
sba(icurlovision
Stone
p1807
(dp1808
g36
F-5.65625
sg37
F3.375
sg38
F0.34375
sg39
S'yellow'
p1809
sbasba(icurlovision
StoneLayout
p1810
(dp1811
g31
F0.4791666666666667
sg32
(lp1812
(icurlovision
Stone
p1813
(dp1814
g36
F-1.1454545454545455
sg37
F2.659090909090909
sg38
F0.47727272727272724
sg39
S'red'
p1815
sba(icurlovision
Stone
p1816
(dp1817
g36
F2.127272727272727
sg37
F0.2318181818181818
sg38
F0.3409090909090909
sg39
S'red'
p1818
sbasba(icurlovision
StoneLayout
p1819
(dp1820
g31
F0.4791666666666667
sg32
(lp1821
(icurlovision
Stone
p1822
(dp1823
g36
F-0.7625000000000001
sg37
F1.7875
sg38
F0.3375
sg39
S'yellow'
p1824
sba(icurlovision
Stone
p1825
(dp1826
g36
F2.1375
sg37
F0.1875
sg38
F0.4625
sg39
S'red'
p1827
sba(icurlovision
Stone
p1828
(dp1829
g36
F-1.5125000000000002
sg37
F5.1875
sg38
F0.45
sg39
S'red'
p1830
sba(icurlovision
Stone
p1831
(dp1832
g36
F-1.1875
sg37
F2.8125
sg38
F0.325
sg39
S'red'
p1833
sbasba(icurlovision
StoneLayout
p1834
(dp1835
g31
F0.4791666666666667
sg32
(lp1836
(icurlovision
Stone
p1837
(dp1838
g36
F-1.1931818181818181
sg37
F2.7954545454545454
sg38
F0.4602272727272727
sg39
S'red'
p1839
sba(icurlovision
Stone
p1840
(dp1841
g36
F-0.13636363636363635
sg37
F2.693181818181818
sg38
F0.3579545454545454
sg39
S'red'
p1842
sba(icurlovision
Stone
p1843
(dp1844
g36
F2.1136363636363633
sg37
F0.17045454545454544
sg38
F0.4602272727272727
sg39
S'red'
p1845
sba(icurlovision
Stone
p1846
(dp1847
g36
F-1.4659090909090908
sg37
F5.1477272727272725
sg38
F0.30681818181818177
sg39
S'red'
p1848
sbasba(icurlovision
StoneLayout
p1849
(dp1850
g31
F0.4791666666666667
sg32
(lp1851
(icurlovision
Stone
p1852
(dp1853
g36
F-1.3333333333333333
sg37
F4.527777777777778
sg38
F0.3472222222222222
sg39
S'yellow'
p1854
sba(icurlovision
Stone
p1855
(dp1856
g36
F2.111111111111111
sg37
F0.2222222222222222
sg38
F0.3194444444444444
sg39
S'red'
p1857
sbasbasg431
I7
sg432
I1
sba(icurlovision
EndResult
p1858
(dp1859
g2
I6
sg9
(lp1860
(I6
I7
tp1861
a(I6
I6
tp1862
a(I5
I6
tp1863
a(I4
I5
tp1864
a(I4
I4
tp1865
a(I3
I4
tp1866
a(I3
I3
tp1867
a(I2
I3
tp1868
a(I2
I2
tp1869
a(I1
I2
tp1870
a(I1
I1
tp1871
a(I0
I1
tp1872
asg26
I8
sg27
(lp1873
(icurlovision
StoneLayout
p1874
(dp1875
g31
F0.4791666666666667
sg32
(lp1876
(icurlovision
Stone
p1877
(dp1878
g36
F0.234375
sg37
F-0.453125
sg38
F0.453125
sg39
S'red'
p1879
sba(icurlovision
Stone
p1880
(dp1881
g36
F7.609375
sg37
F0.078125
sg38
F0.4375
sg39
S'red'
p1882
sba(icurlovision
Stone
p1883
(dp1884
g36
F14.921875
sg37
F-2.328125
sg38
F0.421875
sg39
S'yellow'
p1885
sbasba(icurlovision
StoneLayout
p1886
(dp1887
g31
F0.4791666666666667
sg32
(lp1888
(icurlovision
Stone
p1889
(dp1890
g36
F15.243243243243244
sg37
F-2.3513513513513513
sg38
F0.4256756756756757
sg39
S'yellow'
p1891
sba(icurlovision
Stone
p1892
(dp1893
g36
F8.594594594594595
sg37
F-0.08108108108108109
sg38
F0.3445945945945946
sg39
S'yellow'
p1894
sba(icurlovision
Stone
p1895
(dp1896
g36
F0.20270270270270271
sg37
F-0.44594594594594594
sg38
F0.44594594594594594
sg39
S'red'
p1897
sba(icurlovision
Stone
p1898
(dp1899
g36
F-5.594594594594595
sg37
F0.6486486486486487
sg38
F0.26351351351351354
sg39
S'red'
p1900
sbasba(icurlovision
StoneLayout
p1901
(dp1902
g31
F0.4791666666666667
sg32
(lp1903
(icurlovision
Stone
p1904
(dp1905
g36
F8.8125
sg37
F-0.1875
sg38
F0.29166666666666663
sg39
S'yellow'
p1906
sba(icurlovision
Stone
p1907
(dp1908
g36
F15.6875
sg37
F-2.5625
sg38
F0.41666666666666663
sg39
S'yellow'
p1909
sba(icurlovision
Stone
p1910
(dp1911
g36
F0.22916666666666666
sg37
F-0.5625
sg38
F0.35416666666666663
sg39
S'red'
p1912
sba(icurlovision
Stone
p1913
(dp1914
g36
F-5.770833333333333
sg37
F0.6458333333333333
sg38
F0.25
sg39
S'red'
p1915
sba(icurlovision
Stone
p1916
(dp1917
g36
F5.8125
sg37
F0.22916666666666666
sg38
F0.35416666666666663
sg39
S'red'
p1918
sbasba(icurlovision
StoneLayout
p1919
(dp1920
g31
F0.4791666666666667
sg32
(lp1921
(icurlovision
Stone
p1922
(dp1923
g36
F5.351351351351352
sg37
F3.9729729729729732
sg38
F0.44594594594594594
sg39
S'yellow'
p1924
sba(icurlovision
Stone
p1925
(dp1926
g36
F6.9324324324324325
sg37
F-4.824324324324325
sg38
F0.44594594594594594
sg39
S'yellow'
p1927
sba(icurlovision
Stone
p1928
(dp1929
g36
F9.283783783783784
sg37
F0.12162162162162163
sg38
F0.30405405405405406
sg39
S'red'
p1930
sba(icurlovision
Stone
p1931
(dp1932
g36
F15.243243243243244
sg37
F-2.391891891891892
sg38
F0.40540540540540543
sg39
S'yellow'
p1933
sba(icurlovision
Stone
p1934
(dp1935
g36
F-5.513513513513514
sg37
F0.6486486486486487
sg38
F0.30405405405405406
sg39
S'red'
p1936
sbasba(icurlovision
StoneLayout
p1937
(dp1938
g31
F0.4791666666666667
sg32
(lp1939
(icurlovision
Stone
p1940
(dp1941
g36
F0.6118421052631579
sg37
F6.888157894736842
sg38
F0.43421052631578944
sg39
S'yellow'
p1942
sba(icurlovision
Stone
p1943
(dp1944
g36
F-1.7171052631578947
sg37
F5.703947368421052
sg38
F0.43421052631578944
sg39
S'yellow'
p1945
sba(icurlovision
Stone
p1946
(dp1947
g36
F6.730263157894736
sg37
F-4.717105263157895
sg38
F0.35526315789473684
sg39
S'yellow'
p1948
sba(icurlovision
Stone
p1949
(dp1950
g36
F-3.256578947368421
sg37
F-5.8618421052631575
sg38
F0.2763157894736842
sg39
S'red'
p1951
sba(icurlovision
Stone
p1952
(dp1953
g36
F14.861842105263158
sg37
F-2.3486842105263155
sg38
F0.41447368421052627
sg39
S'yellow'
p1954
sba(icurlovision
Stone
p1955
(dp1956
g36
F-5.388157894736842
sg37
F0.6513157894736842
sg38
F0.3355263157894737
sg39
S'red'
p1957
sbasba(icurlovision
StoneLayout
p1958
(dp1959
g31
F0.4791666666666667
sg32
(lp1960
(icurlovision
Stone
p1961
(dp1962
g36
F7.083333333333333
sg37
F-5.0
sg38
F0.4583333333333333
sg39
S'yellow'
p1963
sba(icurlovision
Stone
p1964
(dp1965
g36
F15.625
sg37
F-2.5
sg38
F0.4375
sg39
S'yellow'
p1966
sba(icurlovision
Stone
p1967
(dp1968
g36
F-5.75
sg37
F0.625
sg38
F0.375
sg39
S'red'
p1969
sbasba(icurlovision
StoneLayout
p1970
(dp1971
g31
F0.4791666666666667
sg32
(lp1972
(icurlovision
Stone
p1973
(dp1974
g36
F8.777027027027028
sg37
F-2.1081081081081083
sg38
F0.32432432432432434
sg39
S'yellow'
p1975
sba(icurlovision
Stone
p1976
(dp1977
g36
F6.9527027027027035
sg37
F-4.824324324324325
sg38
F0.3445945945945946
sg39
S'yellow'
p1978
sba(icurlovision
Stone
p1979
(dp1980
g36
F15.263513513513514
sg37
F-2.3513513513513513
sg38
F0.4256756756756757
sg39
S'yellow'
p1981
sba(icurlovision
Stone
p1982
(dp1983
g36
F-5.533783783783784
sg37
F0.6081081081081081
sg38
F0.30405405405405406
sg39
S'red'
p1984
sbasba(icurlovision
StoneLayout
p1985
(dp1986
g31
F0.4791666666666667
sg32
(lp1987
(icurlovision
Stone
p1988
(dp1989
g36
F6.75
sg37
F-4.697368421052631
sg38
F0.43421052631578944
sg39
S'yellow'
p1990
sba(icurlovision
Stone
p1991
(dp1992
g36
F14.842105263157894
sg37
F-2.3289473684210527
sg38
F0.39473684210526316
sg39
S'yellow'
p1993
sba(icurlovision
Stone
p1994
(dp1995
g36
F8.526315789473683
sg37
F-2.131578947368421
sg38
F0.2763157894736842
sg39
S'yellow'
p1996
sba(icurlovision
Stone
p1997
(dp1998
g36
F1.7368421052631577
sg37
F-2.2105263157894735
sg38
F0.43421052631578944
sg39
S'red'
p1999
sba(icurlovision
Stone
p2000
(dp2001
g36
F-5.407894736842105
sg37
F0.631578947368421
sg38
F0.23684210526315788
sg39
S'red'
p2002
sbasba(icurlovision
StoneLayout
p2003
(dp2004
g31
F0.4791666666666667
sg32
(lp2005
(icurlovision
Stone
p2006
(dp2007
g36
F6.9324324324324325
sg37
F-4.783783783783784
sg38
F0.44594594594594594
sg39
S'yellow'
p2008
sba(icurlovision
Stone
p2009
(dp2010
g36
F8.675675675675675
sg37
F-2.310810810810811
sg38
F0.44594594594594594
sg39
S'yellow'
p2011
sba(icurlovision
Stone
p2012
(dp2013
g36
F15.243243243243244
sg37
F-2.3513513513513513
sg38
F0.4256756756756757
sg39
S'yellow'
p2014
sba(icurlovision
Stone
p2015
(dp2016
g36
F1.7837837837837838
sg37
F-2.1891891891891895
sg38
F0.28378378378378377
sg39
S'red'
p2017
sba(icurlovision
Stone
p2018
(dp2019
g36
F4.013513513513514
sg37
F-0.44594594594594594
sg38
F0.32432432432432434
sg39
S'yellow'
p2020
sba(icurlovision
Stone
p2021
(dp2022
g36
F-5.554054054054054
sg37
F0.6486486486486487
sg38
F0.3445945945945946
sg39
S'red'
p2023
sbasba(icurlovision
StoneLayout
p2024
(dp2025
g31
F0.4791666666666667
sg32
(lp2026
(icurlovision
Stone
p2027
(dp2028
g36
F6.9324324324324325
sg37
F-4.864864864864865
sg38
F0.3445945945945946
sg39
S'yellow'
p2029
sba(icurlovision
Stone
p2030
(dp2031
g36
F15.243243243243244
sg37
F-2.4324324324324325
sg38
F0.4256756756756757
sg39
S'yellow'
p2032
sba(icurlovision
Stone
p2033
(dp2034
g36
F8.635135135135135
sg37
F-2.3513513513513513
sg38
F0.4256756756756757
sg39
S'yellow'
p2035
sba(icurlovision
Stone
p2036
(dp2037
g36
F1.7837837837837838
sg37
F-2.27027027027027
sg38
F0.44594594594594594
sg39
S'red'
p2038
sbasba(icurlovision
StoneLayout
p2039
(dp2040
g31
F0.4791666666666667
sg32
(lp2041
(icurlovision
Stone
p2042
(dp2043
g36
F6.7105263157894735
sg37
F-4.697368421052631
sg38
F0.43421052631578944
sg39
S'yellow'
p2044
sba(icurlovision
Stone
p2045
(dp2046
g36
F8.25
sg37
F-2.3684210526315788
sg38
F0.43421052631578944
sg39
S'yellow'
p2047
sba(icurlovision
Stone
p2048
(dp2049
g36
F14.802631578947368
sg37
F-2.3289473684210527
sg38
F0.39473684210526316
sg39
S'yellow'
p2050
sba(icurlovision
Stone
p2051
(dp2052
g36
F7.539473684210526
sg37
F-0.9868421052631579
sg38
F0.43421052631578944
sg39
S'yellow'
p2053
sba(icurlovision
Stone
p2054
(dp2055
g36
F1.7368421052631577
sg37
F-2.1710526315789473
sg38
F0.43421052631578944
sg39
S'red'
p2056
sba(icurlovision
Stone
p2057
(dp2058
g36
F-5.4868421052631575
sg37
F0.6710526315789473
sg38
F0.375
sg39
S'red'
p2059
sbasba(icurlovision
StoneLayout
p2060
(dp2061
g31
F0.4791666666666667
sg32
(lp2062
(icurlovision
Stone
p2063
(dp2064
g36
F6.9324324324324325
sg37
F-4.864864864864865
sg38
F0.44594594594594594
sg39
S'yellow'
p2065
sba(icurlovision
Stone
p2066
(dp2067
g36
F7.783783783783784
sg37
F-1.0540540540540542
sg38
F0.44594594594594594
sg39
S'yellow'
p2068
sba(icurlovision
Stone
p2069
(dp2070
g36
F8.513513513513514
sg37
F-2.4729729729729732
sg38
F0.4256756756756757
sg39
S'yellow'
p2071
sba(icurlovision
Stone
p2072
(dp2073
g36
F1.7837837837837838
sg37
F-2.310810810810811
sg38
F0.24324324324324326
sg39
S'red'
p2074
sba(icurlovision
Stone
p2075
(dp2076
g36
F15.243243243243244
sg37
F-2.4324324324324325
sg38
F0.40540540540540543
sg39
S'yellow'
p2077
sba(icurlovision
Stone
p2078
(dp2079
g36
F6.0
sg37
F1.0135135135135136
sg38
F0.24324324324324326
sg39
S'red'
p2080
sba(icurlovision
Stone
p2081
(dp2082
g36
F-5.554054054054054
sg37
F0.5675675675675675
sg38
F0.28378378378378377
sg39
S'red'
p2083
sbasbasg431
I8
sg432
I0
sba(icurlovision
EndResult
p2084
(dp2085
g2
I8
sg9
(lp2086
(I7
I7
tp2087
a(I6
I7
tp2088
a(I6
I6
tp2089
a(I5
I6
tp2090
a(I5
I5
tp2091
a(I4
I5
tp2092
a(I4
I4
tp2093
a(I3
I4
tp2094
a(I3
I3
tp2095
a(I2
I3
tp2096
a(I2
I2
tp2097
a(I1
I2
tp2098
a(I1
I1
tp2099
a(I0
I1
tp2100
asg26
I9
sg27
(lp2101
(icurlovision
StoneLayout
p2102
(dp2103
g31
F0.4791666666666667
sg32
(lp2104
(icurlovision
Stone
p2105
(dp2106
g36
F9.511363636363635
sg37
F2.590909090909091
sg38
F0.4431818181818181
sg39
S'yellow'
p2107
sba(icurlovision
Stone
p2108
(dp2109
g36
F0.6477272727272727
sg37
F-0.3409090909090909
sg38
F0.3579545454545454
sg39
S'red'
p2110
sba(icurlovision
Stone
p2111
(dp2112
g36
F-4.7727272727272725
sg37
F-5.25
sg38
F0.2727272727272727
sg39
S'yellow'
p2113
sbasba(icurlovision
StoneLayout
p2114
(dp2115
g31
F0.4791666666666667
sg32
(lp2116
(icurlovision
Stone
p2117
(dp2118
g36
F9.390625
sg37
F2.578125
sg38
F0.4375
sg39
S'yellow'
p2119
sba(icurlovision
Stone
p2120
(dp2121
g36
F7.703125
sg37
F-0.109375
sg38
F0.4375
sg39
S'red'
p2122
sba(icurlovision
Stone
p2123
(dp2124
g36
F0.578125
sg37
F-0.328125
sg38
F0.296875
sg39
S'red'
p2125
sbasba(icurlovision
StoneLayout
p2126
(dp2127
g31
F0.4791666666666667
sg32
(lp2128
(icurlovision
Stone
p2129
(dp2130
g36
F9.474489795918368
sg37
F2.586734693877551
sg38
F0.30612244897959184
sg39
S'yellow'
p2131
sba(icurlovision
Stone
p2132
(dp2133
g36
F7.7602040816326525
sg37
F-0.10714285714285714
sg38
F0.44387755102040816
sg39
S'red'
p2134
sba(icurlovision
Stone
p2135
(dp2136
g36
F-1.2397959183673468
sg37
F-0.015306122448979591
sg38
F0.336734693877551
sg39
S'red'
p2137
sba(icurlovision
Stone
p2138
(dp2139
g36
F1.5153061224489797
sg37
F-0.5357142857142857
sg38
F0.3520408163265306
sg39
S'yellow'
p2140
sbasba(icurlovision
StoneLayout
p2141
(dp2142
g31
F0.4791666666666667
sg32
(lp2143
(icurlovision
Stone
p2144
(dp2145
g36
F9.153061224489795
sg37
F2.5255102040816326
sg38
F0.3520408163265306
sg39
S'yellow'
p2146
sba(icurlovision
Stone
p2147
(dp2148
g36
F7.5
sg37
F-0.07653061224489796
sg38
F0.44387755102040816
sg39
S'red'
p2149
sba(icurlovision
Stone
p2150
(dp2151
g36
F2.2653061224489797
sg37
F-0.29081632653061223
sg38
F0.44387755102040816
sg39
S'red'
p2152
sba(icurlovision
Stone
p2153
(dp2154
g36
F1.010204081632653
sg37
F-0.5357142857142857
sg38
F0.30612244897959184
sg39
S'yellow'
p2155
sba(icurlovision
Stone
p2156
(dp2157
g36
F-1.2551020408163265
sg37
F0.015306122448979591
sg38
F0.336734693877551
sg39
S'red'
p2158
sbasba(icurlovision
StoneLayout
p2159
(dp2160
g31
F0.4791666666666667
sg32
(lp2161
(icurlovision
Stone
p2162
(dp2163
g36
F9.864130434782608
sg37
F2.6902173913043477
sg38
F0.45652173913043476
sg39
S'yellow'
p2164
sba(icurlovision
Stone
p2165
(dp2166
g36
F8.103260869565217
sg37
F-0.11413043478260869
sg38
F0.45652173913043476
sg39
S'red'
p2167
sba(icurlovision
Stone
p2168
(dp2169
g36
F3.342391304347826
sg37
F-0.7010869565217391
sg38
F0.47282608695652173
sg39
S'yellow'
p2170
sba(icurlovision
Stone
p2171
(dp2172
g36
F0.8641304347826086
sg37
F-0.6684782608695652
sg38
F0.34239130434782605
sg39
S'yellow'
p2173
sba(icurlovision
Stone
p2174
(dp2175
g36
F-1.3206521739130435
sg37
F0.016304347826086956
sg38
F0.34239130434782605
sg39
S'red'
p2176
sba(icurlovision
Stone
p2177
(dp2178
g36
F1.809782608695652
sg37
F0.08152173913043478
sg38
F0.32608695652173914
sg39
S'red'
p2179
sbasba(icurlovision
StoneLayout
p2180
(dp2181
g31
F0.4791666666666667
sg32
(lp2182
(icurlovision
Stone
p2183
(dp2184
g36
F9.65625
sg37
F2.625
sg38
F0.453125
sg39
S'yellow'
p2185
sba(icurlovision
Stone
p2186
(dp2187
g36
F2.40625
sg37
F-0.5625
sg38
F0.3125
sg39
S'yellow'
p2188
sba(icurlovision
Stone
p2189
(dp2190
g36
F7.9375
sg37
F-0.0625
sg38
F0.484375
sg39
S'red'
p2191
sba(icurlovision
Stone
p2192
(dp2193
g36
F-1.28125
sg37
F0.03125
sg38
F0.34375
sg39
S'red'
p2194
sba(icurlovision
Stone
p2195
(dp2196
g36
F0.84375
sg37
F-0.65625
sg38
F0.265625
sg39
S'yellow'
p2197
sba(icurlovision
Stone
p2198
(dp2199
g36
F4.1875
sg37
F-0.78125
sg38
F0.3125
sg39
S'red'
p2200
sba(icurlovision
Stone
p2201
(dp2202
g36
F1.75
sg37
F0.125
sg38
F0.34375
sg39
S'red'
p2203
sbasba(icurlovision
StoneLayout
p2204
(dp2205
g31
F0.4791666666666667
sg32
(lp2206
(icurlovision
Stone
p2207
(dp2208
g36
F6.916666666666667
sg37
F3.783333333333333
sg38
F0.4666666666666667
sg39
S'yellow'
p2209
sba(icurlovision
Stone
p2210
(dp2211
g36
F9.65
sg37
F2.65
sg38
F0.4666666666666667
sg39
S'yellow'
p2212
sba(icurlovision
Stone
p2213
(dp2214
g36
F0.7166666666666667
sg37
F-0.5833333333333334
sg38
F0.35
sg39
S'yellow'
p2215
sba(icurlovision
Stone
p2216
(dp2217
g36
F5.116666666666666
sg37
F-0.6833333333333333
sg38
F0.26666666666666666
sg39
S'red'
p2218
sbasba(icurlovision
StoneLayout
p2219
(dp2220
g31
F0.4791666666666667
sg32
(lp2221
(icurlovision
Stone
p2222
(dp2223
g36
F6.913043478260869
sg37
F3.8152173913043477
sg38
F0.47282608695652173
sg39
S'yellow'
p2224
sba(icurlovision
Stone
p2225
(dp2226
g36
F9.619565217391305
sg37
F2.6739130434782608
sg38
F0.45652173913043476
sg39
S'yellow'
p2227
sba(icurlovision
Stone
p2228
(dp2229
g36
F0.717391304347826
sg37
F-0.5543478260869565
sg38
F0.34239130434782605
sg39
S'yellow'
p2230
sba(icurlovision
Stone
p2231
(dp2232
g36
F-1.2717391304347825
sg37
F0.03260869565217391
sg38
F0.358695652173913
sg39
S'red'
p2233
sbasba(icurlovision
StoneLayout
p2234
(dp2235
g31
F0.4791666666666667
sg32
(lp2236
(icurlovision
Stone
p2237
(dp2238
g36
F6.964285714285714
sg37
F3.811224489795918
sg38
F0.44387755102040816
sg39
S'yellow'
p2239
sba(icurlovision
Stone
p2240
(dp2241
g36
F0.7193877551020408
sg37
F-0.5663265306122449
sg38
F0.336734693877551
sg39
S'yellow'
p2242
sba(icurlovision
Stone
p2243
(dp2244
g36
F9.688775510204081
sg37
F2.6479591836734695
sg38
F0.45918367346938777
sg39
S'yellow'
p2245
sba(icurlovision
Stone
p2246
(dp2247
g36
F2.8316326530612246
sg37
F3.0459183673469385
sg38
F0.45918367346938777
sg39
S'yellow'
p2248
sba(icurlovision
Stone
p2249
(dp2250
g36
F-1.2704081632653061
sg37
F0.015306122448979591
sg38
F0.4897959183673469
sg39
S'red'
p2251
sbasba(icurlovision
StoneLayout
p2252
(dp2253
g31
F0.4791666666666667
sg32
(lp2254
(icurlovision
Stone
p2255
(dp2256
g36
F6.8088235294117645
sg37
F3.7058823529411766
sg38
F0.4411764705882353
sg39
S'yellow'
p2257
sba(icurlovision
Stone
p2258
(dp2259
g36
F9.485294117647058
sg37
F2.588235294117647
sg38
F0.4411764705882353
sg39
S'yellow'
p2260
sba(icurlovision
Stone
p2261
(dp2262
g36
F2.8088235294117645
sg37
F3.0
sg38
F0.3235294117647059
sg39
S'yellow'
p2263
sba(icurlovision
Stone
p2264
(dp2265
g36
F-1.2205882352941175
sg37
F0.029411764705882353
sg38
F0.3382352941176471
sg39
S'red'
p2266
sbasba(icurlovision
StoneLayout
p2267
(dp2268
g31
F0.4791666666666667
sg32
(lp2269
(icurlovision
Stone
p2270
(dp2271
g36
F2.7
sg37
F0.0
sg38
F0.4666666666666667
sg39
S'yellow'
p2272
sba(icurlovision
Stone
p2273
(dp2274
g36
F9.566666666666666
sg37
F2.6333333333333333
sg38
F0.26666666666666666
sg39
S'yellow'
p2275
sba(icurlovision
Stone
p2276
(dp2277
g36
F6.8999999999999995
sg37
F3.7666666666666666
sg38
F0.45
sg39
S'yellow'
p2278
sba(icurlovision
Stone
p2279
(dp2280
g36
F2.8666666666666667
sg37
F3.0666666666666664
sg38
F0.3333333333333333
sg39
S'yellow'
p2281
sbasba(icurlovision
StoneLayout
p2282
(dp2283
g31
F0.4791666666666667
sg32
(lp2284
(icurlovision
Stone
p2285
(dp2286
g36
F6.883333333333333
sg37
F3.7666666666666666
sg38
F0.45
sg39
S'yellow'
p2287
sba(icurlovision
Stone
p2288
(dp2289
g36
F9.583333333333334
sg37
F2.6333333333333333
sg38
F0.36666666666666664
sg39
S'yellow'
p2290
sba(icurlovision
Stone
p2291
(dp2292
g36
F2.9833333333333334
sg37
F1.4333333333333333
sg38
F0.35
sg39
S'red'
p2293
sba(icurlovision
Stone
p2294
(dp2295
g36
F2.85
sg37
F3.0666666666666664
sg38
F0.3333333333333333
sg39
S'yellow'
p2296
sbasba(icurlovision
StoneLayout
p2297
(dp2298
g31
F0.4791666666666667
sg32
(lp2299
(icurlovision
Stone
p2300
(dp2301
g36
F6.734999999999999
sg37
F3.675
sg38
F0.44999999999999996
sg39
S'yellow'
p2302
sba(icurlovision
Stone
p2303
(dp2304
g36
F9.435
sg37
F2.565
sg38
F0.32999999999999996
sg39
S'yellow'
p2305
sba(icurlovision
Stone
p2306
(dp2307
g36
F3.795
sg37
F1.425
sg38
F0.32999999999999996
sg39
S'yellow'
p2308
sba(icurlovision
Stone
p2309
(dp2310
g36
F2.775
sg37
F2.955
sg38
F0.285
sg39
S'yellow'
p2311
sbasba(icurlovision
StoneLayout
p2312
(dp2313
g31
F0.4791666666666667
sg32
(lp2314
(icurlovision
Stone
p2315
(dp2316
g36
F2.819444444444444
sg37
F3.0555555555555554
sg38
F0.4722222222222222
sg39
S'yellow'
p2317
sba(icurlovision
Stone
p2318
(dp2319
g36
F6.847222222222221
sg37
F3.8055555555555554
sg38
F0.4583333333333333
sg39
S'yellow'
p2320
sba(icurlovision
Stone
p2321
(dp2322
g36
F9.597222222222221
sg37
F2.694444444444444
sg38
F0.4583333333333333
sg39
S'yellow'
p2323
sbasbasg431
I8
sg432
I0
sba(icurlovision
EndResult
p2324
(dp2325
g2
I8
sg9
(lp2326
(I8
I7
tp2327
a(I6
I5
tp2328
a(I5
I5
tp2329
a(I5
I4
tp2330
a(I4
I4
tp2331
a(I4
I3
tp2332
a(I3
I3
tp2333
a(I3
I2
tp2334
a(I2
I2
tp2335
a(I2
I1
tp2336
a(I1
I1
tp2337
a(I1
I0
tp2338
asg26
I10
sg27
(lp2339
(icurlovision
StoneLayout
p2340
(dp2341
g31
F0.4791666666666667
sg32
(lp2342
(icurlovision
Stone
p2343
(dp2344
g36
F8.676136363636363
sg37
F0.11931818181818181
sg38
F0.3579545454545454
sg39
S'yellow'
p2345
sba(icurlovision
Stone
p2346
(dp2347
g36
F-4.892045454545454
sg37
F-5.5056818181818175
sg38
F0.32386363636363635
sg39
S'yellow'
p2348
sbasba(icurlovision
StoneLayout
p2349
(dp2350
g31
F0.4791666666666667
sg32
(lp2351
(icurlovision
Stone
p2352
(dp2353
g36
F2.8618421052631575
sg37
F-0.888157894736842
sg38
F0.47368421052631576
sg39
S'red'
p2354
sba(icurlovision
Stone
p2355
(dp2356
g36
F8.703947368421051
sg37
F0.1381578947368421
sg38
F0.3355263157894737
sg39
S'yellow'
p2357
sba(icurlovision
Stone
p2358
(dp2359
g36
F2.388157894736842
sg37
F0.019736842105263157
sg38
F0.3157894736842105
sg39
S'red'
p2360
sba(icurlovision
Stone
p2361
(dp2362
g36
F-4.0855263157894735
sg37
F-0.21710526315789472
sg38
F0.3355263157894737
sg39
S'yellow'
p2363
sbasba(icurlovision
StoneLayout
p2364
(dp2365
g31
F0.4791666666666667
sg32
(lp2366
(icurlovision
Stone
p2367
(dp2368
g36
F8.592391304347826
sg37
F0.1467391304347826
sg38
F0.45652173913043476
sg39
S'yellow'
p2369
sba(icurlovision
Stone
p2370
(dp2371
g36
F2.8532608695652173
sg37
F-0.8641304347826086
sg38
F0.45652173913043476
sg39
S'red'
p2372
sba(icurlovision
Stone
p2373
(dp2374
g36
F-3.994565217391304
sg37
F-0.21195652173913043
sg38
F0.27717391304347827
sg39
S'yellow'
p2375
sba(icurlovision
Stone
p2376
(dp2377
g36
F2.3967391304347827
sg37
F-0.016304347826086956
sg38
F0.34239130434782605
sg39
S'red'
p2378
sbasba(icurlovision
StoneLayout
p2379
(dp2380
g31
F0.4791666666666667
sg32
(lp2381
(icurlovision
Stone
p2382
(dp2383
g36
F8.65625
sg37
F0.21875
sg38
F0.46875
sg39
S'yellow'
p2384
sba(icurlovision
Stone
p2385
(dp2386
g36
F-0.09375
sg37
F0.625
sg38
F0.453125
sg39
S'yellow'
p2387
sba(icurlovision
Stone
p2388
(dp2389
g36
F2.375
sg37
F0.03125
sg38
F0.46875
sg39
S'red'
p2390
sba(icurlovision
Stone
p2391
(dp2392
g36
F2.875
sg37
F-0.875
sg38
F0.34375
sg39
S'red'
p2393
sba(icurlovision
Stone
p2394
(dp2395
g36
F-4.03125
sg37
F-0.25
sg38
F0.34375
sg39
S'yellow'
p2396
sbasba(icurlovision
StoneLayout
p2397
(dp2398
g31
F0.4791666666666667
sg32
(lp2399
(icurlovision
Stone
p2400
(dp2401
g36
F2.8649999999999998
sg37
F-0.8999999999999999
sg38
F0.46499999999999997
sg39
S'red'
p2402
sba(icurlovision
Stone
p2403
(dp2404
g36
F-0.135
sg37
F0.63
sg38
F0.345
sg39
S'yellow'
p2405
sba(icurlovision
Stone
p2406
(dp2407
g36
F2.415
sg37
F0.0
sg38
F0.46499999999999997
sg39
S'red'
p2408
sba(icurlovision
Stone
p2409
(dp2410
g36
F-4.155
sg37
F-0.21
sg38
F0.345
sg39
S'yellow'
p2411
sbasba(icurlovision
StoneLayout
p2412
(dp2413
g31
F0.4791666666666667
sg32
(lp2414
(icurlovision
Stone
p2415
(dp2416
g36
F7.335365853658536
sg37
F0.823170731707317
sg38
F0.4390243902439024
sg39
S'yellow'
p2417
sba(icurlovision
Stone
p2418
(dp2419
g36
F2.798780487804878
sg37
F-0.8597560975609756
sg38
F0.4390243902439024
sg39
S'red'
p2420
sba(icurlovision
Stone
p2421
(dp2422
g36
F-3.969512195121951
sg37
F-0.23780487804878048
sg38
F0.3292682926829268
sg39
S'yellow'
p2423
sba(icurlovision
Stone
p2424
(dp2425
g36
F2.3597560975609753
sg37
F0.018292682926829267
sg38
F0.31097560975609756
sg39
S'red'
p2426
sba(icurlovision
Stone
p2427
(dp2428
g36
F-0.018292682926829267
sg37
F0.6036585365853658
sg38
F0.31097560975609756
sg39
S'yellow'
p2429
sbasba(icurlovision
StoneLayout
p2430
(dp2431
g31
F0.4791666666666667
sg32
(lp2432
(icurlovision
Stone
p2433
(dp2434
g36
F3.260869565217391
sg37
F0.2608695652173913
sg38
F0.45652173913043476
sg39
S'yellow'
p2435
sba(icurlovision
Stone
p2436
(dp2437
g36
F2.869565217391304
sg37
F-0.9130434782608695
sg38
F0.45652173913043476
sg39
S'red'
p2438
sba(icurlovision
Stone
p2439
(dp2440
g36
F7.369565217391304
sg37
F3.0
sg38
F0.45652173913043476
sg39
S'red'
p2441
sba(icurlovision
Stone
p2442
(dp2443
g36
F-0.09782608695652173
sg37
F0.6195652173913043
sg38
F0.358695652173913
sg39
S'yellow'
p2444
sba(icurlovision
Stone
p2445
(dp2446
g36
F-6.684782608695652
sg37
F2.543478260869565
sg38
F0.44021739130434784
sg39
S'yellow'
p2447
sbasba(icurlovision
StoneLayout
p2448
(dp2449
g31
F0.4791666666666667
sg32
(lp2450
(icurlovision
Stone
p2451
(dp2452
g36
F2.755813953488372
sg37
F-0.8546511627906976
sg38
F0.436046511627907
sg39
S'red'
p2453
sba(icurlovision
Stone
p2454
(dp2455
g36
F3.13953488372093
sg37
F0.22674418604651161
sg38
F0.3313953488372093
sg39
S'yellow'
p2456
sba(icurlovision
Stone
p2457
(dp2458
g36
F12.627906976744185
sg37
F0.12209302325581395
sg38
F0.436046511627907
sg39
S'yellow'
p2459
sba(icurlovision
Stone
p2460
(dp2461
g36
F-0.10465116279069767
sg37
F0.5755813953488372
sg38
F0.45348837209302323
sg39
S'yellow'
p2462
sba(icurlovision
Stone
p2463
(dp2464
g36
F7.011627906976744
sg37
F2.808139534883721
sg38
F0.436046511627907
sg39
S'red'
p2465
sbasba(icurlovision
StoneLayout
p2466
(dp2467
g31
F0.4791666666666667
sg32
(lp2468
(icurlovision
Stone
p2469
(dp2470
g36
F3.394736842105263
sg37
F0.23684210526315788
sg38
F0.47368421052631576
sg39
S'yellow'
p2471
sba(icurlovision
Stone
p2472
(dp2473
g36
F7.578947368421052
sg37
F3.039473684210526
sg38
F0.23684210526315788
sg39
S'red'
p2474
sba(icurlovision
Stone
p2475
(dp2476
g36
F13.618421052631579
sg37
F0.11842105263157894
sg38
F0.47368421052631576
sg39
S'yellow'
p2477
sba(icurlovision
Stone
p2478
(dp2479
g36
F0.75
sg37
F0.15789473684210525
sg38
F0.2763157894736842
sg39
S'red'
p2480
sbasba(icurlovision
StoneLayout
p2481
(dp2482
g31
F0.4791666666666667
sg32
(lp2483
(icurlovision
Stone
p2484
(dp2485
g36
F1.7093023255813953
sg37
F2.058139534883721
sg38
F0.47093023255813954
sg39
S'yellow'
p2486
sba(icurlovision
Stone
p2487
(dp2488
g36
F2.8604651162790695
sg37
F-0.10465116279069767
sg38
F0.45348837209302323
sg39
S'yellow'
p2489
sba(icurlovision
Stone
p2490
(dp2491
g36
F7.186046511627907
sg37
F2.9302325581395348
sg38
F0.436046511627907
sg39
S'red'
p2492
sba(icurlovision
Stone
p2493
(dp2494
g36
F0.6976744186046512
sg37
F0.13953488372093023
sg38
F0.3313953488372093
sg39
S'red'
p2495
sba(icurlovision
Stone
p2496
(dp2497
g36
F13.081395348837209
sg37
F0.13953488372093023
sg38
F0.2965116279069767
sg39
S'yellow'
p2498
sbasba(icurlovision
StoneLayout
p2499
(dp2500
g31
F0.4791666666666667
sg32
(lp2501
(icurlovision
Stone
p2502
(dp2503
g36
F1.671875
sg37
F2.078125
sg38
F0.328125
sg39
S'yellow'
p2504
sba(icurlovision
Stone
p2505
(dp2506
g36
F7.109375
sg37
F2.859375
sg38
F0.4375
sg39
S'red'
p2507
sba(icurlovision
Stone
p2508
(dp2509
g36
F2.796875
sg37
F-0.109375
sg38
F0.453125
sg39
S'yellow'
p2510
sba(icurlovision
Stone
p2511
(dp2512
g36
F12.890625
sg37
F0.109375
sg38
F0.296875
sg39
S'yellow'
p2513
sba(icurlovision
Stone
p2514
(dp2515
g36
F0.703125
sg37
F0.171875
sg38
F0.375
sg39
S'red'
p2516
sba(icurlovision
Stone
p2517
(dp2518
g36
F4.921875
sg37
F0.859375
sg38
F0.390625
sg39
S'red'
p2519
sbasba(icurlovision
StoneLayout
p2520
(dp2521
g31
F0.4791666666666667
sg32
(lp2522
(icurlovision
Stone
p2523
(dp2524
g36
F2.985
sg37
F-1.185
sg38
F0.42
sg39
S'yellow'
p2525
sba(icurlovision
Stone
p2526
(dp2527
g36
F1.665
sg37
F1.9949999999999999
sg38
F0.435
sg39
S'yellow'
p2528
sba(icurlovision
Stone
p2529
(dp2530
g36
F12.434999999999999
sg37
F0.135
sg38
F0.40499999999999997
sg39
S'yellow'
p2531
sba(icurlovision
Stone
p2532
(dp2533
g36
F6.915
sg37
F2.775
sg38
F0.435
sg39
S'red'
p2534
sba(icurlovision
Stone
p2535
(dp2536
g36
F1.545
sg37
F0.375
sg38
F0.315
sg39
S'yellow'
p2537
sba(icurlovision
Stone
p2538
(dp2539
g36
F4.785
sg37
F0.825
sg38
F0.27
sg39
S'red'
p2540
sbasbasg431
I8
sg432
I1
sbasS'version'
p2541
I20180812
sg431
I8
sS'metadata'
p2542
(icurlovision
MatchMetadata
p2543
(dp2544
S'team_name_red'
p2545
S'Unknown'
p2546
sS'event_name'
p2547
g2546
sS'gender'
p2548
g2546
sS'other_info'
p2549
g2546
sS'team_name_yel'
p2550
g2546
sS'date'
p2551
g2546
sbsb.