(icurlovision
MatchResult
p0
(dp1
S'yel_score'
p2
I7
sS'red_score'
p3
I7
sS'name'
p4
S"VideoLibrary/PyeongChang.Olympics.2018.curling.women's.semi-finals.Korea.v.Japan.1080p.NBC.WEB-DL-FINFUNGUS.mp4"
p5
sS'end_results'
p6
(lp7
(icurlovision
EndResult
p8
(dp9
g2
I0
sS'stones_left'
p10
(lp11
(I8
I7
tp12
a(I7
I6
tp13
a(I6
I6
tp14
a(I5
I5
tp15
a(I4
I4
tp16
a(I4
I3
tp17
a(I3
I3
tp18
a(I3
I2
tp19
a(I2
I2
tp20
a(I2
I1
tp21
a(I1
I1
tp22
a(I1
I0
tp23
asS'end_num'
p24
I1
sS'stone_layouts'
p25
(lp26
(icurlovision
StoneLayout
p27
(dp28
S'stone_radius'
p29
F0.4791666666666667
sS'stones'
p30
(lp31
(icurlovision
Stone
p32
(dp33
S'y'
p34
F7.9642857142857135
sS'x'
p35
F-0.26785714285714285
sS'r'
p36
F0.42857142857142855
sS'color'
p37
S'yellow'
p38
sbasba(icurlovision
StoneLayout
p39
(dp40
g29
F0.4791666666666667
sg30
(lp41
(icurlovision
Stone
p42
(dp43
g34
F2.5625
sg35
F-0.625
sg36
F0.453125
sg37
S'yellow'
p44
sba(icurlovision
Stone
p45
(dp46
g34
F8.09375
sg35
F-0.25
sg36
F0.3125
sg37
S'yellow'
p47
sba(icurlovision
Stone
p48
(dp49
g34
F1.0
sg35
F-0.3125
sg36
F0.34375
sg37
S'red'
p50
sba(icurlovision
Stone
p51
(dp52
g34
F9.59375
sg35
F-11.625
sg36
F0.3125
sg37
S'yellow'
p53
sbasba(icurlovision
StoneLayout
p54
(dp55
g29
F0.4791666666666667
sg30
(lp56
(icurlovision
Stone
p57
(dp58
g34
F3.135
sg35
F-1.185
sg36
F0.315
sg37
S'red'
p59
sba(icurlovision
Stone
p60
(dp61
g34
F1.875
sg35
F-0.135
sg36
F0.315
sg37
S'yellow'
p62
sba(icurlovision
Stone
p63
(dp64
g34
F7.935
sg35
F-0.22499999999999998
sg36
F0.315
sg37
S'yellow'
p65
sba(icurlovision
Stone
p66
(dp67
g34
F0.825
sg35
F-0.255
sg36
F0.345
sg37
S'red'
p68
sbasba(icurlovision
StoneLayout
p69
(dp70
g29
F0.4791666666666667
sg30
(lp71
(icurlovision
Stone
p72
(dp73
g34
F1.7971698113207548
sg35
F-0.04245283018867925
sg36
F0.339622641509434
sg37
S'yellow'
p74
sba(icurlovision
Stone
p75
(dp76
g34
F0.8632075471698113
sg35
F-0.2688679245283019
sg36
F0.2971698113207547
sg37
S'red'
p77
sba(icurlovision
Stone
p78
(dp79
g34
F1.7122641509433962
sg35
F-1.259433962264151
sg36
F0.32547169811320753
sg37
S'red'
p80
sba(icurlovision
Stone
p81
(dp82
g34
F4.1745283018867925
sg35
F-1.4858490566037736
sg36
F0.339622641509434
sg37
S'yellow'
p83
sba(icurlovision
Stone
p84
(dp85
g34
F-3.5801886792452833
sg35
F-6.608490566037736
sg36
F0.339622641509434
sg37
S'red'
p86
sba(icurlovision
Stone
p87
(dp88
g34
F-6.75
sg35
F5.872641509433962
sg36
F0.4811320754716981
sg37
S'yellow'
p89
sbasba(icurlovision
StoneLayout
p90
(dp91
g29
F0.4791666666666667
sg30
(lp92
(icurlovision
Stone
p93
(dp94
g34
F-3.271551724137931
sg35
F-1.331896551724138
sg36
F0.34913793103448276
sg37
S'red'
p95
sba(icurlovision
Stone
p96
(dp97
g34
F2.6767241379310343
sg35
F-0.03879310344827586
sg36
F0.46551724137931033
sg37
S'red'
p98
sba(icurlovision
Stone
p99
(dp100
g34
F3.7629310344827585
sg35
F-1.7198275862068966
sg36
F0.33620689655172414
sg37
S'yellow'
p101
sba(icurlovision
Stone
p102
(dp103
g34
F1.7198275862068966
sg35
F-0.01293103448275862
sg36
F0.33620689655172414
sg37
S'yellow'
p104
sba(icurlovision
Stone
p105
(dp106
g34
F1.6422413793103448
sg35
F-1.228448275862069
sg36
F0.33620689655172414
sg37
S'red'
p107
sba(icurlovision
Stone
p108
(dp109
g34
F4.952586206896552
sg35
F-1.0474137931034482
sg36
F0.33620689655172414
sg37
S'yellow'
p110
sbasba(icurlovision
StoneLayout
p111
(dp112
g29
F0.4791666666666667
sg30
(lp113
(icurlovision
Stone
p114
(dp115
g34
F-3.267857142857143
sg35
F-1.3660714285714286
sg36
F0.46875
sg37
S'red'
p116
sba(icurlovision
Stone
p117
(dp118
g34
F3.642857142857143
sg35
F-0.05357142857142857
sg36
F0.375
sg37
S'yellow'
p119
sba(icurlovision
Stone
p120
(dp121
g34
F3.830357142857143
sg35
F-1.7410714285714284
sg36
F0.3214285714285714
sg37
S'yellow'
p122
sba(icurlovision
Stone
p123
(dp124
g34
F5.008928571428571
sg35
F-1.0982142857142856
sg36
F0.36160714285714285
sg37
S'yellow'
p125
sba(icurlovision
Stone
p126
(dp127
g34
F1.6875
sg35
F-1.232142857142857
sg36
F0.3482142857142857
sg37
S'red'
p128
sba(icurlovision
Stone
p129
(dp130
g34
F1.3392857142857142
sg35
F0.0
sg36
F0.4419642857142857
sg37
S'yellow'
p131
sba(icurlovision
Stone
p132
(dp133
g34
F2.6785714285714284
sg35
F-0.05357142857142857
sg36
F0.3482142857142857
sg37
S'red'
p134
sbasba(icurlovision
StoneLayout
p135
(dp136
g29
F0.4791666666666667
sg30
(lp137
(icurlovision
Stone
p138
(dp139
g34
F3.602678571428571
sg35
F-0.013392857142857142
sg36
F0.33482142857142855
sg37
S'yellow'
p140
sba(icurlovision
Stone
p141
(dp142
g34
F-3.308035714285714
sg35
F-1.325892857142857
sg36
F0.45535714285714285
sg37
S'red'
p143
sba(icurlovision
Stone
p144
(dp145
g34
F4.995535714285714
sg35
F-1.0848214285714286
sg36
F0.3214285714285714
sg37
S'yellow'
p146
sba(icurlovision
Stone
p147
(dp148
g34
F3.8169642857142856
sg35
F-1.7276785714285714
sg36
F0.3214285714285714
sg37
S'yellow'
p149
sba(icurlovision
Stone
p150
(dp151
g34
F2.236607142857143
sg35
F-0.12053571428571427
sg36
F0.3482142857142857
sg37
S'red'
p152
sba(icurlovision
Stone
p153
(dp154
g34
F1.6741071428571428
sg35
F-1.2455357142857142
sg36
F0.36160714285714285
sg37
S'red'
p155
sba(icurlovision
Stone
p156
(dp157
g34
F4.540178571428571
sg35
F0.040178571428571425
sg36
F0.36160714285714285
sg37
S'red'
p158
sbasba(icurlovision
StoneLayout
p159
(dp160
g29
F0.4791666666666667
sg30
(lp161
(icurlovision
Stone
p162
(dp163
g34
F3.0500000000000003
sg35
F-0.1
sg36
F0.325
sg37
S'yellow'
p164
sba(icurlovision
Stone
p165
(dp166
g34
F4.575
sg35
F1.4500000000000002
sg36
F0.325
sg37
S'yellow'
p167
sba(icurlovision
Stone
p168
(dp169
g34
F3.6500000000000004
sg35
F-1.7000000000000002
sg36
F0.325
sg37
S'yellow'
p170
sba(icurlovision
Stone
p171
(dp172
g34
F-3.325
sg35
F-1.55
sg36
F0.45
sg37
S'red'
p173
sba(icurlovision
Stone
p174
(dp175
g34
F4.800000000000001
sg35
F-1.05
sg36
F0.41250000000000003
sg37
S'yellow'
p176
sba(icurlovision
Stone
p177
(dp178
g34
F1.625
sg35
F-1.2000000000000002
sg36
F0.4375
sg37
S'red'
p179
sba(icurlovision
Stone
p180
(dp181
g34
F4.325
sg35
F-0.07500000000000001
sg36
F0.3375
sg37
S'red'
p182
sbasba(icurlovision
StoneLayout
p183
(dp184
g29
F0.4791666666666667
sg30
(lp185
(icurlovision
Stone
p186
(dp187
g34
F4.1045454545454545
sg35
F-0.859090909090909
sg36
F0.4909090909090909
sg37
S'red'
p188
sba(icurlovision
Stone
p189
(dp190
g34
F1.759090909090909
sg35
F-1.3499999999999999
sg36
F0.4909090909090909
sg37
S'red'
p191
sba(icurlovision
Stone
p192
(dp193
g34
F5.168181818181818
sg35
F0.5863636363636363
sg36
F0.3409090909090909
sg37
S'red'
p194
sba(icurlovision
Stone
p195
(dp196
g34
F-3.7227272727272727
sg35
F-1.7045454545454544
sg36
F0.3136363636363636
sg37
S'red'
p197
sba(icurlovision
Stone
p198
(dp199
g34
F5.304545454545455
sg35
F-1.1318181818181818
sg36
F0.3409090909090909
sg37
S'yellow'
p200
sba(icurlovision
Stone
p201
(dp202
g34
F3.340909090909091
sg35
F-4.922727272727273
sg36
F0.3818181818181818
sg37
S'yellow'
p203
sbasba(icurlovision
StoneLayout
p204
(dp205
g29
F0.4791666666666667
sg30
(lp206
(icurlovision
Stone
p207
(dp208
g34
F-2.5625
sg35
F5.125
sg36
F0.36250000000000004
sg37
S'red'
p209
sba(icurlovision
Stone
p210
(dp211
g34
F0.08750000000000001
sg35
F5.125
sg36
F0.35000000000000003
sg37
S'red'
p212
sba(icurlovision
Stone
p213
(dp214
g34
F-3.4125
sg35
F-1.6
sg36
F0.3875
sg37
S'red'
p215
sba(icurlovision
Stone
p216
(dp217
g34
F6.0375000000000005
sg35
F1.125
sg36
F0.3375
sg37
S'yellow'
p218
sbasba(icurlovision
StoneLayout
p219
(dp220
g29
F0.4791666666666667
sg30
(lp221
(icurlovision
Stone
p222
(dp223
g34
F6.013636363636364
sg35
F1.1045454545454545
sg36
F0.43636363636363634
sg37
S'yellow'
p224
sba(icurlovision
Stone
p225
(dp226
g34
F0.12272727272727273
sg35
F5.113636363636363
sg36
F0.3409090909090909
sg37
S'red'
p227
sba(icurlovision
Stone
p228
(dp229
g34
F-3.4227272727272724
sg35
F-1.5681818181818181
sg36
F0.35454545454545455
sg37
S'red'
p230
sba(icurlovision
Stone
p231
(dp232
g34
F-2.55
sg35
F5.113636363636363
sg36
F0.35454545454545455
sg37
S'red'
p233
sba(icurlovision
Stone
p234
(dp235
g34
F4.540909090909091
sg35
F-3.75
sg36
F0.35454545454545455
sg37
S'red'
p236
sbasba(icurlovision
StoneLayout
p237
(dp238
g29
F0.4791666666666667
sg30
(lp239
(icurlovision
Stone
p240
(dp241
g34
F6.050847457627119
sg35
F1.1440677966101696
sg36
F0.3305084745762712
sg37
S'yellow'
p242
sba(icurlovision
Stone
p243
(dp244
g34
F-2.593220338983051
sg35
F5.161016949152542
sg36
F0.35593220338983056
sg37
S'red'
p245
sba(icurlovision
Stone
p246
(dp247
g34
F-4.754237288135593
sg35
F-4.372881355932203
sg36
F0.3305084745762712
sg37
S'red'
p248
sba(icurlovision
Stone
p249
(dp250
g34
F4.5508474576271185
sg35
F-3.76271186440678
sg36
F0.3432203389830509
sg37
S'red'
p251
sbasbasg3
I3
sS'red_hammer'
p252
I1
sba(icurlovision
EndResult
p253
(dp254
g2
I2
sg10
(lp255
(I7
I8
tp256
a(I6
I7
tp257
a(I6
I6
tp258
a(I4
I5
tp259
a(I4
I4
tp260
a(I3
I4
tp261
a(I2
I3
tp262
a(I2
I2
tp263
a(I1
I2
tp264
a(I1
I1
tp265
a(I0
I1
tp266
asg24
I2
sg25
(lp267
(icurlovision
StoneLayout
p268
(dp269
g29
F0.4791666666666667
sg30
(lp270
(icurlovision
Stone
p271
(dp272
g34
F2.726190476190476
sg35
F-0.22619047619047616
sg36
F0.34523809523809523
sg37
S'red'
p273
sbasba(icurlovision
StoneLayout
p274
(dp275
g29
F0.4791666666666667
sg30
(lp276
(icurlovision
Stone
p277
(dp278
g34
F2.6890243902439024
sg35
F-0.2195121951219512
sg36
F0.4390243902439024
sg37
S'red'
p279
sba(icurlovision
Stone
p280
(dp281
g34
F6.310975609756097
sg35
F0.40243902439024387
sg36
F0.42073170731707316
sg37
S'red'
p282
sba(icurlovision
Stone
p283
(dp284
g34
F12.23780487804878
sg35
F3.6585365853658534
sg36
F0.42073170731707316
sg37
S'yellow'
p285
sba(icurlovision
Stone
p286
(dp287
g34
F12.018292682926829
sg35
F-13.207317073170731
sg36
F0.31097560975609756
sg37
S'yellow'
p288
sbasba(icurlovision
StoneLayout
p289
(dp290
g29
F0.4791666666666667
sg30
(lp291
(icurlovision
Stone
p292
(dp293
g34
F6.461538461538462
sg35
F0.40384615384615385
sg36
F0.44230769230769235
sg37
S'red'
p294
sba(icurlovision
Stone
p295
(dp296
g34
F-3.6153846153846154
sg35
F-2.8653846153846154
sg36
F0.46153846153846156
sg37
S'yellow'
p297
sba(icurlovision
Stone
p298
(dp299
g34
F12.5
sg35
F3.7115384615384617
sg36
F0.42307692307692313
sg37
S'yellow'
p300
sba(icurlovision
Stone
p301
(dp302
g34
F2.307692307692308
sg35
F0.25
sg36
F0.46153846153846156
sg37
S'red'
p303
sbasba(icurlovision
StoneLayout
p304
(dp305
g29
F0.4791666666666667
sg30
(lp306
(icurlovision
Stone
p307
(dp308
g34
F-4.530612244897959
sg35
F-5.908163265306122
sg36
F0.45918367346938777
sg37
S'red'
p309
sba(icurlovision
Stone
p310
(dp311
g34
F-3.489795918367347
sg35
F-5.908163265306122
sg36
F0.45918367346938777
sg37
S'red'
p312
sba(icurlovision
Stone
p313
(dp314
g34
F2.357142857142857
sg35
F0.2755102040816326
sg36
F0.336734693877551
sg37
S'red'
p315
sba(icurlovision
Stone
p316
(dp317
g34
F-3.5816326530612246
sg35
F-2.510204081632653
sg36
F0.336734693877551
sg37
S'red'
p318
sba(icurlovision
Stone
p319
(dp320
g34
F4.836734693877551
sg35
F3.9489795918367347
sg36
F0.3520408163265306
sg37
S'yellow'
p321
sba(icurlovision
Stone
p322
(dp323
g34
F6.459183673469387
sg35
F-4.530612244897959
sg36
F0.2755102040816326
sg37
S'yellow'
p324
sbasba(icurlovision
StoneLayout
p325
(dp326
g29
F0.4791666666666667
sg30
(lp327
(icurlovision
Stone
p328
(dp329
g34
F1.451086956521739
sg35
F-2.657608695652174
sg36
F0.30978260869565216
sg37
S'yellow'
p330
sba(icurlovision
Stone
p331
(dp332
g34
F-3.4402173913043477
sg35
F-5.885869565217392
sg36
F0.27717391304347827
sg37
S'red'
p333
sba(icurlovision
Stone
p334
(dp335
g34
F-4.483695652173913
sg35
F-5.853260869565217
sg36
F0.4891304347826087
sg37
S'red'
p336
sba(icurlovision
Stone
p337
(dp338
g34
F2.3315217391304346
sg35
F0.27717391304347827
sg36
F0.32608695652173914
sg37
S'red'
p339
sba(icurlovision
Stone
p340
(dp341
g34
F9.831521739130434
sg35
F6.929347826086956
sg36
F0.27717391304347827
sg37
S'yellow'
p342
sba(icurlovision
Stone
p343
(dp344
g34
F4.744565217391305
sg35
F3.8641304347826084
sg36
F0.358695652173913
sg37
S'yellow'
p345
sba(icurlovision
Stone
p346
(dp347
g34
F-3.5706521739130435
sg35
F-2.4619565217391304
sg36
F0.32608695652173914
sg37
S'red'
p348
sbasba(icurlovision
StoneLayout
p349
(dp350
g29
F0.4791666666666667
sg30
(lp351
(icurlovision
Stone
p352
(dp353
g34
F2.05
sg35
F-2.0166666666666666
sg36
F0.3333333333333333
sg37
S'red'
p354
sba(icurlovision
Stone
p355
(dp356
g34
F-3.4833333333333334
sg35
F-5.883333333333333
sg36
F0.4666666666666667
sg37
S'red'
p357
sba(icurlovision
Stone
p358
(dp359
g34
F-4.516666666666667
sg35
F-5.883333333333333
sg36
F0.4666666666666667
sg37
S'red'
p360
sba(icurlovision
Stone
p361
(dp362
g34
F2.3166666666666664
sg35
F0.25
sg36
F0.45
sg37
S'red'
p363
sba(icurlovision
Stone
p364
(dp365
g34
F-3.8833333333333333
sg35
F-2.0833333333333335
sg36
F0.35
sg37
S'red'
p366
sba(icurlovision
Stone
p367
(dp368
g34
F4.75
sg35
F3.85
sg36
F0.45
sg37
S'yellow'
p369
sba(icurlovision
Stone
p370
(dp371
g34
F9.816666666666666
sg35
F6.95
sg36
F0.4666666666666667
sg37
S'yellow'
p372
sba(icurlovision
Stone
p373
(dp374
g34
F9.983333333333333
sg35
F-12.35
sg36
F0.25
sg37
S'yellow'
p375
sbasba(icurlovision
StoneLayout
p376
(dp377
g29
F0.4791666666666667
sg30
(lp378
(icurlovision
Stone
p379
(dp380
g34
F-4.532608695652174
sg35
F-5.934782608695652
sg36
F0.47282608695652173
sg37
S'red'
p381
sba(icurlovision
Stone
p382
(dp383
g34
F-3.5217391304347827
sg35
F-5.9021739130434785
sg36
F0.30978260869565216
sg37
S'red'
p384
sba(icurlovision
Stone
p385
(dp386
g34
F-3.9130434782608696
sg35
F-2.119565217391304
sg36
F0.32608695652173914
sg37
S'red'
p387
sba(icurlovision
Stone
p388
(dp389
g34
F9.815217391304348
sg35
F6.945652173913043
sg36
F0.45652173913043476
sg37
S'yellow'
p390
sba(icurlovision
Stone
p391
(dp392
g34
F-0.5543478260869565
sg35
F-4.695652173913043
sg36
F0.32608695652173914
sg37
S'red'
p393
sba(icurlovision
Stone
p394
(dp395
g34
F3.5217391304347827
sg35
F-1.3695652173913042
sg36
F0.34239130434782605
sg37
S'red'
p396
sba(icurlovision
Stone
p397
(dp398
g34
F4.760869565217392
sg35
F3.8804347826086953
sg36
F0.44021739130434784
sg37
S'yellow'
p399
sbasba(icurlovision
StoneLayout
p400
(dp401
g29
F0.4791666666666667
sg30
(lp402
(icurlovision
Stone
p403
(dp404
g34
F-2.6739130434782608
sg35
F-6.782608695652174
sg36
F0.45652173913043476
sg37
S'red'
p405
sba(icurlovision
Stone
p406
(dp407
g34
F-3.4891304347826084
sg35
F-5.967391304347826
sg36
F0.45652173913043476
sg37
S'red'
p408
sba(icurlovision
Stone
p409
(dp410
g34
F4.663043478260869
sg35
F3.8152173913043477
sg36
F0.27717391304347827
sg37
S'yellow'
p411
sba(icurlovision
Stone
p412
(dp413
g34
F-3.8152173913043477
sg35
F-2.0543478260869565
sg36
F0.358695652173913
sg37
S'red'
p414
sba(icurlovision
Stone
p415
(dp416
g34
F-5.739130434782608
sg35
F-5.510869565217392
sg36
F0.2934782608695652
sg37
S'red'
p417
sba(icurlovision
Stone
p418
(dp419
g34
F3.4565217391304346
sg35
F-1.3369565217391304
sg36
F0.45652173913043476
sg37
S'red'
p420
sba(icurlovision
Stone
p421
(dp422
g34
F9.717391304347826
sg35
F6.880434782608695
sg36
F0.34239130434782605
sg37
S'yellow'
p423
sbasba(icurlovision
StoneLayout
p424
(dp425
g29
F0.4791666666666667
sg30
(lp426
(icurlovision
Stone
p427
(dp428
g34
F-2.8333333333333335
sg35
F-7.133333333333333
sg36
F0.31666666666666665
sg37
S'red'
p429
sba(icurlovision
Stone
p430
(dp431
g34
F-3.6999999999999997
sg35
F-6.3
sg36
F0.48333333333333334
sg37
S'red'
p432
sba(icurlovision
Stone
p433
(dp434
g34
F3.6333333333333333
sg35
F-1.4333333333333333
sg36
F0.35
sg37
S'red'
p435
sba(icurlovision
Stone
p436
(dp437
g34
F-4.0
sg35
F-2.2
sg36
F0.35
sg37
S'red'
p438
sba(icurlovision
Stone
p439
(dp440
g34
F4.5
sg35
F1.2
sg36
F0.4666666666666667
sg37
S'red'
p441
sba(icurlovision
Stone
p442
(dp443
g34
F10.1
sg35
F7.166666666666667
sg36
F0.36666666666666664
sg37
S'yellow'
p444
sba(icurlovision
Stone
p445
(dp446
g34
F9.1
sg35
F-7.5
sg36
F0.35
sg37
S'yellow'
p447
sbasba(icurlovision
StoneLayout
p448
(dp449
g29
F0.4791666666666667
sg30
(lp450
(icurlovision
Stone
p451
(dp452
g34
F-2.1333333333333333
sg35
F-1.4333333333333333
sg36
F0.4666666666666667
sg37
S'yellow'
p453
sba(icurlovision
Stone
p454
(dp455
g34
F-3.533333333333333
sg35
F-6.0
sg36
F0.3
sg37
S'red'
p456
sba(icurlovision
Stone
p457
(dp458
g34
F-2.7
sg35
F-6.833333333333333
sg36
F0.4666666666666667
sg37
S'red'
p459
sba(icurlovision
Stone
p460
(dp461
g34
F-5.8
sg35
F-5.6
sg36
F0.4666666666666667
sg37
S'red'
p462
sba(icurlovision
Stone
p463
(dp464
g34
F3.466666666666667
sg35
F-1.3333333333333333
sg36
F0.45
sg37
S'red'
p465
sba(icurlovision
Stone
p466
(dp467
g34
F9.733333333333333
sg35
F6.866666666666666
sg36
F0.43333333333333335
sg37
S'yellow'
p468
sba(icurlovision
Stone
p469
(dp470
g34
F-3.8
sg35
F-2.033333333333333
sg36
F0.31666666666666665
sg37
S'red'
p471
sba(icurlovision
Stone
p472
(dp473
g34
F4.366666666666666
sg35
F1.2333333333333334
sg36
F0.26666666666666666
sg37
S'red'
p474
sba(icurlovision
Stone
p475
(dp476
g34
F8.9
sg35
F-7.433333333333334
sg36
F0.3
sg37
S'yellow'
p477
sbasba(icurlovision
StoneLayout
p478
(dp479
g29
F0.4791666666666667
sg30
(lp480
(icurlovision
Stone
p481
(dp482
g34
F-2.233695652173913
sg35
F-1.5326086956521738
sg36
F0.47282608695652173
sg37
S'yellow'
p483
sba(icurlovision
Stone
p484
(dp485
g34
F2.7880434782608696
sg35
F-0.5543478260869565
sg36
F0.47282608695652173
sg37
S'red'
p486
sba(icurlovision
Stone
p487
(dp488
g34
F-2.7880434782608696
sg35
F-7.173913043478261
sg36
F0.4891304347826087
sg37
S'red'
p489
sba(icurlovision
Stone
p490
(dp491
g34
F-3.994565217391304
sg35
F-2.1847826086956523
sg36
F0.358695652173913
sg37
S'red'
p492
sba(icurlovision
Stone
p493
(dp494
g34
F3.635869565217391
sg35
F-1.434782608695652
sg36
F0.358695652173913
sg37
S'red'
p495
sba(icurlovision
Stone
p496
(dp497
g34
F-3.7010869565217392
sg35
F-6.326086956521739
sg36
F0.34239130434782605
sg37
S'red'
p498
sba(icurlovision
Stone
p499
(dp500
g34
F4.516304347826087
sg35
F1.2065217391304348
sg36
F0.30978260869565216
sg37
S'red'
p501
sba(icurlovision
Stone
p502
(dp503
g34
F-6.016304347826087
sg35
F-5.869565217391304
sg36
F0.4891304347826087
sg37
S'red'
p504
sba(icurlovision
Stone
p505
(dp506
g34
F10.222826086956522
sg35
F7.239130434782608
sg36
F0.32608695652173914
sg37
S'yellow'
p507
sbasbasg3
I3
sg252
I0
sba(icurlovision
EndResult
p508
(dp509
g2
I2
sg10
(lp510
(I8
I7
tp511
a(I7
I6
tp512
a(I6
I6
tp513
a(I6
I5
tp514
a(I5
I5
tp515
a(I5
I4
tp516
a(I4
I4
tp517
a(I4
I3
tp518
a(I3
I3
tp519
a(I3
I2
tp520
a(I2
I2
tp521
a(I2
I1
tp522
a(I1
I1
tp523
a(I1
I0
tp524
asg24
I3
sg25
(lp525
(icurlovision
StoneLayout
p526
(dp527
g29
F0.4791666666666667
sg30
(lp528
(icurlovision
Stone
p529
(dp530
g34
F7.707446808510638
sg35
F-0.06382978723404255
sg36
F0.4627659574468085
sg37
S'yellow'
p531
sba(icurlovision
Stone
p532
(dp533
g34
F9.430851063829786
sg35
F-11.872340425531913
sg36
F0.3191489361702127
sg37
S'yellow'
p534
sbasba(icurlovision
StoneLayout
p535
(dp536
g29
F0.4791666666666667
sg30
(lp537
(icurlovision
Stone
p538
(dp539
g34
F7.828125
sg35
F-0.046875
sg36
F0.453125
sg37
S'yellow'
p540
sba(icurlovision
Stone
p541
(dp542
g34
F-2.015625
sg35
F-0.015625
sg36
F0.34375
sg37
S'red'
p543
sba(icurlovision
Stone
p544
(dp545
g34
F-1.359375
sg35
F-0.796875
sg36
F0.359375
sg37
S'yellow'
p546
sba(icurlovision
Stone
p547
(dp548
g34
F8.671875
sg35
F-11.609375
sg36
F0.3125
sg37
S'yellow'
p549
sbasba(icurlovision
StoneLayout
p550
(dp551
g29
F0.4791666666666667
sg30
(lp552
(icurlovision
Stone
p553
(dp554
g34
F-2.1933962264150946
sg35
F0.15566037735849056
sg36
F0.4528301886792453
sg37
S'red'
p555
sba(icurlovision
Stone
p556
(dp557
g34
F7.768867924528302
sg35
F-0.04245283018867925
sg36
F0.3537735849056604
sg37
S'yellow'
p558
sba(icurlovision
Stone
p559
(dp560
g34
F-1.7405660377358492
sg35
F-0.9764150943396227
sg36
F0.32547169811320753
sg37
S'yellow'
p561
sba(icurlovision
Stone
p562
(dp563
g34
F-0.38207547169811323
sg35
F-0.6650943396226415
sg36
F0.2971698113207547
sg37
S'red'
p564
sbasba(icurlovision
StoneLayout
p565
(dp566
g29
F0.4791666666666667
sg30
(lp567
(icurlovision
Stone
p568
(dp569
g34
F-2.2840909090909087
sg35
F0.13636363636363635
sg36
F0.47727272727272724
sg37
S'red'
p570
sba(icurlovision
Stone
p571
(dp572
g34
F7.636363636363636
sg35
F0.30681818181818177
sg36
F0.3409090909090909
sg37
S'yellow'
p573
sba(icurlovision
Stone
p574
(dp575
g34
F7.806818181818182
sg35
F-1.2954545454545454
sg36
F0.47727272727272724
sg37
S'yellow'
p576
sba(icurlovision
Stone
p577
(dp578
g34
F-1.8409090909090908
sg35
F-1.0227272727272727
sg36
F0.47727272727272724
sg37
S'yellow'
p579
sba(icurlovision
Stone
p580
(dp581
g34
F-0.40909090909090906
sg35
F-0.7159090909090908
sg36
F0.375
sg37
S'red'
p582
sba(icurlovision
Stone
p583
(dp584
g34
F10.193181818181817
sg35
F-12.681818181818182
sg36
F0.2556818181818182
sg37
S'yellow'
p585
sbasba(icurlovision
StoneLayout
p586
(dp587
g29
F0.4791666666666667
sg30
(lp588
(icurlovision
Stone
p589
(dp590
g34
F2.8990384615384617
sg35
F2.2355769230769234
sg36
F0.46153846153846156
sg37
S'red'
p591
sba(icurlovision
Stone
p592
(dp593
g34
F6.8798076923076925
sg35
F-0.15865384615384617
sg36
F0.3028846153846154
sg37
S'yellow'
p594
sba(icurlovision
Stone
p595
(dp596
g34
F7.543269230769231
sg35
F-1.2548076923076923
sg36
F0.44711538461538464
sg37
S'yellow'
p597
sba(icurlovision
Stone
p598
(dp599
g34
F-2.206730769230769
sg35
F0.15865384615384617
sg36
F0.31730769230769235
sg37
S'red'
p600
sba(icurlovision
Stone
p601
(dp602
g34
F-1.7451923076923077
sg35
F-0.9375
sg36
F0.46153846153846156
sg37
S'yellow'
p603
sba(icurlovision
Stone
p604
(dp605
g34
F-0.4182692307692308
sg35
F-0.7067307692307693
sg36
F0.3028846153846154
sg37
S'red'
p606
sbasba(icurlovision
StoneLayout
p607
(dp608
g29
F0.4791666666666667
sg30
(lp609
(icurlovision
Stone
p610
(dp611
g34
F2.8227272727272728
sg35
F2.1954545454545453
sg36
F0.3409090909090909
sg37
S'red'
p612
sba(icurlovision
Stone
p613
(dp614
g34
F-2.1136363636363633
sg35
F0.15
sg36
F0.3
sg37
S'red'
p615
sba(icurlovision
Stone
p616
(dp617
g34
F6.668181818181818
sg35
F-0.15
sg36
F0.43636363636363634
sg37
S'yellow'
p618
sba(icurlovision
Stone
p619
(dp620
g34
F-1.7045454545454544
sg35
F-0.9136363636363636
sg36
F0.43636363636363634
sg37
S'yellow'
p621
sba(icurlovision
Stone
p622
(dp623
g34
F0.42272727272727273
sg35
F-0.2590909090909091
sg36
F0.43636363636363634
sg37
S'yellow'
p624
sba(icurlovision
Stone
p625
(dp626
g34
F7.377272727272727
sg35
F-1.2136363636363636
sg36
F0.32727272727272727
sg37
S'yellow'
p627
sba(icurlovision
Stone
p628
(dp629
g34
F-0.44999999999999996
sg35
F-0.7227272727272727
sg36
F0.3136363636363636
sg37
S'red'
p630
sbasba(icurlovision
StoneLayout
p631
(dp632
g29
F0.4791666666666667
sg30
(lp633
(icurlovision
Stone
p634
(dp635
g34
F-5.914772727272727
sg35
F-3.9374999999999996
sg36
F0.30681818181818177
sg37
S'yellow'
p636
sba(icurlovision
Stone
p637
(dp638
g34
F-2.2670454545454546
sg35
F0.15340909090909088
sg36
F0.47727272727272724
sg37
S'red'
p639
sba(icurlovision
Stone
p640
(dp641
g34
F-1.8238636363636362
sg35
F-1.0397727272727273
sg36
F0.3579545454545454
sg37
S'yellow'
p642
sba(icurlovision
Stone
p643
(dp644
g34
F3.0852272727272725
sg35
F2.3352272727272725
sg36
F0.47727272727272724
sg37
S'red'
p645
sba(icurlovision
Stone
p646
(dp647
g34
F0.28977272727272724
sg35
F6.357954545454545
sg36
F0.4602272727272727
sg37
S'yellow'
p648
sba(icurlovision
Stone
p649
(dp650
g34
F0.5284090909090908
sg35
F-0.3579545454545454
sg36
F0.3409090909090909
sg37
S'yellow'
p651
sba(icurlovision
Stone
p652
(dp653
g34
F0.8011363636363635
sg35
F-7.107954545454545
sg36
F0.49431818181818177
sg37
S'red'
p654
sba(icurlovision
Stone
p655
(dp656
g34
F-0.4602272727272727
sg35
F-0.8011363636363635
sg36
F0.3579545454545454
sg37
S'red'
p657
sba(icurlovision
Stone
p658
(dp659
g34
F9.971590909090908
sg35
F-12.698863636363635
sg36
F0.3409090909090909
sg37
S'yellow'
p660
sbasba(icurlovision
StoneLayout
p661
(dp662
g29
F0.4791666666666667
sg30
(lp663
(icurlovision
Stone
p664
(dp665
g34
F-1.8642857142857143
sg35
F-1.092857142857143
sg36
F0.36428571428571427
sg37
S'yellow'
p666
sba(icurlovision
Stone
p667
(dp668
g34
F3.15
sg35
F2.335714285714286
sg36
F0.4928571428571429
sg37
S'red'
p669
sba(icurlovision
Stone
p670
(dp671
g34
F15.664285714285715
sg35
F-1.2214285714285715
sg36
F0.45
sg37
S'yellow'
p672
sba(icurlovision
Stone
p673
(dp674
g34
F-0.45
sg35
F-0.8357142857142857
sg36
F0.36428571428571427
sg37
S'red'
p675
sba(icurlovision
Stone
p676
(dp677
g34
F0.5357142857142857
sg35
F-0.40714285714285714
sg36
F0.3
sg37
S'yellow'
p678
sba(icurlovision
Stone
p679
(dp680
g34
F-2.2928571428571427
sg35
F0.10714285714285715
sg36
F0.4928571428571429
sg37
S'red'
p681
sba(icurlovision
Stone
p682
(dp683
g34
F15.535714285714286
sg35
F-15.878571428571428
sg36
F0.3
sg37
S'yellow'
p684
sbasba(icurlovision
StoneLayout
p685
(dp686
g29
F0.4791666666666667
sg30
(lp687
(icurlovision
Stone
p688
(dp689
g34
F2.881578947368421
sg35
F2.2105263157894735
sg36
F0.3355263157894737
sg37
S'red'
p690
sba(icurlovision
Stone
p691
(dp692
g34
F-2.131578947368421
sg35
F0.15789473684210525
sg36
F0.47368421052631576
sg37
S'red'
p693
sba(icurlovision
Stone
p694
(dp695
g34
F-1.894736842105263
sg35
F2.9605263157894735
sg36
F0.3157894736842105
sg37
S'yellow'
p696
sba(icurlovision
Stone
p697
(dp698
g34
F14.407894736842104
sg35
F-1.0657894736842104
sg36
F0.41447368421052627
sg37
S'yellow'
p699
sba(icurlovision
Stone
p700
(dp701
g34
F1.3026315789473684
sg35
F-0.23684210526315788
sg36
F0.3157894736842105
sg37
S'red'
p702
sba(icurlovision
Stone
p703
(dp704
g34
F-0.8684210526315789
sg35
F-1.1052631578947367
sg36
F0.23684210526315788
sg37
S'red'
p705
sba(icurlovision
Stone
p706
(dp707
g34
F13.81578947368421
sg35
F-14.565789473684209
sg36
F0.2763157894736842
sg37
S'yellow'
p708
sbasba(icurlovision
StoneLayout
p709
(dp710
g29
F0.4791666666666667
sg30
(lp711
(icurlovision
Stone
p712
(dp713
g34
F2.270833333333333
sg35
F-0.10416666666666666
sg36
F0.35416666666666663
sg37
S'yellow'
p714
sba(icurlovision
Stone
p715
(dp716
g34
F-2.020833333333333
sg35
F3.1041666666666665
sg36
F0.4583333333333333
sg37
S'yellow'
p717
sba(icurlovision
Stone
p718
(dp719
g34
F15.1875
sg35
F-1.1458333333333333
sg36
F0.41666666666666663
sg37
S'yellow'
p720
sba(icurlovision
Stone
p721
(dp722
g34
F-1.6875
sg35
F-1.6458333333333333
sg36
F0.5
sg37
S'red'
p723
sba(icurlovision
Stone
p724
(dp725
g34
F3.0625
sg35
F2.3125
sg36
F0.35416666666666663
sg37
S'red'
p726
sba(icurlovision
Stone
p727
(dp728
g34
F-0.3125
sg35
F-0.4375
sg36
F0.2708333333333333
sg37
S'red'
p729
sba(icurlovision
Stone
p730
(dp731
g34
F-2.270833333333333
sg35
F0.10416666666666666
sg36
F0.3333333333333333
sg37
S'red'
p732
sba(icurlovision
Stone
p733
(dp734
g34
F14.395833333333332
sg35
F-15.104166666666666
sg36
F0.25
sg37
S'yellow'
p735
sbasba(icurlovision
StoneLayout
p736
(dp737
g29
F0.4791666666666667
sg30
(lp738
(icurlovision
Stone
p739
(dp740
g34
F-2.020833333333333
sg35
F3.1041666666666665
sg36
F0.47916666666666663
sg37
S'yellow'
p741
sba(icurlovision
Stone
p742
(dp743
g34
F2.9791666666666665
sg35
F2.3125
sg36
F0.4583333333333333
sg37
S'red'
p744
sba(icurlovision
Stone
p745
(dp746
g34
F-3.0625
sg35
F-6.0625
sg36
F0.4583333333333333
sg37
S'red'
p747
sba(icurlovision
Stone
p748
(dp749
g34
F15.0625
sg35
F-1.1458333333333333
sg36
F0.41666666666666663
sg37
S'yellow'
p750
sba(icurlovision
Stone
p751
(dp752
g34
F-2.3125
sg35
F0.14583333333333331
sg36
F0.47916666666666663
sg37
S'red'
p753
sba(icurlovision
Stone
p754
(dp755
g34
F-1.7291666666666665
sg35
F-1.6875
sg36
F0.47916666666666663
sg37
S'red'
p756
sba(icurlovision
Stone
p757
(dp758
g34
F-0.3125
sg35
F-0.4375
sg36
F0.35416666666666663
sg37
S'red'
p759
sba(icurlovision
Stone
p760
(dp761
g34
F14.520833333333332
sg35
F-15.145833333333332
sg36
F0.20833333333333331
sg37
S'yellow'
p762
sbasba(icurlovision
StoneLayout
p763
(dp764
g29
F0.4791666666666667
sg30
(lp765
(icurlovision
Stone
p766
(dp767
g34
F-1.9583333333333333
sg35
F3.0416666666666665
sg36
F0.47916666666666663
sg37
S'yellow'
p768
sba(icurlovision
Stone
p769
(dp770
g34
F-2.25
sg35
F0.08333333333333333
sg36
F0.3333333333333333
sg37
S'red'
p771
sba(icurlovision
Stone
p772
(dp773
g34
F-3.0
sg35
F-6.083333333333333
sg36
F0.2708333333333333
sg37
S'red'
p774
sba(icurlovision
Stone
p775
(dp776
g34
F15.125
sg35
F-1.1666666666666665
sg36
F0.4375
sg37
S'yellow'
p777
sba(icurlovision
Stone
p778
(dp779
g34
F-0.7083333333333333
sg35
F-0.375
sg36
F0.3125
sg37
S'red'
p780
sba(icurlovision
Stone
p781
(dp782
g34
F3.0416666666666665
sg35
F2.2916666666666665
sg36
F0.35416666666666663
sg37
S'red'
p783
sba(icurlovision
Stone
p784
(dp785
g34
F0.5
sg35
F-1.0
sg36
F0.3333333333333333
sg37
S'yellow'
p786
sba(icurlovision
Stone
p787
(dp788
g34
F-1.6666666666666665
sg35
F-1.7083333333333333
sg36
F0.47916666666666663
sg37
S'red'
p789
sba(icurlovision
Stone
p790
(dp791
g34
F14.291666666666666
sg35
F-15.416666666666666
sg36
F0.29166666666666663
sg37
S'yellow'
p792
sbasba(icurlovision
StoneLayout
p793
(dp794
g29
F0.4791666666666667
sg30
(lp795
(icurlovision
Stone
p796
(dp797
g34
F-2.020833333333333
sg35
F3.1041666666666665
sg36
F0.47916666666666663
sg37
S'yellow'
p798
sba(icurlovision
Stone
p799
(dp800
g34
F15.0625
sg35
F-1.1458333333333333
sg36
F0.3958333333333333
sg37
S'yellow'
p801
sba(icurlovision
Stone
p802
(dp803
g34
F-2.2291666666666665
sg35
F0.14583333333333331
sg36
F0.20833333333333331
sg37
S'red'
p804
sba(icurlovision
Stone
p805
(dp806
g34
F2.9791666666666665
sg35
F2.3125
sg36
F0.4583333333333333
sg37
S'red'
p807
sba(icurlovision
Stone
p808
(dp809
g34
F0.3125
sg35
F-1.1041666666666665
sg36
F0.35416666666666663
sg37
S'yellow'
p810
sba(icurlovision
Stone
p811
(dp812
g34
F-3.0625
sg35
F-6.0625
sg36
F0.4583333333333333
sg37
S'red'
p813
sba(icurlovision
Stone
p814
(dp815
g34
F-1.6875
sg35
F-1.6458333333333333
sg36
F0.4583333333333333
sg37
S'red'
p816
sba(icurlovision
Stone
p817
(dp818
g34
F-0.7708333333333333
sg35
F-0.35416666666666663
sg36
F0.3333333333333333
sg37
S'red'
p819
sba(icurlovision
Stone
p820
(dp821
g34
F1.0208333333333333
sg35
F-0.1875
sg36
F0.35416666666666663
sg37
S'red'
p822
sba(icurlovision
Stone
p823
(dp824
g34
F14.479166666666666
sg35
F-15.020833333333332
sg36
F0.4375
sg37
S'yellow'
p825
sbasba(icurlovision
StoneLayout
p826
(dp827
g29
F0.4791666666666667
sg30
(lp828
(icurlovision
Stone
p829
(dp830
g34
F2.9391891891891895
sg35
F2.25
sg36
F0.44594594594594594
sg37
S'red'
p831
sba(icurlovision
Stone
p832
(dp833
g34
F-1.9256756756756759
sg35
F2.97972972972973
sg36
F0.46621621621621623
sg37
S'yellow'
p834
sba(icurlovision
Stone
p835
(dp836
g34
F-2.695945945945946
sg35
F0.26351351351351354
sg36
F0.46621621621621623
sg37
S'red'
p837
sba(icurlovision
Stone
p838
(dp839
g34
F-2.9391891891891895
sg35
F-5.858108108108109
sg36
F0.46621621621621623
sg37
S'red'
p840
sba(icurlovision
Stone
p841
(dp842
g34
F1.4391891891891893
sg35
F-1.2364864864864866
sg36
F0.3445945945945946
sg37
S'yellow'
p843
sba(icurlovision
Stone
p844
(dp845
g34
F-1.5202702702702704
sg35
F-0.5067567567567568
sg36
F0.24324324324324326
sg37
S'red'
p846
sba(icurlovision
Stone
p847
(dp848
g34
F0.3445945945945946
sg35
F-1.0337837837837838
sg36
F0.46621621621621623
sg37
S'yellow'
p849
sba(icurlovision
Stone
p850
(dp851
g34
F0.10135135135135136
sg35
F0.26351351351351354
sg36
F0.30405405405405406
sg37
S'red'
p852
sba(icurlovision
Stone
p853
(dp854
g34
F-1.6418918918918919
sg35
F-1.6013513513513515
sg36
F0.24324324324324326
sg37
S'red'
p855
sba(icurlovision
Stone
p856
(dp857
g34
F14.695945945945947
sg35
F-1.114864864864865
sg36
F0.4256756756756757
sg37
S'yellow'
p858
sbasbasg3
I4
sg252
I1
sba(icurlovision
EndResult
p859
(dp860
g2
I3
sg10
(lp861
(I7
I8
tp862
a(I7
I7
tp863
a(I6
I6
tp864
a(I5
I6
tp865
a(I5
I5
tp866
a(I4
I5
tp867
a(I4
I4
tp868
a(I3
I3
tp869
a(I2
I2
tp870
a(I1
I2
tp871
a(I1
I1
tp872
a(I0
I1
tp873
asg24
I4
sg25
(lp874
(icurlovision
StoneLayout
p875
(dp876
g29
F0.4791666666666667
sg30
(lp877
(icurlovision
Stone
p878
(dp879
g34
F-0.83203125
sg35
F-0.3984375
sg36
F0.3515625
sg37
S'red'
p880
sbasba(icurlovision
StoneLayout
p881
(dp882
g29
F0.4791666666666667
sg30
(lp883
(icurlovision
Stone
p884
(dp885
g34
F-0.8214285714285714
sg35
F-0.46428571428571425
sg36
F0.33928571428571425
sg37
S'red'
p886
sba(icurlovision
Stone
p887
(dp888
g34
F11.25
sg35
F3.4285714285714284
sg36
F0.4464285714285714
sg37
S'yellow'
p889
sbasba(icurlovision
StoneLayout
p890
(dp891
g29
F0.4791666666666667
sg30
(lp892
(icurlovision
Stone
p893
(dp894
g34
F11.303571428571429
sg35
F3.4821428571428568
sg36
F0.4464285714285714
sg37
S'yellow'
p895
sba(icurlovision
Stone
p896
(dp897
g34
F7.375
sg35
F-0.7321428571428571
sg36
F0.4464285714285714
sg37
S'red'
p898
sba(icurlovision
Stone
p899
(dp900
g34
F0.08928571428571427
sg35
F-0.30357142857142855
sg36
F0.3214285714285714
sg37
S'yellow'
p901
sba(icurlovision
Stone
p902
(dp903
g34
F-6.553571428571428
sg35
F-1.4107142857142856
sg36
F0.25
sg37
S'red'
p904
sbasba(icurlovision
StoneLayout
p905
(dp906
g29
F0.4791666666666667
sg30
(lp907
(icurlovision
Stone
p908
(dp909
g34
F7.290697674418604
sg35
F-0.6976744186046512
sg36
F0.436046511627907
sg37
S'red'
p910
sba(icurlovision
Stone
p911
(dp912
g34
F2.197674418604651
sg35
F-0.38372093023255816
sg36
F0.3313953488372093
sg37
S'red'
p913
sba(icurlovision
Stone
p914
(dp915
g34
F0.10465116279069767
sg35
F-0.27906976744186046
sg36
F0.3313953488372093
sg37
S'yellow'
p916
sba(icurlovision
Stone
p917
(dp918
g34
F11.127906976744185
sg35
F3.453488372093023
sg36
F0.436046511627907
sg37
S'yellow'
p919
sba(icurlovision
Stone
p920
(dp921
g34
F11.162790697674419
sg35
F-12.872093023255815
sg36
F0.2441860465116279
sg37
S'yellow'
p922
sbasba(icurlovision
StoneLayout
p923
(dp924
g29
F0.4791666666666667
sg30
(lp925
(icurlovision
Stone
p926
(dp927
g34
F2.25
sg35
F1.0892857142857142
sg36
F0.46428571428571425
sg37
S'yellow'
p928
sba(icurlovision
Stone
p929
(dp930
g34
F7.25
sg35
F-0.6964285714285714
sg36
F0.4464285714285714
sg37
S'red'
p931
sba(icurlovision
Stone
p932
(dp933
g34
F0.07142857142857142
sg35
F-0.30357142857142855
sg36
F0.3214285714285714
sg37
S'yellow'
p934
sba(icurlovision
Stone
p935
(dp936
g34
F-5.178571428571428
sg35
F-3.767857142857143
sg36
F0.46428571428571425
sg37
S'red'
p937
sba(icurlovision
Stone
p938
(dp939
g34
F11.071428571428571
sg35
F3.4107142857142856
sg36
F0.4464285714285714
sg37
S'yellow'
p940
sba(icurlovision
Stone
p941
(dp942
g34
F11.464285714285714
sg35
F-13.232142857142856
sg36
F0.26785714285714285
sg37
S'yellow'
p943
sbasba(icurlovision
StoneLayout
p944
(dp945
g29
F0.4791666666666667
sg30
(lp946
(icurlovision
Stone
p947
(dp948
g34
F7.280487804878049
sg35
F-0.7317073170731707
sg36
F0.4390243902439024
sg37
S'red'
p949
sba(icurlovision
Stone
p950
(dp951
g34
F11.121951219512194
sg35
F3.402439024390244
sg36
F0.4390243902439024
sg37
S'yellow'
p952
sba(icurlovision
Stone
p953
(dp954
g34
F-3.3292682926829267
sg35
F6.585365853658536
sg36
F0.45731707317073167
sg37
S'red'
p955
sba(icurlovision
Stone
p956
(dp957
g34
F-5.158536585365853
sg35
F-3.768292682926829
sg36
F0.45731707317073167
sg37
S'red'
p958
sba(icurlovision
Stone
p959
(dp960
g34
F-6.182926829268292
sg35
F4.097560975609756
sg36
F0.31097560975609756
sg37
S'yellow'
p961
sba(icurlovision
Stone
p962
(dp963
g34
F-7.609756097560975
sg35
F-6.2560975609756095
sg36
F0.3292682926829268
sg37
S'yellow'
p964
sbasba(icurlovision
StoneLayout
p965
(dp966
g29
F0.4791666666666667
sg30
(lp967
(icurlovision
Stone
p968
(dp969
g34
F7.2749999999999995
sg35
F-0.69375
sg36
F0.44999999999999996
sg37
S'red'
p970
sba(icurlovision
Stone
p971
(dp972
g34
F-5.2124999999999995
sg35
F-3.76875
sg36
F0.31875
sg37
S'red'
p973
sba(icurlovision
Stone
p974
(dp975
g34
F10.875
sg35
F3.76875
sg36
F0.33749999999999997
sg37
S'yellow'
p976
sba(icurlovision
Stone
p977
(dp978
g34
F11.0625
sg35
F2.30625
sg36
F0.4125
sg37
S'yellow'
p979
sbasba(icurlovision
StoneLayout
p980
(dp981
g29
F0.4791666666666667
sg30
(lp982
(icurlovision
Stone
p983
(dp984
g34
F11.067073170731707
sg35
F3.8597560975609753
sg36
F0.4390243902439024
sg37
S'yellow'
p985
sba(icurlovision
Stone
p986
(dp987
g34
F5.5060975609756095
sg35
F5.067073170731707
sg36
F0.45731707317073167
sg37
S'yellow'
p988
sba(icurlovision
Stone
p989
(dp990
g34
F11.286585365853657
sg35
F2.323170731707317
sg36
F0.45731707317073167
sg37
S'yellow'
p991
sba(icurlovision
Stone
p992
(dp993
g34
F1.0426829268292683
sg35
F-0.8597560975609756
sg36
F0.31097560975609756
sg37
S'red'
p994
sba(icurlovision
Stone
p995
(dp996
g34
F-4.4817073170731705
sg35
F-3.6402439024390243
sg36
F0.3475609756097561
sg37
S'red'
p997
sba(icurlovision
Stone
p998
(dp999
g34
F11.908536585365853
sg35
F-13.115853658536585
sg36
F0.36585365853658536
sg37
S'yellow'
p1000
sbasba(icurlovision
StoneLayout
p1001
(dp1002
g29
F0.4791666666666667
sg30
(lp1003
(icurlovision
Stone
p1004
(dp1005
g34
F1.225609756097561
sg35
F-2.176829268292683
sg36
F0.45731707317073167
sg37
S'yellow'
p1006
sba(icurlovision
Stone
p1007
(dp1008
g34
F10.920731707317072
sg35
F3.786585365853658
sg36
F0.45731707317073167
sg37
S'yellow'
p1009
sba(icurlovision
Stone
p1010
(dp1011
g34
F4.99390243902439
sg35
F5.432926829268292
sg36
F0.3475609756097561
sg37
S'yellow'
p1012
sba(icurlovision
Stone
p1013
(dp1014
g34
F11.140243902439023
sg35
F2.2865853658536586
sg36
F0.4390243902439024
sg37
S'yellow'
p1015
sba(icurlovision
Stone
p1016
(dp1017
g34
F9.676829268292682
sg35
F-0.6768292682926829
sg36
F0.4390243902439024
sg37
S'red'
p1018
sba(icurlovision
Stone
p1019
(dp1020
g34
F-5.103658536585366
sg35
F1.9573170731707317
sg36
F0.3475609756097561
sg37
S'red'
p1021
sba(icurlovision
Stone
p1022
(dp1023
g34
F11.689024390243901
sg35
F-13.44512195121951
sg36
F0.25609756097560976
sg37
S'yellow'
p1024
sbasba(icurlovision
StoneLayout
p1025
(dp1026
g29
F0.4791666666666667
sg30
(lp1027
(icurlovision
Stone
p1028
(dp1029
g34
F2.071428571428571
sg35
F-1.9642857142857142
sg36
F0.4464285714285714
sg37
S'red'
p1030
sba(icurlovision
Stone
p1031
(dp1032
g34
F9.821428571428571
sg35
F-0.7142857142857142
sg36
F0.42857142857142855
sg37
S'red'
p1033
sba(icurlovision
Stone
p1034
(dp1035
g34
F5.035714285714286
sg35
F5.464285714285714
sg36
F0.4821428571428571
sg37
S'yellow'
p1036
sba(icurlovision
Stone
p1037
(dp1038
g34
F11.25
sg35
F2.321428571428571
sg36
F0.46428571428571425
sg37
S'yellow'
p1039
sba(icurlovision
Stone
p1040
(dp1041
g34
F11.071428571428571
sg35
F3.821428571428571
sg36
F0.26785714285714285
sg37
S'yellow'
p1042
sba(icurlovision
Stone
p1043
(dp1044
g34
F-5.178571428571428
sg35
F1.9642857142857142
sg36
F0.3571428571428571
sg37
S'red'
p1045
sba(icurlovision
Stone
p1046
(dp1047
g34
F-4.464285714285714
sg35
F-3.642857142857143
sg36
F0.30357142857142855
sg37
S'red'
p1048
sba(icurlovision
Stone
p1049
(dp1050
g34
F11.464285714285714
sg35
F-12.928571428571427
sg36
F0.30357142857142855
sg37
S'yellow'
p1051
sbasba(icurlovision
StoneLayout
p1052
(dp1053
g29
F0.4791666666666667
sg30
(lp1054
(icurlovision
Stone
p1055
(dp1056
g34
F2.7209302325581395
sg35
F-1.1511627906976745
sg36
F0.45348837209302323
sg37
S'yellow'
p1057
sba(icurlovision
Stone
p1058
(dp1059
g34
F4.953488372093023
sg35
F5.372093023255814
sg36
F0.27906976744186046
sg37
S'yellow'
p1060
sba(icurlovision
Stone
p1061
(dp1062
g34
F-4.5
sg35
F-3.7325581395348837
sg36
F0.2965116279069767
sg37
S'red'
p1063
sba(icurlovision
Stone
p1064
(dp1065
g34
F11.093023255813954
sg35
F2.2674418604651163
sg36
F0.436046511627907
sg37
S'yellow'
p1066
sba(icurlovision
Stone
p1067
(dp1068
g34
F-4.953488372093023
sg35
F-2.3372093023255816
sg36
F0.3488372093023256
sg37
S'red'
p1069
sba(icurlovision
Stone
p1070
(dp1071
g34
F10.91860465116279
sg35
F3.7674418604651163
sg36
F0.436046511627907
sg37
S'yellow'
p1072
sba(icurlovision
Stone
p1073
(dp1074
g34
F9.69767441860465
sg35
F-0.6976744186046512
sg36
F0.27906976744186046
sg37
S'red'
p1075
sba(icurlovision
Stone
p1076
(dp1077
g34
F-5.023255813953488
sg35
F1.9186046511627908
sg36
F0.3488372093023256
sg37
S'red'
p1078
sba(icurlovision
Stone
p1079
(dp1080
g34
F10.883720930232558
sg35
F-12.906976744186046
sg36
F0.2441860465116279
sg37
S'yellow'
p1081
sbasba(icurlovision
StoneLayout
p1082
(dp1083
g29
F0.4791666666666667
sg30
(lp1084
(icurlovision
Stone
p1085
(dp1086
g34
F4.970930232558139
sg35
F5.3895348837209305
sg36
F0.3313953488372093
sg37
S'yellow'
p1087
sba(icurlovision
Stone
p1088
(dp1089
g34
F9.645348837209303
sg35
F-0.6802325581395349
sg36
F0.436046511627907
sg37
S'red'
p1090
sba(icurlovision
Stone
p1091
(dp1092
g34
F10.866279069767442
sg35
F3.7848837209302326
sg36
F0.436046511627907
sg37
S'yellow'
p1093
sba(icurlovision
Stone
p1094
(dp1095
g34
F11.075581395348838
sg35
F2.2848837209302326
sg36
F0.436046511627907
sg37
S'yellow'
p1096
sba(icurlovision
Stone
p1097
(dp1098
g34
F-4.970930232558139
sg35
F-2.3197674418604652
sg36
F0.3313953488372093
sg37
S'red'
p1099
sba(icurlovision
Stone
p1100
(dp1101
g34
F-4.517441860465116
sg35
F-3.6802325581395348
sg36
F0.313953488372093
sg37
S'red'
p1102
sba(icurlovision
Stone
p1103
(dp1104
g34
F-5.040697674418604
sg35
F1.9011627906976745
sg36
F0.2965116279069767
sg37
S'red'
p1105
sba(icurlovision
Stone
p1106
(dp1107
g34
F10.970930232558139
sg35
F-12.924418604651162
sg36
F0.2616279069767442
sg37
S'yellow'
p1108
sbasbasg3
I4
sg252
I0
sba(icurlovision
EndResult
p1109
(dp1110
g2
I3
sg10
(lp1111
(I8
I7
tp1112
a(I7
I6
tp1113
a(I6
I5
tp1114
a(I5
I5
tp1115
a(I4
I4
tp1116
a(I4
I3
tp1117
a(I3
I3
tp1118
a(I3
I2
tp1119
a(I2
I2
tp1120
a(I2
I1
tp1121
a(I1
I1
tp1122
a(I1
I0
tp1123
asg24
I5
sg25
(lp1124
(icurlovision
StoneLayout
p1125
(dp1126
g29
F0.4791666666666667
sg30
(lp1127
(icurlovision
Stone
p1128
(dp1129
g34
F12.57236842105263
sg35
F-0.21710526315789472
sg36
F0.41447368421052627
sg37
S'yellow'
p1130
sba(icurlovision
Stone
p1131
(dp1132
g34
F13.55921052631579
sg35
F-14.348684210526315
sg36
F0.2763157894736842
sg37
S'yellow'
p1133
sbasba(icurlovision
StoneLayout
p1134
(dp1135
g29
F0.4791666666666667
sg30
(lp1136
(icurlovision
Stone
p1137
(dp1138
g34
F3.39375
sg35
F-0.31875
sg36
F0.44999999999999996
sg37
S'yellow'
p1139
sba(icurlovision
Stone
p1140
(dp1141
g34
F-2.71875
sg35
F0.43124999999999997
sg36
F0.44999999999999996
sg37
S'red'
p1142
sba(icurlovision
Stone
p1143
(dp1144
g34
F12.31875
sg35
F-0.20625
sg36
F0.33749999999999997
sg37
S'yellow'
p1145
sba(icurlovision
Stone
p1146
(dp1147
g34
F12.43125
sg35
F-13.55625
sg36
F0.24375
sg37
S'yellow'
p1148
sbasba(icurlovision
StoneLayout
p1149
(dp1150
g29
F0.4791666666666667
sg30
(lp1151
(icurlovision
Stone
p1152
(dp1153
g34
F-2.769230769230769
sg35
F0.42307692307692313
sg36
F0.46153846153846156
sg37
S'red'
p1154
sba(icurlovision
Stone
p1155
(dp1156
g34
F12.653846153846155
sg35
F-0.19230769230769232
sg36
F0.42307692307692313
sg37
S'yellow'
p1157
sba(icurlovision
Stone
p1158
(dp1159
g34
F0.6923076923076923
sg35
F-0.5384615384615385
sg36
F0.3269230769230769
sg37
S'yellow'
p1160
sba(icurlovision
Stone
p1161
(dp1162
g34
F5.5
sg35
F-0.42307692307692313
sg36
F0.3076923076923077
sg37
S'yellow'
p1163
sba(icurlovision
Stone
p1164
(dp1165
g34
F4.423076923076923
sg35
F-0.19230769230769232
sg36
F0.34615384615384615
sg37
S'red'
p1166
sba(icurlovision
Stone
p1167
(dp1168
g34
F12.807692307692308
sg35
F-13.961538461538462
sg36
F0.23076923076923078
sg37
S'yellow'
p1169
sbasba(icurlovision
StoneLayout
p1170
(dp1171
g29
F0.4791666666666667
sg30
(lp1172
(icurlovision
Stone
p1173
(dp1174
g34
F-2.8529411764705883
sg35
F0.39705882352941174
sg36
F0.4852941176470588
sg37
S'red'
p1175
sba(icurlovision
Stone
p1176
(dp1177
g34
F5.4411764705882355
sg35
F-0.4264705882352941
sg36
F0.3382352941176471
sg37
S'yellow'
p1178
sba(icurlovision
Stone
p1179
(dp1180
g34
F0.6470588235294118
sg35
F-0.5735294117647058
sg36
F0.3382352941176471
sg37
S'yellow'
p1181
sba(icurlovision
Stone
p1182
(dp1183
g34
F4.352941176470588
sg35
F-0.22058823529411764
sg36
F0.3235294117647059
sg37
S'red'
p1184
sba(icurlovision
Stone
p1185
(dp1186
g34
F-4.676470588235294
sg35
F-2.338235294117647
sg36
F0.3088235294117647
sg37
S'red'
p1187
sbasba(icurlovision
StoneLayout
p1188
(dp1189
g29
F0.4791666666666667
sg30
(lp1190
(icurlovision
Stone
p1191
(dp1192
g34
F-2.86875
sg35
F0.46875
sg36
F0.33749999999999997
sg37
S'red'
p1193
sba(icurlovision
Stone
p1194
(dp1195
g34
F1.8187499999999999
sg35
F6.28125
sg36
F0.33749999999999997
sg37
S'yellow'
p1196
sba(icurlovision
Stone
p1197
(dp1198
g34
F2.71875
sg35
F-5.83125
sg36
F0.31875
sg37
S'yellow'
p1199
sba(icurlovision
Stone
p1200
(dp1201
g34
F0.88125
sg35
F0.5812499999999999
sg36
F0.44999999999999996
sg37
S'red'
p1202
sba(icurlovision
Stone
p1203
(dp1204
g34
F-7.06875
sg35
F-2.38125
sg36
F0.31875
sg37
S'yellow'
p1205
sba(icurlovision
Stone
p1206
(dp1207
g34
F11.00625
sg35
F-13.93125
sg36
F0.35625
sg37
S'yellow'
p1208
sbasba(icurlovision
StoneLayout
p1209
(dp1210
g29
F0.4791666666666667
sg30
(lp1211
(icurlovision
Stone
p1212
(dp1213
g34
F-2.798780487804878
sg35
F0.3841463414634146
sg36
F0.25609756097560976
sg37
S'red'
p1214
sba(icurlovision
Stone
p1215
(dp1216
g34
F2.0304878048780486
sg35
F-6.164634146341463
sg36
F0.4390243902439024
sg37
S'yellow'
p1217
sba(icurlovision
Stone
p1218
(dp1219
g34
F1.5548780487804876
sg35
F-0.12804878048780488
sg36
F0.3475609756097561
sg37
S'yellow'
p1220
sba(icurlovision
Stone
p1221
(dp1222
g34
F12.347560975609756
sg35
F0.1646341463414634
sg36
F0.4390243902439024
sg37
S'red'
p1223
sba(icurlovision
Stone
p1224
(dp1225
g34
F0.823170731707317
sg35
F0.6402439024390244
sg36
F0.3292682926829268
sg37
S'red'
p1226
sbasba(icurlovision
StoneLayout
p1227
(dp1228
g29
F0.4791666666666667
sg30
(lp1229
(icurlovision
Stone
p1230
(dp1231
g34
F-2.7857142857142856
sg35
F0.42857142857142855
sg36
F0.45535714285714285
sg37
S'red'
p1232
sba(icurlovision
Stone
p1233
(dp1234
g34
F1.5267857142857142
sg35
F-0.08035714285714285
sg36
F0.33482142857142855
sg37
S'yellow'
p1235
sba(icurlovision
Stone
p1236
(dp1237
g34
F-6.9642857142857135
sg35
F6.9642857142857135
sg36
F0.33482142857142855
sg37
S'red'
p1238
sba(icurlovision
Stone
p1239
(dp1240
g34
F0.10714285714285714
sg35
F-4.848214285714286
sg36
F0.3482142857142857
sg37
S'yellow'
p1241
sba(icurlovision
Stone
p1242
(dp1243
g34
F0.7767857142857142
sg35
F0.6160714285714285
sg36
F0.33482142857142855
sg37
S'red'
p1244
sba(icurlovision
Stone
p1245
(dp1246
g34
F-5.973214285714286
sg35
F-7.285714285714286
sg36
F0.4821428571428571
sg37
S'red'
p1247
sbasba(icurlovision
StoneLayout
p1248
(dp1249
g29
F0.4791666666666667
sg30
(lp1250
(icurlovision
Stone
p1251
(dp1252
g34
F-2.469512195121951
sg35
F1.170731707317073
sg36
F0.40243902439024387
sg37
S'red'
p1253
sba(icurlovision
Stone
p1254
(dp1255
g34
F1.701219512195122
sg35
F1.4268292682926829
sg36
F0.36585365853658536
sg37
S'red'
p1256
sba(icurlovision
Stone
p1257
(dp1258
g34
F6.091463414634146
sg35
F0.47560975609756095
sg36
F0.5121951219512195
sg37
S'yellow'
p1259
sba(icurlovision
Stone
p1260
(dp1261
g34
F2.542682926829268
sg35
F0.5853658536585366
sg36
F0.36585365853658536
sg37
S'yellow'
p1262
sba(icurlovision
Stone
p1263
(dp1264
g34
F0.8597560975609756
sg35
F-4.865853658536585
sg36
F0.36585365853658536
sg37
S'yellow'
p1265
sba(icurlovision
Stone
p1266
(dp1267
g34
F11.871951219512194
sg35
F-12.585365853658535
sg36
F0.31097560975609756
sg37
S'yellow'
p1268
sbasba(icurlovision
StoneLayout
p1269
(dp1270
g29
F0.4791666666666667
sg30
(lp1271
(icurlovision
Stone
p1272
(dp1273
g34
F-2.80327868852459
sg35
F0.4180327868852459
sg36
F0.3442622950819672
sg37
S'red'
p1274
sba(icurlovision
Stone
p1275
(dp1276
g34
F0.04918032786885246
sg35
F-4.868852459016393
sg36
F0.4180327868852459
sg37
S'yellow'
p1277
sba(icurlovision
Stone
p1278
(dp1279
g34
F4.131147540983607
sg35
F-3.221311475409836
sg36
F0.35655737704918034
sg37
S'red'
p1280
sba(icurlovision
Stone
p1281
(dp1282
g34
F0.5655737704918032
sg35
F0.860655737704918
sg36
F0.4426229508196721
sg37
S'red'
p1283
sbasba(icurlovision
StoneLayout
p1284
(dp1285
g29
F0.4791666666666667
sg30
(lp1286
(icurlovision
Stone
p1287
(dp1288
g34
F1.2991071428571428
sg35
F0.5758928571428571
sg36
F0.4419642857142857
sg37
S'yellow'
p1289
sba(icurlovision
Stone
p1290
(dp1291
g34
F0.06696428571428571
sg35
F-4.78125
sg36
F0.42857142857142855
sg37
S'yellow'
p1292
sba(icurlovision
Stone
p1293
(dp1294
g34
F4.058035714285714
sg35
F-3.120535714285714
sg36
F0.3883928571428571
sg37
S'red'
p1295
sba(icurlovision
Stone
p1296
(dp1297
g34
F-5.959821428571428
sg35
F-1.2723214285714286
sg36
F0.30803571428571425
sg37
S'red'
p1298
sba(icurlovision
Stone
p1299
(dp1300
g34
F-4.21875
sg35
F3.174107142857143
sg36
F0.30803571428571425
sg37
S'red'
p1301
sbasba(icurlovision
StoneLayout
p1302
(dp1303
g29
F0.4791666666666667
sg30
(lp1304
(icurlovision
Stone
p1305
(dp1306
g34
F-0.17500000000000002
sg35
F-2.9000000000000004
sg36
F0.45
sg37
S'red'
p1307
sba(icurlovision
Stone
p1308
(dp1309
g34
F0.07500000000000001
sg35
F-4.800000000000001
sg36
F0.4375
sg37
S'yellow'
p1310
sba(icurlovision
Stone
p1311
(dp1312
g34
F4.075
sg35
F-3.1750000000000003
sg36
F0.3375
sg37
S'red'
p1313
sbasba(icurlovision
StoneLayout
p1314
(dp1315
g29
F0.4791666666666667
sg30
(lp1316
(icurlovision
Stone
p1317
(dp1318
g34
F-0.1721311475409836
sg35
F-2.987704918032787
sg36
F0.47950819672131145
sg37
S'red'
p1319
sba(icurlovision
Stone
p1320
(dp1321
g34
F0.07377049180327869
sg35
F-4.905737704918033
sg36
F0.45491803278688525
sg37
S'yellow'
p1322
sbasbasg3
I6
sg252
I1
sba(icurlovision
EndResult
p1323
(dp1324
g2
I4
sg10
(lp1325
(I6
I7
tp1326
a(I6
I6
tp1327
a(I5
I6
tp1328
a(I4
I5
tp1329
a(I3
I4
tp1330
a(I3
I3
tp1331
a(I2
I3
tp1332
a(I2
I2
tp1333
a(I1
I2
tp1334
a(I1
I1
tp1335
a(I0
I1
tp1336
asg24
I6
sg25
(lp1337
(icurlovision
StoneLayout
p1338
(dp1339
g29
F0.4791666666666667
sg30
(lp1340
(icurlovision
Stone
p1341
(dp1342
g34
F1.7171052631578947
sg35
F-0.256578947368421
sg36
F0.4539473684210526
sg37
S'red'
p1343
sba(icurlovision
Stone
p1344
(dp1345
g34
F12.69078947368421
sg35
F2.664473684210526
sg36
F0.43421052631578944
sg37
S'yellow'
p1346
sba(icurlovision
Stone
p1347
(dp1348
g34
F2.388157894736842
sg35
F-0.9276315789473684
sg36
F0.3355263157894737
sg37
S'red'
p1349
sba(icurlovision
Stone
p1350
(dp1351
g34
F13.085526315789473
sg35
F-14.50657894736842
sg36
F0.2763157894736842
sg37
S'yellow'
p1352
sbasba(icurlovision
StoneLayout
p1353
(dp1354
g29
F0.4791666666666667
sg30
(lp1355
(icurlovision
Stone
p1356
(dp1357
g34
F1.6312499999999999
sg35
F-0.24375
sg36
F0.44999999999999996
sg37
S'red'
p1358
sba(icurlovision
Stone
p1359
(dp1360
g34
F2.26875
sg35
F-0.9562499999999999
sg36
F0.44999999999999996
sg37
S'red'
p1361
sba(icurlovision
Stone
p1362
(dp1363
g34
F5.71875
sg35
F-1.33125
sg36
F0.4125
sg37
S'yellow'
p1364
sba(icurlovision
Stone
p1365
(dp1366
g34
F12.35625
sg35
F2.6062499999999997
sg36
F0.4125
sg37
S'yellow'
p1367
sbasba(icurlovision
StoneLayout
p1368
(dp1369
g29
F0.4791666666666667
sg30
(lp1370
(icurlovision
Stone
p1371
(dp1372
g34
F2.3597560975609753
sg35
F-0.9695121951219512
sg36
F0.3292682926829268
sg37
S'red'
p1373
sba(icurlovision
Stone
p1374
(dp1375
g34
F1.6646341463414633
sg35
F-0.274390243902439
sg36
F0.4390243902439024
sg37
S'red'
p1376
sba(icurlovision
Stone
p1377
(dp1378
g34
F5.9451219512195115
sg35
F-1.371951219512195
sg36
F0.3475609756097561
sg37
S'yellow'
p1379
sbasba(icurlovision
StoneLayout
p1380
(dp1381
g29
F0.4791666666666667
sg30
(lp1382
(icurlovision
Stone
p1383
(dp1384
g34
F0.5560344827586207
sg35
F-2.0043103448275863
sg36
F0.3620689655172414
sg37
S'red'
p1385
sba(icurlovision
Stone
p1386
(dp1387
g34
F3.168103448275862
sg35
F0.8405172413793104
sg36
F0.46551724137931033
sg37
S'red'
p1388
sba(icurlovision
Stone
p1389
(dp1390
g34
F2.1336206896551726
sg35
F-1.2801724137931034
sg36
F0.3620689655172414
sg37
S'red'
p1391
sba(icurlovision
Stone
p1392
(dp1393
g34
F6.012931034482759
sg35
F-1.4353448275862069
sg36
F0.34913793103448276
sg37
S'yellow'
p1394
sbasba(icurlovision
StoneLayout
p1395
(dp1396
g29
F0.4791666666666667
sg30
(lp1397
(icurlovision
Stone
p1398
(dp1399
g34
F3.0635593220338984
sg35
F0.826271186440678
sg36
F0.4576271186440678
sg37
S'red'
p1400
sba(icurlovision
Stone
p1401
(dp1402
g34
F0.8771186440677967
sg35
F0.3940677966101695
sg36
F0.3305084745762712
sg37
S'yellow'
p1403
sba(icurlovision
Stone
p1404
(dp1405
g34
F6.546610169491526
sg35
F-1.1059322033898307
sg36
F0.4576271186440678
sg37
S'red'
p1406
sba(icurlovision
Stone
p1407
(dp1408
g34
F-0.1398305084745763
sg35
F-2.148305084745763
sg36
F0.4322033898305085
sg37
S'red'
p1409
sbasba(icurlovision
StoneLayout
p1410
(dp1411
g29
F0.4791666666666667
sg30
(lp1412
(icurlovision
Stone
p1413
(dp1414
g34
F0.7232142857142857
sg35
F-2.464285714285714
sg36
F0.4419642857142857
sg37
S'yellow'
p1415
sba(icurlovision
Stone
p1416
(dp1417
g34
F6.375
sg35
F-1.0982142857142856
sg36
F0.45535714285714285
sg37
S'red'
p1418
sba(icurlovision
Stone
p1419
(dp1420
g34
F-0.40178571428571425
sg35
F-1.9553571428571428
sg36
F0.45535714285714285
sg37
S'red'
p1421
sba(icurlovision
Stone
p1422
(dp1423
g34
F3.0535714285714284
sg35
F0.8035714285714285
sg36
F0.33482142857142855
sg37
S'red'
p1424
sba(icurlovision
Stone
p1425
(dp1426
g34
F0.9107142857142857
sg35
F0.375
sg36
F0.3214285714285714
sg37
S'yellow'
p1427
sbasba(icurlovision
StoneLayout
p1428
(dp1429
g29
F0.4791666666666667
sg30
(lp1430
(icurlovision
Stone
p1431
(dp1432
g34
F-0.4308510638297872
sg35
F-2.0265957446808507
sg36
F0.44680851063829785
sg37
S'red'
p1433
sba(icurlovision
Stone
p1434
(dp1435
g34
F6.590425531914893
sg35
F-1.101063829787234
sg36
F0.44680851063829785
sg37
S'red'
p1436
sba(icurlovision
Stone
p1437
(dp1438
g34
F1.356382978723404
sg35
F-1.803191489361702
sg36
F0.3191489361702127
sg37
S'red'
p1439
sba(icurlovision
Stone
p1440
(dp1441
g34
F-0.07978723404255318
sg35
F-3.7499999999999996
sg36
F0.4787234042553191
sg37
S'yellow'
p1442
sba(icurlovision
Stone
p1443
(dp1444
g34
F-3.9734042553191484
sg35
F7.164893617021276
sg36
F0.4787234042553191
sg37
S'red'
p1445
sbasba(icurlovision
StoneLayout
p1446
(dp1447
g29
F0.4791666666666667
sg30
(lp1448
(icurlovision
Stone
p1449
(dp1450
g34
F2.0318181818181817
sg35
F-2.25
sg36
F0.44999999999999996
sg37
S'yellow'
p1451
sba(icurlovision
Stone
p1452
(dp1453
g34
F-1.5136363636363637
sg35
F-2.3318181818181816
sg36
F0.3409090909090909
sg37
S'red'
p1454
sba(icurlovision
Stone
p1455
(dp1456
g34
F6.449999999999999
sg35
F-1.05
sg36
F0.4636363636363636
sg37
S'red'
p1457
sba(icurlovision
Stone
p1458
(dp1459
g34
F-0.06818181818181818
sg35
F-3.6136363636363633
sg36
F0.43636363636363634
sg37
S'yellow'
p1460
sba(icurlovision
Stone
p1461
(dp1462
g34
F-0.20454545454545453
sg35
F-0.6409090909090909
sg36
F0.32727272727272727
sg37
S'red'
p1463
sbasba(icurlovision
StoneLayout
p1464
(dp1465
g29
F0.4791666666666667
sg30
(lp1466
(icurlovision
Stone
p1467
(dp1468
g34
F-1.515
sg35
F-2.295
sg36
F0.44999999999999996
sg37
S'red'
p1469
sba(icurlovision
Stone
p1470
(dp1471
g34
F6.375
sg35
F-1.065
sg36
F0.44999999999999996
sg37
S'red'
p1472
sba(icurlovision
Stone
p1473
(dp1474
g34
F2.025
sg35
F-2.265
sg36
F0.32999999999999996
sg37
S'yellow'
p1475
sba(icurlovision
Stone
p1476
(dp1477
g34
F-0.285
sg35
F-0.495
sg36
F0.36
sg37
S'red'
p1478
sba(icurlovision
Stone
p1479
(dp1480
g34
F-0.16499999999999998
sg35
F-1.515
sg36
F0.315
sg37
S'red'
p1481
sba(icurlovision
Stone
p1482
(dp1483
g34
F-7.694999999999999
sg35
F-4.185
sg36
F0.44999999999999996
sg37
S'yellow'
p1484
sba(icurlovision
Stone
p1485
(dp1486
g34
F6.465
sg35
F-6.675
sg36
F0.285
sg37
S'yellow'
p1487
sbasba(icurlovision
StoneLayout
p1488
(dp1489
g29
F0.4791666666666667
sg30
(lp1490
(icurlovision
Stone
p1491
(dp1492
g34
F2.0
sg35
F-2.2105263157894735
sg36
F0.4473684210526315
sg37
S'yellow'
p1493
sba(icurlovision
Stone
p1494
(dp1495
g34
F-1.4736842105263157
sg35
F-2.263157894736842
sg36
F0.4473684210526315
sg37
S'red'
p1496
sba(icurlovision
Stone
p1497
(dp1498
g34
F6.315789473684211
sg35
F-1.0526315789473684
sg36
F0.4473684210526315
sg37
S'red'
p1499
sba(icurlovision
Stone
p1500
(dp1501
g34
F0.5526315789473684
sg35
F-0.894736842105263
sg36
F0.4473684210526315
sg37
S'yellow'
p1502
sba(icurlovision
Stone
p1503
(dp1504
g34
F-0.13157894736842105
sg35
F-1.526315789473684
sg36
F0.3289473684210526
sg37
S'red'
p1505
sba(icurlovision
Stone
p1506
(dp1507
g34
F-0.39473684210526316
sg35
F-0.47368421052631576
sg36
F0.3026315789473684
sg37
S'red'
p1508
sbasba(icurlovision
StoneLayout
p1509
(dp1510
g29
F0.4791666666666667
sg30
(lp1511
(icurlovision
Stone
p1512
(dp1513
g34
F2.07
sg35
F-2.34
sg36
F0.46499999999999997
sg37
S'yellow'
p1514
sba(icurlovision
Stone
p1515
(dp1516
g34
F-1.53
sg35
F-2.37
sg36
F0.46499999999999997
sg37
S'red'
p1517
sba(icurlovision
Stone
p1518
(dp1519
g34
F3.36
sg35
F-0.42
sg36
F0.32999999999999996
sg37
S'red'
p1520
sba(icurlovision
Stone
p1521
(dp1522
g34
F6.569999999999999
sg35
F-1.08
sg36
F0.3
sg37
S'red'
p1523
sba(icurlovision
Stone
p1524
(dp1525
g34
F0.54
sg35
F-0.99
sg36
F0.32999999999999996
sg37
S'yellow'
p1526
sba(icurlovision
Stone
p1527
(dp1528
g34
F-0.15
sg35
F-1.5899999999999999
sg36
F0.315
sg37
S'red'
p1529
sba(icurlovision
Stone
p1530
(dp1531
g34
F-0.42
sg35
F-0.48
sg36
F0.32999999999999996
sg37
S'red'
p1532
sbasbasg3
I6
sg252
I0
sba(icurlovision
EndResult
p1533
(dp1534
g2
I4
sg10
(lp1535
(I7
I7
tp1536
a(I6
I6
tp1537
a(I6
I5
tp1538
a(I5
I4
tp1539
a(I4
I3
tp1540
a(I3
I3
tp1541
a(I2
I2
tp1542
a(I1
I1
tp1543
a(I1
I0
tp1544
asg24
I7
sg25
(lp1545
(icurlovision
StoneLayout
p1546
(dp1547
g29
F0.4791666666666667
sg30
(lp1548
(icurlovision
Stone
p1549
(dp1550
g34
F14.25
sg35
F0.35526315789473684
sg36
F0.43421052631578944
sg37
S'yellow'
p1551
sba(icurlovision
Stone
p1552
(dp1553
g34
F1.5394736842105263
sg35
F0.3157894736842105
sg36
F0.3355263157894737
sg37
S'red'
p1554
sbasba(icurlovision
StoneLayout
p1555
(dp1556
g29
F0.4791666666666667
sg30
(lp1557
(icurlovision
Stone
p1558
(dp1559
g34
F6.513157894736842
sg35
F-0.15789473684210525
sg36
F0.43421052631578944
sg37
S'yellow'
p1560
sba(icurlovision
Stone
p1561
(dp1562
g34
F14.289473684210526
sg35
F0.35526315789473684
sg36
F0.2763157894736842
sg37
S'yellow'
p1563
sba(icurlovision
Stone
p1564
(dp1565
g34
F0.9078947368421052
sg35
F0.3157894736842105
sg36
F0.3157894736842105
sg37
S'red'
p1566
sba(icurlovision
Stone
p1567
(dp1568
g34
F2.4078947368421053
sg35
F0.039473684210526314
sg36
F0.43421052631578944
sg37
S'red'
p1569
sbasba(icurlovision
StoneLayout
p1570
(dp1571
g29
F0.4791666666666667
sg30
(lp1572
(icurlovision
Stone
p1573
(dp1574
g34
F3.097222222222222
sg35
F0.38888888888888884
sg36
F0.4444444444444444
sg37
S'yellow'
p1575
sba(icurlovision
Stone
p1576
(dp1577
g34
F-4.958333333333333
sg35
F-2.722222222222222
sg36
F0.3472222222222222
sg37
S'red'
p1578
sba(icurlovision
Stone
p1579
(dp1580
g34
F6.791666666666666
sg35
F-0.5277777777777778
sg36
F0.3333333333333333
sg37
S'yellow'
p1581
sba(icurlovision
Stone
p1582
(dp1583
g34
F2.2916666666666665
sg35
F-0.611111111111111
sg36
F0.3333333333333333
sg37
S'red'
p1584
sba(icurlovision
Stone
p1585
(dp1586
g34
F1.1527777777777777
sg35
F-0.1111111111111111
sg36
F0.4444444444444444
sg37
S'red'
p1587
sba(icurlovision
Stone
p1588
(dp1589
g34
F-2.0972222222222223
sg35
F3.722222222222222
sg36
F0.3194444444444444
sg37
S'yellow'
p1590
sbasba(icurlovision
StoneLayout
p1591
(dp1592
g29
F0.4791666666666667
sg30
(lp1593
(icurlovision
Stone
p1594
(dp1595
g34
F2.9433962264150946
sg35
F0.7641509433962265
sg36
F0.32547169811320753
sg37
S'yellow'
p1596
sba(icurlovision
Stone
p1597
(dp1598
g34
F0.9622641509433962
sg35
F0.2830188679245283
sg36
F0.4386792452830189
sg37
S'red'
p1599
sba(icurlovision
Stone
p1600
(dp1601
g34
F6.735849056603774
sg35
F-0.169811320754717
sg36
F0.4528301886792453
sg37
S'yellow'
p1602
sba(icurlovision
Stone
p1603
(dp1604
g34
F2.1226415094339623
sg35
F-0.25471698113207547
sg36
F0.3537735849056604
sg37
S'red'
p1605
sbasba(icurlovision
StoneLayout
p1606
(dp1607
g29
F0.4791666666666667
sg30
(lp1608
(icurlovision
Stone
p1609
(dp1610
g34
F3.5593220338983054
sg35
F-0.1271186440677966
sg36
F0.35593220338983056
sg37
S'yellow'
p1611
sba(icurlovision
Stone
p1612
(dp1613
g34
F2.415254237288136
sg35
F1.0169491525423728
sg36
F0.48305084745762716
sg37
S'yellow'
p1614
sba(icurlovision
Stone
p1615
(dp1616
g34
F0.9915254237288136
sg35
F0.3305084745762712
sg36
F0.4576271186440678
sg37
S'red'
p1617
sba(icurlovision
Stone
p1618
(dp1619
g34
F2.2118644067796613
sg35
F-0.2288135593220339
sg36
F0.4703389830508475
sg37
S'red'
p1620
sbasba(icurlovision
StoneLayout
p1621
(dp1622
g29
F0.4791666666666667
sg30
(lp1623
(icurlovision
Stone
p1624
(dp1625
g34
F3.228813559322034
sg35
F0.7118644067796611
sg36
F0.4703389830508475
sg37
S'red'
p1626
sba(icurlovision
Stone
p1627
(dp1628
g34
F3.483050847457627
sg35
F-0.2033898305084746
sg36
F0.4703389830508475
sg37
S'yellow'
p1629
sba(icurlovision
Stone
p1630
(dp1631
g34
F2.1610169491525424
sg35
F-0.2796610169491526
sg36
F0.31779661016949157
sg37
S'red'
p1632
sbasba(icurlovision
StoneLayout
p1633
(dp1634
g29
F0.4791666666666667
sg30
(lp1635
(icurlovision
Stone
p1636
(dp1637
g34
F3.1710526315789473
sg35
F0.7236842105263157
sg36
F0.35526315789473684
sg37
S'red'
p1638
sba(icurlovision
Stone
p1639
(dp1640
g34
F1.381578947368421
sg35
F-2.6184210526315788
sg36
F0.4605263157894737
sg37
S'yellow'
p1641
sba(icurlovision
Stone
p1642
(dp1643
g34
F2.013157894736842
sg35
F-6.328947368421052
sg36
F0.47368421052631576
sg37
S'yellow'
p1644
sbasba(icurlovision
StoneLayout
p1645
(dp1646
g29
F0.4791666666666667
sg30
(lp1647
(icurlovision
Stone
p1648
(dp1649
g34
F1.4732142857142856
sg35
F-1.5267857142857142
sg36
F0.46875
sg37
S'red'
p1650
sba(icurlovision
Stone
p1651
(dp1652
g34
F2.008928571428571
sg35
F-6.321428571428571
sg36
F0.33482142857142855
sg37
S'yellow'
p1653
sba(icurlovision
Stone
p1654
(dp1655
g34
F-1.7410714285714284
sg35
F-6.348214285714286
sg36
F0.3482142857142857
sg37
S'yellow'
p1656
sba(icurlovision
Stone
p1657
(dp1658
g34
F-6.696428571428571
sg35
F7.473214285714286
sg36
F0.4419642857142857
sg37
S'yellow'
p1659
sbasba(icurlovision
StoneLayout
p1660
(dp1661
g29
F0.4791666666666667
sg30
(lp1662
(icurlovision
Stone
p1663
(dp1664
g34
F-0.09375
sg35
F1.2991071428571428
sg36
F0.3214285714285714
sg37
S'yellow'
p1665
sba(icurlovision
Stone
p1666
(dp1667
g34
F1.888392857142857
sg35
F-6.1205357142857135
sg36
F0.45535714285714285
sg37
S'yellow'
p1668
sbasbasg3
I6
sg252
I1
sba(icurlovision
EndResult
p1669
(dp1670
g2
I4
sg10
(lp1671
(I6
I5
tp1672
a(I5
I5
tp1673
a(I5
I4
tp1674
a(I4
I4
tp1675
a(I4
I3
tp1676
a(I3
I3
tp1677
a(I3
I2
tp1678
a(I2
I2
tp1679
a(I1
I0
tp1680
asg24
I8
sg25
(lp1681
(icurlovision
StoneLayout
p1682
(dp1683
g29
F0.4791666666666667
sg30
(lp1684
(icurlovision
Stone
p1685
(dp1686
g34
F10.835526315789473
sg35
F-0.3355263157894737
sg36
F0.43421052631578944
sg37
S'yellow'
p1687
sba(icurlovision
Stone
p1688
(dp1689
g34
F15.730263157894736
sg35
F-0.256578947368421
sg36
F0.41447368421052627
sg37
S'yellow'
p1690
sba(icurlovision
Stone
p1691
(dp1692
g34
F8.30921052631579
sg35
F-0.888157894736842
sg36
F0.43421052631578944
sg37
S'yellow'
p1693
sba(icurlovision
Stone
p1694
(dp1695
g34
F3.8092105263157894
sg35
F-0.05921052631578947
sg36
F0.3157894736842105
sg37
S'red'
p1696
sba(icurlovision
Stone
p1697
(dp1698
g34
F2.0328947368421053
sg35
F0.4539473684210526
sg36
F0.43421052631578944
sg37
S'red'
p1699
sbasba(icurlovision
StoneLayout
p1700
(dp1701
g29
F0.4791666666666667
sg30
(lp1702
(icurlovision
Stone
p1703
(dp1704
g34
F2.127906976744186
sg35
F0.41860465116279066
sg36
F0.45348837209302323
sg37
S'red'
p1705
sba(icurlovision
Stone
p1706
(dp1707
g34
F4.011627906976744
sg35
F-0.10465116279069767
sg36
F0.3488372093023256
sg37
S'red'
p1708
sba(icurlovision
Stone
p1709
(dp1710
g34
F-1.6744186046511627
sg35
F6.348837209302325
sg36
F0.47093023255813954
sg37
S'red'
p1711
sba(icurlovision
Stone
p1712
(dp1713
g34
F11.337209302325581
sg35
F-0.38372093023255816
sg36
F0.436046511627907
sg37
S'yellow'
p1714
sba(icurlovision
Stone
p1715
(dp1716
g34
F4.953488372093023
sg35
F0.13953488372093023
sg36
F0.3313953488372093
sg37
S'yellow'
p1717
sba(icurlovision
Stone
p1718
(dp1719
g34
F11.86046511627907
sg35
F-12.941860465116278
sg36
F0.2616279069767442
sg37
S'yellow'
p1720
sbasba(icurlovision
StoneLayout
p1721
(dp1722
g29
F0.4791666666666667
sg30
(lp1723
(icurlovision
Stone
p1724
(dp1725
g34
F2.1036585365853657
sg35
F0.45731707317073167
sg36
F0.47560975609756095
sg37
S'red'
p1726
sba(icurlovision
Stone
p1727
(dp1728
g34
F4.0060975609756095
sg35
F-0.09146341463414634
sg36
F0.3475609756097561
sg37
S'red'
p1729
sba(icurlovision
Stone
p1730
(dp1731
g34
F11.359756097560975
sg35
F-0.3475609756097561
sg36
F0.4390243902439024
sg37
S'yellow'
p1732
sba(icurlovision
Stone
p1733
(dp1734
g34
F4.9573170731707314
sg35
F0.20121951219512194
sg36
F0.31097560975609756
sg37
S'yellow'
p1735
sbasba(icurlovision
StoneLayout
p1736
(dp1737
g29
F0.4791666666666667
sg30
(lp1738
(icurlovision
Stone
p1739
(dp1740
g34
F2.1
sg35
F0.4375
sg36
F0.3375
sg37
S'red'
p1741
sba(icurlovision
Stone
p1742
(dp1743
g34
F3.975
sg35
F-0.08750000000000001
sg36
F0.35000000000000003
sg37
S'red'
p1744
sba(icurlovision
Stone
p1745
(dp1746
g34
F4.95
sg35
F0.1625
sg36
F0.3375
sg37
S'yellow'
p1747
sba(icurlovision
Stone
p1748
(dp1749
g34
F-6.2250000000000005
sg35
F7.112500000000001
sg36
F0.5
sg37
S'red'
p1750
sbasba(icurlovision
StoneLayout
p1751
(dp1752
g29
F0.4791666666666667
sg30
(lp1753
(icurlovision
Stone
p1754
(dp1755
g34
F-2.318181818181818
sg35
F0.2727272727272727
sg36
F0.32727272727272727
sg37
S'yellow'
p1756
sba(icurlovision
Stone
p1757
(dp1758
g34
F2.0454545454545454
sg35
F0.40909090909090906
sg36
F0.3409090909090909
sg37
S'red'
p1759
sba(icurlovision
Stone
p1760
(dp1761
g34
F3.8454545454545452
sg35
F-0.10909090909090909
sg36
F0.32727272727272727
sg37
S'red'
p1762
sba(icurlovision
Stone
p1763
(dp1764
g34
F4.8
sg35
F0.13636363636363635
sg36
F0.32727272727272727
sg37
S'yellow'
p1765
sbasba(icurlovision
StoneLayout
p1766
(dp1767
g29
F0.4791666666666667
sg30
(lp1768
(icurlovision
Stone
p1769
(dp1770
g34
F-1.6473214285714284
sg35
F1.6607142857142856
sg36
F0.3482142857142857
sg37
S'red'
p1771
sba(icurlovision
Stone
p1772
(dp1773
g34
F2.611607142857143
sg35
F-0.3214285714285714
sg36
F0.45535714285714285
sg37
S'red'
p1774
sba(icurlovision
Stone
p1775
(dp1776
g34
F1.888392857142857
sg35
F7.205357142857142
sg36
F0.46875
sg37
S'yellow'
p1777
sba(icurlovision
Stone
p1778
(dp1779
g34
F-2.3169642857142856
sg35
F0.29464285714285715
sg36
F0.33482142857142855
sg37
S'yellow'
p1780
sba(icurlovision
Stone
p1781
(dp1782
g34
F-6.709821428571428
sg35
F-5.678571428571428
sg36
F0.4821428571428571
sg37
S'red'
p1783
sbasba(icurlovision
StoneLayout
p1784
(dp1785
g29
F0.4791666666666667
sg30
(lp1786
(icurlovision
Stone
p1787
(dp1788
g34
F1.7456896551724137
sg35
F1.3060344827586208
sg36
F0.4525862068965517
sg37
S'yellow'
p1789
sba(icurlovision
Stone
p1790
(dp1791
g34
F2.5732758620689653
sg35
F-0.3232758620689655
sg36
F0.34913793103448276
sg37
S'red'
p1792
sba(icurlovision
Stone
p1793
(dp1794
g34
F-2.2629310344827585
sg35
F0.3232758620689655
sg36
F0.4525862068965517
sg37
S'yellow'
p1795
sba(icurlovision
Stone
p1796
(dp1797
g34
F-1.6163793103448276
sg35
F1.7974137931034482
sg36
F0.46551724137931033
sg37
S'red'
p1798
sbasba(icurlovision
StoneLayout
p1799
(dp1800
g29
F0.4791666666666667
sg30
(lp1801
(icurlovision
Stone
p1802
(dp1803
g34
F2.6470588235294117
sg35
F-0.3529411764705882
sg36
F0.47058823529411764
sg37
S'red'
p1804
sba(icurlovision
Stone
p1805
(dp1806
g34
F-1.6764705882352942
sg35
F1.8235294117647058
sg36
F0.3235294117647059
sg37
S'red'
p1807
sba(icurlovision
Stone
p1808
(dp1809
g34
F-2.3529411764705883
sg35
F0.3235294117647059
sg36
F0.45588235294117646
sg37
S'yellow'
p1810
sbasba(icurlovision
StoneLayout
p1811
(dp1812
g29
F0.4791666666666667
sg30
(lp1813
(icurlovision
Stone
p1814
(dp1815
g34
F-1.9655172413793103
sg35
F0.3620689655172414
sg36
F0.4525862068965517
sg37
S'yellow'
p1816
sba(icurlovision
Stone
p1817
(dp1818
g34
F-2.4310344827586206
sg35
F2.0689655172413794
sg36
F0.34913793103448276
sg37
S'red'
p1819
sba(icurlovision
Stone
p1820
(dp1821
g34
F2.663793103448276
sg35
F-0.33620689655172414
sg36
F0.33620689655172414
sg37
S'red'
p1822
sba(icurlovision
Stone
p1823
(dp1824
g34
F-6.594827586206897
sg35
F-0.23275862068965517
sg36
F0.33620689655172414
sg37
S'yellow'
p1825
sba(icurlovision
Stone
p1826
(dp1827
g34
F0.10344827586206896
sg35
F0.20689655172413793
sg36
F0.46551724137931033
sg37
S'yellow'
p1828
sba(icurlovision
Stone
p1829
(dp1830
g34
F-0.75
sg35
F0.853448275862069
sg36
F0.33620689655172414
sg37
S'red'
p1831
sbasbasg3
I7
sg252
I1
sba(icurlovision
EndResult
p1832
(dp1833
g2
I6
sg10
(lp1834
(I7
I8
tp1835
a(I7
I7
tp1836
a(I6
I7
tp1837
a(I6
I6
tp1838
a(I5
I6
tp1839
a(I5
I5
tp1840
a(I3
I4
tp1841
a(I3
I3
tp1842
a(I2
I3
tp1843
a(I2
I2
tp1844
a(I1
I2
tp1845
a(I1
I1
tp1846
a(I0
I1
tp1847
asg24
I9
sg25
(lp1848
(icurlovision
StoneLayout
p1849
(dp1850
g29
F0.4791666666666667
sg30
(lp1851
(icurlovision
Stone
p1852
(dp1853
g34
F-0.1875
sg35
F0.6727941176470589
sg36
F0.35294117647058826
sg37
S'red'
p1854
sbasba(icurlovision
StoneLayout
p1855
(dp1856
g29
F0.4791666666666667
sg30
(lp1857
(icurlovision
Stone
p1858
(dp1859
g34
F-0.22916666666666666
sg35
F0.8125
sg36
F0.47916666666666663
sg37
S'red'
p1860
sba(icurlovision
Stone
p1861
(dp1862
g34
F12.854166666666666
sg35
F-3.270833333333333
sg36
F0.3333333333333333
sg37
S'yellow'
p1863
sba(icurlovision
Stone
p1864
(dp1865
g34
F13.229166666666666
sg35
F-15.520833333333332
sg36
F0.3958333333333333
sg37
S'yellow'
p1866
sbasba(icurlovision
StoneLayout
p1867
(dp1868
g29
F0.4791666666666667
sg30
(lp1869
(icurlovision
Stone
p1870
(dp1871
g34
F-0.19736842105263158
sg35
F0.7894736842105263
sg36
F0.35526315789473684
sg37
S'red'
p1872
sba(icurlovision
Stone
p1873
(dp1874
g34
F12.671052631578947
sg35
F-3.2368421052631575
sg36
F0.43421052631578944
sg37
S'yellow'
p1875
sba(icurlovision
Stone
p1876
(dp1877
g34
F5.4868421052631575
sg35
F0.631578947368421
sg36
F0.3157894736842105
sg37
S'red'
p1878
sba(icurlovision
Stone
p1879
(dp1880
g34
F13.342105263157894
sg35
F-14.368421052631579
sg36
F0.23684210526315788
sg37
S'yellow'
p1881
sbasba(icurlovision
StoneLayout
p1882
(dp1883
g29
F0.4791666666666667
sg30
(lp1884
(icurlovision
Stone
p1885
(dp1886
g34
F-1.894736842105263
sg35
F0.17763157894736842
sg36
F0.3157894736842105
sg37
S'yellow'
p1887
sba(icurlovision
Stone
p1888
(dp1889
g34
F12.710526315789473
sg35
F-3.177631578947368
sg36
F0.3355263157894737
sg37
S'yellow'
p1890
sba(icurlovision
Stone
p1891
(dp1892
g34
F-0.23684210526315788
sg35
F0.8486842105263157
sg36
F0.35526315789473684
sg37
S'red'
p1893
sba(icurlovision
Stone
p1894
(dp1895
g34
F5.526315789473684
sg35
F0.6907894736842105
sg36
F0.3355263157894737
sg37
S'red'
p1896
sba(icurlovision
Stone
p1897
(dp1898
g34
F13.06578947368421
sg35
F-14.546052631578947
sg36
F0.2763157894736842
sg37
S'yellow'
p1899
sbasba(icurlovision
StoneLayout
p1900
(dp1901
g29
F0.4791666666666667
sg30
(lp1902
(icurlovision
Stone
p1903
(dp1904
g34
F-0.21710526315789472
sg35
F0.7302631578947368
sg36
F0.4539473684210526
sg37
S'red'
p1905
sba(icurlovision
Stone
p1906
(dp1907
g34
F12.217105263157894
sg35
F-3.0986842105263155
sg36
F0.23684210526315788
sg37
S'yellow'
p1908
sba(icurlovision
Stone
p1909
(dp1910
g34
F5.309210526315789
sg35
F0.6513157894736842
sg36
F0.3355263157894737
sg37
S'red'
p1911
sba(icurlovision
Stone
p1912
(dp1913
g34
F12.651315789473683
sg35
F-14.30921052631579
sg36
F0.3157894736842105
sg37
S'yellow'
p1914
sbasba(icurlovision
StoneLayout
p1915
(dp1916
g29
F0.4791666666666667
sg30
(lp1917
(icurlovision
Stone
p1918
(dp1919
g34
F-0.17763157894736842
sg35
F0.8092105263157894
sg36
F0.35526315789473684
sg37
S'red'
p1920
sba(icurlovision
Stone
p1921
(dp1922
g34
F12.611842105263158
sg35
F-3.177631578947368
sg36
F0.3157894736842105
sg37
S'yellow'
p1923
sba(icurlovision
Stone
p1924
(dp1925
g34
F1.4802631578947367
sg35
F0.17763157894736842
sg36
F0.3355263157894737
sg37
S'yellow'
p1926
sba(icurlovision
Stone
p1927
(dp1928
g34
F13.046052631578947
sg35
F-14.664473684210526
sg36
F0.2763157894736842
sg37
S'yellow'
p1929
sba(icurlovision
Stone
p1930
(dp1931
g34
F5.50657894736842
sg35
F0.6907894736842105
sg36
F0.2763157894736842
sg37
S'red'
p1932
sbasba(icurlovision
StoneLayout
p1933
(dp1934
g29
F0.4791666666666667
sg30
(lp1935
(icurlovision
Stone
p1936
(dp1937
g34
F-3.375
sg35
F0.47844827586206895
sg36
F0.46551724137931033
sg37
S'yellow'
p1938
sba(icurlovision
Stone
p1939
(dp1940
g34
F1.4612068965517242
sg35
F1.875
sg36
F0.4525862068965517
sg37
S'red'
p1941
sba(icurlovision
Stone
p1942
(dp1943
g34
F-0.21982758620689655
sg35
F0.7887931034482758
sg36
F0.33620689655172414
sg37
S'red'
p1944
sba(icurlovision
Stone
p1945
(dp1946
g34
F6.193965517241379
sg35
F0.9181034482758621
sg36
F0.3232758620689655
sg37
S'red'
p1947
sbasba(icurlovision
StoneLayout
p1948
(dp1949
g29
F0.4791666666666667
sg30
(lp1950
(icurlovision
Stone
p1951
(dp1952
g34
F-3.3232758620689653
sg35
F0.4525862068965517
sg36
F0.3232758620689655
sg37
S'yellow'
p1953
sba(icurlovision
Stone
p1954
(dp1955
g34
F-0.1939655172413793
sg35
F0.7370689655172413
sg36
F0.4525862068965517
sg37
S'red'
p1956
sba(icurlovision
Stone
p1957
(dp1958
g34
F1.4612068965517242
sg35
F1.8232758620689655
sg36
F0.4525862068965517
sg37
S'red'
p1959
sba(icurlovision
Stone
p1960
(dp1961
g34
F-1.4612068965517242
sg35
F0.16810344827586207
sg36
F0.4525862068965517
sg37
S'yellow'
p1962
sba(icurlovision
Stone
p1963
(dp1964
g34
F6.0905172413793105
sg35
F0.8922413793103449
sg36
F0.33620689655172414
sg37
S'red'
p1965
sbasba(icurlovision
StoneLayout
p1966
(dp1967
g29
F0.4791666666666667
sg30
(lp1968
(icurlovision
Stone
p1969
(dp1970
g34
F-0.22767857142857142
sg35
F0.7767857142857142
sg36
F0.33482142857142855
sg37
S'red'
p1971
sba(icurlovision
Stone
p1972
(dp1973
g34
F-3.361607142857143
sg35
F0.4821428571428571
sg36
F0.46875
sg37
S'yellow'
p1974
sba(icurlovision
Stone
p1975
(dp1976
g34
F1.40625
sg35
F1.8482142857142856
sg36
F0.45535714285714285
sg37
S'red'
p1977
sba(icurlovision
Stone
p1978
(dp1979
g34
F6.040178571428571
sg35
F0.9375
sg36
F0.45535714285714285
sg37
S'red'
p1980
sbasba(icurlovision
StoneLayout
p1981
(dp1982
g29
F0.4791666666666667
sg30
(lp1983
(icurlovision
Stone
p1984
(dp1985
g34
F-3.3461538461538463
sg35
F0.4903846153846154
sg36
F0.46153846153846156
sg37
S'yellow'
p1986
sba(icurlovision
Stone
p1987
(dp1988
g34
F1.5
sg35
F1.875
sg36
F0.34615384615384615
sg37
S'red'
p1989
sba(icurlovision
Stone
p1990
(dp1991
g34
F-0.17307692307692307
sg35
F0.7788461538461539
sg36
F0.3605769230769231
sg37
S'red'
p1992
sba(icurlovision
Stone
p1993
(dp1994
g34
F5.5673076923076925
sg35
F0.14423076923076925
sg36
F0.44711538461538464
sg37
S'yellow'
p1995
sba(icurlovision
Stone
p1996
(dp1997
g34
F6.173076923076923
sg35
F0.9230769230769231
sg36
F0.34615384615384615
sg37
S'red'
p1998
sbasba(icurlovision
StoneLayout
p1999
(dp2000
g29
F0.4791666666666667
sg30
(lp2001
(icurlovision
Stone
p2002
(dp2003
g34
F-0.339622641509434
sg35
F0.7358490566037736
sg36
F0.3537735849056604
sg37
S'red'
p2004
sba(icurlovision
Stone
p2005
(dp2006
g34
F-3.509433962264151
sg35
F0.5377358490566038
sg36
F0.339622641509434
sg37
S'yellow'
p2007
sba(icurlovision
Stone
p2008
(dp2009
g34
F0.6226415094339622
sg35
F1.2735849056603774
sg36
F0.2971698113207547
sg37
S'red'
p2010
sba(icurlovision
Stone
p2011
(dp2012
g34
F0.7075471698113208
sg35
F3.9622641509433962
sg36
F0.3537735849056604
sg37
S'red'
p2013
sba(icurlovision
Stone
p2014
(dp2015
g34
F6.311320754716982
sg35
F0.9622641509433962
sg36
F0.4669811320754717
sg37
S'red'
p2016
sba(icurlovision
Stone
p2017
(dp2018
g34
F5.688679245283019
sg35
F0.169811320754717
sg36
F0.339622641509434
sg37
S'yellow'
p2019
sbasba(icurlovision
StoneLayout
p2020
(dp2021
g29
F0.4791666666666667
sg30
(lp2022
(icurlovision
Stone
p2023
(dp2024
g34
F1.0125
sg35
F0.23750000000000002
sg36
F0.3375
sg37
S'yellow'
p2025
sba(icurlovision
Stone
p2026
(dp2027
g34
F-0.9375
sg35
F0.4375
sg36
F0.35000000000000003
sg37
S'red'
p2028
sba(icurlovision
Stone
p2029
(dp2030
g34
F-3.4375
sg35
F0.5125000000000001
sg36
F0.47500000000000003
sg37
S'yellow'
p2031
sba(icurlovision
Stone
p2032
(dp2033
g34
F0.7375
sg35
F3.9125
sg36
F0.3375
sg37
S'red'
p2034
sba(icurlovision
Stone
p2035
(dp2036
g34
F-1.7375
sg35
F3.4875000000000003
sg36
F0.36250000000000004
sg37
S'red'
p2037
sbasba(icurlovision
StoneLayout
p2038
(dp2039
g29
F0.4791666666666667
sg30
(lp2040
(icurlovision
Stone
p2041
(dp2042
g34
F-0.1814516129032258
sg35
F3.0846774193548385
sg36
F0.4596774193548387
sg37
S'red'
p2043
sba(icurlovision
Stone
p2044
(dp2045
g34
F-3.3991935483870965
sg35
F0.4959677419354839
sg36
F0.3387096774193548
sg37
S'yellow'
p2046
sba(icurlovision
Stone
p2047
(dp2048
g34
F-1.7056451612903225
sg35
F3.375
sg36
F0.31451612903225806
sg37
S'red'
p2049
sba(icurlovision
Stone
p2050
(dp2051
g34
F0.4475806451612903
sg35
F5.213709677419355
sg36
F0.3387096774193548
sg37
S'red'
p2052
sbasbasg3
I7
sg252
I0
sba(icurlovision
EndResult
p2053
(dp2054
g2
I7
sg10
(lp2055
(I3
I3
tp2056
a(I3
I2
tp2057
a(I2
I1
tp2058
asg24
I10
sg25
(lp2059
(icurlovision
StoneLayout
p2060
(dp2061
g29
F0.4791666666666667
sg30
(lp2062
(icurlovision
Stone
p2063
(dp2064
g34
F5.3999999999999995
sg35
F-5.175
sg36
F0.2625
sg37
S'yellow'
p2065
sba(icurlovision
Stone
p2066
(dp2067
g34
F5.1375
sg35
F6.1499999999999995
sg36
F0.3
sg37
S'red'
p2068
sba(icurlovision
Stone
p2069
(dp2070
g34
F1.3875
sg35
F-3.4875
sg36
F0.46875
sg37
S'red'
p2071
sba(icurlovision
Stone
p2072
(dp2073
g34
F12.225
sg35
F-4.8374999999999995
sg36
F0.4125
sg37
S'yellow'
p2074
sba(icurlovision
Stone
p2075
(dp2076
g34
F2.8874999999999997
sg35
F3.9375
sg36
F0.31875
sg37
S'yellow'
p2077
sba(icurlovision
Stone
p2078
(dp2079
g34
F12.4125
sg35
F-13.612499999999999
sg36
F0.22499999999999998
sg37
S'yellow'
p2080
sbasba(icurlovision
StoneLayout
p2081
(dp2082
g29
F0.4791666666666667
sg30
(lp2083
(icurlovision
Stone
p2084
(dp2085
g34
F5.635135135135135
sg35
F-5.371621621621622
sg36
F0.30405405405405406
sg37
S'yellow'
p2086
sba(icurlovision
Stone
p2087
(dp2088
g34
F12.567567567567568
sg35
F-4.966216216216217
sg36
F0.44594594594594594
sg37
S'yellow'
p2089
sba(icurlovision
Stone
p2090
(dp2091
g34
F1.418918918918919
sg35
F-3.587837837837838
sg36
F0.46621621621621623
sg37
S'red'
p2092
sba(icurlovision
Stone
p2093
(dp2094
g34
F9.202702702702704
sg35
F2.1283783783783785
sg36
F0.44594594594594594
sg37
S'yellow'
p2095
sba(icurlovision
Stone
p2096
(dp2097
g34
F5.310810810810811
sg35
F6.304054054054054
sg36
F0.44594594594594594
sg37
S'red'
p2098
sba(icurlovision
Stone
p2099
(dp2100
g34
F2.9594594594594597
sg35
F4.033783783783784
sg36
F0.44594594594594594
sg37
S'yellow'
p2101
sbasba(icurlovision
StoneLayout
p2102
(dp2103
g29
F0.4791666666666667
sg30
(lp2104
(icurlovision
Stone
p2105
(dp2106
g34
F1.36875
sg35
F-3.5437499999999997
sg36
F0.33749999999999997
sg37
S'red'
p2107
sba(icurlovision
Stone
p2108
(dp2109
g34
F5.41875
sg35
F-5.23125
sg36
F0.43124999999999997
sg37
S'yellow'
p2110
sba(icurlovision
Stone
p2111
(dp2112
g34
F0.61875
sg35
F0.69375
sg36
F0.44999999999999996
sg37
S'yellow'
p2113
sba(icurlovision
Stone
p2114
(dp2115
g34
F9.05625
sg35
F0.69375
sg36
F0.43124999999999997
sg37
S'red'
p2116
sba(icurlovision
Stone
p2117
(dp2118
g34
F12.28125
sg35
F-4.85625
sg36
F0.4125
sg37
S'yellow'
p2119
sba(icurlovision
Stone
p2120
(dp2121
g34
F5.1187499999999995
sg35
F6.16875
sg36
F0.4125
sg37
S'red'
p2122
sbasbasg3
I7
sg252
I1
sba(icurlovision
EndResult
p2123
(dp2124
g2
I7
sg10
(lp2125
(I7
I7
tp2126
a(I7
I6
tp2127
a(I6
I6
tp2128
a(I5
I4
tp2129
a(I4
I4
tp2130
a(I4
I3
tp2131
a(I3
I3
tp2132
a(I3
I2
tp2133
a(I2
I2
tp2134
a(I2
I1
tp2135
a(I1
I1
tp2136
a(I1
I0
tp2137
asg24
I11
sg25
(lp2138
(icurlovision
StoneLayout
p2139
(dp2140
g29
F0.4791666666666667
sg30
(lp2141
(icurlovision
Stone
p2142
(dp2143
g34
F8.01063829787234
sg35
F0.4627659574468085
sg36
F0.44680851063829785
sg37
S'yellow'
p2144
sba(icurlovision
Stone
p2145
(dp2146
g34
F-6.063829787234042
sg35
F0.175531914893617
sg36
F0.44680851063829785
sg37
S'red'
p2147
sbasba(icurlovision
StoneLayout
p2148
(dp2149
g29
F0.4791666666666667
sg30
(lp2150
(icurlovision
Stone
p2151
(dp2152
g34
F7.604651162790698
sg35
F0.41860465116279066
sg36
F0.27906976744186046
sg37
S'yellow'
p2153
sba(icurlovision
Stone
p2154
(dp2155
g34
F13.046511627906977
sg35
F-0.27906976744186046
sg36
F0.436046511627907
sg37
S'yellow'
p2156
sbasba(icurlovision
StoneLayout
p2157
(dp2158
g29
F0.4791666666666667
sg30
(lp2159
(icurlovision
Stone
p2160
(dp2161
g34
F7.76923076923077
sg35
F0.46153846153846156
sg36
F0.40384615384615385
sg37
S'yellow'
p2162
sba(icurlovision
Stone
p2163
(dp2164
g34
F13.26923076923077
sg35
F-0.2692307692307693
sg36
F0.3269230769230769
sg37
S'yellow'
p2165
sba(icurlovision
Stone
p2166
(dp2167
g34
F1.2307692307692308
sg35
F0.42307692307692313
sg36
F0.3269230769230769
sg37
S'red'
p2168
sbasba(icurlovision
StoneLayout
p2169
(dp2170
g29
F0.4791666666666667
sg30
(lp2171
(icurlovision
Stone
p2172
(dp2173
g34
F7.73780487804878
sg35
F0.45731707317073167
sg36
F0.45731707317073167
sg37
S'yellow'
p2174
sba(icurlovision
Stone
p2175
(dp2176
g34
F10.810975609756097
sg35
F-0.274390243902439
sg36
F0.4390243902439024
sg37
S'yellow'
p2177
sba(icurlovision
Stone
p2178
(dp2179
g34
F0.45731707317073167
sg35
F-0.31097560975609756
sg36
F0.45731707317073167
sg37
S'yellow'
p2180
sba(icurlovision
Stone
p2181
(dp2182
g34
F1.225609756097561
sg35
F0.45731707317073167
sg36
F0.31097560975609756
sg37
S'red'
p2183
sba(icurlovision
Stone
p2184
(dp2185
g34
F11.652439024390244
sg35
F-13.262195121951219
sg36
F0.274390243902439
sg37
S'yellow'
p2186
sbasba(icurlovision
StoneLayout
p2187
(dp2188
g29
F0.4791666666666667
sg30
(lp2189
(icurlovision
Stone
p2190
(dp2191
g34
F1.95
sg35
F-0.22499999999999998
sg36
F0.32999999999999996
sg37
S'yellow'
p2192
sba(icurlovision
Stone
p2193
(dp2194
g34
F-0.54
sg35
F-1.065
sg36
F0.46499999999999997
sg37
S'yellow'
p2195
sba(icurlovision
Stone
p2196
(dp2197
g34
F-3.4499999999999997
sg35
F6.375
sg36
F0.315
sg37
S'yellow'
p2198
sba(icurlovision
Stone
p2199
(dp2200
g34
F-0.72
sg35
F1.785
sg36
F0.3
sg37
S'red'
p2201
sba(icurlovision
Stone
p2202
(dp2203
g34
F-0.18
sg35
F-5.984999999999999
sg36
F0.36
sg37
S'red'
p2204
sbasba(icurlovision
StoneLayout
p2205
(dp2206
g29
F0.4791666666666667
sg30
(lp2207
(icurlovision
Stone
p2208
(dp2209
g34
F-0.75
sg35
F1.78125
sg36
F0.4375
sg37
S'red'
p2210
sba(icurlovision
Stone
p2211
(dp2212
g34
F8.625
sg35
F-0.15625
sg36
F0.28125
sg37
S'yellow'
p2213
sba(icurlovision
Stone
p2214
(dp2215
g34
F1.875
sg35
F-0.1875
sg36
F0.453125
sg37
S'yellow'
p2216
sba(icurlovision
Stone
p2217
(dp2218
g34
F-0.5625
sg35
F-1.0625
sg36
F0.359375
sg37
S'yellow'
p2219
sbasba(icurlovision
StoneLayout
p2220
(dp2221
g29
F0.4791666666666667
sg30
(lp2222
(icurlovision
Stone
p2223
(dp2224
g34
F-0.6973684210526315
sg35
F1.75
sg36
F0.3157894736842105
sg37
S'red'
p2225
sba(icurlovision
Stone
p2226
(dp2227
g34
F1.9342105263157894
sg35
F-0.25
sg36
F0.4605263157894737
sg37
S'yellow'
p2228
sba(icurlovision
Stone
p2229
(dp2230
g34
F-0.513157894736842
sg35
F-1.0921052631578947
sg36
F0.3421052631578947
sg37
S'yellow'
p2231
sba(icurlovision
Stone
p2232
(dp2233
g34
F4.828947368421052
sg35
F-7.434210526315789
sg36
F0.3289473684210526
sg37
S'red'
p2234
sba(icurlovision
Stone
p2235
(dp2236
g34
F-7.013157894736842
sg35
F7.144736842105263
sg36
F0.4473684210526315
sg37
S'yellow'
p2237
sbasba(icurlovision
StoneLayout
p2238
(dp2239
g29
F0.4791666666666667
sg30
(lp2240
(icurlovision
Stone
p2241
(dp2242
g34
F1.92
sg35
F-0.24
sg36
F0.44999999999999996
sg37
S'yellow'
p2243
sba(icurlovision
Stone
p2244
(dp2245
g34
F7.2299999999999995
sg35
F-0.44999999999999996
sg36
F0.285
sg37
S'yellow'
p2246
sba(icurlovision
Stone
p2247
(dp2248
g34
F-0.72
sg35
F1.77
sg36
F0.345
sg37
S'red'
p2249
sba(icurlovision
Stone
p2250
(dp2251
g34
F-0.54
sg35
F-1.1099999999999999
sg36
F0.315
sg37
S'yellow'
p2252
sbasba(icurlovision
StoneLayout
p2253
(dp2254
g29
F0.4791666666666667
sg30
(lp2255
(icurlovision
Stone
p2256
(dp2257
g34
F-0.7098214285714285
sg35
F1.7544642857142856
sg36
F0.3482142857142857
sg37
S'red'
p2258
sba(icurlovision
Stone
p2259
(dp2260
g34
F7.03125
sg35
F-2.236607142857143
sg36
F0.45535714285714285
sg37
S'red'
p2261
sba(icurlovision
Stone
p2262
(dp2263
g34
F0.28125
sg35
F-0.84375
sg36
F0.4419642857142857
sg37
S'yellow'
p2264
sbasba(icurlovision
StoneLayout
p2265
(dp2266
g29
F0.4791666666666667
sg30
(lp2267
(icurlovision
Stone
p2268
(dp2269
g34
F6.807692307692308
sg35
F-2.153846153846154
sg36
F0.3076923076923077
sg37
S'red'
p2270
sba(icurlovision
Stone
p2271
(dp2272
g34
F-0.6538461538461539
sg35
F1.6923076923076925
sg36
F0.3076923076923077
sg37
S'red'
p2273
sba(icurlovision
Stone
p2274
(dp2275
g34
F0.3076923076923077
sg35
F-0.8461538461538463
sg36
F0.42307692307692313
sg37
S'yellow'
p2276
sba(icurlovision
Stone
p2277
(dp2278
g34
F15.76923076923077
sg35
F-0.42307692307692313
sg36
F0.38461538461538464
sg37
S'yellow'
p2279
sba(icurlovision
Stone
p2280
(dp2281
g34
F14.423076923076923
sg35
F-14.0
sg36
F0.23076923076923078
sg37
S'yellow'
p2282
sbasba(icurlovision
StoneLayout
p2283
(dp2284
g29
F0.4791666666666667
sg30
(lp2285
(icurlovision
Stone
p2286
(dp2287
g34
F-0.7297297297297298
sg35
F1.7432432432432434
sg36
F0.44594594594594594
sg37
S'red'
p2288
sba(icurlovision
Stone
p2289
(dp2290
g34
F0.8108108108108109
sg35
F-0.04054054054054054
sg36
F0.3445945945945946
sg37
S'red'
p2291
sba(icurlovision
Stone
p2292
(dp2293
g34
F7.135135135135135
sg35
F-2.310810810810811
sg36
F0.30405405405405406
sg37
S'red'
p2294
sba(icurlovision
Stone
p2295
(dp2296
g34
F-3.121621621621622
sg35
F-2.4729729729729732
sg36
F0.3445945945945946
sg37
S'yellow'
p2297
sba(icurlovision
Stone
p2298
(dp2299
g34
F14.756756756756758
sg35
F-14.756756756756758
sg36
F0.28378378378378377
sg37
S'yellow'
p2300
sbasba(icurlovision
StoneLayout
p2301
(dp2302
g29
F0.4791666666666667
sg30
(lp2303
(icurlovision
Stone
p2304
(dp2305
g34
F-2.9189189189189193
sg35
F1.0945945945945947
sg36
F0.44594594594594594
sg37
S'red'
p2306
sba(icurlovision
Stone
p2307
(dp2308
g34
F7.054054054054054
sg35
F-2.22972972972973
sg36
F0.44594594594594594
sg37
S'red'
p2309
sba(icurlovision
Stone
p2310
(dp2311
g34
F16.45945945945946
sg35
F-0.44594594594594594
sg36
F0.40540540540540543
sg37
S'yellow'
p2312
sba(icurlovision
Stone
p2313
(dp2314
g34
F0.6891891891891893
sg35
F-1.6621621621621623
sg36
F0.46621621621621623
sg37
S'yellow'
p2315
sba(icurlovision
Stone
p2316
(dp2317
g34
F-0.7297297297297298
sg35
F1.7837837837837838
sg36
F0.46621621621621623
sg37
S'red'
p2318
sba(icurlovision
Stone
p2319
(dp2320
g34
F-3.6081081081081083
sg35
F-2.635135135135135
sg36
F0.3445945945945946
sg37
S'yellow'
p2321
sba(icurlovision
Stone
p2322
(dp2323
g34
F15.486486486486488
sg35
F-14.716216216216218
sg36
F0.24324324324324326
sg37
S'yellow'
p2324
sbasbasg3
I7
sg252
I1
sbasb.