(icurlovision
MatchResult
p0
(dp1
S'yel_score'
p2
I8
sS'name'
p3
S"VideoLibrary/PyeongChang.Olympics.2018.curling.men's.round-robin.USA.v.Norway.1080p.NBC.WEB-DL-FINFUNGUS.mp4"
p4
sS'end_results'
p5
(lp6
(icurlovision
EndResult
p7
(dp8
g2
I0
sS'stones_left'
p9
(lp10
(I8
I7
tp11
a(I7
I7
tp12
a(I6
I6
tp13
a(I5
I5
tp14
a(I5
I4
tp15
a(I4
I3
tp16
a(I3
I2
tp17
a(I1
I1
tp18
a(I1
I0
tp19
asS'end_num'
p20
I1
sS'stone_layouts'
p21
(lp22
(icurlovision
StoneLayout
p23
(dp24
S'stone_radius'
p25
F0.4791666666666667
sS'stones'
p26
(lp27
(icurlovision
Stone
p28
(dp29
S'y'
p30
F11.423076923076923
sS'x'
p31
F-0.8846153846153847
sS'r'
p32
F0.42307692307692313
sS'color'
p33
S'yellow'
p34
sbasba(icurlovision
StoneLayout
p35
(dp36
g25
F0.4791666666666667
sg26
(lp37
(icurlovision
Stone
p38
(dp39
g30
F11.4
sg31
F-1.36875
sg32
F0.44999999999999996
sg33
S'yellow'
p40
sba(icurlovision
Stone
p41
(dp42
g30
F11.5125
sg31
F0.16874999999999998
sg32
F0.44999999999999996
sg33
S'red'
p43
sba(icurlovision
Stone
p44
(dp45
g30
F-3.9749999999999996
sg31
F6.91875
sg32
F0.3
sg33
S'red'
p46
sbasba(icurlovision
StoneLayout
p47
(dp48
g25
F0.4791666666666667
sg26
(lp49
(icurlovision
Stone
p50
(dp51
g30
F11.310810810810812
sg31
F-1.337837837837838
sg32
F0.4256756756756757
sg33
S'yellow'
p52
sba(icurlovision
Stone
p53
(dp54
g30
F12.202702702702704
sg31
F0.28378378378378377
sg32
F0.30405405405405406
sg33
S'red'
p55
sba(icurlovision
Stone
p56
(dp57
g30
F-1.2567567567567568
sg31
F-5.4324324324324325
sg32
F0.22297297297297297
sg33
S'red'
p58
sbasba(icurlovision
StoneLayout
p59
(dp60
g25
F0.4791666666666667
sg26
(lp61
(icurlovision
Stone
p62
(dp63
g30
F11.230769230769232
sg31
F-1.3653846153846154
sg32
F0.44230769230769235
sg33
S'yellow'
p64
sba(icurlovision
Stone
p65
(dp66
g30
F-2.576923076923077
sg31
F-1.826923076923077
sg32
F0.46153846153846156
sg33
S'yellow'
p67
sba(icurlovision
Stone
p68
(dp69
g30
F-2.6153846153846154
sg31
F-0.7884615384615385
sg32
F0.4807692307692308
sg33
S'red'
p70
sba(icurlovision
Stone
p71
(dp72
g30
F12.153846153846155
sg31
F0.25
sg32
F0.44230769230769235
sg33
S'red'
p73
sbasba(icurlovision
StoneLayout
p74
(dp75
g25
F0.4791666666666667
sg26
(lp76
(icurlovision
Stone
p77
(dp78
g30
F-2.56578947368421
sg31
F-0.75
sg32
F0.35526315789473684
sg33
S'red'
p79
sba(icurlovision
Stone
p80
(dp81
g30
F-2.486842105263158
sg31
F-1.776315789473684
sg32
F0.4539473684210526
sg33
S'yellow'
p82
sba(icurlovision
Stone
p83
(dp84
g30
F2.0921052631578947
sg31
F0.75
sg32
F0.4539473684210526
sg33
S'yellow'
p85
sba(icurlovision
Stone
p86
(dp87
g30
F10.973684210526315
sg31
F-1.3026315789473684
sg32
F0.43421052631578944
sg33
S'yellow'
p88
sba(icurlovision
Stone
p89
(dp90
g30
F11.842105263157894
sg31
F0.2763157894736842
sg32
F0.41447368421052627
sg33
S'red'
p91
sbasba(icurlovision
StoneLayout
p92
(dp93
g25
F0.4791666666666667
sg26
(lp94
(icurlovision
Stone
p95
(dp96
g30
F-2.607142857142857
sg31
F-0.75
sg32
F0.3571428571428571
sg33
S'red'
p97
sba(icurlovision
Stone
p98
(dp99
g30
F-1.6785714285714284
sg31
F-1.3928571428571428
sg32
F0.3214285714285714
sg33
S'red'
p100
sba(icurlovision
Stone
p101
(dp102
g30
F11.25
sg31
F-1.357142857142857
sg32
F0.4464285714285714
sg33
S'yellow'
p103
sba(icurlovision
Stone
p104
(dp105
g30
F12.178571428571427
sg31
F0.3214285714285714
sg32
F0.2857142857142857
sg33
S'red'
p106
sbasba(icurlovision
StoneLayout
p107
(dp108
g25
F0.4791666666666667
sg26
(lp109
(icurlovision
Stone
p110
(dp111
g30
F-2.5124999999999997
sg31
F-0.73125
sg32
F0.44999999999999996
sg33
S'red'
p112
sba(icurlovision
Stone
p113
(dp114
g30
F1.4625
sg31
F0.24375
sg32
F0.31875
sg33
S'yellow'
p115
sba(icurlovision
Stone
p116
(dp117
g30
F-1.65
sg31
F-1.36875
sg32
F0.3
sg33
S'red'
p118
sba(icurlovision
Stone
p119
(dp120
g30
F1.5
sg31
F-0.91875
sg32
F0.33749999999999997
sg33
S'red'
p121
sba(icurlovision
Stone
p122
(dp123
g30
F11.85
sg31
F0.28125
sg32
F0.43124999999999997
sg33
S'red'
p124
sba(icurlovision
Stone
p125
(dp126
g30
F10.95
sg31
F-1.29375
sg32
F0.43124999999999997
sg33
S'yellow'
p127
sba(icurlovision
Stone
p128
(dp129
g30
F1.1624999999999999
sg31
F4.10625
sg32
F0.31875
sg33
S'yellow'
p130
sbasba(icurlovision
StoneLayout
p131
(dp132
g25
F0.4791666666666667
sg26
(lp133
(icurlovision
Stone
p134
(dp135
g30
F-2.268292682926829
sg31
F-1.792682926829268
sg32
F0.45731707317073167
sg33
S'red'
p136
sba(icurlovision
Stone
p137
(dp138
g30
F11.23170731707317
sg31
F-1.3536585365853657
sg32
F0.45731707317073167
sg33
S'yellow'
p139
sba(icurlovision
Stone
p140
(dp141
g30
F-3.768292682926829
sg31
F0.40243902439024387
sg32
F0.3475609756097561
sg33
S'red'
p142
sba(icurlovision
Stone
p143
(dp144
g30
F1.170731707317073
sg31
F4.2073170731707314
sg32
F0.3292682926829268
sg33
S'yellow'
p145
sba(icurlovision
Stone
p146
(dp147
g30
F0.9512195121951219
sg31
F0.8048780487804877
sg32
F0.45731707317073167
sg33
S'yellow'
p148
sba(icurlovision
Stone
p149
(dp150
g30
F11.378048780487804
sg31
F3.3292682926829267
sg32
F0.4390243902439024
sg33
S'red'
p151
sbasba(icurlovision
StoneLayout
p152
(dp153
g25
F0.4791666666666667
sg26
(lp154
(icurlovision
Stone
p155
(dp156
g30
F-2.8430232558139537
sg31
F0.01744186046511628
sg32
F0.45348837209302323
sg33
S'yellow'
p157
sba(icurlovision
Stone
p158
(dp159
g30
F11.075581395348838
sg31
F-1.3081395348837208
sg32
F0.45348837209302323
sg33
S'yellow'
p160
sba(icurlovision
Stone
p161
(dp162
g30
F1.1686046511627908
sg31
F4.1686046511627906
sg32
F0.313953488372093
sg33
S'yellow'
p163
sba(icurlovision
Stone
p164
(dp165
g30
F0.9244186046511628
sg31
F0.8197674418604651
sg32
F0.45348837209302323
sg33
S'yellow'
p166
sba(icurlovision
Stone
p167
(dp168
g30
F-4.343023255813954
sg31
F-3.5755813953488373
sg32
F0.27906976744186046
sg33
S'red'
p169
sba(icurlovision
Stone
p170
(dp171
g30
F11.25
sg31
F3.296511627906977
sg32
F0.41860465116279066
sg33
S'red'
p172
sba(icurlovision
Stone
p173
(dp174
g30
F-4.343023255813954
sg31
F0.6453488372093024
sg32
F0.47093023255813954
sg33
S'red'
p175
sbasbasS'red_score'
p176
I1
sS'red_hammer'
p177
I1
sba(icurlovision
EndResult
p178
(dp179
g2
I2
sg9
(lp180
(I7
I7
tp181
a(I1
I5
tp182
a(I4
I4
tp183
a(I3
I4
tp184
a(I3
I3
tp185
a(I2
I3
tp186
a(I2
I2
tp187
a(I1
I2
tp188
a(I1
I1
tp189
a(I0
I1
tp190
asg20
I2
sg21
(lp191
(icurlovision
StoneLayout
p192
(dp193
g25
F0.4791666666666667
sg26
(lp194
sba(icurlovision
StoneLayout
p195
(dp196
g25
F0.4791666666666667
sg26
(lp197
(icurlovision
Stone
p198
(dp199
g30
F7.235294117647059
sg31
F-0.6176470588235294
sg32
F0.3235294117647059
sg33
S'red'
p200
sba(icurlovision
Stone
p201
(dp202
g30
F6.764705882352941
sg31
F5.0
sg32
F0.27941176470588236
sg33
S'yellow'
p203
sba(icurlovision
Stone
p204
(dp205
g30
F-1.3529411764705883
sg31
F-1.7941176470588236
sg32
F0.3529411764705882
sg33
S'yellow'
p206
sbasba(icurlovision
StoneLayout
p207
(dp208
g25
F0.4791666666666667
sg26
(lp209
(icurlovision
Stone
p210
(dp211
g30
F6.602678571428571
sg31
F4.915178571428571
sg32
F0.46875
sg33
S'yellow'
p212
sba(icurlovision
Stone
p213
(dp214
g30
F7.0580357142857135
sg31
F-0.6026785714285714
sg32
F0.45535714285714285
sg33
S'red'
p215
sba(icurlovision
Stone
p216
(dp217
g30
F-1.2991071428571428
sg31
F-1.7276785714285714
sg32
F0.45535714285714285
sg33
S'yellow'
p218
sba(icurlovision
Stone
p219
(dp220
g30
F-1.888392857142857
sg31
F4.834821428571428
sg32
F0.33482142857142855
sg33
S'yellow'
p221
sbasba(icurlovision
StoneLayout
p222
(dp223
g25
F0.4791666666666667
sg26
(lp224
(icurlovision
Stone
p225
(dp226
g30
F6.733333333333333
sg31
F4.933333333333334
sg32
F0.4666666666666667
sg33
S'yellow'
p227
sba(icurlovision
Stone
p228
(dp229
g30
F7.166666666666667
sg31
F-0.6666666666666666
sg32
F0.45
sg33
S'red'
p230
sba(icurlovision
Stone
p231
(dp232
g30
F-4.433333333333334
sg31
F2.6666666666666665
sg32
F0.36666666666666664
sg33
S'red'
p233
sba(icurlovision
Stone
p234
(dp235
g30
F-1.9333333333333333
sg31
F4.933333333333334
sg32
F0.35
sg33
S'yellow'
p236
sbasba(icurlovision
StoneLayout
p237
(dp238
g25
F0.4791666666666667
sg26
(lp239
(icurlovision
Stone
p240
(dp241
g30
F6.531818181818181
sg31
F4.786363636363636
sg32
F0.44999999999999996
sg33
S'yellow'
p242
sba(icurlovision
Stone
p243
(dp244
g30
F6.968181818181818
sg31
F-0.6409090909090909
sg32
F0.32727272727272727
sg33
S'red'
p245
sbasba(icurlovision
StoneLayout
p246
(dp247
g25
F0.4791666666666667
sg26
(lp248
(icurlovision
Stone
p249
(dp250
g30
F-3.015625
sg31
F-0.671875
sg32
F0.484375
sg33
S'red'
p251
sba(icurlovision
Stone
p252
(dp253
g30
F6.765625
sg31
F5.140625
sg32
F0.484375
sg33
S'yellow'
p254
sba(icurlovision
Stone
p255
(dp256
g30
F7.296875
sg31
F-0.578125
sg32
F0.359375
sg33
S'red'
p257
sba(icurlovision
Stone
p258
(dp259
g30
F-2.046875
sg31
F4.953125
sg32
F0.34375
sg33
S'yellow'
p260
sbasba(icurlovision
StoneLayout
p261
(dp262
g25
F0.4791666666666667
sg26
(lp263
(icurlovision
Stone
p264
(dp265
g30
F6.850961538461539
sg31
F4.918269230769231
sg32
F0.4903846153846154
sg33
S'yellow'
p266
sba(icurlovision
Stone
p267
(dp268
g30
F7.225961538461539
sg31
F-0.7355769230769231
sg32
F0.46153846153846156
sg33
S'red'
p269
sba(icurlovision
Stone
p270
(dp271
g30
F-4.456730769230769
sg31
F2.3509615384615388
sg32
F0.34615384615384615
sg33
S'yellow'
p272
sba(icurlovision
Stone
p273
(dp274
g30
F-1.889423076923077
sg31
F5.0048076923076925
sg32
F0.3317307692307693
sg33
S'yellow'
p275
sbasba(icurlovision
StoneLayout
p276
(dp277
g25
F0.4791666666666667
sg26
(lp278
(icurlovision
Stone
p279
(dp280
g30
F-3.340909090909091
sg31
F0.8727272727272727
sg32
F0.4636363636363636
sg33
S'red'
p281
sba(icurlovision
Stone
p282
(dp283
g30
F6.668181818181818
sg31
F4.881818181818182
sg32
F0.4636363636363636
sg33
S'yellow'
p284
sba(icurlovision
Stone
p285
(dp286
g30
F-5.25
sg31
F2.0727272727272728
sg32
F0.32727272727272727
sg33
S'yellow'
p287
sba(icurlovision
Stone
p288
(dp289
g30
F7.131818181818182
sg31
F-0.6818181818181818
sg32
F0.32727272727272727
sg33
S'red'
p290
sbasba(icurlovision
StoneLayout
p291
(dp292
g25
F0.4791666666666667
sg26
(lp293
(icurlovision
Stone
p294
(dp295
g30
F6.721698113207547
sg31
F5.05188679245283
sg32
F0.4811320754716981
sg33
S'yellow'
p296
sba(icurlovision
Stone
p297
(dp298
g30
F7.202830188679245
sg31
F-0.6084905660377359
sg32
F0.339622641509434
sg33
S'red'
p299
sba(icurlovision
Stone
p300
(dp301
g30
F-5.3915094339622645
sg31
F2.1367924528301887
sg32
F0.339622641509434
sg33
S'yellow'
p302
sbasba(icurlovision
StoneLayout
p303
(dp304
g25
F0.4791666666666667
sg26
(lp305
(icurlovision
Stone
p306
(dp307
g30
F6.779999999999999
sg31
F5.069999999999999
sg32
F0.48
sg33
S'yellow'
p308
sba(icurlovision
Stone
p309
(dp310
g30
F-4.9799999999999995
sg31
F1.5
sg32
F0.44999999999999996
sg33
S'yellow'
p311
sba(icurlovision
Stone
p312
(dp313
g30
F7.29
sg31
F-0.6
sg32
F0.32999999999999996
sg33
S'red'
p314
sbasbasg176
I1
sg177
I0
sba(icurlovision
EndResult
p315
(dp316
g2
I2
sg9
(lp317
(I8
I7
tp318
a(I7
I7
tp319
a(I7
I6
tp320
a(I6
I6
tp321
a(I6
I5
tp322
a(I5
I5
tp323
a(I4
I4
tp324
a(I4
I3
tp325
a(I3
I2
tp326
a(I2
I2
tp327
a(I2
I1
tp328
a(I1
I0
tp329
asg20
I3
sg21
(lp330
(icurlovision
StoneLayout
p331
(dp332
g25
F0.4791666666666667
sg26
(lp333
(icurlovision
Stone
p334
(dp335
g30
F2.9094827586206895
sg31
F0.5301724137931034
sg32
F0.34913793103448276
sg33
S'yellow'
p336
sbasba(icurlovision
StoneLayout
p337
(dp338
g25
F0.4791666666666667
sg26
(lp339
(icurlovision
Stone
p340
(dp341
g30
F2.9085365853658534
sg31
F0.49390243902439024
sg32
F0.45731707317073167
sg33
S'yellow'
p342
sba(icurlovision
Stone
p343
(dp344
g30
F10.262195121951219
sg31
F-3.091463414634146
sg32
F0.4390243902439024
sg33
S'red'
p345
sbasba(icurlovision
StoneLayout
p346
(dp347
g25
F0.4791666666666667
sg26
(lp348
(icurlovision
Stone
p349
(dp350
g30
F10.0125
sg31
F-3.0375
sg32
F0.2625
sg33
S'red'
p351
sba(icurlovision
Stone
p352
(dp353
g30
F2.8125
sg31
F0.4875
sg32
F0.31875
sg33
S'yellow'
p354
sba(icurlovision
Stone
p355
(dp356
g30
F3.8625
sg31
F0.525
sg32
F0.33749999999999997
sg33
S'yellow'
p357
sbasba(icurlovision
StoneLayout
p358
(dp359
g25
F0.4791666666666667
sg26
(lp360
(icurlovision
Stone
p361
(dp362
g30
F3.6710526315789473
sg31
F1.0657894736842104
sg32
F0.3157894736842105
sg33
S'yellow'
p363
sba(icurlovision
Stone
p364
(dp365
g30
F1.7368421052631577
sg31
F-3.513157894736842
sg32
F0.3157894736842105
sg33
S'red'
p366
sba(icurlovision
Stone
p367
(dp368
g30
F10.105263157894736
sg31
F-3.0789473684210527
sg32
F0.43421052631578944
sg33
S'red'
p369
sba(icurlovision
Stone
p370
(dp371
g30
F11.921052631578947
sg31
F-4.934210526315789
sg32
F0.35526315789473684
sg33
S'yellow'
p372
sbasba(icurlovision
StoneLayout
p373
(dp374
g25
F0.4791666666666667
sg26
(lp375
(icurlovision
Stone
p376
(dp377
g30
F1.7142857142857142
sg31
F-3.464285714285714
sg32
F0.33928571428571425
sg33
S'red'
p378
sba(icurlovision
Stone
p379
(dp380
g30
F3.6071428571428568
sg31
F1.0357142857142856
sg32
F0.3214285714285714
sg33
S'yellow'
p381
sba(icurlovision
Stone
p382
(dp383
g30
F9.607142857142856
sg31
F-3.964285714285714
sg32
F0.42857142857142855
sg33
S'red'
p384
sbasba(icurlovision
StoneLayout
p385
(dp386
g25
F0.4791666666666667
sg26
(lp387
(icurlovision
Stone
p388
(dp389
g30
F9.673076923076923
sg31
F-3.980769230769231
sg32
F0.2884615384615385
sg33
S'red'
p390
sba(icurlovision
Stone
p391
(dp392
g30
F3.634615384615385
sg31
F2.7115384615384617
sg32
F0.44230769230769235
sg33
S'red'
p393
sba(icurlovision
Stone
p394
(dp395
g30
F1.75
sg31
F-3.480769230769231
sg32
F0.3076923076923077
sg33
S'red'
p396
sbasba(icurlovision
StoneLayout
p397
(dp398
g25
F0.4791666666666667
sg26
(lp399
(icurlovision
Stone
p400
(dp401
g30
F1.1162790697674418
sg31
F-6.069767441860465
sg32
F0.3313953488372093
sg33
S'red'
p402
sba(icurlovision
Stone
p403
(dp404
g30
F9.906976744186046
sg31
F-4.046511627906977
sg32
F0.45348837209302323
sg33
S'red'
p405
sba(icurlovision
Stone
p406
(dp407
g30
F0.872093023255814
sg31
F0.2441860465116279
sg32
F0.47093023255813954
sg33
S'red'
p408
sbasba(icurlovision
StoneLayout
p409
(dp410
g25
F0.4791666666666667
sg26
(lp411
(icurlovision
Stone
p412
(dp413
g30
F1.0687499999999999
sg31
F-6.09375
sg32
F0.35625
sg33
S'red'
p414
sba(icurlovision
Stone
p415
(dp416
g30
F9.80625
sg31
F-4.10625
sg32
F0.31875
sg33
S'red'
p417
sba(icurlovision
Stone
p418
(dp419
g30
F1.74375
sg31
F0.31875
sg32
F0.33749999999999997
sg33
S'yellow'
p420
sbasba(icurlovision
StoneLayout
p421
(dp422
g25
F0.4791666666666667
sg26
(lp423
(icurlovision
Stone
p424
(dp425
g30
F9.309782608695652
sg31
F-3.8641304347826084
sg32
F0.42391304347826086
sg33
S'red'
p426
sba(icurlovision
Stone
p427
(dp428
g30
F1.7119565217391304
sg31
F1.7445652173913042
sg32
F0.44021739130434784
sg33
S'red'
p429
sba(icurlovision
Stone
p430
(dp431
g30
F1.5489130434782608
sg31
F-4.9728260869565215
sg32
F0.4076086956521739
sg33
S'yellow'
p432
sbasba(icurlovision
StoneLayout
p433
(dp434
g25
F0.4791666666666667
sg26
(lp435
(icurlovision
Stone
p436
(dp437
g30
F1.6141304347826086
sg31
F-5.168478260869565
sg32
F0.32608695652173914
sg33
S'yellow'
p438
sba(icurlovision
Stone
p439
(dp440
g30
F1.7445652173913042
sg31
F1.842391304347826
sg32
F0.45652173913043476
sg33
S'red'
p441
sba(icurlovision
Stone
p442
(dp443
g30
F1.125
sg31
F-3.635869565217391
sg32
F0.45652173913043476
sg33
S'red'
p444
sba(icurlovision
Stone
p445
(dp446
g30
F9.733695652173912
sg31
F-3.994565217391304
sg32
F0.27717391304347827
sg33
S'red'
p447
sbasba(icurlovision
StoneLayout
p448
(dp449
g25
F0.4791666666666667
sg26
(lp450
(icurlovision
Stone
p451
(dp452
g30
F2.6686046511627906
sg31
F1.7965116279069768
sg32
F0.3313953488372093
sg33
S'yellow'
p453
sba(icurlovision
Stone
p454
(dp455
g30
F1.622093023255814
sg31
F-5.25
sg32
F0.3313953488372093
sg33
S'yellow'
p456
sba(icurlovision
Stone
p457
(dp458
g30
F1.0988372093023255
sg31
F-3.7151162790697674
sg32
F0.47093023255813954
sg33
S'red'
p459
sba(icurlovision
Stone
p460
(dp461
g30
F9.88953488372093
sg31
F-4.098837209302325
sg32
F0.2965116279069767
sg33
S'red'
p462
sbasba(icurlovision
StoneLayout
p463
(dp464
g25
F0.4791666666666667
sg26
(lp465
(icurlovision
Stone
p466
(dp467
g30
F1.09375
sg31
F-3.578125
sg32
F0.453125
sg33
S'red'
p468
sba(icurlovision
Stone
p469
(dp470
g30
F9.5625
sg31
F-3.953125
sg32
F0.453125
sg33
S'red'
p471
sba(icurlovision
Stone
p472
(dp473
g30
F1.5625
sg31
F-5.078125
sg32
F0.328125
sg33
S'yellow'
p474
sba(icurlovision
Stone
p475
(dp476
g30
F3.125
sg31
F4.046875
sg32
F0.3125
sg33
S'yellow'
p477
sbasbasg176
I3
sg177
I1
sba(icurlovision
EndResult
p478
(dp479
g2
I3
sg9
(lp480
(I6
I7
tp481
a(I6
I6
tp482
a(I5
I5
tp483
a(I4
I4
tp484
a(I3
I4
tp485
a(I3
I3
tp486
a(I2
I3
tp487
a(I2
I2
tp488
a(I1
I2
tp489
a(I1
I1
tp490
a(I0
I1
tp491
asg20
I4
sg21
(lp492
(icurlovision
StoneLayout
p493
(dp494
g25
F0.4791666666666667
sg26
(lp495
(icurlovision
Stone
p496
(dp497
g30
F6.749999999999999
sg31
F-0.5795454545454545
sg32
F0.4431818181818181
sg33
S'red'
p498
sba(icurlovision
Stone
p499
(dp500
g30
F11.795454545454545
sg31
F-4.125
sg32
F0.40909090909090906
sg33
S'yellow'
p501
sba(icurlovision
Stone
p502
(dp503
g30
F4.329545454545454
sg31
F0.8863636363636362
sg32
F0.3409090909090909
sg33
S'red'
p504
sbasba(icurlovision
StoneLayout
p505
(dp506
g25
F0.4791666666666667
sg26
(lp507
(icurlovision
Stone
p508
(dp509
g30
F11.761363636363635
sg31
F-4.295454545454545
sg32
F0.4261363636363636
sg33
S'yellow'
p510
sba(icurlovision
Stone
p511
(dp512
g30
F6.749999999999999
sg31
F-0.6818181818181818
sg32
F0.4431818181818181
sg33
S'red'
p513
sba(icurlovision
Stone
p514
(dp515
g30
F3.2727272727272725
sg31
F-2.318181818181818
sg32
F0.40909090909090906
sg33
S'yellow'
p516
sba(icurlovision
Stone
p517
(dp518
g30
F-0.40909090909090906
sg31
F-6.374999999999999
sg32
F0.30681818181818177
sg33
S'red'
p519
sbasba(icurlovision
StoneLayout
p520
(dp521
g25
F0.4791666666666667
sg26
(lp522
(icurlovision
Stone
p523
(dp524
g30
F3.3355263157894735
sg31
F-0.5328947368421052
sg32
F0.47368421052631576
sg33
S'red'
p525
sba(icurlovision
Stone
p526
(dp527
g30
F12.05921052631579
sg31
F-4.440789473684211
sg32
F0.43421052631578944
sg33
S'yellow'
p528
sba(icurlovision
Stone
p529
(dp530
g30
F13.203947368421051
sg31
F-6.217105263157895
sg32
F0.35526315789473684
sg33
S'yellow'
p531
sbasba(icurlovision
StoneLayout
p532
(dp533
g25
F0.4791666666666667
sg26
(lp534
(icurlovision
Stone
p535
(dp536
g30
F3.3552631578947367
sg31
F-0.513157894736842
sg32
F0.47368421052631576
sg33
S'red'
p537
sba(icurlovision
Stone
p538
(dp539
g30
F12.118421052631579
sg31
F-4.342105263157895
sg32
F0.43421052631578944
sg33
S'yellow'
p540
sba(icurlovision
Stone
p541
(dp542
g30
F-6.118421052631579
sg31
F-5.289473684210526
sg32
F0.29605263157894735
sg33
S'yellow'
p543
sba(icurlovision
Stone
p544
(dp545
g30
F-5.605263157894736
sg31
F-6.473684210526315
sg32
F0.29605263157894735
sg33
S'red'
p546
sbasba(icurlovision
StoneLayout
p547
(dp548
g25
F0.4791666666666667
sg26
(lp549
(icurlovision
Stone
p550
(dp551
g30
F3.2267441860465116
sg31
F-0.5058139534883721
sg32
F0.436046511627907
sg33
S'red'
p552
sba(icurlovision
Stone
p553
(dp554
g30
F6.505813953488372
sg31
F1.2034883720930232
sg32
F0.2965116279069767
sg33
S'red'
p555
sba(icurlovision
Stone
p556
(dp557
g30
F11.80813953488372
sg31
F-4.203488372093023
sg32
F0.2616279069767442
sg33
S'yellow'
p558
sbasba(icurlovision
StoneLayout
p559
(dp560
g25
F0.4791666666666667
sg26
(lp561
(icurlovision
Stone
p562
(dp563
g30
F6.4602272727272725
sg31
F1.2102272727272727
sg32
F0.4261363636363636
sg33
S'red'
p564
sba(icurlovision
Stone
p565
(dp566
g30
F11.710227272727272
sg31
F-4.176136363636363
sg32
F0.4261363636363636
sg33
S'yellow'
p567
sba(icurlovision
Stone
p568
(dp569
g30
F1.1420454545454544
sg31
F-4.176136363636363
sg32
F0.4261363636363636
sg33
S'yellow'
p570
sbasba(icurlovision
StoneLayout
p571
(dp572
g25
F0.4791666666666667
sg26
(lp573
(icurlovision
Stone
p574
(dp575
g30
F12.208333333333332
sg31
F-4.25
sg32
F0.4583333333333333
sg33
S'yellow'
p576
sba(icurlovision
Stone
p577
(dp578
g30
F6.791666666666666
sg31
F1.2916666666666665
sg32
F0.4583333333333333
sg33
S'red'
p579
sba(icurlovision
Stone
p580
(dp581
g30
F0.08333333333333333
sg31
F-1.9166666666666665
sg32
F0.25
sg33
S'red'
p582
sbasba(icurlovision
StoneLayout
p583
(dp584
g25
F0.4791666666666667
sg26
(lp585
(icurlovision
Stone
p586
(dp587
g30
F11.831249999999999
sg31
F-4.33125
sg32
F0.44999999999999996
sg33
S'yellow'
p588
sba(icurlovision
Stone
p589
(dp590
g30
F6.58125
sg31
F1.18125
sg32
F0.44999999999999996
sg33
S'red'
p591
sbasba(icurlovision
StoneLayout
p592
(dp593
g25
F0.4791666666666667
sg26
(lp594
(icurlovision
Stone
p595
(dp596
g30
F11.9625
sg31
F-4.2
sg32
F0.43124999999999997
sg33
S'yellow'
p597
sba(icurlovision
Stone
p598
(dp599
g30
F6.6375
sg31
F1.275
sg32
F0.44999999999999996
sg33
S'red'
p600
sbasba(icurlovision
StoneLayout
p601
(dp602
g25
F0.4791666666666667
sg26
(lp603
(icurlovision
Stone
p604
(dp605
g30
F-0.9893617021276595
sg31
F-1.7074468085106382
sg32
F0.33510638297872336
sg33
S'red'
p606
sba(icurlovision
Stone
p607
(dp608
g30
F4.308510638297872
sg31
F-4.196808510638298
sg32
F0.44680851063829785
sg33
S'yellow'
p609
sbasba(icurlovision
StoneLayout
p610
(dp611
g25
F0.4791666666666667
sg26
(lp612
(icurlovision
Stone
p613
(dp614
g30
F-0.825
sg31
F3.05625
sg32
F0.3
sg33
S'red'
p615
sba(icurlovision
Stone
p616
(dp617
g30
F12.0375
sg31
F-4.33125
sg32
F0.44999999999999996
sg33
S'yellow'
p618
sba(icurlovision
Stone
p619
(dp620
g30
F-1.0875
sg31
F-1.74375
sg32
F0.2625
sg33
S'red'
p621
sba(icurlovision
Stone
p622
(dp623
g30
F4.35
sg31
F-4.33125
sg32
F0.46875
sg33
S'yellow'
p624
sbasbasg176
I3
sg177
I0
sba(icurlovision
EndResult
p625
(dp626
g2
I3
sg9
(lp627
(I7
I7
tp628
a(I7
I6
tp629
a(I6
I6
tp630
a(I6
I5
tp631
a(I5
I5
tp632
a(I5
I4
tp633
a(I4
I4
tp634
a(I4
I3
tp635
a(I3
I3
tp636
a(I3
I2
tp637
a(I2
I2
tp638
a(I2
I1
tp639
a(I1
I1
tp640
a(I1
I0
tp641
asg20
I5
sg21
(lp642
(icurlovision
StoneLayout
p643
(dp644
g25
F0.4791666666666667
sg26
(lp645
(icurlovision
Stone
p646
(dp647
g30
F6.482142857142857
sg31
F-0.08928571428571427
sg32
F0.4821428571428571
sg33
S'red'
p648
sba(icurlovision
Stone
p649
(dp650
g30
F8.946428571428571
sg31
F0.4107142857142857
sg32
F0.3571428571428571
sg33
S'yellow'
p651
sbasba(icurlovision
StoneLayout
p652
(dp653
g25
F0.4791666666666667
sg26
(lp654
sba(icurlovision
StoneLayout
p655
(dp656
g25
F0.4791666666666667
sg26
(lp657
(icurlovision
Stone
p658
(dp659
g30
F6.462765957446808
sg31
F-0.11170212765957446
sg32
F0.4627659574468085
sg33
S'red'
p660
sba(icurlovision
Stone
p661
(dp662
g30
F8.377659574468085
sg31
F-3.9734042553191484
sg32
F0.28723404255319146
sg33
S'yellow'
p663
sbasba(icurlovision
StoneLayout
p664
(dp665
g25
F0.4791666666666667
sg26
(lp666
(icurlovision
Stone
p667
(dp668
g30
F-0.10465116279069767
sg31
F1.0813953488372092
sg32
F0.3488372093023256
sg33
S'red'
p669
sba(icurlovision
Stone
p670
(dp671
g30
F8.581395348837209
sg31
F0.38372093023255816
sg32
F0.2965116279069767
sg33
S'yellow'
p672
sba(icurlovision
Stone
p673
(dp674
g30
F1.7093023255813953
sg31
F0.4883720930232558
sg32
F0.45348837209302323
sg33
S'yellow'
p675
sba(icurlovision
Stone
p676
(dp677
g30
F6.209302325581395
sg31
F-0.06976744186046512
sg32
F0.38372093023255816
sg33
S'red'
p678
sba(icurlovision
Stone
p679
(dp680
g30
F-2.058139534883721
sg31
F1.9534883720930232
sg32
F0.27906976744186046
sg33
S'red'
p681
sbasba(icurlovision
StoneLayout
p682
(dp683
g25
F0.4791666666666667
sg26
(lp684
(icurlovision
Stone
p685
(dp686
g30
F-0.10465116279069767
sg31
F1.0813953488372092
sg32
F0.3313953488372093
sg33
S'red'
p687
sba(icurlovision
Stone
p688
(dp689
g30
F6.383720930232558
sg31
F-0.13953488372093023
sg32
F0.27906976744186046
sg33
S'red'
p690
sba(icurlovision
Stone
p691
(dp692
g30
F8.790697674418604
sg31
F0.38372093023255816
sg32
F0.3313953488372093
sg33
S'yellow'
p693
sba(icurlovision
Stone
p694
(dp695
g30
F1.8837209302325582
sg31
F1.4651162790697674
sg32
F0.45348837209302323
sg33
S'red'
p696
sbasba(icurlovision
StoneLayout
p697
(dp698
g25
F0.4791666666666667
sg26
(lp699
(icurlovision
Stone
p700
(dp701
g30
F8.840425531914892
sg31
F0.3829787234042553
sg32
F0.44680851063829785
sg33
S'yellow'
p702
sba(icurlovision
Stone
p703
(dp704
g30
F6.446808510638298
sg31
F-0.1276595744680851
sg32
F0.351063829787234
sg33
S'red'
p705
sba(icurlovision
Stone
p706
(dp707
g30
F0.7659574468085106
sg31
F1.4680851063829785
sg32
F0.351063829787234
sg33
S'red'
p708
sba(icurlovision
Stone
p709
(dp710
g30
F8.585106382978722
sg31
F-5.585106382978723
sg32
F0.28723404255319146
sg33
S'yellow'
p711
sbasba(icurlovision
StoneLayout
p712
(dp713
g25
F0.4791666666666667
sg26
(lp714
(icurlovision
Stone
p715
(dp716
g30
F1.515625
sg31
F-1.828125
sg32
F0.46875
sg33
S'red'
p717
sba(icurlovision
Stone
p718
(dp719
g30
F6.453125
sg31
F-0.109375
sg32
F0.3125
sg33
S'red'
p720
sba(icurlovision
Stone
p721
(dp722
g30
F1.515625
sg31
F0.296875
sg32
F0.34375
sg33
S'yellow'
p723
sba(icurlovision
Stone
p724
(dp725
g30
F0.734375
sg31
F1.484375
sg32
F0.359375
sg33
S'red'
p726
sba(icurlovision
Stone
p727
(dp728
g30
F8.921875
sg31
F0.453125
sg32
F0.4375
sg33
S'yellow'
p729
sba(icurlovision
Stone
p730
(dp731
g30
F-1.734375
sg31
F4.328125
sg32
F0.328125
sg33
S'yellow'
p732
sbasba(icurlovision
StoneLayout
p733
(dp734
g25
F0.4791666666666667
sg26
(lp735
(icurlovision
Stone
p736
(dp737
g30
F1.2880434782608696
sg31
F0.6358695652173912
sg32
F0.30978260869565216
sg33
S'yellow'
p738
sba(icurlovision
Stone
p739
(dp740
g30
F1.809782608695652
sg31
F-0.6032608695652174
sg32
F0.45652173913043476
sg33
S'yellow'
p741
sba(icurlovision
Stone
p742
(dp743
g30
F-0.6684782608695652
sg31
F4.190217391304348
sg32
F0.358695652173913
sg33
S'red'
p744
sba(icurlovision
Stone
p745
(dp746
g30
F6.4728260869565215
sg31
F-0.11413043478260869
sg32
F0.45652173913043476
sg33
S'red'
p747
sba(icurlovision
Stone
p748
(dp749
g30
F8.918478260869565
sg31
F0.44021739130434784
sg32
F0.34239130434782605
sg33
S'yellow'
p750
sba(icurlovision
Stone
p751
(dp752
g30
F-1.7119565217391304
sg31
F4.320652173913043
sg32
F0.32608695652173914
sg33
S'yellow'
p753
sbasba(icurlovision
StoneLayout
p754
(dp755
g25
F0.4791666666666667
sg26
(lp756
(icurlovision
Stone
p757
(dp758
g30
F1.8299999999999998
sg31
F-0.6
sg32
F0.345
sg33
S'yellow'
p759
sba(icurlovision
Stone
p760
(dp761
g30
F2.1
sg31
F1.05
sg32
F0.46499999999999997
sg33
S'red'
p762
sba(icurlovision
Stone
p763
(dp764
g30
F-0.69
sg31
F4.17
sg32
F0.46499999999999997
sg33
S'red'
p765
sba(icurlovision
Stone
p766
(dp767
g30
F-1.74
sg31
F4.38
sg32
F0.345
sg33
S'yellow'
p768
sbasba(icurlovision
StoneLayout
p769
(dp770
g25
F0.4791666666666667
sg26
(lp771
(icurlovision
Stone
p772
(dp773
g30
F1.83984375
sg31
F-0.5859375
sg32
F0.46875
sg33
S'yellow'
p774
sba(icurlovision
Stone
p775
(dp776
g30
F2.12109375
sg31
F1.03125
sg32
F0.4453125
sg33
S'red'
p777
sba(icurlovision
Stone
p778
(dp779
g30
F-0.94921875
sg31
F3.609375
sg32
F0.33984375
sg33
S'red'
p780
sbasba(icurlovision
StoneLayout
p781
(dp782
g25
F0.4791666666666667
sg26
(lp783
(icurlovision
Stone
p784
(dp785
g30
F2.6307692307692307
sg31
F-0.34615384615384615
sg32
F0.33461538461538465
sg33
S'red'
p786
sba(icurlovision
Stone
p787
(dp788
g30
F-0.9461538461538462
sg31
F3.530769230769231
sg32
F0.46153846153846156
sg33
S'red'
p789
sba(icurlovision
Stone
p790
(dp791
g30
F2.053846153846154
sg31
F1.0384615384615385
sg32
F0.46153846153846156
sg33
S'red'
p792
sbasba(icurlovision
StoneLayout
p793
(dp794
g25
F0.4791666666666667
sg26
(lp795
(icurlovision
Stone
p796
(dp797
g30
F2.9705882352941178
sg31
F0.7058823529411764
sg32
F0.47058823529411764
sg33
S'yellow'
p798
sba(icurlovision
Stone
p799
(dp800
g30
F-0.14705882352941177
sg31
F5.117647058823529
sg32
F0.3382352941176471
sg33
S'yellow'
p801
sba(icurlovision
Stone
p802
(dp803
g30
F-1.0
sg31
F3.6176470588235294
sg32
F0.3676470588235294
sg33
S'red'
p804
sbasba(icurlovision
StoneLayout
p805
(dp806
g25
F0.4791666666666667
sg26
(lp807
(icurlovision
Stone
p808
(dp809
g30
F2.9423076923076925
sg31
F2.3423076923076924
sg32
F0.36923076923076925
sg33
S'red'
p810
sba(icurlovision
Stone
p811
(dp812
g30
F-0.9346153846153846
sg31
F3.5423076923076926
sg32
F0.34615384615384615
sg33
S'red'
p813
sba(icurlovision
Stone
p814
(dp815
g30
F0.10384615384615385
sg31
F4.11923076923077
sg32
F0.4730769230769231
sg33
S'red'
p816
sbasba(icurlovision
StoneLayout
p817
(dp818
g25
F0.4791666666666667
sg26
(lp819
(icurlovision
Stone
p820
(dp821
g30
F2.9482758620689653
sg31
F2.3275862068965516
sg32
F0.4396551724137931
sg33
S'red'
p822
sba(icurlovision
Stone
p823
(dp824
g30
F-3.439655172413793
sg31
F-2.1206896551724137
sg32
F0.33620689655172414
sg33
S'yellow'
p825
sba(icurlovision
Stone
p826
(dp827
g30
F-4.448275862068965
sg31
F-0.02586206896551724
sg32
F0.34913793103448276
sg33
S'red'
p828
sbasbasg176
I4
sg177
I1
sba(icurlovision
EndResult
p829
(dp830
g2
I6
sg9
(lp831
(I7
I7
tp832
a(I6
I7
tp833
a(I5
I6
tp834
a(I5
I5
tp835
a(I4
I5
tp836
a(I4
I4
tp837
a(I3
I4
tp838
a(I3
I3
tp839
a(I2
I3
tp840
a(I2
I2
tp841
a(I1
I2
tp842
a(I1
I1
tp843
a(I0
I1
tp844
asg20
I6
sg21
(lp845
(icurlovision
StoneLayout
p846
(dp847
g25
F0.4791666666666667
sg26
(lp848
(icurlovision
Stone
p849
(dp850
g30
F1.2449999999999999
sg31
F0.135
sg32
F0.3
sg33
S'red'
p851
sba(icurlovision
Stone
p852
(dp853
g30
F11.264999999999999
sg31
F2.955
sg32
F0.285
sg33
S'yellow'
p854
sbasba(icurlovision
StoneLayout
p855
(dp856
g25
F0.4791666666666667
sg26
(lp857
(icurlovision
Stone
p858
(dp859
g30
F1.2613636363636362
sg31
F0.13636363636363635
sg32
F0.4431818181818181
sg33
S'red'
p860
sba(icurlovision
Stone
p861
(dp862
g30
F11.454545454545453
sg31
F2.8977272727272725
sg32
F0.3409090909090909
sg33
S'yellow'
p863
sba(icurlovision
Stone
p864
(dp865
g30
F5.079545454545454
sg31
F-0.30681818181818177
sg32
F0.2727272727272727
sg33
S'red'
p866
sba(icurlovision
Stone
p867
(dp868
g30
F-0.17045454545454544
sg31
F0.17045454545454544
sg32
F0.2727272727272727
sg33
S'red'
p869
sbasba(icurlovision
StoneLayout
p870
(dp871
g25
F0.4791666666666667
sg26
(lp872
(icurlovision
Stone
p873
(dp874
g30
F11.798780487804878
sg31
F2.9634146341463414
sg32
F0.45731707317073167
sg33
S'yellow'
p875
sba(icurlovision
Stone
p876
(dp877
g30
F-1.6646341463414633
sg31
F-4.24390243902439
sg32
F0.45731707317073167
sg33
S'yellow'
p878
sba(icurlovision
Stone
p879
(dp880
g30
F5.835365853658536
sg31
F-2.7073170731707314
sg32
F0.45731707317073167
sg33
S'red'
p881
sbasba(icurlovision
StoneLayout
p882
(dp883
g25
F0.4791666666666667
sg26
(lp884
(icurlovision
Stone
p885
(dp886
g30
F11.483333333333333
sg31
F2.8833333333333333
sg32
F0.3333333333333333
sg33
S'yellow'
p887
sba(icurlovision
Stone
p888
(dp889
g30
F-0.7166666666666667
sg31
F3.75
sg32
F0.3333333333333333
sg33
S'yellow'
p890
sba(icurlovision
Stone
p891
(dp892
g30
F5.65
sg31
F-2.6166666666666667
sg32
F0.4666666666666667
sg33
S'red'
p893
sba(icurlovision
Stone
p894
(dp895
g30
F-1.6833333333333333
sg31
F-4.15
sg32
F0.3
sg33
S'yellow'
p896
sbasba(icurlovision
StoneLayout
p897
(dp898
g25
F0.4791666666666667
sg26
(lp899
(icurlovision
Stone
p900
(dp901
g30
F-0.018292682926829267
sg31
F3.2560975609756095
sg32
F0.45731707317073167
sg33
S'red'
p902
sba(icurlovision
Stone
p903
(dp904
g30
F-1.0792682926829267
sg31
F4.060975609756097
sg32
F0.3292682926829268
sg33
S'yellow'
p905
sba(icurlovision
Stone
p906
(dp907
g30
F11.835365853658535
sg31
F2.926829268292683
sg32
F0.4390243902439024
sg33
S'yellow'
p908
sba(icurlovision
Stone
p909
(dp910
g30
F-1.701219512195122
sg31
F-4.280487804878049
sg32
F0.3292682926829268
sg33
S'yellow'
p911
sba(icurlovision
Stone
p912
(dp913
g30
F5.871951219512194
sg31
F-2.7073170731707314
sg32
F0.3292682926829268
sg33
S'red'
p914
sbasba(icurlovision
StoneLayout
p915
(dp916
g25
F0.4791666666666667
sg26
(lp917
(icurlovision
Stone
p918
(dp919
g30
F-1.0875000000000001
sg31
F2.8625000000000003
sg32
F0.47500000000000003
sg33
S'red'
p920
sba(icurlovision
Stone
p921
(dp922
g30
F0.8875000000000001
sg31
F3.0625
sg32
F0.47500000000000003
sg33
S'yellow'
p923
sba(icurlovision
Stone
p924
(dp925
g30
F-2.3375
sg31
F5.0875
sg32
F0.35000000000000003
sg33
S'yellow'
p926
sba(icurlovision
Stone
p927
(dp928
g30
F5.862500000000001
sg31
F-2.8125
sg32
F0.4625
sg33
S'red'
p929
sba(icurlovision
Stone
p930
(dp931
g30
F-1.7375
sg31
F-4.2625
sg32
F0.45
sg33
S'yellow'
p932
sba(icurlovision
Stone
p933
(dp934
g30
F4.0875
sg31
F6.612500000000001
sg32
F0.4375
sg33
S'red'
p935
sbasba(icurlovision
StoneLayout
p936
(dp937
g25
F0.4791666666666667
sg26
(lp938
(icurlovision
Stone
p939
(dp940
g30
F-1.1517857142857142
sg31
F2.8660714285714284
sg32
F0.46875
sg33
S'red'
p941
sba(icurlovision
Stone
p942
(dp943
g30
F0.8303571428571428
sg31
F3.1071428571428568
sg32
F0.46875
sg33
S'yellow'
p944
sba(icurlovision
Stone
p945
(dp946
g30
F4.875
sg31
F-3.7232142857142856
sg32
F0.33482142857142855
sg33
S'red'
p947
sba(icurlovision
Stone
p948
(dp949
g30
F-2.464285714285714
sg31
F5.035714285714286
sg32
F0.3214285714285714
sg33
S'yellow'
p950
sba(icurlovision
Stone
p951
(dp952
g30
F4.741071428571428
sg31
F-1.044642857142857
sg32
F0.33482142857142855
sg33
S'red'
p953
sba(icurlovision
Stone
p954
(dp955
g30
F-1.5803571428571428
sg31
F-4.339285714285714
sg32
F0.36160714285714285
sg33
S'yellow'
p956
sbasba(icurlovision
StoneLayout
p957
(dp958
g25
F0.4791666666666667
sg26
(lp959
(icurlovision
Stone
p960
(dp961
g30
F-1.0855263157894737
sg31
F2.8223684210526314
sg32
F0.3355263157894737
sg33
S'red'
p962
sba(icurlovision
Stone
p963
(dp964
g30
F11.585526315789473
sg31
F2.901315789473684
sg32
F0.23684210526315788
sg33
S'yellow'
p965
sba(icurlovision
Stone
p966
(dp967
g30
F0.019736842105263157
sg31
F4.006578947368421
sg32
F0.3355263157894737
sg33
S'yellow'
p968
sba(icurlovision
Stone
p969
(dp970
g30
F-2.3092105263157894
sg31
F4.993421052631579
sg32
F0.3157894736842105
sg33
S'yellow'
p971
sba(icurlovision
Stone
p972
(dp973
g30
F-1.5986842105263157
sg31
F-4.203947368421052
sg32
F0.4539473684210526
sg33
S'yellow'
p974
sba(icurlovision
Stone
p975
(dp976
g30
F4.638157894736842
sg31
F-1.125
sg32
F0.256578947368421
sg33
S'red'
p977
sba(icurlovision
Stone
p978
(dp979
g30
F4.717105263157895
sg31
F-3.651315789473684
sg32
F0.43421052631578944
sg33
S'red'
p980
sba(icurlovision
Stone
p981
(dp982
g30
F-7.3618421052631575
sg31
F-0.7302631578947368
sg32
F0.4539473684210526
sg33
S'yellow'
p983
sbasba(icurlovision
StoneLayout
p984
(dp985
g25
F0.4791666666666667
sg26
(lp986
(icurlovision
Stone
p987
(dp988
g30
F-1.0961538461538463
sg31
F2.9230769230769234
sg32
F0.25
sg33
S'red'
p989
sba(icurlovision
Stone
p990
(dp991
g30
F11.711538461538462
sg31
F2.769230769230769
sg32
F0.25
sg33
S'yellow'
p992
sba(icurlovision
Stone
p993
(dp994
g30
F1.2884615384615385
sg31
F3.153846153846154
sg32
F0.46153846153846156
sg33
S'red'
p995
sba(icurlovision
Stone
p996
(dp997
g30
F0.09615384615384616
sg31
F4.0769230769230775
sg32
F0.3269230769230769
sg33
S'yellow'
p998
sba(icurlovision
Stone
p999
(dp1000
g30
F4.711538461538462
sg31
F-3.730769230769231
sg32
F0.25
sg33
S'red'
p1001
sba(icurlovision
Stone
p1002
(dp1003
g30
F4.634615384615385
sg31
F-1.153846153846154
sg32
F0.42307692307692313
sg33
S'red'
p1004
sba(icurlovision
Stone
p1005
(dp1006
g30
F-1.6730769230769231
sg31
F-4.1923076923076925
sg32
F0.44230769230769235
sg33
S'yellow'
p1007
sba(icurlovision
Stone
p1008
(dp1009
g30
F-2.2884615384615388
sg31
F5.038461538461538
sg32
F0.3653846153846154
sg33
S'yellow'
p1010
sbasba(icurlovision
StoneLayout
p1011
(dp1012
g25
F0.4791666666666667
sg26
(lp1013
(icurlovision
Stone
p1014
(dp1015
g30
F-1.3775510204081631
sg31
F3.0153061224489797
sg32
F0.3520408163265306
sg33
S'red'
p1016
sba(icurlovision
Stone
p1017
(dp1018
g30
F-0.4897959183673469
sg31
F2.188775510204082
sg32
F0.336734693877551
sg33
S'yellow'
p1019
sba(icurlovision
Stone
p1020
(dp1021
g30
F1.2244897959183674
sg31
F3.137755102040816
sg32
F0.45918367346938777
sg33
S'red'
p1022
sba(icurlovision
Stone
p1023
(dp1024
g30
F11.60204081632653
sg31
F2.8622448979591835
sg32
F0.44387755102040816
sg33
S'yellow'
p1025
sba(icurlovision
Stone
p1026
(dp1027
g30
F-2.357142857142857
sg31
F5.096938775510204
sg32
F0.3520408163265306
sg33
S'yellow'
p1028
sba(icurlovision
Stone
p1029
(dp1030
g30
F0.061224489795918366
sg31
F4.0561224489795915
sg32
F0.3214285714285714
sg33
S'yellow'
p1031
sba(icurlovision
Stone
p1032
(dp1033
g30
F4.714285714285714
sg31
F-3.6887755102040813
sg32
F0.44387755102040816
sg33
S'red'
p1034
sba(icurlovision
Stone
p1035
(dp1036
g30
F4.591836734693877
sg31
F-1.1173469387755102
sg32
F0.44387755102040816
sg33
S'red'
p1037
sba(icurlovision
Stone
p1038
(dp1039
g30
F-1.7142857142857142
sg31
F-4.270408163265306
sg32
F0.336734693877551
sg33
S'yellow'
p1040
sbasba(icurlovision
StoneLayout
p1041
(dp1042
g25
F0.4791666666666667
sg26
(lp1043
(icurlovision
Stone
p1044
(dp1045
g30
F1.21875
sg31
F3.1687499999999997
sg32
F0.46875
sg33
S'red'
p1046
sba(icurlovision
Stone
p1047
(dp1048
g30
F11.79375
sg31
F2.9812499999999997
sg32
F0.44999999999999996
sg33
S'yellow'
p1049
sba(icurlovision
Stone
p1050
(dp1051
g30
F-5.41875
sg31
F-5.79375
sg32
F0.44999999999999996
sg33
S'red'
p1052
sba(icurlovision
Stone
p1053
(dp1054
g30
F-5.8687499999999995
sg31
F-0.20625
sg32
F0.35625
sg33
S'yellow'
p1055
sba(icurlovision
Stone
p1056
(dp1057
g30
F0.01875
sg31
F4.06875
sg32
F0.31875
sg33
S'yellow'
p1058
sba(icurlovision
Stone
p1059
(dp1060
g30
F-1.6312499999999999
sg31
F-4.33125
sg32
F0.31875
sg33
S'yellow'
p1061
sba(icurlovision
Stone
p1062
(dp1063
g30
F4.70625
sg31
F-1.0687499999999999
sg32
F0.31875
sg33
S'red'
p1064
sba(icurlovision
Stone
p1065
(dp1066
g30
F4.81875
sg31
F-3.7312499999999997
sg32
F0.3
sg33
S'red'
p1067
sbasba(icurlovision
StoneLayout
p1068
(dp1069
g25
F0.4791666666666667
sg26
(lp1070
(icurlovision
Stone
p1071
(dp1072
g30
F0.1646341463414634
sg31
F1.920731707317073
sg32
F0.4390243902439024
sg33
S'yellow'
p1073
sba(icurlovision
Stone
p1074
(dp1075
g30
F0.018292682926829267
sg31
F4.0060975609756095
sg32
F0.3475609756097561
sg33
S'yellow'
p1076
sba(icurlovision
Stone
p1077
(dp1078
g30
F-5.396341463414633
sg31
F-5.725609756097561
sg32
F0.45731707317073167
sg33
S'red'
p1079
sba(icurlovision
Stone
p1080
(dp1081
g30
F1.0792682926829267
sg31
F3.274390243902439
sg32
F0.3475609756097561
sg33
S'red'
p1082
sba(icurlovision
Stone
p1083
(dp1084
g30
F11.579268292682926
sg31
F2.945121951219512
sg32
F0.45731707317073167
sg33
S'yellow'
p1085
sba(icurlovision
Stone
p1086
(dp1087
g30
F-5.871951219512194
sg31
F-0.20121951219512194
sg32
F0.3292682926829268
sg33
S'yellow'
p1088
sba(icurlovision
Stone
p1089
(dp1090
g30
F-1.6280487804878048
sg31
F-4.225609756097561
sg32
F0.45731707317073167
sg33
S'yellow'
p1091
sba(icurlovision
Stone
p1092
(dp1093
g30
F4.591463414634146
sg31
F-1.1158536585365852
sg32
F0.3475609756097561
sg33
S'red'
p1094
sba(icurlovision
Stone
p1095
(dp1096
g30
F4.701219512195122
sg31
F-3.6402439024390243
sg32
F0.4390243902439024
sg33
S'red'
p1097
sbasba(icurlovision
StoneLayout
p1098
(dp1099
g25
F0.4791666666666667
sg26
(lp1100
(icurlovision
Stone
p1101
(dp1102
g30
F1.0961538461538463
sg31
F3.307692307692308
sg32
F0.46153846153846156
sg33
S'red'
p1103
sba(icurlovision
Stone
p1104
(dp1105
g30
F-5.519230769230769
sg31
F-5.769230769230769
sg32
F0.4807692307692308
sg33
S'red'
p1106
sba(icurlovision
Stone
p1107
(dp1108
g30
F-5.980769230769231
sg31
F-0.15384615384615385
sg32
F0.34615384615384615
sg33
S'yellow'
p1109
sba(icurlovision
Stone
p1110
(dp1111
g30
F11.788461538461538
sg31
F2.8846153846153846
sg32
F0.46153846153846156
sg33
S'yellow'
p1112
sba(icurlovision
Stone
p1113
(dp1114
g30
F-1.7115384615384617
sg31
F-4.307692307692308
sg32
F0.3269230769230769
sg33
S'yellow'
p1115
sba(icurlovision
Stone
p1116
(dp1117
g30
F0.019230769230769232
sg31
F4.0769230769230775
sg32
F0.3269230769230769
sg33
S'yellow'
p1118
sba(icurlovision
Stone
p1119
(dp1120
g30
F4.711538461538462
sg31
F-1.153846153846154
sg32
F0.2884615384615385
sg33
S'red'
p1121
sba(icurlovision
Stone
p1122
(dp1123
g30
F4.788461538461538
sg31
F-3.7692307692307696
sg32
F0.23076923076923078
sg33
S'red'
p1124
sba(icurlovision
Stone
p1125
(dp1126
g30
F0.5961538461538461
sg31
F0.8076923076923077
sg32
F0.3076923076923077
sg33
S'red'
p1127
sbasbasg176
I4
sg177
I0
sba(icurlovision
EndResult
p1128
(dp1129
g2
I7
sg9
(lp1130
(I8
I7
tp1131
a(I7
I7
tp1132
a(I6
I6
tp1133
a(I6
I5
tp1134
a(I5
I5
tp1135
a(I4
I4
tp1136
a(I4
I3
tp1137
a(I3
I3
tp1138
a(I3
I2
tp1139
a(I2
I1
tp1140
a(I1
I1
tp1141
a(I1
I0
tp1142
asg20
I7
sg21
(lp1143
(icurlovision
StoneLayout
p1144
(dp1145
g25
F0.4791666666666667
sg26
(lp1146
sba(icurlovision
StoneLayout
p1147
(dp1148
g25
F0.4791666666666667
sg26
(lp1149
(icurlovision
Stone
p1150
(dp1151
g30
F8.856382978723403
sg31
F-2.5372340425531914
sg32
F0.4627659574468085
sg33
S'red'
p1152
sbasba(icurlovision
StoneLayout
p1153
(dp1154
g25
F0.4791666666666667
sg26
(lp1155
(icurlovision
Stone
p1156
(dp1157
g30
F0.06818181818181818
sg31
F-2.8977272727272725
sg32
F0.4602272727272727
sg33
S'red'
p1158
sba(icurlovision
Stone
p1159
(dp1160
g30
F3.068181818181818
sg31
F0.7840909090909091
sg32
F0.4602272727272727
sg33
S'yellow'
p1161
sba(icurlovision
Stone
p1162
(dp1163
g30
F8.897727272727272
sg31
F-2.625
sg32
F0.4261363636363636
sg33
S'red'
p1164
sbasba(icurlovision
StoneLayout
p1165
(dp1166
g25
F0.4791666666666667
sg26
(lp1167
(icurlovision
Stone
p1168
(dp1169
g30
F2.9680851063829783
sg31
F0.7659574468085106
sg32
F0.4627659574468085
sg33
S'yellow'
p1170
sba(icurlovision
Stone
p1171
(dp1172
g30
F0.06382978723404255
sg31
F-2.840425531914893
sg32
F0.3191489361702127
sg33
S'red'
p1173
sba(icurlovision
Stone
p1174
(dp1175
g30
F2.1382978723404253
sg31
F1.3723404255319147
sg32
F0.4627659574468085
sg33
S'yellow'
p1176
sbasba(icurlovision
StoneLayout
p1177
(dp1178
g25
F0.4791666666666667
sg26
(lp1179
(icurlovision
Stone
p1180
(dp1181
g30
F0.03260869565217391
sg31
F-2.869565217391304
sg32
F0.34239130434782605
sg33
S'red'
p1182
sba(icurlovision
Stone
p1183
(dp1184
g30
F3.032608695652174
sg31
F0.75
sg32
F0.32608695652173914
sg33
S'yellow'
p1185
sba(icurlovision
Stone
p1186
(dp1187
g30
F14.445652173913043
sg31
F-2.4456521739130435
sg32
F0.4076086956521739
sg33
S'red'
p1188
sbasba(icurlovision
StoneLayout
p1189
(dp1190
g25
F0.4791666666666667
sg26
(lp1191
(icurlovision
Stone
p1192
(dp1193
g30
F0.42500000000000004
sg31
F-3.0500000000000003
sg32
F0.3125
sg33
S'red'
p1194
sba(icurlovision
Stone
p1195
(dp1196
g30
F2.975
sg31
F0.7250000000000001
sg32
F0.35000000000000003
sg33
S'yellow'
p1197
sbasba(icurlovision
StoneLayout
p1198
(dp1199
g25
F0.4791666666666667
sg26
(lp1200
(icurlovision
Stone
p1201
(dp1202
g30
F0.4326923076923077
sg31
F-3.1153846153846154
sg32
F0.4759615384615385
sg33
S'red'
p1203
sba(icurlovision
Stone
p1204
(dp1205
g30
F3.028846153846154
sg31
F0.7788461538461539
sg32
F0.4326923076923077
sg33
S'yellow'
p1206
sbasba(icurlovision
StoneLayout
p1207
(dp1208
g25
F0.4791666666666667
sg26
(lp1209
(icurlovision
Stone
p1210
(dp1211
g30
F0.40298507462686567
sg31
F-3.08955223880597
sg32
F0.34701492537313433
sg33
S'red'
p1212
sba(icurlovision
Stone
p1213
(dp1214
g30
F-3.2686567164179103
sg31
F4.567164179104477
sg32
F0.33582089552238803
sg33
S'yellow'
p1215
sba(icurlovision
Stone
p1216
(dp1217
g30
F-5.888059701492537
sg31
F-5.485074626865671
sg32
F0.4477611940298507
sg33
S'yellow'
p1218
sbasba(icurlovision
StoneLayout
p1219
(dp1220
g25
F0.4791666666666667
sg26
(lp1221
(icurlovision
Stone
p1222
(dp1223
g30
F0.4583333333333333
sg31
F-3.125
sg32
F0.3333333333333333
sg33
S'red'
p1224
sba(icurlovision
Stone
p1225
(dp1226
g30
F-6.041666666666666
sg31
F-5.569444444444444
sg32
F0.3472222222222222
sg33
S'yellow'
p1227
sba(icurlovision
Stone
p1228
(dp1229
g30
F-3.2916666666666665
sg31
F4.708333333333333
sg32
F0.3333333333333333
sg33
S'yellow'
p1230
sbasba(icurlovision
StoneLayout
p1231
(dp1232
g25
F0.4791666666666667
sg26
(lp1233
(icurlovision
Stone
p1234
(dp1235
g30
F3.3000000000000003
sg31
F2.6
sg32
F0.4
sg33
S'red'
p1236
sba(icurlovision
Stone
p1237
(dp1238
g30
F-5.68
sg31
F-4.96
sg32
F0.44
sg33
S'yellow'
p1239
sbasba(icurlovision
StoneLayout
p1240
(dp1241
g25
F0.4791666666666667
sg26
(lp1242
(icurlovision
Stone
p1243
(dp1244
g30
F0.7727272727272727
sg31
F-2.340909090909091
sg32
F0.46590909090909094
sg33
S'red'
p1245
sba(icurlovision
Stone
p1246
(dp1247
g30
F0.36363636363636365
sg31
F-1.1590909090909092
sg32
F0.34090909090909094
sg33
S'yellow'
p1248
sba(icurlovision
Stone
p1249
(dp1250
g30
F-3.25
sg31
F4.590909090909091
sg32
F0.4431818181818182
sg33
S'yellow'
p1251
sba(icurlovision
Stone
p1252
(dp1253
g30
F4.181818181818182
sg31
F2.772727272727273
sg32
F0.36363636363636365
sg33
S'red'
p1254
sbasba(icurlovision
StoneLayout
p1255
(dp1256
g25
F0.4791666666666667
sg26
(lp1257
(icurlovision
Stone
p1258
(dp1259
g30
F1.379032258064516
sg31
F-1.8870967741935483
sg32
F0.47177419354838707
sg33
S'yellow'
p1260
sba(icurlovision
Stone
p1261
(dp1262
g30
F4.258064516129032
sg31
F2.8064516129032255
sg32
F0.3387096774193548
sg33
S'red'
p1263
sbasbasg176
I4
sg177
I1
sba(icurlovision
EndResult
p1264
(dp1265
g2
I8
sg9
(lp1266
(I7
I7
tp1267
a(I6
I6
tp1268
a(I6
I5
tp1269
a(I5
I5
tp1270
a(I5
I4
tp1271
a(I4
I4
tp1272
a(I4
I3
tp1273
a(I3
I3
tp1274
a(I3
I2
tp1275
a(I2
I2
tp1276
a(I1
I1
tp1277
a(I1
I0
tp1278
asg20
I8
sg21
(lp1279
(icurlovision
StoneLayout
p1280
(dp1281
g25
F0.4791666666666667
sg26
(lp1282
(icurlovision
Stone
p1283
(dp1284
g30
F1.3977272727272727
sg31
F-0.22159090909090906
sg32
F0.4431818181818181
sg33
S'yellow'
p1285
sba(icurlovision
Stone
p1286
(dp1287
g30
F11.079545454545453
sg31
F-3.1874999999999996
sg32
F0.4261363636363636
sg33
S'red'
p1288
sbasba(icurlovision
StoneLayout
p1289
(dp1290
g25
F0.4791666666666667
sg26
(lp1291
(icurlovision
Stone
p1292
(dp1293
g30
F2.7880434782608696
sg31
F0.1793478260869565
sg32
F0.45652173913043476
sg33
S'red'
p1294
sba(icurlovision
Stone
p1295
(dp1296
g30
F1.3206521739130435
sg31
F-0.24456521739130435
sg32
F0.44021739130434784
sg33
S'yellow'
p1297
sba(icurlovision
Stone
p1298
(dp1299
g30
F0.9619565217391304
sg31
F1.125
sg32
F0.44021739130434784
sg33
S'yellow'
p1300
sba(icurlovision
Stone
p1301
(dp1302
g30
F10.255434782608695
sg31
F-3.5380434782608696
sg32
F0.45652173913043476
sg33
S'red'
p1303
sba(icurlovision
Stone
p1304
(dp1305
g30
F11.46195652173913
sg31
F-4.320652173913043
sg32
F0.2934782608695652
sg33
S'yellow'
p1306
sbasba(icurlovision
StoneLayout
p1307
(dp1308
g25
F0.4791666666666667
sg26
(lp1309
(icurlovision
Stone
p1310
(dp1311
g30
F2.0625
sg31
F0.26785714285714285
sg32
F0.45535714285714285
sg33
S'red'
p1312
sba(icurlovision
Stone
p1313
(dp1314
g30
F-1.7678571428571428
sg31
F-1.607142857142857
sg32
F0.45535714285714285
sg33
S'yellow'
p1315
sbasba(icurlovision
StoneLayout
p1316
(dp1317
g25
F0.4791666666666667
sg26
(lp1318
(icurlovision
Stone
p1319
(dp1320
g30
F-1.8545454545454545
sg31
F-1.5818181818181818
sg32
F0.4636363636363636
sg33
S'yellow'
p1321
sba(icurlovision
Stone
p1322
(dp1323
g30
F1.8818181818181818
sg31
F0.5181818181818182
sg32
F0.4636363636363636
sg33
S'red'
p1324
sba(icurlovision
Stone
p1325
(dp1326
g30
F0.7363636363636363
sg31
F-0.9545454545454545
sg32
F0.35454545454545455
sg33
S'red'
p1327
sbasba(icurlovision
StoneLayout
p1328
(dp1329
g25
F0.4791666666666667
sg26
(lp1330
(icurlovision
Stone
p1331
(dp1332
g30
F-1.794642857142857
sg31
F-1.5267857142857142
sg32
F0.45535714285714285
sg33
S'yellow'
p1333
sba(icurlovision
Stone
p1334
(dp1335
g30
F0.1607142857142857
sg31
F0.10714285714285714
sg32
F0.45535714285714285
sg33
S'red'
p1336
sba(icurlovision
Stone
p1337
(dp1338
g30
F1.3660714285714286
sg31
F3.375
sg32
F0.33482142857142855
sg33
S'yellow'
p1339
sbasba(icurlovision
StoneLayout
p1340
(dp1341
g25
F0.4791666666666667
sg26
(lp1342
(icurlovision
Stone
p1343
(dp1344
g30
F0.1875
sg31
F2.1160714285714284
sg32
F0.3482142857142857
sg33
S'red'
p1345
sba(icurlovision
Stone
p1346
(dp1347
g30
F-1.8214285714285714
sg31
F-1.5803571428571428
sg32
F0.45535714285714285
sg33
S'yellow'
p1348
sba(icurlovision
Stone
p1349
(dp1350
g30
F0.1875
sg31
F0.10714285714285714
sg32
F0.30803571428571425
sg33
S'red'
p1351
sbasba(icurlovision
StoneLayout
p1352
(dp1353
g25
F0.4791666666666667
sg26
(lp1354
(icurlovision
Stone
p1355
(dp1356
g30
F-0.14732142857142858
sg31
F2.5044642857142856
sg32
F0.45535714285714285
sg33
S'red'
p1357
sba(icurlovision
Stone
p1358
(dp1359
g30
F-1.8080357142857142
sg31
F-1.59375
sg32
F0.45535714285714285
sg33
S'yellow'
p1360
sba(icurlovision
Stone
p1361
(dp1362
g30
F0.6294642857142857
sg31
F1.3526785714285714
sg32
F0.45535714285714285
sg33
S'yellow'
p1363
sbasba(icurlovision
StoneLayout
p1364
(dp1365
g25
F0.4791666666666667
sg26
(lp1366
(icurlovision
Stone
p1367
(dp1368
g30
F-0.13846153846153847
sg31
F2.4461538461538463
sg32
F0.46153846153846156
sg33
S'red'
p1369
sba(icurlovision
Stone
p1370
(dp1371
g30
F1.153846153846154
sg31
F2.907692307692308
sg32
F0.33461538461538465
sg33
S'red'
p1372
sba(icurlovision
Stone
p1373
(dp1374
g30
F0.6230769230769231
sg31
F1.3153846153846154
sg32
F0.33461538461538465
sg33
S'yellow'
p1375
sbasba(icurlovision
StoneLayout
p1376
(dp1377
g25
F0.4791666666666667
sg26
(lp1378
(icurlovision
Stone
p1379
(dp1380
g30
F0.6737288135593221
sg31
F2.097457627118644
sg32
F0.44491525423728817
sg33
S'red'
p1381
sba(icurlovision
Stone
p1382
(dp1383
g30
F1.6652542372881356
sg31
F-0.3686440677966102
sg32
F0.4576271186440678
sg33
S'yellow'
p1384
sba(icurlovision
Stone
p1385
(dp1386
g30
F-1.7923728813559323
sg31
F-1.614406779661017
sg32
F0.4703389830508475
sg33
S'yellow'
p1387
sbasba(icurlovision
StoneLayout
p1388
(dp1389
g25
F0.4791666666666667
sg26
(lp1390
(icurlovision
Stone
p1391
(dp1392
g30
F0.6428571428571428
sg31
F2.0625
sg32
F0.45535714285714285
sg33
S'red'
p1393
sba(icurlovision
Stone
p1394
(dp1395
g30
F-1.875
sg31
F-1.5
sg32
F0.45535714285714285
sg33
S'yellow'
p1396
sba(icurlovision
Stone
p1397
(dp1398
g30
F-1.044642857142857
sg31
F-2.1160714285714284
sg32
F0.3482142857142857
sg33
S'red'
p1399
sbasba(icurlovision
StoneLayout
p1400
(dp1401
g25
F0.4791666666666667
sg26
(lp1402
(icurlovision
Stone
p1403
(dp1404
g30
F2.0859375
sg31
F1.9921875
sg32
F0.3515625
sg33
S'red'
p1405
sba(icurlovision
Stone
p1406
(dp1407
g30
F0.6328125
sg31
F2.109375
sg32
F0.3515625
sg33
S'red'
p1408
sba(icurlovision
Stone
p1409
(dp1410
g30
F1.078125
sg31
F1.21875
sg32
F0.328125
sg33
S'yellow'
p1411
sba(icurlovision
Stone
p1412
(dp1413
g30
F-1.03125
sg31
F-2.1328125
sg32
F0.4453125
sg33
S'red'
p1414
sbasba(icurlovision
StoneLayout
p1415
(dp1416
g25
F0.4791666666666667
sg26
(lp1417
(icurlovision
Stone
p1418
(dp1419
g30
F1.0161290322580645
sg31
F1.2096774193548387
sg32
F0.32661290322580644
sg33
S'yellow'
p1420
sba(icurlovision
Stone
p1421
(dp1422
g30
F2.008064516129032
sg31
F1.9596774193548387
sg32
F0.3387096774193548
sg33
S'red'
p1423
sba(icurlovision
Stone
p1424
(dp1425
g30
F-0.8225806451612903
sg31
F-0.6774193548387096
sg32
F0.32661290322580644
sg33
S'yellow'
p1426
sba(icurlovision
Stone
p1427
(dp1428
g30
F0.6048387096774194
sg31
F2.0806451612903225
sg32
F0.4475806451612903
sg33
S'red'
p1429
sbasbasg176
I4
sg177
I1
sba(icurlovision
EndResult
p1430
(dp1431
g2
I8
sg9
(lp1432
(I8
I7
tp1433
a(I7
I7
tp1434
a(I7
I6
tp1435
a(I6
I5
tp1436
a(I5
I5
tp1437
a(I4
I4
tp1438
a(I4
I3
tp1439
a(I3
I3
tp1440
a(I3
I2
tp1441
a(I2
I2
tp1442
a(I2
I1
tp1443
a(I1
I1
tp1444
a(I1
I0
tp1445
asg20
I9
sg21
(lp1446
(icurlovision
StoneLayout
p1447
(dp1448
g25
F0.4791666666666667
sg26
(lp1449
sba(icurlovision
StoneLayout
p1450
(dp1451
g25
F0.4791666666666667
sg26
(lp1452
(icurlovision
Stone
p1453
(dp1454
g30
F0.8509615384615385
sg31
F1.4855769230769231
sg32
F0.3317307692307693
sg33
S'yellow'
p1455
sba(icurlovision
Stone
p1456
(dp1457
g30
F9.302884615384617
sg31
F4.1394230769230775
sg32
F0.4759615384615385
sg33
S'red'
p1458
sbasba(icurlovision
StoneLayout
p1459
(dp1460
g25
F0.4791666666666667
sg26
(lp1461
(icurlovision
Stone
p1462
(dp1463
g30
F9.076530612244898
sg31
F3.9030612244897958
sg32
F0.44387755102040816
sg33
S'red'
p1464
sba(icurlovision
Stone
p1465
(dp1466
g30
F0.8724489795918368
sg31
F1.5153061224489797
sg32
F0.30612244897959184
sg33
S'yellow'
p1467
sbasba(icurlovision
StoneLayout
p1468
(dp1469
g25
F0.4791666666666667
sg26
(lp1470
(icurlovision
Stone
p1471
(dp1472
g30
F9.183673469387754
sg31
F3.9489795918367347
sg32
F0.45918367346938777
sg33
S'red'
p1473
sbasba(icurlovision
StoneLayout
p1474
(dp1475
g25
F0.4791666666666667
sg26
(lp1476
(icurlovision
Stone
p1477
(dp1478
g30
F9.1875
sg31
F4.0
sg32
F0.3125
sg33
S'red'
p1479
sbasba(icurlovision
StoneLayout
p1480
(dp1481
g25
F0.4791666666666667
sg26
(lp1482
(icurlovision
Stone
p1483
(dp1484
g30
F0.19047619047619047
sg31
F4.69047619047619
sg32
F0.44047619047619047
sg33
S'red'
p1485
sbasba(icurlovision
StoneLayout
p1486
(dp1487
g25
F0.4791666666666667
sg26
(lp1488
(icurlovision
Stone
p1489
(dp1490
g30
F2.2205882352941178
sg31
F6.102941176470588
sg32
F0.45588235294117646
sg33
S'yellow'
p1491
sbasba(icurlovision
StoneLayout
p1492
(dp1493
g25
F0.4791666666666667
sg26
(lp1494
(icurlovision
Stone
p1495
(dp1496
g30
F2.263888888888889
sg31
F6.152777777777778
sg32
F0.4583333333333333
sg33
S'yellow'
p1497
sbasba(icurlovision
StoneLayout
p1498
(dp1499
g25
F0.4791666666666667
sg26
(lp1500
(icurlovision
Stone
p1501
(dp1502
g30
F-4.388888888888888
sg31
F-1.9166666666666665
sg32
F0.3472222222222222
sg33
S'red'
p1503
sba(icurlovision
Stone
p1504
(dp1505
g30
F1.3888888888888888
sg31
F0.8055555555555555
sg32
F0.4722222222222222
sg33
S'yellow'
p1506
sba(icurlovision
Stone
p1507
(dp1508
g30
F-7.166666666666666
sg31
F6.555555555555555
sg32
F0.4722222222222222
sg33
S'yellow'
p1509
sbasba(icurlovision
StoneLayout
p1510
(dp1511
g25
F0.4791666666666667
sg26
(lp1512
(icurlovision
Stone
p1513
(dp1514
g30
F-4.2421875
sg31
F-1.875
sg32
F0.328125
sg33
S'red'
p1515
sbasba(icurlovision
StoneLayout
p1516
(dp1517
g25
F0.4791666666666667
sg26
(lp1518
(icurlovision
Stone
p1519
(dp1520
g30
F-2.1545454545454543
sg31
F0.9681818181818181
sg32
F0.4636363636363636
sg33
S'red'
p1521
sbasba(icurlovision
StoneLayout
p1522
(dp1523
g25
F0.4791666666666667
sg26
(lp1524
(icurlovision
Stone
p1525
(dp1526
g30
F-2.1206896551724137
sg31
F0.9310344827586207
sg32
F0.33620689655172414
sg33
S'red'
p1527
sba(icurlovision
Stone
p1528
(dp1529
g30
F0.9310344827586207
sg31
F5.301724137931035
sg32
F0.4525862068965517
sg33
S'yellow'
p1530
sba(icurlovision
Stone
p1531
(dp1532
g30
F1.8362068965517242
sg31
F4.991379310344827
sg32
F0.4525862068965517
sg33
S'red'
p1533
sbasba(icurlovision
StoneLayout
p1534
(dp1535
g25
F0.4791666666666667
sg26
(lp1536
sbasg176
I4
sg177
I1
sbasS'version'
p1537
I20180812
sg176
I4
sS'metadata'
p1538
(icurlovision
MatchMetadata
p1539
(dp1540
S'team_name_red'
p1541
S'Unknown'
p1542
sS'event_name'
p1543
g1542
sS'gender'
p1544
g1542
sS'other_info'
p1545
g1542
sS'team_name_yel'
p1546
g1542
sS'date'
p1547
g1542
sbsb.