(icurlovision
MatchResult
p0
(dp1
S'yel_score'
p2
I6
sS'name'
p3
S"VideoLibrary/PyeongChang.Olympics.2018.curling.women's.round-robin.Canada.v.Sweden.1080p.NBC.WEB-DL-FINFUNGUS.mp4"
p4
sS'end_results'
p5
(lp6
(icurlovision
EndResult
p7
(dp8
g2
I2
sS'stones_left'
p9
(lp10
(I7
I7
tp11
a(I6
I6
tp12
a(I6
I5
tp13
a(I5
I5
tp14
a(I4
I3
tp15
a(I3
I3
tp16
a(I2
I2
tp17
a(I1
I1
tp18
a(I1
I0
tp19
asS'end_num'
p20
I1
sS'stone_layouts'
p21
(lp22
(icurlovision
StoneLayout
p23
(dp24
S'stone_radius'
p25
F0.4791666666666667
sS'stones'
p26
(lp27
(icurlovision
Stone
p28
(dp29
S'y'
p30
F-2.018181818181818
sS'x'
p31
F-4.336363636363636
sS'r'
p32
F0.3409090909090909
sS'color'
p33
S'red'
p34
sba(icurlovision
Stone
p35
(dp36
g30
F7.445454545454545
sg31
F0.24545454545454545
sg32
F0.3409090909090909
sg33
S'yellow'
p37
sbasba(icurlovision
StoneLayout
p38
(dp39
g25
F0.4791666666666667
sg26
(lp40
(icurlovision
Stone
p41
(dp42
g30
F7.647321428571428
sg31
F0.28125
sg32
F0.30803571428571425
sg33
S'yellow'
p43
sba(icurlovision
Stone
p44
(dp45
g30
F-0.5758928571428571
sg31
F-3.977678571428571
sg32
F0.3482142857142857
sg33
S'red'
p46
sbasba(icurlovision
StoneLayout
p47
(dp48
g25
F0.4791666666666667
sg26
(lp49
(icurlovision
Stone
p50
(dp51
g30
F0.3472222222222222
sg31
F-3.8611111111111107
sg32
F0.4722222222222222
sg33
S'yellow'
p52
sba(icurlovision
Stone
p53
(dp54
g30
F7.652777777777778
sg31
F0.25
sg32
F0.4583333333333333
sg33
S'yellow'
p55
sba(icurlovision
Stone
p56
(dp57
g30
F-4.736111111111111
sg31
F-4.277777777777778
sg32
F0.4861111111111111
sg33
S'red'
p58
sbasba(icurlovision
StoneLayout
p59
(dp60
g25
F0.4791666666666667
sg26
(lp61
(icurlovision
Stone
p62
(dp63
g30
F7.602941176470588
sg31
F0.22058823529411764
sg32
F0.45588235294117646
sg33
S'yellow'
p64
sba(icurlovision
Stone
p65
(dp66
g30
F-1.4558823529411764
sg31
F-0.16176470588235295
sg32
F0.47058823529411764
sg33
S'red'
p67
sbasba(icurlovision
StoneLayout
p68
(dp69
g25
F0.4791666666666667
sg26
(lp70
(icurlovision
Stone
p71
(dp72
g30
F7.586538461538462
sg31
F0.25961538461538464
sg32
F0.44711538461538464
sg33
S'yellow'
p73
sba(icurlovision
Stone
p74
(dp75
g30
F6.259615384615385
sg31
F1.0384615384615385
sg32
F0.3317307692307693
sg33
S'red'
p76
sba(icurlovision
Stone
p77
(dp78
g30
F-1.4711538461538463
sg31
F-0.14423076923076925
sg32
F0.3317307692307693
sg33
S'red'
p79
sba(icurlovision
Stone
p80
(dp81
g30
F-0.34615384615384615
sg31
F0.14423076923076925
sg32
F0.34615384615384615
sg33
S'yellow'
p82
sbasba(icurlovision
StoneLayout
p83
(dp84
g25
F0.4791666666666667
sg26
(lp85
(icurlovision
Stone
p86
(dp87
g30
F-0.3520408163265306
sg31
F0.1377551020408163
sg32
F0.3520408163265306
sg33
S'yellow'
p88
sba(icurlovision
Stone
p89
(dp90
g30
F-1.4846938775510203
sg31
F-0.1683673469387755
sg32
F0.4744897959183673
sg33
S'red'
p91
sba(icurlovision
Stone
p92
(dp93
g30
F7.392857142857142
sg31
F0.2602040816326531
sg32
F0.45918367346938777
sg33
S'yellow'
p94
sba(icurlovision
Stone
p95
(dp96
g30
F6.290816326530612
sg31
F1.0255102040816326
sg32
F0.3214285714285714
sg33
S'red'
p97
sba(icurlovision
Stone
p98
(dp99
g30
F8.525510204081632
sg31
F0.2602040816326531
sg32
F0.29081632653061223
sg33
S'red'
p100
sbasba(icurlovision
StoneLayout
p101
(dp102
g25
F0.4791666666666667
sg26
(lp103
(icurlovision
Stone
p104
(dp105
g30
F7.3125
sg31
F-3.875
sg32
F0.46875
sg33
S'red'
p106
sba(icurlovision
Stone
p107
(dp108
g30
F0.5625
sg31
F0.375
sg32
F0.46875
sg33
S'yellow'
p109
sba(icurlovision
Stone
p110
(dp111
g30
F-1.46875
sg31
F-0.15625
sg32
F0.46875
sg33
S'red'
p112
sba(icurlovision
Stone
p113
(dp114
g30
F-0.375
sg31
F0.125
sg32
F0.34375
sg33
S'yellow'
p115
sba(icurlovision
Stone
p116
(dp117
g30
F8.15625
sg31
F-6.75
sg32
F0.28125
sg33
S'yellow'
p118
sbasba(icurlovision
StoneLayout
p119
(dp120
g25
F0.4791666666666667
sg26
(lp121
(icurlovision
Stone
p122
(dp123
g30
F5.589622641509434
sg31
F-4.089622641509434
sg32
F0.4669811320754717
sg33
S'red'
p124
sba(icurlovision
Stone
p125
(dp126
g30
F-1.4575471698113207
sg31
F-0.1839622641509434
sg32
F0.2971698113207547
sg33
S'red'
p127
sba(icurlovision
Stone
p128
(dp129
g30
F7.1745283018867925
sg31
F-3.7783018867924527
sg32
F0.4669811320754717
sg33
S'red'
p130
sba(icurlovision
Stone
p131
(dp132
g30
F-0.38207547169811323
sg31
F0.12735849056603774
sg32
F0.32547169811320753
sg33
S'yellow'
p133
sba(icurlovision
Stone
p134
(dp135
g30
F0.5801886792452831
sg31
F0.3537735849056604
sg32
F0.339622641509434
sg33
S'yellow'
p136
sbasba(icurlovision
StoneLayout
p137
(dp138
g25
F0.4791666666666667
sg26
(lp139
(icurlovision
Stone
p140
(dp141
g30
F5.589622641509434
sg31
F-4.117924528301887
sg32
F0.4386792452830189
sg33
S'red'
p142
sba(icurlovision
Stone
p143
(dp144
g30
F-1.4858490566037736
sg31
F-0.15566037735849056
sg32
F0.4669811320754717
sg33
S'red'
p145
sba(icurlovision
Stone
p146
(dp147
g30
F0.5518867924528302
sg31
F0.3537735849056604
sg32
F0.339622641509434
sg33
S'yellow'
p148
sba(icurlovision
Stone
p149
(dp150
g30
F-0.38207547169811323
sg31
F0.12735849056603774
sg32
F0.3537735849056604
sg33
S'yellow'
p151
sba(icurlovision
Stone
p152
(dp153
g30
F7.1745283018867925
sg31
F-3.8632075471698113
sg32
F0.4811320754716981
sg33
S'red'
p154
sba(icurlovision
Stone
p155
(dp156
g30
F5.787735849056604
sg31
F0.5235849056603774
sg32
F0.4528301886792453
sg33
S'yellow'
p157
sbasbasS'red_score'
p158
I0
sS'red_hammer'
p159
I1
sba(icurlovision
EndResult
p160
(dp161
g2
I2
sg9
(lp162
(I8
I7
tp163
a(I7
I7
tp164
a(I6
I5
tp165
a(I4
I4
tp166
a(I4
I3
tp167
a(I3
I3
tp168
a(I3
I2
tp169
a(I2
I2
tp170
a(I2
I1
tp171
a(I1
I1
tp172
asg20
I2
sg21
(lp173
(icurlovision
StoneLayout
p174
(dp175
g25
F0.4791666666666667
sg26
(lp176
(icurlovision
Stone
p177
(dp178
g30
F0.1939655172413793
sg31
F0.4267241379310345
sg32
F0.34913793103448276
sg33
S'yellow'
p179
sbasba(icurlovision
StoneLayout
p180
(dp181
g25
F0.4791666666666667
sg26
(lp182
(icurlovision
Stone
p183
(dp184
g30
F0.19444444444444442
sg31
F0.3611111111111111
sg32
F0.3333333333333333
sg33
S'yellow'
p185
sba(icurlovision
Stone
p186
(dp187
g30
F9.027777777777777
sg31
F3.138888888888889
sg32
F0.4305555555555555
sg33
S'red'
p188
sbasba(icurlovision
StoneLayout
p189
(dp190
g25
F0.4791666666666667
sg26
(lp191
(icurlovision
Stone
p192
(dp193
g30
F9.375
sg31
F3.25
sg32
F0.4375
sg33
S'red'
p194
sba(icurlovision
Stone
p195
(dp196
g30
F-2.9166666666666665
sg31
F1.9166666666666665
sg32
F0.47916666666666663
sg33
S'red'
p197
sba(icurlovision
Stone
p198
(dp199
g30
F15.375
sg31
F0.041666666666666664
sg32
F0.3333333333333333
sg33
S'yellow'
p200
sba(icurlovision
Stone
p201
(dp202
g30
F1.2916666666666665
sg31
F0.08333333333333333
sg32
F0.3125
sg33
S'yellow'
p203
sba(icurlovision
Stone
p204
(dp205
g30
F-3.083333333333333
sg31
F-0.20833333333333331
sg32
F0.4583333333333333
sg33
S'yellow'
p206
sbasba(icurlovision
StoneLayout
p207
(dp208
g25
F0.4791666666666667
sg26
(lp209
(icurlovision
Stone
p210
(dp211
g30
F-1.33125
sg31
F4.29375
sg32
F0.33749999999999997
sg33
S'red'
p212
sba(icurlovision
Stone
p213
(dp214
g30
F9.05625
sg31
F3.1687499999999997
sg32
F0.43124999999999997
sg33
S'red'
p215
sba(icurlovision
Stone
p216
(dp217
g30
F14.831249999999999
sg31
F0.056249999999999994
sg32
F0.43124999999999997
sg33
S'yellow'
p218
sbasba(icurlovision
StoneLayout
p219
(dp220
g25
F0.4791666666666667
sg26
(lp221
(icurlovision
Stone
p222
(dp223
g30
F9.276315789473683
sg31
F3.1973684210526314
sg32
F0.43421052631578944
sg33
S'red'
p224
sba(icurlovision
Stone
p225
(dp226
g30
F-0.631578947368421
sg31
F4.894736842105263
sg32
F0.3157894736842105
sg33
S'yellow'
p227
sba(icurlovision
Stone
p228
(dp229
g30
F15.19736842105263
sg31
F0.039473684210526314
sg32
F0.41447368421052627
sg33
S'yellow'
p230
sbasba(icurlovision
StoneLayout
p231
(dp232
g25
F0.4791666666666667
sg26
(lp233
(icurlovision
Stone
p234
(dp235
g30
F9.153846153846155
sg31
F3.153846153846154
sg32
F0.42307692307692313
sg33
S'red'
p236
sba(icurlovision
Stone
p237
(dp238
g30
F0.038461538461538464
sg31
F4.0769230769230775
sg32
F0.46153846153846156
sg33
S'red'
p239
sba(icurlovision
Stone
p240
(dp241
g30
F14.961538461538462
sg31
F0.038461538461538464
sg32
F0.42307692307692313
sg33
S'yellow'
p242
sba(icurlovision
Stone
p243
(dp244
g30
F-4.269230769230769
sg31
F5.307692307692308
sg32
F0.44230769230769235
sg33
S'yellow'
p245
sbasba(icurlovision
StoneLayout
p246
(dp247
g25
F0.4791666666666667
sg26
(lp248
(icurlovision
Stone
p249
(dp250
g30
F2.4285714285714284
sg31
F-2.0357142857142856
sg32
F0.33928571428571425
sg33
S'red'
p251
sba(icurlovision
Stone
p252
(dp253
g30
F-0.03571428571428571
sg31
F3.9285714285714284
sg32
F0.4464285714285714
sg33
S'red'
p254
sba(icurlovision
Stone
p255
(dp256
g30
F14.464285714285714
sg31
F0.07142857142857142
sg32
F0.375
sg33
S'yellow'
p257
sbasba(icurlovision
StoneLayout
p258
(dp259
g25
F0.4791666666666667
sg26
(lp260
(icurlovision
Stone
p261
(dp262
g30
F0.01875
sg31
F4.14375
sg32
F0.31875
sg33
S'red'
p263
sba(icurlovision
Stone
p264
(dp265
g30
F15.243749999999999
sg31
F0.01875
sg32
F0.22499999999999998
sg33
S'yellow'
p266
sba(icurlovision
Stone
p267
(dp268
g30
F3.46875
sg31
F-2.08125
sg32
F0.35625
sg33
S'red'
p269
sbasba(icurlovision
StoneLayout
p270
(dp271
g25
F0.4791666666666667
sg26
(lp272
(icurlovision
Stone
p273
(dp274
g30
F1.8375
sg31
F2.55
sg32
F0.46875
sg33
S'yellow'
p275
sba(icurlovision
Stone
p276
(dp277
g30
F-0.825
sg31
F-1.95
sg32
F0.46875
sg33
S'red'
p278
sba(icurlovision
Stone
p279
(dp280
g30
F-0.0
sg31
F4.05
sg32
F0.46875
sg33
S'red'
p281
sba(icurlovision
Stone
p282
(dp283
g30
F14.962499999999999
sg31
F0.0375
sg32
F0.43124999999999997
sg33
S'yellow'
p284
sbasba(icurlovision
StoneLayout
p285
(dp286
g25
F0.4791666666666667
sg26
(lp287
(icurlovision
Stone
p288
(dp289
g30
F-1.2214285714285715
sg31
F6.75
sg32
F0.4285714285714286
sg33
S'red'
p290
sba(icurlovision
Stone
p291
(dp292
g30
F-1.2214285714285715
sg31
F-1.95
sg32
F0.4392857142857143
sg33
S'red'
p293
sba(icurlovision
Stone
p294
(dp295
g30
F-0.02142857142857143
sg31
F-1.7142857142857144
sg32
F0.4392857142857143
sg33
S'red'
p296
sbasbasg158
I0
sg159
I1
sba(icurlovision
EndResult
p297
(dp298
g2
I2
sg9
(lp299
(I8
I7
tp300
a(I7
I7
tp301
a(I6
I6
tp302
a(I6
I5
tp303
a(I5
I4
tp304
a(I4
I4
tp305
a(I3
I3
tp306
a(I3
I2
tp307
a(I2
I2
tp308
a(I2
I1
tp309
a(I1
I1
tp310
a(I1
I0
tp311
asg20
I3
sg21
(lp312
(icurlovision
StoneLayout
p313
(dp314
g25
F0.4791666666666667
sg26
(lp315
(icurlovision
Stone
p316
(dp317
g30
F0.01293103448275862
sg31
F0.2974137931034483
sg32
F0.46551724137931033
sg33
S'yellow'
p318
sbasba(icurlovision
StoneLayout
p319
(dp320
g25
F0.4791666666666667
sg26
(lp321
(icurlovision
Stone
p322
(dp323
g30
F0.06976744186046512
sg31
F0.27906976744186046
sg32
F0.3313953488372093
sg33
S'yellow'
p324
sba(icurlovision
Stone
p325
(dp326
g30
F11.930232558139535
sg31
F-3.0697674418604652
sg32
F0.41860465116279066
sg33
S'red'
p327
sbasba(icurlovision
StoneLayout
p328
(dp329
g25
F0.4791666666666667
sg26
(lp330
(icurlovision
Stone
p331
(dp332
g30
F-1.6833333333333333
sg31
F1.4833333333333334
sg32
F0.48333333333333334
sg33
S'yellow'
p333
sba(icurlovision
Stone
p334
(dp335
g30
F7.616666666666666
sg31
F0.21666666666666667
sg32
F0.43333333333333335
sg33
S'yellow'
p336
sba(icurlovision
Stone
p337
(dp338
g30
F-1.95
sg31
F-2.35
sg32
F0.2833333333333333
sg33
S'red'
p339
sba(icurlovision
Stone
p340
(dp341
g30
F11.983333333333333
sg31
F-3.05
sg32
F0.2833333333333333
sg33
S'red'
p342
sbasba(icurlovision
StoneLayout
p343
(dp344
g25
F0.4791666666666667
sg26
(lp345
(icurlovision
Stone
p346
(dp347
g30
F7.738636363636363
sg31
F0.23863636363636362
sg32
F0.28977272727272724
sg33
S'yellow'
p348
sba(icurlovision
Stone
p349
(dp350
g30
F-1.977272727272727
sg31
F-2.352272727272727
sg32
F0.47727272727272724
sg33
S'red'
p351
sba(icurlovision
Stone
p352
(dp353
g30
F-1.7045454545454544
sg31
F1.534090909090909
sg32
F0.3579545454545454
sg33
S'yellow'
p354
sba(icurlovision
Stone
p355
(dp356
g30
F12.136363636363635
sg31
F-3.102272727272727
sg32
F0.4431818181818181
sg33
S'red'
p357
sba(icurlovision
Stone
p358
(dp359
g30
F0.9545454545454545
sg31
F-2.25
sg32
F0.4602272727272727
sg33
S'yellow'
p360
sbasba(icurlovision
StoneLayout
p361
(dp362
g25
F0.4791666666666667
sg26
(lp363
(icurlovision
Stone
p364
(dp365
g30
F7.611702127659574
sg31
F0.2074468085106383
sg32
F0.44680851063829785
sg33
S'yellow'
p366
sba(icurlovision
Stone
p367
(dp368
g30
F-1.0691489361702127
sg31
F-2.4095744680851063
sg32
F0.4627659574468085
sg33
S'yellow'
p369
sba(icurlovision
Stone
p370
(dp371
g30
F-1.7074468085106382
sg31
F1.4840425531914891
sg32
F0.4627659574468085
sg33
S'yellow'
p372
sba(icurlovision
Stone
p373
(dp374
g30
F5.792553191489361
sg31
F1.0691489361702127
sg32
F0.3191489361702127
sg33
S'yellow'
p375
sba(icurlovision
Stone
p376
(dp377
g30
F11.984042553191488
sg31
F-3.079787234042553
sg32
F0.4308510638297872
sg33
S'red'
p378
sbasba(icurlovision
StoneLayout
p379
(dp380
g25
F0.4791666666666667
sg26
(lp381
(icurlovision
Stone
p382
(dp383
g30
F-1.0408163265306123
sg31
F-2.357142857142857
sg32
F0.336734693877551
sg33
S'yellow'
p384
sba(icurlovision
Stone
p385
(dp386
g30
F-1.653061224489796
sg31
F1.4693877551020407
sg32
F0.3214285714285714
sg33
S'yellow'
p387
sba(icurlovision
Stone
p388
(dp389
g30
F7.408163265306122
sg31
F0.24489795918367346
sg32
F0.42857142857142855
sg33
S'yellow'
p390
sba(icurlovision
Stone
p391
(dp392
g30
F5.63265306122449
sg31
F1.0714285714285714
sg32
F0.42857142857142855
sg33
S'yellow'
p393
sba(icurlovision
Stone
p394
(dp395
g30
F11.693877551020408
sg31
F-3.0
sg32
F0.42857142857142855
sg33
S'red'
p396
sba(icurlovision
Stone
p397
(dp398
g30
F4.377551020408164
sg31
F-0.030612244897959183
sg32
F0.29081632653061223
sg33
S'red'
p399
sba(icurlovision
Stone
p400
(dp401
g30
F10.83673469387755
sg31
F-5.112244897959184
sg32
F0.2755102040816326
sg33
S'yellow'
p402
sbasba(icurlovision
StoneLayout
p403
(dp404
g25
F0.4791666666666667
sg26
(lp405
(icurlovision
Stone
p406
(dp407
g30
F7.410714285714286
sg31
F0.19642857142857142
sg32
F0.42857142857142855
sg33
S'yellow'
p408
sba(icurlovision
Stone
p409
(dp410
g30
F-1.6607142857142856
sg31
F1.5178571428571428
sg32
F0.4464285714285714
sg33
S'yellow'
p411
sba(icurlovision
Stone
p412
(dp413
g30
F11.696428571428571
sg31
F-3.017857142857143
sg32
F0.42857142857142855
sg33
S'red'
p414
sba(icurlovision
Stone
p415
(dp416
g30
F6.125
sg31
F1.7678571428571428
sg32
F0.42857142857142855
sg33
S'yellow'
p417
sba(icurlovision
Stone
p418
(dp419
g30
F5.625
sg31
F0.9821428571428571
sg32
F0.3214285714285714
sg33
S'yellow'
p420
sba(icurlovision
Stone
p421
(dp422
g30
F4.410714285714286
sg31
F-0.125
sg32
F0.26785714285714285
sg33
S'red'
p423
sba(icurlovision
Stone
p424
(dp425
g30
F-1.5178571428571428
sg31
F0.5535714285714285
sg32
F0.4464285714285714
sg33
S'red'
p426
sbasba(icurlovision
StoneLayout
p427
(dp428
g25
F0.4791666666666667
sg26
(lp429
(icurlovision
Stone
p430
(dp431
g30
F-0.7857142857142857
sg31
F1.25
sg32
F0.46428571428571425
sg33
S'red'
p432
sba(icurlovision
Stone
p433
(dp434
g30
F6.25
sg31
F1.7857142857142856
sg32
F0.4464285714285714
sg33
S'yellow'
p435
sba(icurlovision
Stone
p436
(dp437
g30
F11.928571428571427
sg31
F-3.0357142857142856
sg32
F0.42857142857142855
sg33
S'red'
p438
sba(icurlovision
Stone
p439
(dp440
g30
F-1.7142857142857142
sg31
F1.5357142857142856
sg32
F0.46428571428571425
sg33
S'yellow'
p441
sba(icurlovision
Stone
p442
(dp443
g30
F8.392857142857142
sg31
F0.14285714285714285
sg32
F0.42857142857142855
sg33
S'yellow'
p444
sbasba(icurlovision
StoneLayout
p445
(dp446
g25
F0.4791666666666667
sg26
(lp447
(icurlovision
Stone
p448
(dp449
g30
F6.142857142857142
sg31
F1.75
sg32
F0.42857142857142855
sg33
S'yellow'
p450
sba(icurlovision
Stone
p451
(dp452
g30
F8.25
sg31
F0.14285714285714285
sg32
F0.42857142857142855
sg33
S'yellow'
p453
sba(icurlovision
Stone
p454
(dp455
g30
F-0.7857142857142857
sg31
F1.25
sg32
F0.4464285714285714
sg33
S'red'
p456
sba(icurlovision
Stone
p457
(dp458
g30
F-1.6785714285714284
sg31
F1.5
sg32
F0.4464285714285714
sg33
S'yellow'
p459
sba(icurlovision
Stone
p460
(dp461
g30
F11.75
sg31
F-3.0
sg32
F0.42857142857142855
sg33
S'red'
p462
sba(icurlovision
Stone
p463
(dp464
g30
F-5.9642857142857135
sg31
F0.7142857142857142
sg32
F0.4464285714285714
sg33
S'red'
p465
sbasba(icurlovision
StoneLayout
p466
(dp467
g25
F0.4791666666666667
sg26
(lp468
(icurlovision
Stone
p469
(dp470
g30
F8.362499999999999
sg31
F0.22499999999999998
sg32
F0.35625
sg33
S'yellow'
p471
sba(icurlovision
Stone
p472
(dp473
g30
F6.225
sg31
F1.7999999999999998
sg32
F0.2625
sg33
S'yellow'
p474
sba(icurlovision
Stone
p475
(dp476
g30
F11.924999999999999
sg31
F-3.0375
sg32
F0.44999999999999996
sg33
S'red'
p477
sba(icurlovision
Stone
p478
(dp479
g30
F-0.7875
sg31
F1.275
sg32
F0.44999999999999996
sg33
S'red'
p480
sba(icurlovision
Stone
p481
(dp482
g30
F-1.7249999999999999
sg31
F1.5374999999999999
sg32
F0.46875
sg33
S'yellow'
p483
sba(icurlovision
Stone
p484
(dp485
g30
F-6.075
sg31
F0.6749999999999999
sg32
F0.44999999999999996
sg33
S'red'
p486
sba(icurlovision
Stone
p487
(dp488
g30
F-0.075
sg31
F-1.1624999999999999
sg32
F0.3
sg33
S'yellow'
p489
sbasba(icurlovision
StoneLayout
p490
(dp491
g25
F0.4791666666666667
sg26
(lp492
(icurlovision
Stone
p493
(dp494
g30
F-1.7635135135135136
sg31
F1.6013513513513515
sg32
F0.46621621621621623
sg33
S'yellow'
p495
sba(icurlovision
Stone
p496
(dp497
g30
F8.533783783783784
sg31
F0.18243243243243246
sg32
F0.22297297297297297
sg33
S'yellow'
p498
sba(icurlovision
Stone
p499
(dp500
g30
F6.385135135135135
sg31
F1.8445945945945947
sg32
F0.3445945945945946
sg33
S'yellow'
p501
sba(icurlovision
Stone
p502
(dp503
g30
F12.182432432432433
sg31
F-3.1013513513513513
sg32
F0.4256756756756757
sg33
S'red'
p504
sba(icurlovision
Stone
p505
(dp506
g30
F-6.060810810810811
sg31
F0.7094594594594595
sg32
F0.30405405405405406
sg33
S'red'
p507
sba(icurlovision
Stone
p508
(dp509
g30
F-0.8310810810810811
sg31
F1.2770270270270272
sg32
F0.46621621621621623
sg33
S'red'
p510
sba(icurlovision
Stone
p511
(dp512
g30
F0.02027027027027027
sg31
F0.8716216216216217
sg32
F0.46621621621621623
sg33
S'red'
p513
sbasba(icurlovision
StoneLayout
p514
(dp515
g25
F0.4791666666666667
sg26
(lp516
(icurlovision
Stone
p517
(dp518
g30
F8.56578947368421
sg31
F0.19736842105263158
sg32
F0.43421052631578944
sg33
S'yellow'
p519
sba(icurlovision
Stone
p520
(dp521
g30
F-1.7368421052631577
sg31
F1.5789473684210527
sg32
F0.4934210526315789
sg33
S'yellow'
p522
sba(icurlovision
Stone
p523
(dp524
g30
F6.434210526315789
sg31
F1.8157894736842104
sg32
F0.29605263157894735
sg33
S'yellow'
p525
sba(icurlovision
Stone
p526
(dp527
g30
F-0.8289473684210525
sg31
F1.3026315789473684
sg32
F0.4539473684210526
sg33
S'red'
p528
sba(icurlovision
Stone
p529
(dp530
g30
F0.039473684210526314
sg31
F0.8684210526315789
sg32
F0.3355263157894737
sg33
S'red'
p531
sba(icurlovision
Stone
p532
(dp533
g30
F12.19736842105263
sg31
F-3.1184210526315788
sg32
F0.43421052631578944
sg33
S'red'
p534
sba(icurlovision
Stone
p535
(dp536
g30
F0.5921052631578947
sg31
F0.11842105263157894
sg32
F0.3157894736842105
sg33
S'yellow'
p537
sba(icurlovision
Stone
p538
(dp539
g30
F-6.078947368421052
sg31
F0.7105263157894737
sg32
F0.375
sg33
S'red'
p540
sbasbasg158
I2
sg159
I1
sba(icurlovision
EndResult
p541
(dp542
g2
I3
sg9
(lp543
(I7
I8
tp544
a(I4
I5
tp545
a(I4
I4
tp546
a(I2
I3
tp547
a(I1
I2
tp548
a(I0
I1
tp549
asg20
I4
sg21
(lp550
(icurlovision
StoneLayout
p551
(dp552
g25
F0.4791666666666667
sg26
(lp553
sba(icurlovision
StoneLayout
p554
(dp555
g25
F0.4791666666666667
sg26
(lp556
(icurlovision
Stone
p557
(dp558
g30
F3.1721311475409837
sg31
F1.6721311475409837
sg32
F0.319672131147541
sg33
S'yellow'
p559
sba(icurlovision
Stone
p560
(dp561
g30
F-2.6557377049180326
sg31
F-3.8360655737704916
sg32
F0.3319672131147541
sg33
S'yellow'
p562
sba(icurlovision
Stone
p563
(dp564
g30
F7.524590163934426
sg31
F0.319672131147541
sg32
F0.319672131147541
sg33
S'red'
p565
sba(icurlovision
Stone
p566
(dp567
g30
F5.508196721311475
sg31
F1.7704918032786885
sg32
F0.3319672131147541
sg33
S'red'
p568
sbasba(icurlovision
StoneLayout
p569
(dp570
g25
F0.4791666666666667
sg26
(lp571
(icurlovision
Stone
p572
(dp573
g30
F-2.79
sg31
F-4.155
sg32
F0.345
sg33
S'yellow'
p574
sba(icurlovision
Stone
p575
(dp576
g30
F5.04
sg31
F2.295
sg32
F0.285
sg33
S'yellow'
p577
sba(icurlovision
Stone
p578
(dp579
g30
F8.129999999999999
sg31
F0.315
sg32
F0.48
sg33
S'red'
p580
sbasba(icurlovision
StoneLayout
p581
(dp582
g25
F0.4791666666666667
sg26
(lp583
(icurlovision
Stone
p584
(dp585
g30
F-4.3125
sg31
F-6.331730769230769
sg32
F0.31730769230769235
sg33
S'red'
p586
sba(icurlovision
Stone
p587
(dp588
g30
F6.3894230769230775
sg31
F0.9951923076923077
sg32
F0.34615384615384615
sg33
S'yellow'
p589
sba(icurlovision
Stone
p590
(dp591
g30
F-2.7259615384615388
sg31
F-4.052884615384616
sg32
F0.3317307692307693
sg33
S'yellow'
p592
sba(icurlovision
Stone
p593
(dp594
g30
F7.975961538461539
sg31
F0.3028846153846154
sg32
F0.46153846153846156
sg33
S'red'
p595
sba(icurlovision
Stone
p596
(dp597
g30
F1.8605769230769231
sg31
F0.3028846153846154
sg32
F0.34615384615384615
sg33
S'red'
p598
sbasba(icurlovision
StoneLayout
p599
(dp600
g25
F0.4791666666666667
sg26
(lp601
(icurlovision
Stone
p602
(dp603
g30
F-3.015625
sg31
F-1.859375
sg32
F0.46875
sg33
S'red'
p604
sba(icurlovision
Stone
p605
(dp606
g30
F-4.390625
sg31
F-6.421875
sg32
F0.5
sg33
S'red'
p607
sba(icurlovision
Stone
p608
(dp609
g30
F7.015625
sg31
F-2.328125
sg32
F0.46875
sg33
S'red'
p610
sba(icurlovision
Stone
p611
(dp612
g30
F1.859375
sg31
F0.359375
sg32
F0.328125
sg33
S'red'
p613
sba(icurlovision
Stone
p614
(dp615
g30
F8.453125
sg31
F-6.953125
sg32
F0.28125
sg33
S'yellow'
p616
sbasba(icurlovision
StoneLayout
p617
(dp618
g25
F0.4791666666666667
sg26
(lp619
(icurlovision
Stone
p620
(dp621
g30
F-4.390625
sg31
F-6.453125
sg32
F0.5
sg33
S'red'
p622
sba(icurlovision
Stone
p623
(dp624
g30
F-3.015625
sg31
F-1.859375
sg32
F0.46875
sg33
S'red'
p625
sba(icurlovision
Stone
p626
(dp627
g30
F7.890625
sg31
F-2.546875
sg32
F0.34375
sg33
S'red'
p628
sba(icurlovision
Stone
p629
(dp630
g30
F0.609375
sg31
F0.421875
sg32
F0.28125
sg33
S'red'
p631
sbasbasg158
I2
sg159
I0
sba(icurlovision
EndResult
p632
(dp633
g2
I3
sg9
(lp634
(I7
I6
tp635
a(I6
I5
tp636
a(I5
I5
tp637
a(I5
I4
tp638
a(I3
I2
tp639
a(I2
I2
tp640
a(I2
I1
tp641
a(I1
I0
tp642
asg20
I5
sg21
(lp643
(icurlovision
StoneLayout
p644
(dp645
g25
F0.4791666666666667
sg26
(lp646
(icurlovision
Stone
p647
(dp648
g30
F6.964285714285714
sg31
F-3.673469387755102
sg32
F0.44387755102040816
sg33
S'red'
p649
sba(icurlovision
Stone
p650
(dp651
g30
F3.7193877551020407
sg31
F1.010204081632653
sg32
F0.44387755102040816
sg33
S'yellow'
p652
sba(icurlovision
Stone
p653
(dp654
g30
F11.98469387755102
sg31
F0.9183673469387755
sg32
F0.42857142857142855
sg33
S'yellow'
p655
sba(icurlovision
Stone
p656
(dp657
g30
F11.21938775510204
sg31
F-3.642857142857143
sg32
F0.3520408163265306
sg33
S'yellow'
p658
sbasba(icurlovision
StoneLayout
p659
(dp660
g25
F0.4791666666666667
sg26
(lp661
(icurlovision
Stone
p662
(dp663
g30
F6.622881355932204
sg31
F-2.5296610169491527
sg32
F0.4067796610169492
sg33
S'red'
p664
sba(icurlovision
Stone
p665
(dp666
g30
F6.368644067796611
sg31
F-3.4194915254237293
sg32
F0.4067796610169492
sg33
S'red'
p667
sba(icurlovision
Stone
p668
(dp669
g30
F6.241525423728814
sg31
F0.3940677966101695
sg32
F0.3686440677966102
sg33
S'yellow'
p670
sba(icurlovision
Stone
p671
(dp672
g30
F9.572033898305085
sg31
F2.148305084745763
sg32
F0.41949152542372886
sg33
S'yellow'
p673
sba(icurlovision
Stone
p674
(dp675
g30
F3.4194915254237293
sg31
F0.8771186440677967
sg32
F0.38135593220338987
sg33
S'yellow'
p676
sbasba(icurlovision
StoneLayout
p677
(dp678
g25
F0.4791666666666667
sg26
(lp679
(icurlovision
Stone
p680
(dp681
g30
F2.7452830188679247
sg31
F-1.6981132075471699
sg32
F0.32547169811320753
sg33
S'yellow'
p682
sba(icurlovision
Stone
p683
(dp684
g30
F7.018867924528302
sg31
F-2.5754716981132075
sg32
F0.32547169811320753
sg33
S'red'
p685
sba(icurlovision
Stone
p686
(dp687
g30
F6.537735849056604
sg31
F-1.5849056603773586
sg32
F0.4386792452830189
sg33
S'red'
p688
sba(icurlovision
Stone
p689
(dp690
g30
F6.764150943396227
sg31
F-3.5377358490566038
sg32
F0.4386792452830189
sg33
S'red'
p691
sba(icurlovision
Stone
p692
(dp693
g30
F10.132075471698114
sg31
F2.3207547169811322
sg32
F0.4386792452830189
sg33
S'yellow'
p694
sbasba(icurlovision
StoneLayout
p695
(dp696
g25
F0.4791666666666667
sg26
(lp697
(icurlovision
Stone
p698
(dp699
g30
F7.118181818181818
sg31
F-2.6727272727272724
sg32
F0.43636363636363634
sg33
S'red'
p700
sba(icurlovision
Stone
p701
(dp702
g30
F10.009090909090908
sg31
F-1.2818181818181817
sg32
F0.42272727272727273
sg33
S'yellow'
p703
sba(icurlovision
Stone
p704
(dp705
g30
F10.281818181818181
sg31
F2.2636363636363637
sg32
F0.43636363636363634
sg33
S'yellow'
p706
sba(icurlovision
Stone
p707
(dp708
g30
F6.654545454545454
sg31
F-1.690909090909091
sg32
F0.3409090909090909
sg33
S'red'
p709
sba(icurlovision
Stone
p710
(dp711
g30
F6.872727272727272
sg31
F-3.6545454545454543
sg32
F0.43636363636363634
sg33
S'red'
p712
sba(icurlovision
Stone
p713
(dp714
g30
F2.809090909090909
sg31
F-1.7727272727272727
sg32
F0.43636363636363634
sg33
S'yellow'
p715
sbasba(icurlovision
StoneLayout
p716
(dp717
g25
F0.4791666666666667
sg26
(lp718
(icurlovision
Stone
p719
(dp720
g30
F1.6636363636363636
sg31
F-2.3863636363636362
sg32
F0.4636363636363636
sg33
S'yellow'
p721
sba(icurlovision
Stone
p722
(dp723
g30
F6.9818181818181815
sg31
F-3.7227272727272727
sg32
F0.44999999999999996
sg33
S'red'
p724
sba(icurlovision
Stone
p725
(dp726
g30
F7.227272727272727
sg31
F-2.686363636363636
sg32
F0.36818181818181817
sg33
S'red'
p727
sba(icurlovision
Stone
p728
(dp729
g30
F6.3545454545454545
sg31
F-2.55
sg32
F0.3409090909090909
sg33
S'red'
p730
sba(icurlovision
Stone
p731
(dp732
g30
F10.472727272727273
sg31
F2.3863636363636362
sg32
F0.44999999999999996
sg33
S'yellow'
p733
sba(icurlovision
Stone
p734
(dp735
g30
F6.927272727272727
sg31
F-1.3227272727272728
sg32
F0.32727272727272727
sg33
S'yellow'
p736
sba(icurlovision
Stone
p737
(dp738
g30
F9.736363636363636
sg31
F-4.159090909090909
sg32
F0.3136363636363636
sg33
S'red'
p739
sba(icurlovision
Stone
p740
(dp741
g30
F3.190909090909091
sg31
F-1.6772727272727272
sg32
F0.4636363636363636
sg33
S'red'
p742
sbasba(icurlovision
StoneLayout
p743
(dp744
g25
F0.4791666666666667
sg26
(lp745
(icurlovision
Stone
p746
(dp747
g30
F1.716346153846154
sg31
F-2.3653846153846154
sg32
F0.46153846153846156
sg33
S'yellow'
p748
sba(icurlovision
Stone
p749
(dp750
g30
F6.302884615384616
sg31
F-2.5096153846153846
sg32
F0.3028846153846154
sg33
S'red'
p751
sba(icurlovision
Stone
p752
(dp753
g30
F6.908653846153847
sg31
F-3.951923076923077
sg32
F0.44711538461538464
sg33
S'red'
p754
sba(icurlovision
Stone
p755
(dp756
g30
F7.658653846153847
sg31
F-1.875
sg32
F0.4326923076923077
sg33
S'red'
p757
sba(icurlovision
Stone
p758
(dp759
g30
F9.70673076923077
sg31
F-4.096153846153847
sg32
F0.44711538461538464
sg33
S'red'
p760
sba(icurlovision
Stone
p761
(dp762
g30
F3.216346153846154
sg31
F-1.701923076923077
sg32
F0.34615384615384615
sg33
S'red'
p763
sba(icurlovision
Stone
p764
(dp765
g30
F10.427884615384617
sg31
F2.3365384615384617
sg32
F0.4182692307692308
sg33
S'yellow'
p766
sba(icurlovision
Stone
p767
(dp768
g30
F7.168269230769231
sg31
F-2.7980769230769234
sg32
F0.31730769230769235
sg33
S'red'
p769
sbasba(icurlovision
StoneLayout
p770
(dp771
g25
F0.4791666666666667
sg26
(lp772
(icurlovision
Stone
p773
(dp774
g30
F1.6607142857142856
sg31
F-2.383928571428571
sg32
F0.33482142857142855
sg33
S'yellow'
p775
sba(icurlovision
Stone
p776
(dp777
g30
F9.589285714285714
sg31
F-4.098214285714286
sg32
F0.4419642857142857
sg33
S'red'
p778
sba(icurlovision
Stone
p779
(dp780
g30
F7.580357142857142
sg31
F-1.9017857142857142
sg32
F0.3482142857142857
sg33
S'red'
p781
sba(icurlovision
Stone
p782
(dp783
g30
F6.803571428571428
sg31
F-3.9107142857142856
sg32
F0.42857142857142855
sg33
S'red'
p784
sba(icurlovision
Stone
p785
(dp786
g30
F3.133928571428571
sg31
F-1.6875
sg32
F0.4419642857142857
sg33
S'red'
p787
sba(icurlovision
Stone
p788
(dp789
g30
F7.071428571428571
sg31
F-2.839285714285714
sg32
F0.33482142857142855
sg33
S'red'
p790
sba(icurlovision
Stone
p791
(dp792
g30
F6.2142857142857135
sg31
F-2.517857142857143
sg32
F0.4419642857142857
sg33
S'red'
p793
sba(icurlovision
Stone
p794
(dp795
g30
F5.517857142857142
sg31
F-1.4464285714285714
sg32
F0.30803571428571425
sg33
S'yellow'
p796
sba(icurlovision
Stone
p797
(dp798
g30
F10.366071428571429
sg31
F2.330357142857143
sg32
F0.30803571428571425
sg33
S'yellow'
p799
sbasba(icurlovision
StoneLayout
p800
(dp801
g25
F0.4791666666666667
sg26
(lp802
(icurlovision
Stone
p803
(dp804
g30
F7.027777777777778
sg31
F-2.8055555555555554
sg32
F0.4444444444444444
sg33
S'red'
p805
sba(icurlovision
Stone
p806
(dp807
g30
F6.75
sg31
F-3.9166666666666665
sg32
F0.3194444444444444
sg33
S'red'
p808
sba(icurlovision
Stone
p809
(dp810
g30
F0.4444444444444444
sg31
F2.388888888888889
sg32
F0.4583333333333333
sg33
S'yellow'
p811
sba(icurlovision
Stone
p812
(dp813
g30
F8.055555555555555
sg31
F-2.5
sg32
F0.41666666666666663
sg33
S'red'
p814
sba(icurlovision
Stone
p815
(dp816
g30
F9.527777777777777
sg31
F-4.111111111111111
sg32
F0.4444444444444444
sg33
S'red'
p817
sba(icurlovision
Stone
p818
(dp819
g30
F10.305555555555555
sg31
F2.3055555555555554
sg32
F0.4305555555555555
sg33
S'yellow'
p820
sba(icurlovision
Stone
p821
(dp822
g30
F-1.222222222222222
sg31
F-4.138888888888888
sg32
F0.4722222222222222
sg33
S'yellow'
p823
sba(icurlovision
Stone
p824
(dp825
g30
F4.666666666666666
sg31
F-1.0
sg32
F0.3333333333333333
sg33
S'yellow'
p826
sbasbasg158
I3
sg159
I1
sba(icurlovision
EndResult
p827
(dp828
g2
I5
sg9
(lp829
(I4
I4
tp830
a(I3
I4
tp831
a(I3
I3
tp832
a(I2
I3
tp833
a(I2
I2
tp834
a(I1
I2
tp835
a(I1
I1
tp836
a(I0
I1
tp837
asg20
I6
sg21
(lp838
(icurlovision
StoneLayout
p839
(dp840
g25
F0.4791666666666667
sg26
(lp841
(icurlovision
Stone
p842
(dp843
g30
F-0.7325581395348837
sg31
F-6.1395348837209305
sg32
F0.2616279069767442
sg33
S'red'
p844
sba(icurlovision
Stone
p845
(dp846
g30
F-1.0116279069767442
sg31
F1.8488372093023255
sg32
F0.3488372093023256
sg33
S'red'
p847
sba(icurlovision
Stone
p848
(dp849
g30
F-2.8604651162790695
sg31
F0.9767441860465116
sg32
F0.3313953488372093
sg33
S'yellow'
p850
sba(icurlovision
Stone
p851
(dp852
g30
F12.906976744186046
sg31
F0.6627906976744186
sg32
F0.436046511627907
sg33
S'red'
p853
sba(icurlovision
Stone
p854
(dp855
g30
F-2.4069767441860463
sg31
F0.13953488372093023
sg32
F0.3488372093023256
sg33
S'yellow'
p856
sba(icurlovision
Stone
p857
(dp858
g30
F0.06976744186046512
sg31
F1.7093023255813953
sg32
F0.3313953488372093
sg33
S'yellow'
p859
sba(icurlovision
Stone
p860
(dp861
g30
F2.0930232558139537
sg31
F1.6046511627906976
sg32
F0.38372093023255816
sg33
S'yellow'
p862
sbasba(icurlovision
StoneLayout
p863
(dp864
g25
F0.4791666666666667
sg26
(lp865
(icurlovision
Stone
p866
(dp867
g30
F-2.8125
sg31
F0.9375
sg32
F0.46875
sg33
S'yellow'
p868
sba(icurlovision
Stone
p869
(dp870
g30
F0.075
sg31
F1.65
sg32
F0.33749999999999997
sg33
S'yellow'
p871
sba(icurlovision
Stone
p872
(dp873
g30
F-2.3249999999999997
sg31
F0.11249999999999999
sg32
F0.46875
sg33
S'yellow'
p874
sba(icurlovision
Stone
p875
(dp876
g30
F-0.975
sg31
F1.7625
sg32
F0.2625
sg33
S'red'
p877
sba(icurlovision
Stone
p878
(dp879
g30
F-0.7125
sg31
F-6.075
sg32
F0.46875
sg33
S'red'
p880
sba(icurlovision
Stone
p881
(dp882
g30
F12.7875
sg31
F0.6375
sg32
F0.44999999999999996
sg33
S'red'
p883
sba(icurlovision
Stone
p884
(dp885
g30
F-1.0875
sg31
F-0.4125
sg32
F0.43124999999999997
sg33
S'red'
p886
sba(icurlovision
Stone
p887
(dp888
g30
F8.0625
sg31
F0.15
sg32
F0.525
sg33
S'yellow'
p889
sbasba(icurlovision
StoneLayout
p890
(dp891
g25
F0.4791666666666667
sg26
(lp892
(icurlovision
Stone
p893
(dp894
g30
F-2.7
sg31
F0.9500000000000001
sg32
F0.3375
sg33
S'yellow'
p895
sba(icurlovision
Stone
p896
(dp897
g30
F-0.7250000000000001
sg31
F-5.825
sg32
F0.325
sg33
S'red'
p898
sba(icurlovision
Stone
p899
(dp900
g30
F-0.9500000000000001
sg31
F1.75
sg32
F0.45
sg33
S'red'
p901
sba(icurlovision
Stone
p902
(dp903
g30
F-2.25
sg31
F0.15000000000000002
sg32
F0.3375
sg33
S'yellow'
p904
sba(icurlovision
Stone
p905
(dp906
g30
F0.07500000000000001
sg31
F1.6500000000000001
sg32
F0.3375
sg33
S'yellow'
p907
sba(icurlovision
Stone
p908
(dp909
g30
F-1.0
sg31
F-0.30000000000000004
sg32
F0.4625
sg33
S'red'
p910
sbasba(icurlovision
StoneLayout
p911
(dp912
g25
F0.4791666666666667
sg26
(lp913
(icurlovision
Stone
p914
(dp915
g30
F0.05084745762711865
sg31
F1.6271186440677967
sg32
F0.3305084745762712
sg33
S'yellow'
p916
sba(icurlovision
Stone
p917
(dp918
g30
F-0.7627118644067797
sg31
F-6.050847457627119
sg32
F0.4576271186440678
sg33
S'red'
p919
sba(icurlovision
Stone
p920
(dp921
g30
F-4.90677966101695
sg31
F-0.9661016949152543
sg32
F0.3305084745762712
sg33
S'yellow'
p922
sba(icurlovision
Stone
p923
(dp924
g30
F-0.9915254237288136
sg31
F1.7542372881355934
sg32
F0.4703389830508475
sg33
S'red'
p925
sba(icurlovision
Stone
p926
(dp927
g30
F-1.4491525423728815
sg31
F-0.1271186440677966
sg32
F0.4576271186440678
sg33
S'red'
p928
sbasba(icurlovision
StoneLayout
p929
(dp930
g25
F0.4791666666666667
sg26
(lp931
(icurlovision
Stone
p932
(dp933
g30
F0.07758620689655173
sg31
F1.668103448275862
sg32
F0.34913793103448276
sg33
S'yellow'
p934
sba(icurlovision
Stone
p935
(dp936
g30
F-0.7758620689655172
sg31
F-6.142241379310344
sg32
F0.46551724137931033
sg33
S'red'
p937
sba(icurlovision
Stone
p938
(dp939
g30
F-1.0344827586206897
sg31
F1.8232758620689655
sg32
F0.33620689655172414
sg33
S'red'
p940
sba(icurlovision
Stone
p941
(dp942
g30
F-5.379310344827586
sg31
F-5.806034482758621
sg32
F0.3620689655172414
sg33
S'yellow'
p943
sba(icurlovision
Stone
p944
(dp945
g30
F-4.9655172413793105
sg31
F-0.9698275862068966
sg32
F0.33620689655172414
sg33
S'yellow'
p946
sbasba(icurlovision
StoneLayout
p947
(dp948
g25
F0.4791666666666667
sg26
(lp949
(icurlovision
Stone
p950
(dp951
g30
F-5.368421052631579
sg31
F-5.815789473684211
sg32
F0.47368421052631576
sg33
S'yellow'
p952
sba(icurlovision
Stone
p953
(dp954
g30
F0.07894736842105263
sg31
F1.657894736842105
sg32
F0.47368421052631576
sg33
S'yellow'
p955
sba(icurlovision
Stone
p956
(dp957
g30
F-1.0
sg31
F1.789473684210526
sg32
F0.4605263157894737
sg33
S'red'
p958
sba(icurlovision
Stone
p959
(dp960
g30
F-0.7894736842105263
sg31
F-6.184210526315789
sg32
F0.3684210526315789
sg33
S'red'
p961
sba(icurlovision
Stone
p962
(dp963
g30
F-4.2105263157894735
sg31
F-0.5526315789473684
sg32
F0.47368421052631576
sg33
S'red'
p964
sbasba(icurlovision
StoneLayout
p965
(dp966
g25
F0.4791666666666667
sg26
(lp967
(icurlovision
Stone
p968
(dp969
g30
F-5.372950819672131
sg31
F-5.815573770491803
sg32
F0.4672131147540983
sg33
S'yellow'
p970
sba(icurlovision
Stone
p971
(dp972
g30
F0.0860655737704918
sg31
F1.6352459016393441
sg32
F0.4672131147540983
sg33
S'yellow'
p973
sba(icurlovision
Stone
p974
(dp975
g30
F-0.7254098360655737
sg31
F-6.184426229508197
sg32
F0.3442622950819672
sg33
S'red'
p976
sba(icurlovision
Stone
p977
(dp978
g30
F-3.5040983606557377
sg31
F0.11065573770491803
sg32
F0.4672131147540983
sg33
S'yellow'
p979
sba(icurlovision
Stone
p980
(dp981
g30
F-0.9713114754098361
sg31
F1.7827868852459017
sg32
F0.35655737704918034
sg33
S'red'
p982
sba(icurlovision
Stone
p983
(dp984
g30
F-4.315573770491803
sg31
F-0.5532786885245902
sg32
F0.319672131147541
sg33
S'red'
p985
sba(icurlovision
Stone
p986
(dp987
g30
F-3.7254098360655736
sg31
F-3.7008196721311473
sg32
F0.5040983606557377
sg33
S'yellow'
p988
sbasba(icurlovision
StoneLayout
p989
(dp990
g25
F0.4791666666666667
sg26
(lp991
(icurlovision
Stone
p992
(dp993
g30
F-2.778688524590164
sg31
F-0.04918032786885246
sg32
F0.4672131147540983
sg33
S'red'
p994
sba(icurlovision
Stone
p995
(dp996
g30
F0.07377049180327869
sg31
F1.6721311475409837
sg32
F0.3319672131147541
sg33
S'yellow'
p997
sba(icurlovision
Stone
p998
(dp999
g30
F-0.7622950819672131
sg31
F-6.172131147540983
sg32
F0.35655737704918034
sg33
S'red'
p1000
sba(icurlovision
Stone
p1001
(dp1002
g30
F-5.360655737704918
sg31
F-5.754098360655737
sg32
F0.47950819672131145
sg33
S'yellow'
p1003
sba(icurlovision
Stone
p1004
(dp1005
g30
F-1.0081967213114753
sg31
F1.7704918032786885
sg32
F0.4672131147540983
sg33
S'red'
p1006
sbasbasg158
I3
sg159
I0
sba(icurlovision
EndResult
p1007
(dp1008
g2
I5
sg9
(lp1009
(I7
I7
tp1010
a(I5
I4
tp1011
a(I4
I4
tp1012
a(I4
I3
tp1013
a(I3
I3
tp1014
a(I3
I2
tp1015
a(I2
I2
tp1016
a(I2
I1
tp1017
a(I1
I0
tp1018
asg20
I7
sg21
(lp1019
(icurlovision
StoneLayout
p1020
(dp1021
g25
F0.4791666666666667
sg26
(lp1022
(icurlovision
Stone
p1023
(dp1024
g30
F1.0625
sg31
F1.0625
sg32
F0.46875
sg33
S'yellow'
p1025
sba(icurlovision
Stone
p1026
(dp1027
g30
F10.78125
sg31
F-3.25
sg32
F0.34375
sg33
S'red'
p1028
sbasba(icurlovision
StoneLayout
p1029
(dp1030
g25
F0.4791666666666667
sg26
(lp1031
(icurlovision
Stone
p1032
(dp1033
g30
F1.0372340425531914
sg31
F1.0372340425531914
sg32
F0.3191489361702127
sg33
S'yellow'
p1034
sba(icurlovision
Stone
p1035
(dp1036
g30
F2.1861702127659575
sg31
F-6.398936170212766
sg32
F0.4627659574468085
sg33
S'red'
p1037
sba(icurlovision
Stone
p1038
(dp1039
g30
F-0.6861702127659574
sg31
F-3.1436170212765955
sg32
F0.28723404255319146
sg33
S'yellow'
p1040
sba(icurlovision
Stone
p1041
(dp1042
g30
F-0.8138297872340425
sg31
F-4.1010638297872335
sg32
F0.351063829787234
sg33
S'red'
p1043
sba(icurlovision
Stone
p1044
(dp1045
g30
F10.707446808510637
sg31
F-3.2393617021276593
sg32
F0.33510638297872336
sg33
S'red'
p1046
sba(icurlovision
Stone
p1047
(dp1048
g30
F8.186170212765957
sg31
F-6.877659574468084
sg32
F0.3829787234042553
sg33
S'yellow'
p1049
sbasba(icurlovision
StoneLayout
p1050
(dp1051
g25
F0.4791666666666667
sg26
(lp1052
(icurlovision
Stone
p1053
(dp1054
g30
F1.0892857142857142
sg31
F1.0892857142857142
sg32
F0.46428571428571425
sg33
S'yellow'
p1055
sba(icurlovision
Stone
p1056
(dp1057
g30
F-0.6964285714285714
sg31
F-3.2321428571428568
sg32
F0.3214285714285714
sg33
S'yellow'
p1058
sba(icurlovision
Stone
p1059
(dp1060
g30
F11.017857142857142
sg31
F-3.375
sg32
F0.3214285714285714
sg33
S'red'
p1061
sba(icurlovision
Stone
p1062
(dp1063
g30
F2.339285714285714
sg31
F-6.660714285714286
sg32
F0.26785714285714285
sg33
S'red'
p1064
sba(icurlovision
Stone
p1065
(dp1066
g30
F-0.8392857142857142
sg31
F-4.232142857142857
sg32
F0.3571428571428571
sg33
S'red'
p1067
sba(icurlovision
Stone
p1068
(dp1069
g30
F4.053571428571428
sg31
F-2.946428571428571
sg32
F0.33928571428571425
sg33
S'red'
p1070
sbasba(icurlovision
StoneLayout
p1071
(dp1072
g25
F0.4791666666666667
sg26
(lp1073
(icurlovision
Stone
p1074
(dp1075
g30
F1.0372340425531914
sg31
F1.0691489361702127
sg32
F0.4627659574468085
sg33
S'yellow'
p1076
sba(icurlovision
Stone
p1077
(dp1078
g30
F0.07978723404255318
sg31
F-2.6648936170212765
sg32
F0.33510638297872336
sg33
S'yellow'
p1079
sba(icurlovision
Stone
p1080
(dp1081
g30
F2.2180851063829787
sg31
F-6.462765957446808
sg32
F0.44680851063829785
sg33
S'red'
p1082
sba(icurlovision
Stone
p1083
(dp1084
g30
F-1.5159574468085104
sg31
F-4.420212765957446
sg32
F0.351063829787234
sg33
S'red'
p1085
sba(icurlovision
Stone
p1086
(dp1087
g30
F10.835106382978722
sg31
F-3.303191489361702
sg32
F0.44680851063829785
sg33
S'red'
p1088
sba(icurlovision
Stone
p1089
(dp1090
g30
F0.047872340425531915
sg31
F-3.813829787234042
sg32
F0.4627659574468085
sg33
S'red'
p1091
sbasba(icurlovision
StoneLayout
p1092
(dp1093
g25
F0.4791666666666667
sg26
(lp1094
(icurlovision
Stone
p1095
(dp1096
g30
F1.0372340425531914
sg31
F1.101063829787234
sg32
F0.33510638297872336
sg33
S'yellow'
p1097
sba(icurlovision
Stone
p1098
(dp1099
g30
F2.25
sg31
F-6.430851063829786
sg32
F0.4627659574468085
sg33
S'red'
p1100
sba(icurlovision
Stone
p1101
(dp1102
g30
F0.4308510638297872
sg31
F-1.3882978723404253
sg32
F0.351063829787234
sg33
S'red'
p1103
sba(icurlovision
Stone
p1104
(dp1105
g30
F-1.4521276595744679
sg31
F-4.388297872340425
sg32
F0.3191489361702127
sg33
S'red'
p1106
sba(icurlovision
Stone
p1107
(dp1108
g30
F10.835106382978722
sg31
F-3.2712765957446805
sg32
F0.28723404255319146
sg33
S'red'
p1109
sba(icurlovision
Stone
p1110
(dp1111
g30
F0.07978723404255318
sg31
F-3.813829787234042
sg32
F0.351063829787234
sg33
S'red'
p1112
sbasba(icurlovision
StoneLayout
p1113
(dp1114
g25
F0.4791666666666667
sg26
(lp1115
(icurlovision
Stone
p1116
(dp1117
g30
F10.907608695652174
sg31
F-3.342391304347826
sg32
F0.45652173913043476
sg33
S'red'
p1118
sba(icurlovision
Stone
p1119
(dp1120
g30
F1.059782608695652
sg31
F1.059782608695652
sg32
F0.45652173913043476
sg33
S'yellow'
p1121
sba(icurlovision
Stone
p1122
(dp1123
g30
F1.0271739130434783
sg31
F-2.168478260869565
sg32
F0.32608695652173914
sg33
S'yellow'
p1124
sba(icurlovision
Stone
p1125
(dp1126
g30
F2.233695652173913
sg31
F-6.538043478260869
sg32
F0.45652173913043476
sg33
S'red'
p1127
sba(icurlovision
Stone
p1128
(dp1129
g30
F0.048913043478260865
sg31
F-3.8641304347826084
sg32
F0.47282608695652173
sg33
S'red'
p1130
sba(icurlovision
Stone
p1131
(dp1132
g30
F-1.5489130434782608
sg31
F-4.418478260869565
sg32
F0.32608695652173914
sg33
S'red'
p1133
sba(icurlovision
Stone
p1134
(dp1135
g30
F-0.44021739130434784
sg31
F-1.125
sg32
F0.358695652173913
sg33
S'red'
p1136
sba(icurlovision
Stone
p1137
(dp1138
g30
F2.3315217391304346
sg31
F0.048913043478260865
sg32
F0.4076086956521739
sg33
S'yellow'
p1139
sbasba(icurlovision
StoneLayout
p1140
(dp1141
g25
F0.4791666666666667
sg26
(lp1142
(icurlovision
Stone
p1143
(dp1144
g30
F-0.9333333333333333
sg31
F-4.0
sg32
F0.3333333333333333
sg33
S'yellow'
p1145
sba(icurlovision
Stone
p1146
(dp1147
g30
F-1.1666666666666667
sg31
F-6.733333333333333
sg32
F0.26666666666666666
sg33
S'red'
p1148
sba(icurlovision
Stone
p1149
(dp1150
g30
F1.0333333333333332
sg31
F1.1
sg32
F0.3333333333333333
sg33
S'yellow'
p1151
sba(icurlovision
Stone
p1152
(dp1153
g30
F2.2666666666666666
sg31
F-6.5
sg32
F0.4666666666666667
sg33
S'red'
p1154
sba(icurlovision
Stone
p1155
(dp1156
g30
F1.2333333333333334
sg31
F-2.1333333333333333
sg32
F0.3
sg33
S'red'
p1157
sba(icurlovision
Stone
p1158
(dp1159
g30
F-2.3666666666666667
sg31
F-4.8
sg32
F0.3
sg33
S'red'
p1160
sba(icurlovision
Stone
p1161
(dp1162
g30
F10.866666666666667
sg31
F-3.3
sg32
F0.45
sg33
S'red'
p1163
sbasba(icurlovision
StoneLayout
p1164
(dp1165
g25
F0.4791666666666667
sg26
(lp1166
(icurlovision
Stone
p1167
(dp1168
g30
F1.0116279069767442
sg31
F1.0813953488372092
sg32
F0.3313953488372093
sg33
S'yellow'
p1169
sba(icurlovision
Stone
p1170
(dp1171
g30
F2.058139534883721
sg31
F-2.197674418604651
sg32
F0.47093023255813954
sg33
S'yellow'
p1172
sba(icurlovision
Stone
p1173
(dp1174
g30
F2.2325581395348837
sg31
F-6.523255813953488
sg32
F0.3488372093023256
sg33
S'red'
p1175
sba(icurlovision
Stone
p1176
(dp1177
g30
F-1.1860465116279069
sg31
F-6.732558139534883
sg32
F0.313953488372093
sg33
S'red'
p1178
sba(icurlovision
Stone
p1179
(dp1180
g30
F-0.9767441860465116
sg31
F-3.9767441860465116
sg32
F0.45348837209302323
sg33
S'yellow'
p1181
sba(icurlovision
Stone
p1182
(dp1183
g30
F10.848837209302326
sg31
F-3.2790697674418605
sg32
F0.47093023255813954
sg33
S'red'
p1184
sba(icurlovision
Stone
p1185
(dp1186
g30
F-2.3720930232558137
sg31
F-4.77906976744186
sg32
F0.36627906976744184
sg33
S'red'
p1187
sbasba(icurlovision
StoneLayout
p1188
(dp1189
g25
F0.4791666666666667
sg26
(lp1190
(icurlovision
Stone
p1191
(dp1192
g30
F-1.2102272727272727
sg31
F-6.988636363636363
sg32
F0.47727272727272724
sg33
S'red'
p1193
sba(icurlovision
Stone
p1194
(dp1195
g30
F2.3352272727272725
sg31
F-6.749999999999999
sg32
F0.375
sg33
S'red'
p1196
sba(icurlovision
Stone
p1197
(dp1198
g30
F-2.403409090909091
sg31
F-4.977272727272727
sg32
F0.375
sg33
S'red'
p1199
sba(icurlovision
Stone
p1200
(dp1201
g30
F11.301136363636363
sg31
F-3.443181818181818
sg32
F0.4602272727272727
sg33
S'red'
p1202
sba(icurlovision
Stone
p1203
(dp1204
g30
F-0.9715909090909091
sg31
F-4.125
sg32
F0.3409090909090909
sg33
S'yellow'
p1205
sba(icurlovision
Stone
p1206
(dp1207
g30
F0.9715909090909091
sg31
F1.1931818181818181
sg32
F0.47727272727272724
sg33
S'yellow'
p1208
sbasbasg158
I4
sg159
I1
sba(icurlovision
EndResult
p1209
(dp1210
g2
I5
sg9
(lp1211
(I5
I5
tp1212
a(I4
I5
tp1213
a(I3
I4
tp1214
a(I2
I3
tp1215
a(I1
I2
tp1216
a(I1
I1
tp1217
a(I0
I1
tp1218
asg20
I8
sg21
(lp1219
(icurlovision
StoneLayout
p1220
(dp1221
g25
F0.4791666666666667
sg26
(lp1222
(icurlovision
Stone
p1223
(dp1224
g30
F-1.8989361702127658
sg31
F-4.675531914893616
sg32
F0.351063829787234
sg33
S'yellow'
p1225
sba(icurlovision
Stone
p1226
(dp1227
g30
F10.707446808510637
sg31
F0.526595744680851
sg32
F0.28723404255319146
sg33
S'red'
p1228
sba(icurlovision
Stone
p1229
(dp1230
g30
F3.2712765957446805
sg31
F0.9734042553191489
sg32
F0.44680851063829785
sg33
S'yellow'
p1231
sba(icurlovision
Stone
p1232
(dp1233
g30
F3.207446808510638
sg31
F-0.2074468085106383
sg32
F0.3191489361702127
sg33
S'red'
p1234
sba(icurlovision
Stone
p1235
(dp1236
g30
F-4.037234042553191
sg31
F-6.781914893617021
sg32
F0.49468085106382975
sg33
S'yellow'
p1237
sbasba(icurlovision
StoneLayout
p1238
(dp1239
g25
F0.4791666666666667
sg26
(lp1240
(icurlovision
Stone
p1241
(dp1242
g30
F-1.875
sg31
F-4.665
sg32
F0.345
sg33
S'yellow'
p1243
sba(icurlovision
Stone
p1244
(dp1245
g30
F3.2849999999999997
sg31
F0.975
sg32
F0.46499999999999997
sg33
S'yellow'
p1246
sba(icurlovision
Stone
p1247
(dp1248
g30
F10.665
sg31
F0.525
sg32
F0.44999999999999996
sg33
S'red'
p1249
sba(icurlovision
Stone
p1250
(dp1251
g30
F4.125
sg31
F-0.315
sg32
F0.3
sg33
S'red'
p1252
sba(icurlovision
Stone
p1253
(dp1254
g30
F0.015
sg31
F-0.255
sg32
F0.435
sg33
S'yellow'
p1255
sbasba(icurlovision
StoneLayout
p1256
(dp1257
g25
F0.4791666666666667
sg26
(lp1258
(icurlovision
Stone
p1259
(dp1260
g30
F-1.847560975609756
sg31
F-4.591463414634146
sg32
F0.3292682926829268
sg33
S'yellow'
p1261
sba(icurlovision
Stone
p1262
(dp1263
g30
F13.73780487804878
sg31
F-0.7134146341463414
sg32
F0.42073170731707316
sg33
S'red'
p1264
sba(icurlovision
Stone
p1265
(dp1266
g30
F3.201219512195122
sg31
F1.0060975609756098
sg32
F0.40243902439024387
sg33
S'yellow'
p1267
sba(icurlovision
Stone
p1268
(dp1269
g30
F1.5914634146341462
sg31
F0.0548780487804878
sg32
F0.25609756097560976
sg33
S'red'
p1270
sba(icurlovision
Stone
p1271
(dp1272
g30
F4.079268292682927
sg31
F-0.31097560975609756
sg32
F0.45731707317073167
sg33
S'red'
p1273
sbasba(icurlovision
StoneLayout
p1274
(dp1275
g25
F0.4791666666666667
sg26
(lp1276
(icurlovision
Stone
p1277
(dp1278
g30
F-1.894736842105263
sg31
F-4.7368421052631575
sg32
F0.35526315789473684
sg33
S'yellow'
p1279
sba(icurlovision
Stone
p1280
(dp1281
g30
F2.644736842105263
sg31
F-1.8552631578947367
sg32
F0.4539473684210526
sg33
S'red'
p1282
sba(icurlovision
Stone
p1283
(dp1284
g30
F14.210526315789473
sg31
F-0.75
sg32
F0.43421052631578944
sg33
S'red'
p1285
sba(icurlovision
Stone
p1286
(dp1287
g30
F2.0921052631578947
sg31
F4.223684210526316
sg32
F0.29605263157894735
sg33
S'yellow'
p1288
sba(icurlovision
Stone
p1289
(dp1290
g30
F1.6184210526315788
sg31
F0.039473684210526314
sg32
F0.47368421052631576
sg33
S'red'
p1291
sbasba(icurlovision
StoneLayout
p1292
(dp1293
g25
F0.4791666666666667
sg26
(lp1294
(icurlovision
Stone
p1295
(dp1296
g30
F1.9709302325581395
sg31
F4.1686046511627906
sg32
F0.2965116279069767
sg33
S'yellow'
p1297
sba(icurlovision
Stone
p1298
(dp1299
g30
F13.761627906976743
sg31
F-0.6802325581395349
sg32
F0.41860465116279066
sg33
S'red'
p1300
sba(icurlovision
Stone
p1301
(dp1302
g30
F-1.8662790697674418
sg31
F-4.5523255813953485
sg32
F0.3313953488372093
sg33
S'yellow'
p1303
sba(icurlovision
Stone
p1304
(dp1305
g30
F2.5290697674418605
sg31
F-1.7616279069767442
sg32
F0.436046511627907
sg33
S'red'
p1306
sba(icurlovision
Stone
p1307
(dp1308
g30
F3.2267441860465116
sg31
F-0.0872093023255814
sg32
F0.436046511627907
sg33
S'red'
p1309
sbasba(icurlovision
StoneLayout
p1310
(dp1311
g25
F0.4791666666666667
sg26
(lp1312
(icurlovision
Stone
p1313
(dp1314
g30
F-1.8928571428571428
sg31
F-4.607142857142857
sg32
F0.30357142857142855
sg33
S'yellow'
p1315
sba(icurlovision
Stone
p1316
(dp1317
g30
F3.464285714285714
sg31
F-1.7142857142857142
sg32
F0.3214285714285714
sg33
S'yellow'
p1318
sba(icurlovision
Stone
p1319
(dp1320
g30
F13.821428571428571
sg31
F-0.7142857142857142
sg32
F0.42857142857142855
sg33
S'red'
p1321
sba(icurlovision
Stone
p1322
(dp1323
g30
F2.0357142857142856
sg31
F4.142857142857142
sg32
F0.4464285714285714
sg33
S'yellow'
p1324
sba(icurlovision
Stone
p1325
(dp1326
g30
F3.25
sg31
F-0.10714285714285714
sg32
F0.4464285714285714
sg33
S'red'
p1327
sbasba(icurlovision
StoneLayout
p1328
(dp1329
g25
F0.4791666666666667
sg26
(lp1330
(icurlovision
Stone
p1331
(dp1332
g30
F3.4821428571428568
sg31
F-1.732142857142857
sg32
F0.33928571428571425
sg33
S'yellow'
p1333
sba(icurlovision
Stone
p1334
(dp1335
g30
F2.0535714285714284
sg31
F4.196428571428571
sg32
F0.26785714285714285
sg33
S'yellow'
p1336
sba(icurlovision
Stone
p1337
(dp1338
g30
F-1.875
sg31
F-4.660714285714286
sg32
F0.33928571428571425
sg33
S'yellow'
p1339
sba(icurlovision
Stone
p1340
(dp1341
g30
F13.946428571428571
sg31
F-0.7321428571428571
sg32
F0.42857142857142855
sg33
S'red'
p1342
sba(icurlovision
Stone
p1343
(dp1344
g30
F-1.982142857142857
sg31
F-0.4821428571428571
sg32
F0.33928571428571425
sg33
S'red'
p1345
sba(icurlovision
Stone
p1346
(dp1347
g30
F4.196428571428571
sg31
F-0.08928571428571427
sg32
F0.4464285714285714
sg33
S'red'
p1348
sbasbasg158
I5
sg159
I0
sba(icurlovision
EndResult
p1349
(dp1350
g2
I6
sg9
(lp1351
(I7
I7
tp1352
a(I6
I6
tp1353
a(I5
I6
tp1354
a(I4
I5
tp1355
a(I4
I4
tp1356
a(I2
I2
tp1357
a(I1
I2
tp1358
a(I1
I1
tp1359
a(I0
I1
tp1360
asg20
I9
sg21
(lp1361
(icurlovision
StoneLayout
p1362
(dp1363
g25
F0.4791666666666667
sg26
(lp1364
(icurlovision
Stone
p1365
(dp1366
g30
F12.365853658536585
sg31
F-0.14634146341463414
sg32
F0.42073170731707316
sg33
S'red'
p1367
sba(icurlovision
Stone
p1368
(dp1369
g30
F-3.219512195121951
sg31
F3.2560975609756095
sg32
F0.4390243902439024
sg33
S'yellow'
p1370
sbasba(icurlovision
StoneLayout
p1371
(dp1372
g25
F0.4791666666666667
sg26
(lp1373
(icurlovision
Stone
p1374
(dp1375
g30
F-4.35
sg31
F3.675
sg32
F0.33749999999999997
sg33
S'yellow'
p1376
sba(icurlovision
Stone
p1377
(dp1378
g30
F8.549999999999999
sg31
F-1.2375
sg32
F0.43124999999999997
sg33
S'red'
p1379
sba(icurlovision
Stone
p1380
(dp1381
g30
F12.525
sg31
F-0.15
sg32
F0.43124999999999997
sg33
S'red'
p1382
sba(icurlovision
Stone
p1383
(dp1384
g30
F2.1374999999999997
sg31
F-0.075
sg32
F0.28125
sg33
S'yellow'
p1385
sbasba(icurlovision
StoneLayout
p1386
(dp1387
g25
F0.4791666666666667
sg26
(lp1388
(icurlovision
Stone
p1389
(dp1390
g30
F-4.538461538461538
sg31
F3.807692307692308
sg32
F0.34615384615384615
sg33
S'yellow'
p1391
sba(icurlovision
Stone
p1392
(dp1393
g30
F2.769230769230769
sg31
F-0.8846153846153847
sg32
F0.46153846153846156
sg33
S'red'
p1394
sba(icurlovision
Stone
p1395
(dp1396
g30
F1.3461538461538463
sg31
F0.07692307692307693
sg32
F0.46153846153846156
sg33
S'yellow'
p1397
sba(icurlovision
Stone
p1398
(dp1399
g30
F13.038461538461538
sg31
F-0.15384615384615385
sg32
F0.46153846153846156
sg33
S'red'
p1400
sba(icurlovision
Stone
p1401
(dp1402
g30
F8.884615384615385
sg31
F-1.3076923076923077
sg32
F0.44230769230769235
sg33
S'red'
p1403
sbasba(icurlovision
StoneLayout
p1404
(dp1405
g25
F0.4791666666666667
sg26
(lp1406
(icurlovision
Stone
p1407
(dp1408
g30
F-4.420212765957446
sg31
F3.686170212765957
sg32
F0.33510638297872336
sg33
S'yellow'
p1409
sba(icurlovision
Stone
p1410
(dp1411
g30
F-2.0904255319148937
sg31
F5.888297872340425
sg32
F0.4627659574468085
sg33
S'red'
p1412
sba(icurlovision
Stone
p1413
(dp1414
g30
F2.6968085106382977
sg31
F-0.8776595744680851
sg32
F0.4627659574468085
sg33
S'red'
p1415
sba(icurlovision
Stone
p1416
(dp1417
g30
F8.696808510638297
sg31
F-1.2925531914893615
sg32
F0.44680851063829785
sg33
S'red'
p1418
sba(icurlovision
Stone
p1419
(dp1420
g30
F-3.430851063829787
sg31
F2.345744680851064
sg32
F0.28723404255319146
sg33
S'yellow'
p1421
sbasba(icurlovision
StoneLayout
p1422
(dp1423
g25
F0.4791666666666667
sg26
(lp1424
(icurlovision
Stone
p1425
(dp1426
g30
F1.546875
sg31
F1.90625
sg32
F0.46875
sg33
S'yellow'
p1427
sba(icurlovision
Stone
p1428
(dp1429
g30
F-4.734375
sg31
F-4.96875
sg32
F0.484375
sg33
S'red'
p1430
sba(icurlovision
Stone
p1431
(dp1432
g30
F-4.484375
sg31
F3.75
sg32
F0.453125
sg33
S'yellow'
p1433
sba(icurlovision
Stone
p1434
(dp1435
g30
F8.828125
sg31
F-1.28125
sg32
F0.46875
sg33
S'red'
p1436
sba(icurlovision
Stone
p1437
(dp1438
g30
F-2.140625
sg31
F6.0
sg32
F0.46875
sg33
S'red'
p1439
sba(icurlovision
Stone
p1440
(dp1441
g30
F8.203125
sg31
F-5.21875
sg32
F0.28125
sg33
S'yellow'
p1442
sbasba(icurlovision
StoneLayout
p1443
(dp1444
g25
F0.4791666666666667
sg26
(lp1445
(icurlovision
Stone
p1446
(dp1447
g30
F-5.936170212765957
sg31
F-4.404255319148936
sg32
F0.49468085106382975
sg33
S'yellow'
p1448
sba(icurlovision
Stone
p1449
(dp1450
g30
F-4.787234042553191
sg31
F-5.042553191489361
sg32
F0.49468085106382975
sg33
S'red'
p1451
sba(icurlovision
Stone
p1452
(dp1453
g30
F8.904255319148936
sg31
F-1.3085106382978722
sg32
F0.4627659574468085
sg33
S'red'
p1454
sba(icurlovision
Stone
p1455
(dp1456
g30
F-2.202127659574468
sg31
F6.063829787234042
sg32
F0.351063829787234
sg33
S'red'
p1457
sba(icurlovision
Stone
p1458
(dp1459
g30
F-4.5638297872340425
sg31
F2.6170212765957444
sg32
F0.351063829787234
sg33
S'yellow'
p1460
sba(icurlovision
Stone
p1461
(dp1462
g30
F-2.4893617021276593
sg31
F-5.553191489361701
sg32
F0.3191489361702127
sg33
S'red'
p1463
sba(icurlovision
Stone
p1464
(dp1465
g30
F-0.4148936170212766
sg31
F-0.4787234042553191
sg32
F0.33510638297872336
sg33
S'red'
p1466
sba(icurlovision
Stone
p1467
(dp1468
g30
F0.06382978723404255
sg31
F0.5425531914893617
sg32
F0.4627659574468085
sg33
S'yellow'
p1469
sba(icurlovision
Stone
p1470
(dp1471
g30
F8.425531914893616
sg31
F-6.8936170212765955
sg32
F0.28723404255319146
sg33
S'yellow'
p1472
sbasba(icurlovision
StoneLayout
p1473
(dp1474
g25
F0.4791666666666667
sg26
(lp1475
(icurlovision
Stone
p1476
(dp1477
g30
F-2.122340425531915
sg31
F5.952127659574468
sg32
F0.4627659574468085
sg33
S'red'
p1478
sba(icurlovision
Stone
p1479
(dp1480
g30
F-5.824468085106383
sg31
F-4.356382978723404
sg32
F0.3829787234042553
sg33
S'yellow'
p1481
sba(icurlovision
Stone
p1482
(dp1483
g30
F-4.707446808510638
sg31
F-4.962765957446808
sg32
F0.351063829787234
sg33
S'red'
p1484
sba(icurlovision
Stone
p1485
(dp1486
g30
F0.11170212765957446
sg31
F-1.8989361702127658
sg32
F0.44680851063829785
sg33
S'red'
p1487
sba(icurlovision
Stone
p1488
(dp1489
g30
F8.792553191489361
sg31
F-1.2925531914893615
sg32
F0.44680851063829785
sg33
S'red'
p1490
sba(icurlovision
Stone
p1491
(dp1492
g30
F-2.4095744680851063
sg31
F-5.473404255319148
sg32
F0.351063829787234
sg33
S'red'
p1493
sba(icurlovision
Stone
p1494
(dp1495
g30
F-0.39893617021276595
sg31
F-0.49468085106382975
sg32
F0.3191489361702127
sg33
S'red'
p1496
sba(icurlovision
Stone
p1497
(dp1498
g30
F-5.409574468085106
sg31
F4.164893617021276
sg32
F0.4787234042553191
sg33
S'yellow'
p1499
sba(icurlovision
Stone
p1500
(dp1501
g30
F8.569148936170212
sg31
F-6.909574468085106
sg32
F0.28723404255319146
sg33
S'yellow'
p1502
sbasba(icurlovision
StoneLayout
p1503
(dp1504
g25
F0.4791666666666667
sg26
(lp1505
(icurlovision
Stone
p1506
(dp1507
g30
F-2.0
sg31
F5.647058823529411
sg32
F0.4411764705882353
sg33
S'red'
p1508
sba(icurlovision
Stone
p1509
(dp1510
g30
F-5.5
sg31
F-4.117647058823529
sg32
F0.47058823529411764
sg33
S'yellow'
p1511
sba(icurlovision
Stone
p1512
(dp1513
g30
F0.3529411764705882
sg31
F-0.9117647058823529
sg32
F0.4411764705882353
sg33
S'yellow'
p1514
sba(icurlovision
Stone
p1515
(dp1516
g30
F0.058823529411764705
sg31
F-1.8529411764705883
sg32
F0.3235294117647059
sg33
S'red'
p1517
sba(icurlovision
Stone
p1518
(dp1519
g30
F-4.4411764705882355
sg31
F-4.705882352941177
sg32
F0.45588235294117646
sg33
S'red'
p1520
sba(icurlovision
Stone
p1521
(dp1522
g30
F8.411764705882353
sg31
F-1.2352941176470589
sg32
F0.3088235294117647
sg33
S'red'
p1523
sba(icurlovision
Stone
p1524
(dp1525
g30
F-2.264705882352941
sg31
F-5.147058823529412
sg32
F0.3382352941176471
sg33
S'red'
p1526
sba(icurlovision
Stone
p1527
(dp1528
g30
F-0.4411764705882353
sg31
F-0.4117647058823529
sg32
F0.3235294117647059
sg33
S'red'
p1529
sba(icurlovision
Stone
p1530
(dp1531
g30
F-5.147058823529412
sg31
F3.9705882352941178
sg32
F0.45588235294117646
sg33
S'yellow'
p1532
sbasba(icurlovision
StoneLayout
p1533
(dp1534
g25
F0.4791666666666667
sg26
(lp1535
(icurlovision
Stone
p1536
(dp1537
g30
F-4.671875
sg31
F-4.921875
sg32
F0.484375
sg33
S'red'
p1538
sba(icurlovision
Stone
p1539
(dp1540
g30
F-5.421875
sg31
F4.171875
sg32
F0.46875
sg33
S'yellow'
p1541
sba(icurlovision
Stone
p1542
(dp1543
g30
F-5.765625
sg31
F-4.296875
sg32
F0.46875
sg33
S'yellow'
p1544
sba(icurlovision
Stone
p1545
(dp1546
g30
F-2.140625
sg31
F5.984375
sg32
F0.453125
sg33
S'red'
p1547
sba(icurlovision
Stone
p1548
(dp1549
g30
F6.765625
sg31
F0.421875
sg32
F0.46875
sg33
S'red'
p1550
sba(icurlovision
Stone
p1551
(dp1552
g30
F0.359375
sg31
F-0.953125
sg32
F0.34375
sg33
S'yellow'
p1553
sba(icurlovision
Stone
p1554
(dp1555
g30
F8.796875
sg31
F-1.265625
sg32
F0.453125
sg33
S'red'
p1556
sba(icurlovision
Stone
p1557
(dp1558
g30
F-2.390625
sg31
F-5.421875
sg32
F0.359375
sg33
S'red'
p1559
sba(icurlovision
Stone
p1560
(dp1561
g30
F-0.515625
sg31
F-0.421875
sg32
F0.34375
sg33
S'red'
p1562
sba(icurlovision
Stone
p1563
(dp1564
g30
F0.078125
sg31
F-1.921875
sg32
F0.34375
sg33
S'red'
p1565
sbasbasg158
I5
sg159
I0
sba(icurlovision
EndResult
p1566
(dp1567
g2
I6
sg9
(lp1568
(I8
I7
tp1569
a(I6
I6
tp1570
a(I5
I4
tp1571
a(I4
I3
tp1572
a(I3
I2
tp1573
a(I2
I2
tp1574
a(I1
I1
tp1575
asg20
I10
sg21
(lp1576
(icurlovision
StoneLayout
p1577
(dp1578
g25
F0.4791666666666667
sg26
(lp1579
(icurlovision
Stone
p1580
(dp1581
g30
F9.699152542372882
sg31
F0.2923728813559322
sg32
F0.4322033898305085
sg33
S'yellow'
p1582
sbasba(icurlovision
StoneLayout
p1583
(dp1584
g25
F0.4791666666666667
sg26
(lp1585
(icurlovision
Stone
p1586
(dp1587
g30
F9.102941176470589
sg31
F3.4558823529411766
sg32
F0.47058823529411764
sg33
S'red'
p1588
sba(icurlovision
Stone
p1589
(dp1590
g30
F3.2205882352941178
sg31
F-3.5441176470588234
sg32
F0.3235294117647059
sg33
S'red'
p1591
sba(icurlovision
Stone
p1592
(dp1593
g30
F-0.7205882352941176
sg31
F0.3676470588235294
sg32
F0.3529411764705882
sg33
S'yellow'
p1594
sba(icurlovision
Stone
p1595
(dp1596
g30
F10.308823529411764
sg31
F0.5147058823529411
sg32
F0.47058823529411764
sg33
S'yellow'
p1597
sbasba(icurlovision
StoneLayout
p1598
(dp1599
g25
F0.4791666666666667
sg26
(lp1600
(icurlovision
Stone
p1601
(dp1602
g30
F10.058823529411764
sg31
F0.5294117647058824
sg32
F0.45588235294117646
sg33
S'yellow'
p1603
sba(icurlovision
Stone
p1604
(dp1605
g30
F8.882352941176471
sg31
F3.3823529411764706
sg32
F0.4411764705882353
sg33
S'red'
p1606
sba(icurlovision
Stone
p1607
(dp1608
g30
F0.23529411764705882
sg31
F0.4117647058823529
sg32
F0.47058823529411764
sg33
S'red'
p1609
sba(icurlovision
Stone
p1610
(dp1611
g30
F3.235294117647059
sg31
F2.6470588235294117
sg32
F0.5
sg33
S'yellow'
p1612
sba(icurlovision
Stone
p1613
(dp1614
g30
F3.7058823529411766
sg31
F-0.29411764705882354
sg32
F0.39705882352941174
sg33
S'yellow'
p1615
sba(icurlovision
Stone
p1616
(dp1617
g30
F-2.764705882352941
sg31
F0.058823529411764705
sg32
F0.3235294117647059
sg33
S'yellow'
p1618
sbasba(icurlovision
StoneLayout
p1619
(dp1620
g25
F0.4791666666666667
sg26
(lp1621
(icurlovision
Stone
p1622
(dp1623
g30
F-2.6105769230769234
sg31
F0.014423076923076924
sg32
F0.44711538461538464
sg33
S'yellow'
p1624
sba(icurlovision
Stone
p1625
(dp1626
g30
F1.7740384615384617
sg31
F0.04326923076923077
sg32
F0.44711538461538464
sg33
S'yellow'
p1627
sba(icurlovision
Stone
p1628
(dp1629
g30
F8.552884615384615
sg31
F3.1875
sg32
F0.4326923076923077
sg33
S'red'
p1630
sba(icurlovision
Stone
p1631
(dp1632
g30
F0.12980769230769232
sg31
F1.7740384615384617
sg32
F0.34615384615384615
sg33
S'red'
p1633
sba(icurlovision
Stone
p1634
(dp1635
g30
F9.677884615384617
sg31
F0.44711538461538464
sg32
F0.44711538461538464
sg33
S'yellow'
p1636
sba(icurlovision
Stone
p1637
(dp1638
g30
F-0.2451923076923077
sg31
F0.15865384615384617
sg32
F0.44711538461538464
sg33
S'red'
p1639
sba(icurlovision
Stone
p1640
(dp1641
g30
F4.197115384615385
sg31
F-0.9951923076923077
sg32
F0.46153846153846156
sg33
S'yellow'
p1642
sbasba(icurlovision
StoneLayout
p1643
(dp1644
g25
F0.4791666666666667
sg26
(lp1645
(icurlovision
Stone
p1646
(dp1647
g30
F-2.6739130434782608
sg31
F0.03260869565217391
sg32
F0.34239130434782605
sg33
S'yellow'
p1648
sba(icurlovision
Stone
p1649
(dp1650
g30
F0.32608695652173914
sg31
F0.9130434782608695
sg32
F0.45652173913043476
sg33
S'yellow'
p1651
sba(icurlovision
Stone
p1652
(dp1653
g30
F7.956521739130435
sg31
F3.684782608695652
sg32
F0.45652173913043476
sg33
S'red'
p1654
sba(icurlovision
Stone
p1655
(dp1656
g30
F9.945652173913043
sg31
F0.5217391304347826
sg32
F0.44021739130434784
sg33
S'yellow'
p1657
sba(icurlovision
Stone
p1658
(dp1659
g30
F1.826086956521739
sg31
F0.03260869565217391
sg32
F0.32608695652173914
sg33
S'yellow'
p1660
sba(icurlovision
Stone
p1661
(dp1662
g30
F0.13043478260869565
sg31
F1.858695652173913
sg32
F0.45652173913043476
sg33
S'red'
p1663
sba(icurlovision
Stone
p1664
(dp1665
g30
F7.173913043478261
sg31
F1.0108695652173914
sg32
F0.32608695652173914
sg33
S'red'
p1666
sba(icurlovision
Stone
p1667
(dp1668
g30
F4.304347826086956
sg31
F-1.0434782608695652
sg32
F0.45652173913043476
sg33
S'yellow'
p1669
sba(icurlovision
Stone
p1670
(dp1671
g30
F-0.32608695652173914
sg31
F0.09782608695652173
sg32
F0.45652173913043476
sg33
S'red'
p1672
sbasba(icurlovision
StoneLayout
p1673
(dp1674
g25
F0.4791666666666667
sg26
(lp1675
(icurlovision
Stone
p1676
(dp1677
g30
F-2.671875
sg31
F0.046875
sg32
F0.34375
sg33
S'yellow'
p1678
sba(icurlovision
Stone
p1679
(dp1680
g30
F9.765625
sg31
F0.515625
sg32
F0.4375
sg33
S'yellow'
p1681
sba(icurlovision
Stone
p1682
(dp1683
g30
F7.796875
sg31
F3.609375
sg32
F0.296875
sg33
S'red'
p1684
sba(icurlovision
Stone
p1685
(dp1686
g30
F0.296875
sg31
F0.921875
sg32
F0.453125
sg33
S'yellow'
p1687
sba(icurlovision
Stone
p1688
(dp1689
g30
F0.078125
sg31
F1.890625
sg32
F0.3125
sg33
S'red'
p1690
sba(icurlovision
Stone
p1691
(dp1692
g30
F7.046875
sg31
F1.015625
sg32
F0.34375
sg33
S'red'
p1693
sba(icurlovision
Stone
p1694
(dp1695
g30
F1.734375
sg31
F0.078125
sg32
F0.46875
sg33
S'yellow'
p1696
sba(icurlovision
Stone
p1697
(dp1698
g30
F-0.359375
sg31
F0.078125
sg32
F0.34375
sg33
S'red'
p1699
sba(icurlovision
Stone
p1700
(dp1701
g30
F5.109375
sg31
F-1.046875
sg32
F0.4375
sg33
S'red'
p1702
sba(icurlovision
Stone
p1703
(dp1704
g30
F-0.171875
sg31
F4.078125
sg32
F0.4375
sg33
S'yellow'
p1705
sbasba(icurlovision
StoneLayout
p1706
(dp1707
g25
F0.4791666666666667
sg26
(lp1708
(icurlovision
Stone
p1709
(dp1710
g30
F8.033653846153847
sg31
F3.75
sg32
F0.46153846153846156
sg33
S'red'
p1711
sba(icurlovision
Stone
p1712
(dp1713
g30
F-2.7548076923076925
sg31
F0.057692307692307696
sg32
F0.46153846153846156
sg33
S'yellow'
p1714
sba(icurlovision
Stone
p1715
(dp1716
g30
F7.110576923076923
sg31
F0.9230769230769231
sg32
F0.46153846153846156
sg33
S'red'
p1717
sba(icurlovision
Stone
p1718
(dp1719
g30
F0.10096153846153846
sg31
F1.903846153846154
sg32
F0.46153846153846156
sg33
S'red'
p1720
sba(icurlovision
Stone
p1721
(dp1722
g30
F10.08173076923077
sg31
F0.5480769230769231
sg32
F0.46153846153846156
sg33
S'yellow'
p1723
sba(icurlovision
Stone
p1724
(dp1725
g30
F7.8894230769230775
sg31
F1.6730769230769231
sg32
F0.34615384615384615
sg33
S'yellow'
p1726
sba(icurlovision
Stone
p1727
(dp1728
g30
F1.8317307692307694
sg31
F0.08653846153846154
sg32
F0.31730769230769235
sg33
S'yellow'
p1729
sba(icurlovision
Stone
p1730
(dp1731
g30
F4.947115384615385
sg31
F-2.2211538461538463
sg32
F0.46153846153846156
sg33
S'red'
p1732
sba(icurlovision
Stone
p1733
(dp1734
g30
F0.3028846153846154
sg31
F0.9807692307692308
sg32
F0.3317307692307693
sg33
S'yellow'
p1735
sba(icurlovision
Stone
p1736
(dp1737
g30
F5.033653846153847
sg31
F-0.8653846153846154
sg32
F0.46153846153846156
sg33
S'red'
p1738
sba(icurlovision
Stone
p1739
(dp1740
g30
F-0.3894230769230769
sg31
F0.14423076923076925
sg32
F0.3605769230769231
sg33
S'red'
p1741
sbasbasg158
I6
sg159
I1
sba(icurlovision
EndResult
p1742
(dp1743
g2
I6
sg9
(lp1744
(I7
I8
tp1745
a(I6
I7
tp1746
a(I6
I6
tp1747
a(I3
I4
tp1748
a(I2
I3
tp1749
a(I2
I2
tp1750
a(I1
I1
tp1751
a(I0
I1
tp1752
asg20
I11
sg21
(lp1753
(icurlovision
StoneLayout
p1754
(dp1755
g25
F0.4791666666666667
sg26
(lp1756
(icurlovision
Stone
p1757
(dp1758
g30
F9.375
sg31
F0.7232142857142857
sg32
F0.4419642857142857
sg33
S'red'
p1759
sbasba(icurlovision
StoneLayout
p1760
(dp1761
g25
F0.4791666666666667
sg26
(lp1762
(icurlovision
Stone
p1763
(dp1764
g30
F6.7317073170731705
sg31
F3.7317073170731705
sg32
F0.4390243902439024
sg33
S'red'
p1765
sba(icurlovision
Stone
p1766
(dp1767
g30
F13.573170731707316
sg31
F0.25609756097560976
sg32
F0.274390243902439
sg33
S'red'
p1768
sba(icurlovision
Stone
p1769
(dp1770
g30
F-3.951219512195122
sg31
F-5.012195121951219
sg32
F0.4390243902439024
sg33
S'yellow'
p1771
sbasba(icurlovision
StoneLayout
p1772
(dp1773
g25
F0.4791666666666667
sg26
(lp1774
(icurlovision
Stone
p1775
(dp1776
g30
F6.478723404255319
sg31
F3.606382978723404
sg32
F0.44680851063829785
sg33
S'red'
p1777
sba(icurlovision
Stone
p1778
(dp1779
g30
F12.989361702127658
sg31
F0.22340425531914893
sg32
F0.4148936170212766
sg33
S'red'
p1780
sba(icurlovision
Stone
p1781
(dp1782
g30
F8.553191489361701
sg31
F-1.5638297872340425
sg32
F0.4308510638297872
sg33
S'yellow'
p1783
sbasba(icurlovision
StoneLayout
p1784
(dp1785
g25
F0.4791666666666667
sg26
(lp1786
(icurlovision
Stone
p1787
(dp1788
g30
F8.482142857142856
sg31
F5.053571428571428
sg32
F0.4464285714285714
sg33
S'yellow'
p1789
sba(icurlovision
Stone
p1790
(dp1791
g30
F-4.017857142857142
sg31
F-5.089285714285714
sg32
F0.4821428571428571
sg33
S'yellow'
p1792
sba(icurlovision
Stone
p1793
(dp1794
g30
F11.767857142857142
sg31
F-0.017857142857142856
sg32
F0.4464285714285714
sg33
S'red'
p1795
sba(icurlovision
Stone
p1796
(dp1797
g30
F5.089285714285714
sg31
F-0.05357142857142857
sg32
F0.4821428571428571
sg33
S'red'
p1798
sba(icurlovision
Stone
p1799
(dp1800
g30
F3.446428571428571
sg31
F-0.875
sg32
F0.3571428571428571
sg33
S'red'
p1801
sbasba(icurlovision
StoneLayout
p1802
(dp1803
g25
F0.4791666666666667
sg26
(lp1804
(icurlovision
Stone
p1805
(dp1806
g30
F8.04
sg31
F4.74
sg32
F0.42
sg33
S'yellow'
p1807
sba(icurlovision
Stone
p1808
(dp1809
g30
F3.3
sg31
F-0.84
sg32
F0.315
sg33
S'red'
p1810
sba(icurlovision
Stone
p1811
(dp1812
g30
F12.75
sg31
F-0.27
sg32
F0.42
sg33
S'red'
p1813
sba(icurlovision
Stone
p1814
(dp1815
g30
F4.859999999999999
sg31
F0.03
sg32
F0.285
sg33
S'red'
p1816
sbasba(icurlovision
StoneLayout
p1817
(dp1818
g25
F0.4791666666666667
sg26
(lp1819
(icurlovision
Stone
p1820
(dp1821
g30
F8.375
sg31
F5.050000000000001
sg32
F0.325
sg33
S'yellow'
p1822
sba(icurlovision
Stone
p1823
(dp1824
g30
F3.375
sg31
F-0.875
sg32
F0.45
sg33
S'red'
p1825
sba(icurlovision
Stone
p1826
(dp1827
g30
F4.9750000000000005
sg31
F-0.025
sg32
F0.4625
sg33
S'red'
p1828
sbasba(icurlovision
StoneLayout
p1829
(dp1830
g25
F0.4791666666666667
sg26
(lp1831
(icurlovision
Stone
p1832
(dp1833
g30
F8.130681818181818
sg31
F4.7727272727272725
sg32
F0.32386363636363635
sg33
S'yellow'
p1834
sba(icurlovision
Stone
p1835
(dp1836
g30
F3.3238636363636362
sg31
F-0.8863636363636362
sg32
F0.4431818181818181
sg33
S'red'
p1837
sba(icurlovision
Stone
p1838
(dp1839
g30
F14.710227272727272
sg31
F0.0
sg32
F0.40909090909090906
sg33
S'red'
p1840
sba(icurlovision
Stone
p1841
(dp1842
g30
F4.926136363636363
sg31
F-0.03409090909090909
sg32
F0.3409090909090909
sg33
S'red'
p1843
sba(icurlovision
Stone
p1844
(dp1845
g30
F6.119318181818182
sg31
F0.20454545454545453
sg32
F0.40909090909090906
sg33
S'yellow'
p1846
sbasba(icurlovision
StoneLayout
p1847
(dp1848
g25
F0.4791666666666667
sg26
(lp1849
(icurlovision
Stone
p1850
(dp1851
g30
F8.351351351351353
sg31
F4.9459459459459465
sg32
F0.4256756756756757
sg33
S'yellow'
p1852
sba(icurlovision
Stone
p1853
(dp1854
g30
F3.4054054054054057
sg31
F-0.8918918918918919
sg32
F0.46621621621621623
sg33
S'red'
p1855
sba(icurlovision
Stone
p1856
(dp1857
g30
F-2.7162162162162162
sg31
F0.20270270270270271
sg32
F0.24324324324324326
sg33
S'red'
p1858
sba(icurlovision
Stone
p1859
(dp1860
g30
F15.202702702702704
sg31
F0.08108108108108109
sg32
F0.4256756756756757
sg33
S'red'
p1861
sba(icurlovision
Stone
p1862
(dp1863
g30
F6.324324324324325
sg31
F0.28378378378378377
sg32
F0.32432432432432434
sg33
S'yellow'
p1864
sba(icurlovision
Stone
p1865
(dp1866
g30
F5.0675675675675675
sg31
F-0.04054054054054054
sg32
F0.3445945945945946
sg33
S'red'
p1867
sbasbasg158
I6
sg159
I0
sbasS'version'
p1868
I20180812
sg158
I6
sS'metadata'
p1869
(icurlovision
MatchMetadata
p1870
(dp1871
S'team_name_red'
p1872
S'Unknown'
p1873
sS'event_name'
p1874
g1873
sS'gender'
p1875
g1873
sS'other_info'
p1876
g1873
sS'team_name_yel'
p1877
g1873
sS'date'
p1878
g1873
sbsb.