(icurlovision
MatchResult
p0
(dp1
S'yel_score'
p2
I6
sS'name'
p3
S"VideoLibrary/PyeongChang.Olympics.2018.curling.women's.round-robin.Great.Britain.v.Sweden.1080p.NBC.WEB-DL-FINFUNGUS.mp4"
p4
sS'end_results'
p5
(lp6
(icurlovision
EndResult
p7
(dp8
g2
I0
sS'stones_left'
p9
(lp10
(I7
I8
tp11
a(I6
I7
tp12
a(I6
I6
tp13
a(I5
I6
tp14
a(I5
I5
tp15
a(I4
I5
tp16
a(I2
I3
tp17
a(I2
I2
tp18
a(I1
I2
tp19
a(I1
I1
tp20
a(I0
I1
tp21
asS'end_num'
p22
I1
sS'stone_layouts'
p23
(lp24
(icurlovision
StoneLayout
p25
(dp26
S'stone_radius'
p27
F0.4791666666666667
sS'stones'
p28
(lp29
(icurlovision
Stone
p30
(dp31
S'y'
p32
F1.475
sS'x'
p33
F0.325
sS'r'
p34
F0.45
sS'color'
p35
S'red'
p36
sbasba(icurlovision
StoneLayout
p37
(dp38
g27
F0.4791666666666667
sg28
(lp39
(icurlovision
Stone
p40
(dp41
g32
F2.5
sg33
F0.18055555555555555
sg34
F0.4583333333333333
sg35
S'red'
p42
sbasba(icurlovision
StoneLayout
p43
(dp44
g27
F0.4791666666666667
sg28
(lp45
(icurlovision
Stone
p46
(dp47
g32
F-0.13306451612903225
sg33
F-4.512096774193548
sg34
F0.3387096774193548
sg35
S'yellow'
p48
sbasba(icurlovision
StoneLayout
p49
(dp50
g27
F0.4791666666666667
sg28
(lp51
(icurlovision
Stone
p52
(dp53
g32
F-0.6461538461538462
sg33
F-6.5538461538461545
sg34
F0.48461538461538467
sg35
S'red'
p54
sbasba(icurlovision
StoneLayout
p55
(dp56
g27
F0.4791666666666667
sg28
(lp57
(icurlovision
Stone
p58
(dp59
g32
F-0.5555555555555556
sg33
F-6.888888888888888
sg34
F0.4722222222222222
sg35
S'red'
p60
sba(icurlovision
Stone
p61
(dp62
g32
F2.4166666666666665
sg33
F-3.5
sg34
F0.3333333333333333
sg35
S'yellow'
p63
sbasba(icurlovision
StoneLayout
p64
(dp65
g27
F0.4791666666666667
sg28
(lp66
(icurlovision
Stone
p67
(dp68
g32
F2.372950819672131
sg33
F-1.5860655737704918
sg34
F0.4426229508196721
sg35
S'red'
p69
sba(icurlovision
Stone
p70
(dp71
g32
F-0.5286885245901639
sg33
F-6.848360655737705
sg34
F0.4672131147540983
sg35
S'red'
p72
sbasba(icurlovision
StoneLayout
p73
(dp74
g27
F0.4791666666666667
sg28
(lp75
(icurlovision
Stone
p76
(dp77
g32
F2.8728813559322037
sg33
F1.1440677966101696
sg34
F0.4703389830508475
sg35
S'red'
p78
sba(icurlovision
Stone
p79
(dp80
g32
F-0.5338983050847458
sg33
F-6.966101694915254
sg34
F0.48305084745762716
sg35
S'red'
p81
sbasba(icurlovision
StoneLayout
p82
(dp83
g27
F0.4791666666666667
sg28
(lp84
(icurlovision
Stone
p85
(dp86
g32
F-0.5375
sg33
F-6.9625
sg34
F0.47500000000000003
sg35
S'red'
p87
sba(icurlovision
Stone
p88
(dp89
g32
F3.8375000000000004
sg33
F1.0875000000000001
sg34
F0.35000000000000003
sg35
S'yellow'
p90
sbasba(icurlovision
StoneLayout
p91
(dp92
g27
F0.4791666666666667
sg28
(lp93
(icurlovision
Stone
p94
(dp95
g32
F-0.5142857142857142
sg33
F-6.578571428571428
sg34
F0.45
sg35
S'red'
p96
sba(icurlovision
Stone
p97
(dp98
g32
F4.178571428571429
sg33
F0.38571428571428573
sg34
F0.41785714285714287
sg35
S'red'
p99
sbasba(icurlovision
StoneLayout
p100
(dp101
g27
F0.4791666666666667
sg28
(lp102
(icurlovision
Stone
p103
(dp104
g32
F4.74609375
sg33
F1.74609375
sg34
F0.328125
sg35
S'yellow'
p105
sba(icurlovision
Stone
p106
(dp107
g32
F-0.52734375
sg33
F-6.78515625
sg34
F0.3515625
sg35
S'red'
p108
sbasba(icurlovision
StoneLayout
p109
(dp110
g27
F0.4791666666666667
sg28
(lp111
(icurlovision
Stone
p112
(dp113
g32
F-0.5375
sg33
F-6.7125
sg34
F0.3375
sg35
S'red'
p114
sba(icurlovision
Stone
p115
(dp116
g32
F5.5375000000000005
sg33
F1.7875
sg34
F0.42500000000000004
sg35
S'red'
p117
sba(icurlovision
Stone
p118
(dp119
g32
F0.8625
sg33
F1.8125
sg34
F0.45
sg35
S'yellow'
p120
sbasbasS'red_score'
p121
I0
sS'red_hammer'
p122
I0
sba(icurlovision
EndResult
p123
(dp124
g2
I2
sg9
(lp125
(I7
I8
tp126
a(I7
I7
tp127
a(I4
I4
tp128
a(I3
I4
tp129
a(I2
I3
tp130
a(I2
I2
tp131
a(I1
I2
tp132
a(I0
I1
tp133
asg22
I2
sg23
(lp134
(icurlovision
StoneLayout
p135
(dp136
g27
F0.4791666666666667
sg28
(lp137
(icurlovision
Stone
p138
(dp139
g32
F1.7056451612903225
sg33
F0.06048387096774194
sg34
F0.4596774193548387
sg35
S'red'
p140
sbasba(icurlovision
StoneLayout
p141
(dp142
g27
F0.4791666666666667
sg28
(lp143
(icurlovision
Stone
p144
(dp145
g32
F11.025
sg33
F3.525
sg34
F0.40499999999999997
sg35
S'yellow'
p146
sba(icurlovision
Stone
p147
(dp148
g32
F1.6949999999999998
sg33
F0.015
sg34
F0.44999999999999996
sg35
S'red'
p149
sbasba(icurlovision
StoneLayout
p150
(dp151
g27
F0.4791666666666667
sg28
(lp152
(icurlovision
Stone
p153
(dp154
g32
F8.708333333333332
sg33
F-0.25
sg34
F0.4375
sg35
S'red'
p155
sba(icurlovision
Stone
p156
(dp157
g32
F0.625
sg33
F3.208333333333333
sg34
F0.4583333333333333
sg35
S'yellow'
p158
sba(icurlovision
Stone
p159
(dp160
g32
F12.041666666666666
sg33
F3.208333333333333
sg34
F0.4375
sg35
S'yellow'
p161
sba(icurlovision
Stone
p162
(dp163
g32
F6.291666666666666
sg33
F5.708333333333333
sg34
F0.35416666666666663
sg35
S'yellow'
p164
sba(icurlovision
Stone
p165
(dp166
g32
F17.166666666666664
sg33
F-1.8333333333333333
sg34
F0.1875
sg35
S'red'
p167
sbasba(icurlovision
StoneLayout
p168
(dp169
g27
F0.4791666666666667
sg28
(lp170
(icurlovision
Stone
p171
(dp172
g32
F-2.458333333333333
sg33
F6.5
sg34
F0.4583333333333333
sg35
S'yellow'
p173
sba(icurlovision
Stone
p174
(dp175
g32
F6.291666666666666
sg33
F5.708333333333333
sg34
F0.35416666666666663
sg35
S'yellow'
p176
sba(icurlovision
Stone
p177
(dp178
g32
F12.041666666666666
sg33
F3.208333333333333
sg34
F0.4583333333333333
sg35
S'yellow'
p179
sba(icurlovision
Stone
p180
(dp181
g32
F8.75
sg33
F-0.25
sg34
F0.4375
sg35
S'red'
p182
sba(icurlovision
Stone
p183
(dp184
g32
F17.208333333333332
sg33
F-1.75
sg34
F0.2708333333333333
sg35
S'red'
p185
sbasba(icurlovision
StoneLayout
p186
(dp187
g27
F0.4791666666666667
sg28
(lp188
(icurlovision
Stone
p189
(dp190
g32
F-2.4833333333333334
sg33
F6.383333333333333
sg34
F0.3333333333333333
sg35
S'yellow'
p191
sba(icurlovision
Stone
p192
(dp193
g32
F6.15
sg33
F5.616666666666666
sg34
F0.45
sg35
S'yellow'
p194
sba(icurlovision
Stone
p195
(dp196
g32
F8.883333333333333
sg33
F1.05
sg34
F0.2833333333333333
sg35
S'red'
p197
sba(icurlovision
Stone
p198
(dp199
g32
F11.95
sg33
F3.216666666666667
sg34
F0.43333333333333335
sg35
S'yellow'
p200
sba(icurlovision
Stone
p201
(dp202
g32
F-2.0833333333333335
sg33
F-6.35
sg34
F0.45
sg35
S'yellow'
p203
sbasba(icurlovision
StoneLayout
p204
(dp205
g27
F0.4791666666666667
sg28
(lp206
(icurlovision
Stone
p207
(dp208
g32
F-2.5
sg33
F6.583333333333333
sg34
F0.47916666666666663
sg35
S'yellow'
p209
sba(icurlovision
Stone
p210
(dp211
g32
F12.125
sg33
F3.208333333333333
sg34
F0.20833333333333331
sg35
S'yellow'
p212
sba(icurlovision
Stone
p213
(dp214
g32
F-2.0416666666666665
sg33
F4.166666666666666
sg34
F0.4583333333333333
sg35
S'yellow'
p215
sba(icurlovision
Stone
p216
(dp217
g32
F17.333333333333332
sg33
F-1.7916666666666665
sg34
F0.4375
sg35
S'red'
p218
sbasba(icurlovision
StoneLayout
p219
(dp220
g27
F0.4791666666666667
sg28
(lp221
(icurlovision
Stone
p222
(dp223
g32
F-2.4527027027027026
sg33
F6.385135135135135
sg34
F0.46621621621621623
sg35
S'yellow'
p224
sba(icurlovision
Stone
p225
(dp226
g32
F-1.0337837837837838
sg33
F3.9932432432432434
sg34
F0.46621621621621623
sg35
S'red'
p227
sba(icurlovision
Stone
p228
(dp229
g32
F11.817567567567568
sg33
F3.1013513513513513
sg34
F0.40540540540540543
sg35
S'yellow'
p230
sba(icurlovision
Stone
p231
(dp232
g32
F16.925675675675677
sg33
F-1.8040540540540542
sg34
F0.24324324324324326
sg35
S'red'
p233
sbasba(icurlovision
StoneLayout
p234
(dp235
g27
F0.4791666666666667
sg28
(lp236
(icurlovision
Stone
p237
(dp238
g32
F-2.5
sg33
F6.416666666666666
sg34
F0.4583333333333333
sg35
S'yellow'
p239
sba(icurlovision
Stone
p240
(dp241
g32
F-6.291666666666666
sg33
F-5.041666666666666
sg34
F0.4583333333333333
sg35
S'red'
p242
sba(icurlovision
Stone
p243
(dp244
g32
F-0.16666666666666666
sg33
F3.75
sg34
F0.3333333333333333
sg35
S'yellow'
p245
sba(icurlovision
Stone
p246
(dp247
g32
F12.0
sg33
F3.25
sg34
F0.4375
sg35
S'yellow'
p248
sba(icurlovision
Stone
p249
(dp250
g32
F-1.0833333333333333
sg33
F4.083333333333333
sg34
F0.375
sg35
S'red'
p251
sba(icurlovision
Stone
p252
(dp253
g32
F-5.375
sg33
F3.583333333333333
sg34
F0.29166666666666663
sg35
S'red'
p254
sbasbasg121
I0
sg122
I0
sba(icurlovision
EndResult
p255
(dp256
g2
I3
sg9
(lp257
(I7
I7
tp258
a(I7
I6
tp259
a(I6
I6
tp260
a(I6
I5
tp261
a(I5
I5
tp262
a(I5
I4
tp263
a(I4
I4
tp264
a(I3
I3
tp265
a(I3
I2
tp266
a(I2
I2
tp267
a(I2
I1
tp268
a(I1
I1
tp269
a(I1
I0
tp270
asg22
I3
sg23
(lp271
(icurlovision
StoneLayout
p272
(dp273
g27
F0.4791666666666667
sg28
(lp274
(icurlovision
Stone
p275
(dp276
g32
F1.4549999999999998
sg33
F0.9149999999999999
sg34
F0.345
sg35
S'yellow'
p277
sba(icurlovision
Stone
p278
(dp279
g32
F11.205
sg33
F-2.475
sg34
F0.435
sg35
S'red'
p280
sbasba(icurlovision
StoneLayout
p281
(dp282
g27
F0.4791666666666667
sg28
(lp283
(icurlovision
Stone
p284
(dp285
g32
F1.41
sg33
F0.9299999999999999
sg34
F0.32999999999999996
sg35
S'yellow'
p286
sba(icurlovision
Stone
p287
(dp288
g32
F4.109999999999999
sg33
F0.3
sg34
F0.39
sg35
S'yellow'
p289
sba(icurlovision
Stone
p290
(dp291
g32
F10.95
sg33
F-2.4
sg34
F0.42
sg35
S'red'
p292
sbasba(icurlovision
StoneLayout
p293
(dp294
g27
F0.4791666666666667
sg28
(lp295
(icurlovision
Stone
p296
(dp297
g32
F1.8749999999999998
sg33
F-0.06818181818181818
sg34
F0.4602272727272727
sg35
S'yellow'
p298
sba(icurlovision
Stone
p299
(dp300
g32
F11.318181818181817
sg33
F-2.454545454545454
sg34
F0.28977272727272724
sg35
S'red'
p301
sba(icurlovision
Stone
p302
(dp303
g32
F5.011363636363636
sg33
F0.06818181818181818
sg34
F0.28977272727272724
sg35
S'red'
p304
sba(icurlovision
Stone
p305
(dp306
g32
F11.181818181818182
sg33
F-3.9886363636363633
sg34
F0.30681818181818177
sg35
S'yellow'
p307
sbasba(icurlovision
StoneLayout
p308
(dp309
g27
F0.4791666666666667
sg28
(lp310
(icurlovision
Stone
p311
(dp312
g32
F-4.21875
sg33
F5.4375
sg34
F0.3515625
sg35
S'yellow'
p313
sba(icurlovision
Stone
p314
(dp315
g32
F1.828125
sg33
F-0.0234375
sg34
F0.4453125
sg35
S'yellow'
p316
sba(icurlovision
Stone
p317
(dp318
g32
F4.96875
sg33
F0.0
sg34
F0.33984375
sg35
S'red'
p319
sbasba(icurlovision
StoneLayout
p320
(dp321
g27
F0.4791666666666667
sg28
(lp322
(icurlovision
Stone
p323
(dp324
g32
F-0.8295454545454546
sg33
F2.5113636363636362
sg34
F0.4318181818181818
sg35
S'red'
p325
sba(icurlovision
Stone
p326
(dp327
g32
F1.7613636363636365
sg33
F-0.011363636363636364
sg34
F0.4431818181818182
sg35
S'yellow'
p328
sba(icurlovision
Stone
p329
(dp330
g32
F4.829545454545455
sg33
F0.03409090909090909
sg34
F0.3522727272727273
sg35
S'red'
p331
sbasba(icurlovision
StoneLayout
p332
(dp333
g27
F0.4791666666666667
sg28
(lp334
(icurlovision
Stone
p335
(dp336
g32
F1.85
sg33
F-0.05
sg34
F0.35000000000000003
sg35
S'yellow'
p337
sba(icurlovision
Stone
p338
(dp339
g32
F5.075
sg33
F-0.025
sg34
F0.325
sg35
S'red'
p340
sbasba(icurlovision
StoneLayout
p341
(dp342
g27
F0.4791666666666667
sg28
(lp343
(icurlovision
Stone
p344
(dp345
g32
F1.8194444444444444
sg33
F-0.041666666666666664
sg34
F0.3333333333333333
sg35
S'yellow'
p346
sba(icurlovision
Stone
p347
(dp348
g32
F11.041666666666666
sg33
F2.9027777777777777
sg34
F0.4305555555555555
sg35
S'red'
p349
sba(icurlovision
Stone
p350
(dp351
g32
F4.875
sg33
F0.041666666666666664
sg34
F0.3055555555555555
sg35
S'red'
p352
sbasba(icurlovision
StoneLayout
p353
(dp354
g27
F0.4791666666666667
sg28
(lp355
(icurlovision
Stone
p356
(dp357
g32
F1.813953488372093
sg33
F-0.03488372093023256
sg34
F0.3313953488372093
sg35
S'yellow'
p358
sba(icurlovision
Stone
p359
(dp360
g32
F11.441860465116278
sg33
F0.2441860465116279
sg34
F0.41860465116279066
sg35
S'yellow'
p361
sba(icurlovision
Stone
p362
(dp363
g32
F11.162790697674419
sg33
F2.9302325581395348
sg34
F0.436046511627907
sg35
S'red'
p364
sba(icurlovision
Stone
p365
(dp366
g32
F4.9186046511627906
sg33
F0.0
sg34
F0.45348837209302323
sg35
S'red'
p367
sbasba(icurlovision
StoneLayout
p368
(dp369
g27
F0.4791666666666667
sg28
(lp370
(icurlovision
Stone
p371
(dp372
g32
F1.84375
sg33
F-0.03125
sg34
F0.4375
sg35
S'yellow'
p373
sba(icurlovision
Stone
p374
(dp375
g32
F11.25
sg33
F0.21875
sg34
F0.390625
sg35
S'yellow'
p376
sba(icurlovision
Stone
p377
(dp378
g32
F8.5625
sg33
F-0.28125
sg34
F0.4375
sg35
S'yellow'
p379
sba(icurlovision
Stone
p380
(dp381
g32
F10.9375
sg33
F2.8125
sg34
F0.421875
sg35
S'red'
p382
sba(icurlovision
Stone
p383
(dp384
g32
F4.90625
sg33
F0.03125
sg34
F0.3125
sg35
S'red'
p385
sba(icurlovision
Stone
p386
(dp387
g32
F13.78125
sg33
F-6.8125
sg34
F0.28125
sg35
S'yellow'
p388
sbasba(icurlovision
StoneLayout
p389
(dp390
g27
F0.4791666666666667
sg28
(lp391
(icurlovision
Stone
p392
(dp393
g32
F8.94767441860465
sg33
F-0.2616279069767442
sg34
F0.3488372093023256
sg35
S'yellow'
p394
sba(icurlovision
Stone
p395
(dp396
g32
F1.9011627906976745
sg33
F-0.05232558139534883
sg34
F0.3313953488372093
sg35
S'yellow'
p397
sba(icurlovision
Stone
p398
(dp399
g32
F11.529069767441861
sg33
F6.575581395348837
sg34
F0.2616279069767442
sg35
S'red'
p400
sba(icurlovision
Stone
p401
(dp402
g32
F5.075581395348837
sg33
F-0.01744186046511628
sg34
F0.3488372093023256
sg35
S'red'
p403
sbasba(icurlovision
StoneLayout
p404
(dp405
g27
F0.4791666666666667
sg28
(lp406
(icurlovision
Stone
p407
(dp408
g32
F1.859375
sg33
F-0.0625
sg34
F0.34375
sg35
S'yellow'
p409
sba(icurlovision
Stone
p410
(dp411
g32
F11.328125
sg33
F6.46875
sg34
F0.453125
sg35
S'red'
p412
sba(icurlovision
Stone
p413
(dp414
g32
F8.703125
sg33
F-0.28125
sg34
F0.34375
sg35
S'yellow'
p415
sba(icurlovision
Stone
p416
(dp417
g32
F9.609375
sg33
F0.0625
sg34
F0.34375
sg35
S'yellow'
p418
sbasba(icurlovision
StoneLayout
p419
(dp420
g27
F0.4791666666666667
sg28
(lp421
(icurlovision
Stone
p422
(dp423
g32
F8.869565217391305
sg33
F-2.282608695652174
sg34
F0.42391304347826086
sg35
S'red'
p424
sba(icurlovision
Stone
p425
(dp426
g32
F10.826086956521738
sg33
F6.260869565217391
sg34
F0.42391304347826086
sg35
S'red'
p427
sba(icurlovision
Stone
p428
(dp429
g32
F1.7608695652173914
sg33
F0.0
sg34
F0.32608695652173914
sg35
S'yellow'
p430
sba(icurlovision
Stone
p431
(dp432
g32
F4.728260869565217
sg33
F0.06521739130434782
sg34
F0.4076086956521739
sg35
S'red'
p433
sbasba(icurlovision
StoneLayout
p434
(dp435
g27
F0.4791666666666667
sg28
(lp436
(icurlovision
Stone
p437
(dp438
g32
F-2.1818181818181817
sg33
F0.375
sg34
F0.4602272727272727
sg35
S'yellow'
p439
sba(icurlovision
Stone
p440
(dp441
g32
F9.238636363636363
sg33
F-2.454545454545454
sg34
F0.4431818181818181
sg35
S'red'
p442
sba(icurlovision
Stone
p443
(dp444
g32
F11.318181818181817
sg33
F6.477272727272727
sg34
F0.4431818181818181
sg35
S'red'
p445
sba(icurlovision
Stone
p446
(dp447
g32
F4.977272727272727
sg33
F-0.03409090909090909
sg34
F0.2727272727272727
sg35
S'red'
p448
sba(icurlovision
Stone
p449
(dp450
g32
F1.8409090909090908
sg33
F-0.10227272727272727
sg34
F0.4602272727272727
sg35
S'yellow'
p451
sbasbasg121
I0
sg122
I1
sba(icurlovision
EndResult
p452
(dp453
g2
I3
sg9
(lp454
(I8
I7
tp455
a(I7
I6
tp456
a(I6
I6
tp457
a(I6
I5
tp458
a(I5
I5
tp459
a(I5
I4
tp460
a(I4
I4
tp461
a(I4
I3
tp462
a(I3
I3
tp463
a(I3
I2
tp464
a(I2
I2
tp465
a(I2
I1
tp466
a(I1
I1
tp467
a(I1
I0
tp468
asg22
I4
sg23
(lp469
(icurlovision
StoneLayout
p470
(dp471
g27
F0.4791666666666667
sg28
(lp472
sba(icurlovision
StoneLayout
p473
(dp474
g27
F0.4791666666666667
sg28
(lp475
(icurlovision
Stone
p476
(dp477
g32
F-2.2211538461538463
sg33
F-0.2884615384615385
sg34
F0.46153846153846156
sg35
S'yellow'
p478
sba(icurlovision
Stone
p479
(dp480
g32
F3.605769230769231
sg33
F-0.31730769230769235
sg34
F0.46153846153846156
sg35
S'yellow'
p481
sba(icurlovision
Stone
p482
(dp483
g32
F9.259615384615385
sg33
F3.028846153846154
sg34
F0.46153846153846156
sg35
S'red'
p484
sbasba(icurlovision
StoneLayout
p485
(dp486
g27
F0.4791666666666667
sg28
(lp487
(icurlovision
Stone
p488
(dp489
g32
F-2.3509615384615388
sg33
F-0.3317307692307693
sg34
F0.34615384615384615
sg35
S'yellow'
p490
sba(icurlovision
Stone
p491
(dp492
g32
F2.581730769230769
sg33
F-2.0625
sg34
F0.3605769230769231
sg35
S'red'
p493
sba(icurlovision
Stone
p494
(dp495
g32
F9.620192307692308
sg33
F3.1298076923076925
sg34
F0.46153846153846156
sg35
S'red'
p496
sba(icurlovision
Stone
p497
(dp498
g32
F3.5625
sg33
F-0.2451923076923077
sg34
F0.34615384615384615
sg35
S'yellow'
p499
sbasba(icurlovision
StoneLayout
p500
(dp501
g27
F0.4791666666666667
sg28
(lp502
(icurlovision
Stone
p503
(dp504
g32
F2.9711538461538463
sg33
F-1.0096153846153846
sg34
F0.46153846153846156
sg35
S'yellow'
p505
sba(icurlovision
Stone
p506
(dp507
g32
F9.230769230769232
sg33
F3.0
sg34
F0.4326923076923077
sg35
S'red'
p508
sba(icurlovision
Stone
p509
(dp510
g32
F3.375
sg33
F-0.20192307692307693
sg34
F0.4326923076923077
sg35
S'yellow'
p511
sba(icurlovision
Stone
p512
(dp513
g32
F-2.2211538461538463
sg33
F-0.31730769230769235
sg34
F0.4759615384615385
sg35
S'yellow'
p514
sbasba(icurlovision
StoneLayout
p515
(dp516
g27
F0.4791666666666667
sg28
(lp517
(icurlovision
Stone
p518
(dp519
g32
F9.390625
sg33
F3.078125
sg34
F0.453125
sg35
S'red'
p520
sba(icurlovision
Stone
p521
(dp522
g32
F-1.015625
sg33
F-5.421875
sg34
F0.328125
sg35
S'yellow'
p523
sba(icurlovision
Stone
p524
(dp525
g32
F-5.171875
sg33
F2.171875
sg34
F0.359375
sg35
S'yellow'
p526
sba(icurlovision
Stone
p527
(dp528
g32
F-2.234375
sg33
F-0.328125
sg34
F0.328125
sg35
S'yellow'
p529
sba(icurlovision
Stone
p530
(dp531
g32
F4.421875
sg33
F-0.078125
sg34
F0.375
sg35
S'red'
p532
sbasba(icurlovision
StoneLayout
p533
(dp534
g27
F0.4791666666666667
sg28
(lp535
(icurlovision
Stone
p536
(dp537
g32
F-0.9893617021276595
sg33
F-5.904255319148936
sg34
F0.44680851063829785
sg35
S'yellow'
p538
sba(icurlovision
Stone
p539
(dp540
g32
F9.51063829787234
sg33
F3.095744680851064
sg34
F0.4627659574468085
sg35
S'red'
p541
sba(icurlovision
Stone
p542
(dp543
g32
F-2.2659574468085104
sg33
F-0.351063829787234
sg34
F0.4627659574468085
sg35
S'yellow'
p544
sba(icurlovision
Stone
p545
(dp546
g32
F-2.6489361702127656
sg33
F-4.627659574468085
sg34
F0.4308510638297872
sg35
S'red'
p547
sba(icurlovision
Stone
p548
(dp549
g32
F-5.26595744680851
sg33
F2.202127659574468
sg34
F0.33510638297872336
sg35
S'yellow'
p550
sba(icurlovision
Stone
p551
(dp552
g32
F8.680851063829786
sg33
F-5.5212765957446805
sg34
F0.28723404255319146
sg35
S'yellow'
p553
sbasba(icurlovision
StoneLayout
p554
(dp555
g27
F0.4791666666666667
sg28
(lp556
(icurlovision
Stone
p557
(dp558
g32
F-1.0166666666666666
sg33
F-5.883333333333333
sg34
F0.3333333333333333
sg35
S'yellow'
p559
sba(icurlovision
Stone
p560
(dp561
g32
F-2.283333333333333
sg33
F-0.31666666666666665
sg34
F0.4666666666666667
sg35
S'yellow'
p562
sba(icurlovision
Stone
p563
(dp564
g32
F9.483333333333333
sg33
F3.1166666666666667
sg34
F0.45
sg35
S'red'
p565
sba(icurlovision
Stone
p566
(dp567
g32
F-2.65
sg33
F-4.583333333333333
sg34
F0.43333333333333335
sg35
S'red'
p568
sba(icurlovision
Stone
p569
(dp570
g32
F-5.216666666666667
sg33
F2.216666666666667
sg34
F0.36666666666666664
sg35
S'yellow'
p571
sba(icurlovision
Stone
p572
(dp573
g32
F5.116666666666666
sg33
F2.716666666666667
sg34
F0.26666666666666666
sg35
S'red'
p574
sba(icurlovision
Stone
p575
(dp576
g32
F-1.6166666666666667
sg33
F6.716666666666667
sg34
F0.4666666666666667
sg35
S'red'
p577
sbasba(icurlovision
StoneLayout
p578
(dp579
g27
F0.4791666666666667
sg28
(lp580
(icurlovision
Stone
p581
(dp582
g32
F-0.9886363636363635
sg33
F-5.8806818181818175
sg34
F0.3409090909090909
sg35
S'yellow'
p583
sba(icurlovision
Stone
p584
(dp585
g32
F-2.25
sg33
F-0.32386363636363635
sg34
F0.3409090909090909
sg35
S'yellow'
p586
sba(icurlovision
Stone
p587
(dp588
g32
F-1.7045454545454544
sg33
F-4.346590909090909
sg34
F0.28977272727272724
sg35
S'yellow'
p589
sba(icurlovision
Stone
p590
(dp591
g32
F9.511363636363635
sg33
F3.1193181818181817
sg34
F0.4602272727272727
sg35
S'red'
p592
sba(icurlovision
Stone
p593
(dp594
g32
F-5.215909090909091
sg33
F2.1988636363636362
sg34
F0.3409090909090909
sg35
S'yellow'
p595
sba(icurlovision
Stone
p596
(dp597
g32
F5.215909090909091
sg33
F2.7102272727272725
sg34
F0.30681818181818177
sg35
S'red'
p598
sbasba(icurlovision
StoneLayout
p599
(dp600
g27
F0.4791666666666667
sg28
(lp601
(icurlovision
Stone
p602
(dp603
g32
F-0.9886363636363635
sg33
F-5.863636363636363
sg34
F0.3409090909090909
sg35
S'yellow'
p604
sba(icurlovision
Stone
p605
(dp606
g32
F-5.386363636363636
sg33
F2.25
sg34
F0.4602272727272727
sg35
S'yellow'
p607
sba(icurlovision
Stone
p608
(dp609
g32
F-4.329545454545454
sg33
F1.8409090909090908
sg34
F0.4602272727272727
sg35
S'red'
p610
sba(icurlovision
Stone
p611
(dp612
g32
F-1.7386363636363635
sg33
F-4.329545454545454
sg34
F0.28977272727272724
sg35
S'yellow'
p613
sba(icurlovision
Stone
p614
(dp615
g32
F-2.25
sg33
F-0.3409090909090909
sg34
F0.47727272727272724
sg35
S'yellow'
p616
sba(icurlovision
Stone
p617
(dp618
g32
F9.443181818181818
sg33
F3.102272727272727
sg34
F0.2727272727272727
sg35
S'red'
p619
sba(icurlovision
Stone
p620
(dp621
g32
F5.1477272727272725
sg33
F2.6590909090909087
sg34
F0.32386363636363635
sg35
S'red'
p622
sbasba(icurlovision
StoneLayout
p623
(dp624
g27
F0.4791666666666667
sg28
(lp625
(icurlovision
Stone
p626
(dp627
g32
F-0.9893617021276595
sg33
F-5.824468085106383
sg34
F0.3191489361702127
sg35
S'yellow'
p628
sba(icurlovision
Stone
p629
(dp630
g32
F-1.7234042553191489
sg33
F-4.356382978723404
sg34
F0.4627659574468085
sg35
S'yellow'
p631
sba(icurlovision
Stone
p632
(dp633
g32
F-3.5425531914893615
sg33
F1.3244680851063828
sg34
F0.44680851063829785
sg35
S'yellow'
p634
sba(icurlovision
Stone
p635
(dp636
g32
F-4.5
sg33
F1.8351063829787233
sg34
F0.3031914893617021
sg35
S'red'
p637
sba(icurlovision
Stone
p638
(dp639
g32
F9.446808510638297
sg33
F3.111702127659574
sg34
F0.4627659574468085
sg35
S'red'
p640
sba(icurlovision
Stone
p641
(dp642
g32
F-2.2659574468085104
sg33
F-0.33510638297872336
sg34
F0.44680851063829785
sg35
S'yellow'
p643
sba(icurlovision
Stone
p644
(dp645
g32
F5.106382978723404
sg33
F2.6648936170212765
sg34
F0.28723404255319146
sg35
S'red'
p646
sbasba(icurlovision
StoneLayout
p647
(dp648
g27
F0.4791666666666667
sg28
(lp649
(icurlovision
Stone
p650
(dp651
g32
F-0.9833333333333333
sg33
F-5.783333333333333
sg34
F0.3333333333333333
sg35
S'yellow'
p652
sba(icurlovision
Stone
p653
(dp654
g32
F-3.55
sg33
F1.3166666666666667
sg34
F0.3333333333333333
sg35
S'yellow'
p655
sba(icurlovision
Stone
p656
(dp657
g32
F-4.483333333333333
sg33
F1.8166666666666667
sg34
F0.36666666666666664
sg35
S'red'
p658
sba(icurlovision
Stone
p659
(dp660
g32
F-1.7166666666666666
sg33
F-4.316666666666666
sg34
F0.45
sg35
S'yellow'
p661
sba(icurlovision
Stone
p662
(dp663
g32
F-2.283333333333333
sg33
F1.6166666666666667
sg34
F0.45
sg35
S'red'
p664
sba(icurlovision
Stone
p665
(dp666
g32
F9.35
sg33
F3.05
sg34
F0.45
sg35
S'red'
p667
sba(icurlovision
Stone
p668
(dp669
g32
F5.116666666666666
sg33
F2.683333333333333
sg34
F0.31666666666666665
sg35
S'red'
p670
sbasba(icurlovision
StoneLayout
p671
(dp672
g27
F0.4791666666666667
sg28
(lp673
(icurlovision
Stone
p674
(dp675
g32
F-1.0333333333333332
sg33
F-5.9
sg34
F0.26666666666666666
sg35
S'yellow'
p676
sba(icurlovision
Stone
p677
(dp678
g32
F-3.8
sg33
F-2.8
sg34
F0.3
sg35
S'yellow'
p679
sba(icurlovision
Stone
p680
(dp681
g32
F9.5
sg33
F3.1333333333333333
sg34
F0.26666666666666666
sg35
S'red'
p682
sba(icurlovision
Stone
p683
(dp684
g32
F-1.7666666666666666
sg33
F-4.4
sg34
F0.3333333333333333
sg35
S'yellow'
p685
sba(icurlovision
Stone
p686
(dp687
g32
F5.166666666666667
sg33
F2.6666666666666665
sg34
F0.31666666666666665
sg35
S'red'
p688
sbasba(icurlovision
StoneLayout
p689
(dp690
g27
F0.4791666666666667
sg28
(lp691
(icurlovision
Stone
p692
(dp693
g32
F-1.046875
sg33
F-5.921875
sg34
F0.328125
sg35
S'yellow'
p694
sba(icurlovision
Stone
p695
(dp696
g32
F-3.796875
sg33
F-2.859375
sg34
F0.34375
sg35
S'yellow'
p697
sba(icurlovision
Stone
p698
(dp699
g32
F9.546875
sg33
F3.109375
sg34
F0.46875
sg35
S'red'
p700
sba(icurlovision
Stone
p701
(dp702
g32
F-0.890625
sg33
F-4.359375
sg34
F0.28125
sg35
S'red'
p703
sba(icurlovision
Stone
p704
(dp705
g32
F5.171875
sg33
F2.703125
sg34
F0.265625
sg35
S'red'
p706
sbasba(icurlovision
StoneLayout
p707
(dp708
g27
F0.4791666666666667
sg28
(lp709
(icurlovision
Stone
p710
(dp711
g32
F-1.0434782608695652
sg33
F-5.967391304347826
sg34
F0.34239130434782605
sg35
S'yellow'
p712
sba(icurlovision
Stone
p713
(dp714
g32
F-1.434782608695652
sg33
F-1.5978260869565217
sg34
F0.30978260869565216
sg35
S'yellow'
p715
sba(icurlovision
Stone
p716
(dp717
g32
F-3.8478260869565215
sg33
F-2.869565217391304
sg34
F0.34239130434782605
sg35
S'yellow'
p718
sba(icurlovision
Stone
p719
(dp720
g32
F9.652173913043478
sg33
F3.1630434782608696
sg34
F0.45652173913043476
sg35
S'red'
p721
sba(icurlovision
Stone
p722
(dp723
g32
F5.25
sg33
F2.7391304347826084
sg34
F0.34239130434782605
sg35
S'red'
p724
sbasbasg121
I2
sg122
I1
sba(icurlovision
EndResult
p725
(dp726
g2
I3
sg9
(lp727
(I7
I8
tp728
a(I7
I7
tp729
a(I4
I4
tp730
a(I3
I4
tp731
a(I3
I3
tp732
a(I2
I3
tp733
a(I2
I2
tp734
a(I1
I2
tp735
a(I1
I1
tp736
a(I0
I1
tp737
asg22
I5
sg23
(lp738
(icurlovision
StoneLayout
p739
(dp740
g27
F0.4791666666666667
sg28
(lp741
(icurlovision
Stone
p742
(dp743
g32
F5.70703125
sg33
F0.46875
sg34
F0.328125
sg35
S'red'
p744
sbasba(icurlovision
StoneLayout
p745
(dp746
g27
F0.4791666666666667
sg28
(lp747
(icurlovision
Stone
p748
(dp749
g32
F1.153846153846154
sg33
F-5.423076923076923
sg34
F0.43846153846153846
sg35
S'yellow'
p750
sbasba(icurlovision
StoneLayout
p751
(dp752
g27
F0.4791666666666667
sg28
(lp753
(icurlovision
Stone
p754
(dp755
g32
F1.1625
sg33
F-5.4125000000000005
sg34
F0.36250000000000004
sg35
S'yellow'
p756
sba(icurlovision
Stone
p757
(dp758
g32
F3.0375
sg33
F4.0625
sg34
F0.35000000000000003
sg35
S'yellow'
p759
sba(icurlovision
Stone
p760
(dp761
g32
F2.3125
sg33
F-0.0125
sg34
F0.4625
sg35
S'yellow'
p762
sba(icurlovision
Stone
p763
(dp764
g32
F4.0625
sg33
F-0.1125
sg34
F0.47500000000000003
sg35
S'red'
p765
sbasba(icurlovision
StoneLayout
p766
(dp767
g27
F0.4791666666666667
sg28
(lp768
(icurlovision
Stone
p769
(dp770
g32
F7.165178571428571
sg33
F-0.4419642857142857
sg34
F0.45535714285714285
sg35
S'red'
p771
sba(icurlovision
Stone
p772
(dp773
g32
F3.040178571428571
sg33
F4.058035714285714
sg34
F0.3214285714285714
sg35
S'yellow'
p774
sba(icurlovision
Stone
p775
(dp776
g32
F2.3169642857142856
sg33
F-0.013392857142857142
sg34
F0.33482142857142855
sg35
S'yellow'
p777
sba(icurlovision
Stone
p778
(dp779
g32
F1.1651785714285714
sg33
F-5.424107142857142
sg34
F0.33482142857142855
sg35
S'yellow'
p780
sba(icurlovision
Stone
p781
(dp782
g32
F4.058035714285714
sg33
F-0.12053571428571427
sg34
F0.36160714285714285
sg35
S'red'
p783
sbasba(icurlovision
StoneLayout
p784
(dp785
g27
F0.4791666666666667
sg28
(lp786
(icurlovision
Stone
p787
(dp788
g32
F7.032786885245901
sg33
F-0.4426229508196721
sg34
F0.4426229508196721
sg35
S'red'
p789
sba(icurlovision
Stone
p790
(dp791
g32
F3.0
sg33
F3.959016393442623
sg34
F0.3442622950819672
sg35
S'yellow'
p792
sba(icurlovision
Stone
p793
(dp794
g32
F1.1557377049180328
sg33
F-5.311475409836065
sg34
F0.3319672131147541
sg35
S'yellow'
p795
sba(icurlovision
Stone
p796
(dp797
g32
F2.2868852459016393
sg33
F0.0
sg34
F0.3319672131147541
sg35
S'yellow'
p798
sbasba(icurlovision
StoneLayout
p799
(dp800
g27
F0.4791666666666667
sg28
(lp801
(icurlovision
Stone
p802
(dp803
g32
F2.668032786885246
sg33
F0.8729508196721312
sg34
F0.319672131147541
sg35
S'red'
p804
sba(icurlovision
Stone
p805
(dp806
g32
F2.9385245901639343
sg33
F3.971311475409836
sg34
F0.3319672131147541
sg35
S'yellow'
p807
sba(icurlovision
Stone
p808
(dp809
g32
F6.995901639344262
sg33
F-0.430327868852459
sg34
F0.35655737704918034
sg35
S'red'
p810
sba(icurlovision
Stone
p811
(dp812
g32
F1.4877049180327868
sg33
F-0.6762295081967213
sg34
F0.3319672131147541
sg35
S'yellow'
p813
sba(icurlovision
Stone
p814
(dp815
g32
F1.1434426229508197
sg33
F-5.299180327868853
sg34
F0.319672131147541
sg35
S'yellow'
p816
sba(icurlovision
Stone
p817
(dp818
g32
F-2.8401639344262293
sg33
F0.6762295081967213
sg34
F0.3688524590163934
sg35
S'yellow'
p819
sbasba(icurlovision
StoneLayout
p820
(dp821
g27
F0.4791666666666667
sg28
(lp822
(icurlovision
Stone
p823
(dp824
g32
F7.24090909090909
sg33
F-0.44999999999999996
sg34
F0.4636363636363636
sg35
S'red'
p825
sba(icurlovision
Stone
p826
(dp827
g32
F1.5681818181818181
sg33
F-0.7227272727272727
sg34
F0.36818181818181817
sg35
S'yellow'
p828
sba(icurlovision
Stone
p829
(dp830
g32
F1.159090909090909
sg33
F-5.468181818181818
sg34
F0.32727272727272727
sg35
S'yellow'
p831
sba(icurlovision
Stone
p832
(dp833
g32
F3.7227272727272727
sg33
F0.8318181818181818
sg34
F0.44999999999999996
sg35
S'yellow'
p834
sba(icurlovision
Stone
p835
(dp836
g32
F3.0954545454545452
sg33
F4.077272727272727
sg34
F0.3136363636363636
sg35
S'yellow'
p837
sbasba(icurlovision
StoneLayout
p838
(dp839
g27
F0.4791666666666667
sg28
(lp840
(icurlovision
Stone
p841
(dp842
g32
F7.157894736842104
sg33
F-0.4473684210526315
sg34
F0.4605263157894737
sg35
S'red'
p843
sba(icurlovision
Stone
p844
(dp845
g32
F3.026315789473684
sg33
F4.052631578947368
sg34
F0.3157894736842105
sg35
S'yellow'
p846
sba(icurlovision
Stone
p847
(dp848
g32
F1.131578947368421
sg33
F-5.394736842105263
sg34
F0.35526315789473684
sg35
S'yellow'
p849
sba(icurlovision
Stone
p850
(dp851
g32
F2.3684210526315788
sg33
F-0.39473684210526316
sg34
F0.3421052631578947
sg35
S'yellow'
p852
sbasba(icurlovision
StoneLayout
p853
(dp854
g27
F0.4791666666666667
sg28
(lp855
(icurlovision
Stone
p856
(dp857
g32
F7.1911764705882355
sg33
F-0.4264705882352941
sg34
F0.45588235294117646
sg35
S'red'
p858
sba(icurlovision
Stone
p859
(dp860
g32
F1.161764705882353
sg33
F-5.397058823529412
sg34
F0.3235294117647059
sg35
S'yellow'
p861
sba(icurlovision
Stone
p862
(dp863
g32
F3.014705882352941
sg33
F4.102941176470588
sg34
F0.3382352941176471
sg35
S'yellow'
p864
sba(icurlovision
Stone
p865
(dp866
g32
F2.3676470588235294
sg33
F-0.39705882352941174
sg34
F0.45588235294117646
sg35
S'yellow'
p867
sba(icurlovision
Stone
p868
(dp869
g32
F-6.1911764705882355
sg33
F-0.3088235294117647
sg34
F0.3529411764705882
sg35
S'yellow'
p870
sbasba(icurlovision
StoneLayout
p871
(dp872
g27
F0.4791666666666667
sg28
(lp873
(icurlovision
Stone
p874
(dp875
g32
F7.182692307692308
sg33
F-0.46153846153846156
sg34
F0.46153846153846156
sg35
S'red'
p876
sba(icurlovision
Stone
p877
(dp878
g32
F2.3653846153846154
sg33
F-0.4326923076923077
sg34
F0.46153846153846156
sg35
S'yellow'
p879
sba(icurlovision
Stone
p880
(dp881
g32
F1.153846153846154
sg33
F-5.423076923076923
sg34
F0.4759615384615385
sg35
S'yellow'
p882
sba(icurlovision
Stone
p883
(dp884
g32
F3.0
sg33
F4.0673076923076925
sg34
F0.3317307692307693
sg35
S'yellow'
p885
sba(icurlovision
Stone
p886
(dp887
g32
F-1.2692307692307694
sg33
F-0.23076923076923078
sg34
F0.4326923076923077
sg35
S'red'
p888
sba(icurlovision
Stone
p889
(dp890
g32
F-6.2019230769230775
sg33
F-0.375
sg34
F0.3028846153846154
sg35
S'yellow'
p891
sbasbasg121
I3
sg122
I0
sba(icurlovision
EndResult
p892
(dp893
g2
I4
sg9
(lp894
(I7
I8
tp895
a(I7
I7
tp896
a(I6
I7
tp897
a(I6
I6
tp898
a(I5
I6
tp899
a(I5
I5
tp900
a(I4
I5
tp901
a(I4
I4
tp902
a(I3
I4
tp903
a(I3
I3
tp904
a(I2
I3
tp905
a(I2
I2
tp906
a(I1
I2
tp907
a(I1
I1
tp908
a(I0
I1
tp909
asg22
I6
sg23
(lp910
(icurlovision
StoneLayout
p911
(dp912
g27
F0.4791666666666667
sg28
(lp913
(icurlovision
Stone
p914
(dp915
g32
F2.605932203389831
sg33
F0.1398305084745763
sg34
F0.4576271186440678
sg35
S'red'
p916
sbasba(icurlovision
StoneLayout
p917
(dp918
g27
F0.4791666666666667
sg28
(lp919
(icurlovision
Stone
p920
(dp921
g32
F2.625
sg33
F0.15000000000000002
sg34
F0.3375
sg35
S'red'
p922
sba(icurlovision
Stone
p923
(dp924
g32
F6.95
sg33
F2.7750000000000004
sg34
F0.45
sg35
S'yellow'
p925
sbasba(icurlovision
StoneLayout
p926
(dp927
g27
F0.4791666666666667
sg28
(lp928
(icurlovision
Stone
p929
(dp930
g32
F6.819444444444444
sg33
F2.708333333333333
sg34
F0.3333333333333333
sg35
S'yellow'
p931
sba(icurlovision
Stone
p932
(dp933
g32
F2.5416666666666665
sg33
F0.15277777777777776
sg34
F0.4444444444444444
sg35
S'red'
p934
sba(icurlovision
Stone
p935
(dp936
g32
F10.625
sg33
F0.29166666666666663
sg34
F0.4444444444444444
sg35
S'red'
p937
sbasba(icurlovision
StoneLayout
p938
(dp939
g27
F0.4791666666666667
sg28
(lp940
(icurlovision
Stone
p941
(dp942
g32
F2.5568181818181817
sg33
F-1.4659090909090908
sg34
F0.4431818181818181
sg35
S'yellow'
p943
sba(icurlovision
Stone
p944
(dp945
g32
F6.920454545454545
sg33
F2.693181818181818
sg34
F0.2727272727272727
sg35
S'yellow'
p946
sba(icurlovision
Stone
p947
(dp948
g32
F-2.727272727272727
sg33
F2.5227272727272725
sg34
F0.3409090909090909
sg35
S'red'
p949
sba(icurlovision
Stone
p950
(dp951
g32
F10.772727272727272
sg33
F0.2727272727272727
sg34
F0.4261363636363636
sg35
S'red'
p952
sbasba(icurlovision
StoneLayout
p953
(dp954
g27
F0.4791666666666667
sg28
(lp955
(icurlovision
Stone
p956
(dp957
g32
F6.8999999999999995
sg33
F2.7
sg34
F0.3333333333333333
sg35
S'yellow'
p958
sba(icurlovision
Stone
p959
(dp960
g32
F3.3
sg33
F-0.9666666666666667
sg34
F0.45
sg35
S'red'
p961
sba(icurlovision
Stone
p962
(dp963
g32
F-2.7333333333333334
sg33
F2.466666666666667
sg34
F0.45
sg35
S'red'
p964
sba(icurlovision
Stone
p965
(dp966
g32
F10.7
sg33
F0.23333333333333334
sg34
F0.4166666666666667
sg35
S'red'
p967
sba(icurlovision
Stone
p968
(dp969
g32
F-3.1333333333333333
sg33
F0.0
sg34
F0.5166666666666666
sg35
S'yellow'
p970
sbasba(icurlovision
StoneLayout
p971
(dp972
g27
F0.4791666666666667
sg28
(lp973
(icurlovision
Stone
p974
(dp975
g32
F-2.8166666666666664
sg33
F2.5833333333333335
sg34
F0.35
sg35
S'red'
p976
sba(icurlovision
Stone
p977
(dp978
g32
F7.05
sg33
F2.75
sg34
F0.2833333333333333
sg35
S'yellow'
p979
sba(icurlovision
Stone
p980
(dp981
g32
F3.9833333333333334
sg33
F-0.08333333333333333
sg34
F0.3333333333333333
sg35
S'yellow'
p982
sba(icurlovision
Stone
p983
(dp984
g32
F10.95
sg33
F0.2833333333333333
sg34
F0.45
sg35
S'red'
p985
sbasba(icurlovision
StoneLayout
p986
(dp987
g27
F0.4791666666666667
sg28
(lp988
(icurlovision
Stone
p989
(dp990
g32
F2.9488636363636362
sg33
F-0.5965909090909091
sg34
F0.4602272727272727
sg35
S'yellow'
p991
sba(icurlovision
Stone
p992
(dp993
g32
F6.971590909090908
sg33
F2.7443181818181817
sg34
F0.4431818181818181
sg35
S'yellow'
p994
sba(icurlovision
Stone
p995
(dp996
g32
F-2.778409090909091
sg33
F2.539772727272727
sg34
F0.3409090909090909
sg35
S'red'
p997
sba(icurlovision
Stone
p998
(dp999
g32
F10.892045454545453
sg33
F0.2556818181818182
sg34
F0.4431818181818181
sg35
S'red'
p1000
sba(icurlovision
Stone
p1001
(dp1002
g32
F4.482954545454545
sg33
F0.5965909090909091
sg34
F0.30681818181818177
sg35
S'red'
p1003
sbasba(icurlovision
StoneLayout
p1004
(dp1005
g27
F0.4791666666666667
sg28
(lp1006
(icurlovision
Stone
p1007
(dp1008
g32
F2.8706896551724137
sg33
F-0.6206896551724138
sg34
F0.4396551724137931
sg35
S'yellow'
p1009
sba(icurlovision
Stone
p1010
(dp1011
g32
F-2.7672413793103448
sg33
F2.456896551724138
sg34
F0.34913793103448276
sg35
S'red'
p1012
sba(icurlovision
Stone
p1013
(dp1014
g32
F6.8534482758620685
sg33
F2.7155172413793105
sg34
F0.4525862068965517
sg35
S'yellow'
p1015
sba(icurlovision
Stone
p1016
(dp1017
g32
F4.344827586206897
sg33
F0.5948275862068966
sg34
F0.3232758620689655
sg35
S'red'
p1018
sbasba(icurlovision
StoneLayout
p1019
(dp1020
g27
F0.4791666666666667
sg28
(lp1021
(icurlovision
Stone
p1022
(dp1023
g32
F3.6029411764705883
sg33
F-1.4558823529411764
sg34
F0.45588235294117646
sg35
S'red'
p1024
sba(icurlovision
Stone
p1025
(dp1026
g32
F7.13235294117647
sg33
F2.838235294117647
sg34
F0.3382352941176471
sg35
S'yellow'
p1027
sba(icurlovision
Stone
p1028
(dp1029
g32
F-2.7794117647058822
sg33
F2.5441176470588234
sg34
F0.45588235294117646
sg35
S'red'
p1030
sba(icurlovision
Stone
p1031
(dp1032
g32
F4.573529411764706
sg33
F0.6323529411764706
sg34
F0.3088235294117647
sg35
S'red'
p1033
sbasba(icurlovision
StoneLayout
p1034
(dp1035
g27
F0.4791666666666667
sg28
(lp1036
(icurlovision
Stone
p1037
(dp1038
g32
F-2.7836538461538463
sg33
F2.5528846153846154
sg34
F0.3605769230769231
sg35
S'red'
p1039
sba(icurlovision
Stone
p1040
(dp1041
g32
F7.08173076923077
sg33
F2.8125
sg34
F0.46153846153846156
sg35
S'yellow'
p1042
sba(icurlovision
Stone
p1043
(dp1044
g32
F4.370192307692308
sg33
F-1.4278846153846154
sg34
F0.34615384615384615
sg35
S'yellow'
p1045
sbasba(icurlovision
StoneLayout
p1046
(dp1047
g27
F0.4791666666666667
sg28
(lp1048
(icurlovision
Stone
p1049
(dp1050
g32
F6.944444444444444
sg33
F2.7916666666666665
sg34
F0.4444444444444444
sg35
S'yellow'
p1051
sba(icurlovision
Stone
p1052
(dp1053
g32
F0.41666666666666663
sg33
F4.319444444444445
sg34
F0.3472222222222222
sg35
S'red'
p1054
sba(icurlovision
Stone
p1055
(dp1056
g32
F-2.7777777777777777
sg33
F2.5416666666666665
sg34
F0.3194444444444444
sg35
S'red'
p1057
sbasba(icurlovision
StoneLayout
p1058
(dp1059
g27
F0.4791666666666667
sg28
(lp1060
(icurlovision
Stone
p1061
(dp1062
g32
F1.2452830188679245
sg33
F2.7452830188679247
sg34
F0.32547169811320753
sg35
S'yellow'
p1063
sba(icurlovision
Stone
p1064
(dp1065
g32
F-2.80188679245283
sg33
F2.6037735849056602
sg34
F0.3537735849056604
sg35
S'red'
p1066
sba(icurlovision
Stone
p1067
(dp1068
g32
F7.132075471698113
sg33
F2.858490566037736
sg34
F0.4528301886792453
sg35
S'yellow'
p1069
sba(icurlovision
Stone
p1070
(dp1071
g32
F0.4528301886792453
sg33
F4.415094339622642
sg34
F0.4669811320754717
sg35
S'red'
p1072
sbasba(icurlovision
StoneLayout
p1073
(dp1074
g27
F0.4791666666666667
sg28
(lp1075
(icurlovision
Stone
p1076
(dp1077
g32
F-4.513888888888888
sg33
F5.986111111111111
sg34
F0.4722222222222222
sg35
S'yellow'
p1078
sba(icurlovision
Stone
p1079
(dp1080
g32
F7.458333333333333
sg33
F3.9861111111111107
sg34
F0.4722222222222222
sg35
S'red'
p1081
sba(icurlovision
Stone
p1082
(dp1083
g32
F0.4305555555555555
sg33
F4.402777777777778
sg34
F0.3472222222222222
sg35
S'red'
p1084
sba(icurlovision
Stone
p1085
(dp1086
g32
F-2.819444444444444
sg33
F2.597222222222222
sg34
F0.3611111111111111
sg35
S'red'
p1087
sba(icurlovision
Stone
p1088
(dp1089
g32
F-5.736111111111111
sg33
F-4.013888888888888
sg34
F0.3194444444444444
sg35
S'yellow'
p1090
sba(icurlovision
Stone
p1091
(dp1092
g32
F-5.847222222222222
sg33
F6.375
sg34
F0.3194444444444444
sg35
S'yellow'
p1093
sbasba(icurlovision
StoneLayout
p1094
(dp1095
g27
F0.4791666666666667
sg28
(lp1096
(icurlovision
Stone
p1097
(dp1098
g32
F7.330188679245283
sg33
F3.8773584905660377
sg34
F0.2971698113207547
sg35
S'red'
p1099
sba(icurlovision
Stone
p1100
(dp1101
g32
F-1.839622641509434
sg33
F2.4339622641509435
sg34
F0.4669811320754717
sg35
S'yellow'
p1102
sba(icurlovision
Stone
p1103
(dp1104
g32
F0.4811320754716981
sg33
F4.30188679245283
sg34
F0.3537735849056604
sg35
S'red'
p1105
sba(icurlovision
Stone
p1106
(dp1107
g32
F-3.3962264150943398
sg33
F2.7735849056603774
sg34
F0.3537735849056604
sg35
S'red'
p1108
sbasba(icurlovision
StoneLayout
p1109
(dp1110
g27
F0.4791666666666667
sg28
(lp1111
(icurlovision
Stone
p1112
(dp1113
g32
F7.418181818181818
sg33
F3.9272727272727272
sg34
F0.4636363636363636
sg35
S'red'
p1114
sba(icurlovision
Stone
p1115
(dp1116
g32
F-2.9454545454545453
sg33
F6.081818181818181
sg34
F0.3409090909090909
sg35
S'red'
p1117
sba(icurlovision
Stone
p1118
(dp1119
g32
F0.43636363636363634
sg33
F4.390909090909091
sg34
F0.35454545454545455
sg35
S'red'
p1120
sba(icurlovision
Stone
p1121
(dp1122
g32
F-4.8545454545454545
sg33
F4.309090909090909
sg34
F0.47727272727272724
sg35
S'yellow'
p1123
sbasbasg121
I3
sg122
I0
sba(icurlovision
EndResult
p1124
(dp1125
g2
I4
sg9
(lp1126
(I8
I7
tp1127
a(I7
I6
tp1128
a(I6
I6
tp1129
a(I6
I5
tp1130
a(I5
I4
tp1131
a(I4
I4
tp1132
a(I4
I3
tp1133
a(I3
I3
tp1134
a(I3
I2
tp1135
a(I2
I2
tp1136
a(I2
I1
tp1137
a(I1
I1
tp1138
a(I1
I0
tp1139
asg22
I7
sg23
(lp1140
(icurlovision
StoneLayout
p1141
(dp1142
g27
F0.4791666666666667
sg28
(lp1143
(icurlovision
Stone
p1144
(dp1145
g32
F10.235294117647058
sg33
F0.14705882352941177
sg34
F0.4264705882352941
sg35
S'yellow'
p1146
sbasba(icurlovision
StoneLayout
p1147
(dp1148
g27
F0.4791666666666667
sg28
(lp1149
(icurlovision
Stone
p1150
(dp1151
g32
F-1.9897959183673468
sg33
F-0.21428571428571427
sg34
F0.44387755102040816
sg35
S'yellow'
p1152
sba(icurlovision
Stone
p1153
(dp1154
g32
F10.040816326530612
sg33
F0.18367346938775508
sg34
F0.42857142857142855
sg35
S'yellow'
p1155
sbasba(icurlovision
StoneLayout
p1156
(dp1157
g27
F0.4791666666666667
sg28
(lp1158
(icurlovision
Stone
p1159
(dp1160
g32
F10.329545454545453
sg33
F0.20454545454545453
sg34
F0.4431818181818181
sg35
S'yellow'
p1161
sba(icurlovision
Stone
p1162
(dp1163
g32
F-1.0568181818181817
sg33
F-0.23863636363636362
sg34
F0.2727272727272727
sg35
S'red'
p1164
sbasba(icurlovision
StoneLayout
p1165
(dp1166
g27
F0.4791666666666667
sg28
(lp1167
(icurlovision
Stone
p1168
(dp1169
g32
F-3.4261363636363633
sg33
F-0.22159090909090906
sg34
F0.49431818181818177
sg35
S'red'
p1170
sba(icurlovision
Stone
p1171
(dp1172
g32
F-0.15340909090909088
sg33
F-0.2556818181818182
sg34
F0.3409090909090909
sg35
S'yellow'
p1173
sba(icurlovision
Stone
p1174
(dp1175
g32
F10.517045454545453
sg33
F0.1875
sg34
F0.4602272727272727
sg35
S'yellow'
p1176
sba(icurlovision
Stone
p1177
(dp1178
g32
F10.107954545454545
sg33
F-4.823863636363636
sg34
F0.30681818181818177
sg35
S'yellow'
p1179
sbasba(icurlovision
StoneLayout
p1180
(dp1181
g27
F0.4791666666666667
sg28
(lp1182
(icurlovision
Stone
p1183
(dp1184
g32
F-3.319444444444444
sg33
F-0.25
sg34
F0.4722222222222222
sg35
S'red'
p1185
sba(icurlovision
Stone
p1186
(dp1187
g32
F7.625
sg33
F0.38888888888888884
sg34
F0.3472222222222222
sg35
S'yellow'
p1188
sba(icurlovision
Stone
p1189
(dp1190
g32
F-0.125
sg33
F-0.25
sg34
F0.3333333333333333
sg35
S'yellow'
p1191
sba(icurlovision
Stone
p1192
(dp1193
g32
F-0.7638888888888888
sg33
F-6.361111111111111
sg34
F0.4444444444444444
sg35
S'yellow'
p1194
sbasba(icurlovision
StoneLayout
p1195
(dp1196
g27
F0.4791666666666667
sg28
(lp1197
(icurlovision
Stone
p1198
(dp1199
g32
F-3.3676470588235294
sg33
F-0.25
sg34
F0.47058823529411764
sg35
S'red'
p1200
sba(icurlovision
Stone
p1201
(dp1202
g32
F7.720588235294118
sg33
F0.39705882352941174
sg34
F0.47058823529411764
sg35
S'yellow'
p1203
sba(icurlovision
Stone
p1204
(dp1205
g32
F-3.8088235294117645
sg33
F3.191176470588235
sg34
F0.4411764705882353
sg35
S'yellow'
p1206
sbasba(icurlovision
StoneLayout
p1207
(dp1208
g27
F0.4791666666666667
sg28
(lp1209
(icurlovision
Stone
p1210
(dp1211
g32
F-4.176470588235294
sg33
F-2.8823529411764706
sg34
F0.3382352941176471
sg35
S'yellow'
p1212
sba(icurlovision
Stone
p1213
(dp1214
g32
F-3.7941176470588234
sg33
F3.176470588235294
sg34
F0.3382352941176471
sg35
S'yellow'
p1215
sba(icurlovision
Stone
p1216
(dp1217
g32
F7.647058823529411
sg33
F0.38235294117647056
sg34
F0.3235294117647059
sg35
S'yellow'
p1218
sbasba(icurlovision
StoneLayout
p1219
(dp1220
g27
F0.4791666666666667
sg28
(lp1221
(icurlovision
Stone
p1222
(dp1223
g32
F-3.8235294117647056
sg33
F3.161764705882353
sg34
F0.47058823529411764
sg35
S'yellow'
p1224
sba(icurlovision
Stone
p1225
(dp1226
g32
F-4.264705882352941
sg33
F-2.926470588235294
sg34
F0.3529411764705882
sg35
S'yellow'
p1227
sba(icurlovision
Stone
p1228
(dp1229
g32
F7.823529411764706
sg33
F1.9852941176470589
sg34
F0.47058823529411764
sg35
S'red'
p1230
sbasba(icurlovision
StoneLayout
p1231
(dp1232
g27
F0.4791666666666667
sg28
(lp1233
(icurlovision
Stone
p1234
(dp1235
g32
F2.9711538461538463
sg33
F1.1971153846153846
sg34
F0.3317307692307693
sg35
S'yellow'
p1236
sba(icurlovision
Stone
p1237
(dp1238
g32
F-3.8942307692307696
sg33
F3.216346153846154
sg34
F0.46153846153846156
sg35
S'yellow'
p1239
sba(icurlovision
Stone
p1240
(dp1241
g32
F-4.269230769230769
sg33
F-2.9855769230769234
sg34
F0.3894230769230769
sg35
S'yellow'
p1242
sba(icurlovision
Stone
p1243
(dp1244
g32
F7.875
sg33
F2.0048076923076925
sg34
F0.44711538461538464
sg35
S'red'
p1245
sbasba(icurlovision
StoneLayout
p1246
(dp1247
g27
F0.4791666666666667
sg28
(lp1248
(icurlovision
Stone
p1249
(dp1250
g32
F0.96
sg33
F-2.85
sg34
F0.44999999999999996
sg35
S'red'
p1251
sba(icurlovision
Stone
p1252
(dp1253
g32
F-4.2
sg33
F-2.88
sg34
F0.32999999999999996
sg35
S'yellow'
p1254
sba(icurlovision
Stone
p1255
(dp1256
g32
F7.739999999999999
sg33
F1.98
sg34
F0.44999999999999996
sg35
S'red'
p1257
sba(icurlovision
Stone
p1258
(dp1259
g32
F-4.95
sg33
F-4.53
sg34
F0.435
sg35
S'yellow'
p1260
sbasba(icurlovision
StoneLayout
p1261
(dp1262
g27
F0.4791666666666667
sg28
(lp1263
(icurlovision
Stone
p1264
(dp1265
g32
F7.788461538461539
sg33
F1.9615384615384617
sg34
F0.44711538461538464
sg35
S'red'
p1266
sba(icurlovision
Stone
p1267
(dp1268
g32
F-4.153846153846154
sg33
F-2.9134615384615388
sg34
F0.31730769230769235
sg35
S'yellow'
p1269
sba(icurlovision
Stone
p1270
(dp1271
g32
F7.298076923076923
sg33
F-4.269230769230769
sg34
F0.5192307692307693
sg35
S'red'
p1272
sbasba(icurlovision
StoneLayout
p1273
(dp1274
g27
F0.4791666666666667
sg28
(lp1275
(icurlovision
Stone
p1276
(dp1277
g32
F7.755319148936169
sg33
F1.978723404255319
sg34
F0.4627659574468085
sg35
S'red'
p1278
sba(icurlovision
Stone
p1279
(dp1280
g32
F-3.1914893617021276
sg33
F-2.8723404255319145
sg34
F0.4627659574468085
sg35
S'red'
p1281
sbasba(icurlovision
StoneLayout
p1282
(dp1283
g27
F0.4791666666666667
sg28
(lp1284
(icurlovision
Stone
p1285
(dp1286
g32
F-2.394230769230769
sg33
F-2.826923076923077
sg34
F0.3605769230769231
sg35
S'yellow'
p1287
sba(icurlovision
Stone
p1288
(dp1289
g32
F7.961538461538462
sg33
F2.019230769230769
sg34
F0.46153846153846156
sg35
S'red'
p1290
sbasbasg121
I3
sg122
I1
sba(icurlovision
EndResult
p1291
(dp1292
g2
I4
sg9
(lp1293
(I8
I7
tp1294
a(I7
I7
tp1295
a(I7
I6
tp1296
a(I6
I6
tp1297
a(I6
I5
tp1298
a(I5
I5
tp1299
a(I5
I4
tp1300
a(I4
I4
tp1301
a(I4
I3
tp1302
a(I3
I3
tp1303
a(I3
I2
tp1304
a(I2
I2
tp1305
a(I2
I1
tp1306
a(I1
I1
tp1307
a(I1
I0
tp1308
asg22
I8
sg23
(lp1309
(icurlovision
StoneLayout
p1310
(dp1311
g27
F0.4791666666666667
sg28
(lp1312
sba(icurlovision
StoneLayout
p1313
(dp1314
g27
F0.4791666666666667
sg28
(lp1315
(icurlovision
Stone
p1316
(dp1317
g32
F11.388888888888888
sg33
F-2.75
sg34
F0.41666666666666663
sg35
S'red'
p1318
sba(icurlovision
Stone
p1319
(dp1320
g32
F2.194444444444444
sg33
F0.4444444444444444
sg34
F0.3472222222222222
sg35
S'yellow'
p1321
sbasba(icurlovision
StoneLayout
p1322
(dp1323
g27
F0.4791666666666667
sg28
(lp1324
(icurlovision
Stone
p1325
(dp1326
g32
F6.780612244897959
sg33
F-0.1377551020408163
sg34
F0.336734693877551
sg35
S'yellow'
p1327
sba(icurlovision
Stone
p1328
(dp1329
g32
F2.188775510204082
sg33
F0.413265306122449
sg34
F0.44387755102040816
sg35
S'yellow'
p1330
sba(icurlovision
Stone
p1331
(dp1332
g32
F11.28061224489796
sg33
F-2.770408163265306
sg34
F0.42857142857142855
sg35
S'red'
p1333
sbasba(icurlovision
StoneLayout
p1334
(dp1335
g27
F0.4791666666666667
sg28
(lp1336
(icurlovision
Stone
p1337
(dp1338
g32
F4.11734693877551
sg33
F-3.0153061224489797
sg34
F0.3214285714285714
sg35
S'yellow'
p1339
sba(icurlovision
Stone
p1340
(dp1341
g32
F2.25
sg33
F0.4744897959183673
sg34
F0.45918367346938777
sg35
S'yellow'
p1342
sba(icurlovision
Stone
p1343
(dp1344
g32
F11.58673469387755
sg33
F-2.8010204081632653
sg34
F0.42857142857142855
sg35
S'red'
p1345
sba(icurlovision
Stone
p1346
(dp1347
g32
F3.1989795918367347
sg33
F3.596938775510204
sg34
F0.45918367346938777
sg35
S'red'
p1348
sba(icurlovision
Stone
p1349
(dp1350
g32
F5.525510204081632
sg33
F-4.9438775510204085
sg34
F0.42857142857142855
sg35
S'yellow'
p1351
sbasba(icurlovision
StoneLayout
p1352
(dp1353
g27
F0.4791666666666667
sg28
(lp1354
(icurlovision
Stone
p1355
(dp1356
g32
F11.875
sg33
F-2.9107142857142856
sg34
F0.46428571428571425
sg35
S'red'
p1357
sba(icurlovision
Stone
p1358
(dp1359
g32
F3.9107142857142856
sg33
F-3.5535714285714284
sg34
F0.33928571428571425
sg35
S'yellow'
p1360
sba(icurlovision
Stone
p1361
(dp1362
g32
F2.267857142857143
sg33
F0.4821428571428571
sg34
F0.33928571428571425
sg35
S'yellow'
p1363
sbasba(icurlovision
StoneLayout
p1364
(dp1365
g27
F0.4791666666666667
sg28
(lp1366
(icurlovision
Stone
p1367
(dp1368
g32
F2.0121951219512195
sg33
F-1.5
sg34
F0.45731707317073167
sg35
S'red'
p1369
sba(icurlovision
Stone
p1370
(dp1371
g32
F11.597560975609756
sg33
F-2.817073170731707
sg34
F0.42073170731707316
sg35
S'red'
p1372
sba(icurlovision
Stone
p1373
(dp1374
g32
F3.841463414634146
sg33
F-3.475609756097561
sg34
F0.3292682926829268
sg35
S'yellow'
p1375
sba(icurlovision
Stone
p1376
(dp1377
g32
F-3.768292682926829
sg33
F-0.8780487804878048
sg34
F0.3292682926829268
sg35
S'yellow'
p1378
sbasba(icurlovision
StoneLayout
p1379
(dp1380
g27
F0.4791666666666667
sg28
(lp1381
(icurlovision
Stone
p1382
(dp1383
g32
F2.6625
sg33
F-0.8624999999999999
sg34
F0.44999999999999996
sg35
S'yellow'
p1384
sba(icurlovision
Stone
p1385
(dp1386
g32
F-3.75
sg33
F-0.825
sg34
F0.44999999999999996
sg35
S'yellow'
p1387
sba(icurlovision
Stone
p1388
(dp1389
g32
F3.8249999999999997
sg33
F-3.4875
sg34
F0.31875
sg35
S'yellow'
p1390
sba(icurlovision
Stone
p1391
(dp1392
g32
F11.5875
sg33
F-2.85
sg34
F0.43124999999999997
sg35
S'red'
p1393
sbasba(icurlovision
StoneLayout
p1394
(dp1395
g27
F0.4791666666666667
sg28
(lp1396
(icurlovision
Stone
p1397
(dp1398
g32
F-5.230769230769231
sg33
F3.1346153846153846
sg34
F0.4807692307692308
sg35
S'yellow'
p1399
sba(icurlovision
Stone
p1400
(dp1401
g32
F11.5
sg33
F-2.826923076923077
sg34
F0.42307692307692313
sg35
S'red'
p1402
sba(icurlovision
Stone
p1403
(dp1404
g32
F3.807692307692308
sg33
F-3.4423076923076925
sg34
F0.3269230769230769
sg35
S'yellow'
p1405
sba(icurlovision
Stone
p1406
(dp1407
g32
F3.5
sg33
F-0.9423076923076924
sg34
F0.3076923076923077
sg35
S'red'
p1408
sbasba(icurlovision
StoneLayout
p1409
(dp1410
g27
F0.4791666666666667
sg28
(lp1411
(icurlovision
Stone
p1412
(dp1413
g32
F-5.134615384615385
sg33
F3.0961538461538463
sg34
F0.46153846153846156
sg35
S'yellow'
p1414
sba(icurlovision
Stone
p1415
(dp1416
g32
F3.7884615384615388
sg33
F-3.403846153846154
sg34
F0.42307692307692313
sg35
S'yellow'
p1417
sba(icurlovision
Stone
p1418
(dp1419
g32
F11.442307692307693
sg33
F-2.7884615384615388
sg34
F0.42307692307692313
sg35
S'red'
p1420
sba(icurlovision
Stone
p1421
(dp1422
g32
F3.903846153846154
sg33
F-0.13461538461538464
sg34
F0.44230769230769235
sg35
S'yellow'
p1423
sbasba(icurlovision
StoneLayout
p1424
(dp1425
g27
F0.4791666666666667
sg28
(lp1426
(icurlovision
Stone
p1427
(dp1428
g32
F-5.173076923076923
sg33
F3.0961538461538463
sg34
F0.2692307692307693
sg35
S'yellow'
p1429
sba(icurlovision
Stone
p1430
(dp1431
g32
F3.6730769230769234
sg33
F-4.134615384615385
sg34
F0.44230769230769235
sg35
S'yellow'
p1432
sba(icurlovision
Stone
p1433
(dp1434
g32
F11.480769230769232
sg33
F-2.826923076923077
sg34
F0.42307692307692313
sg35
S'red'
p1435
sba(icurlovision
Stone
p1436
(dp1437
g32
F3.7115384615384617
sg33
F-2.557692307692308
sg34
F0.38461538461538464
sg35
S'red'
p1438
sbasba(icurlovision
StoneLayout
p1439
(dp1440
g27
F0.4791666666666667
sg28
(lp1441
(icurlovision
Stone
p1442
(dp1443
g32
F-5.269230769230769
sg33
F3.153846153846154
sg34
F0.3076923076923077
sg35
S'yellow'
p1444
sba(icurlovision
Stone
p1445
(dp1446
g32
F4.653846153846154
sg33
F-2.3846153846153846
sg34
F0.3269230769230769
sg35
S'yellow'
p1447
sba(icurlovision
Stone
p1448
(dp1449
g32
F11.730769230769232
sg33
F-2.8846153846153846
sg34
F0.44230769230769235
sg35
S'red'
p1450
sba(icurlovision
Stone
p1451
(dp1452
g32
F3.730769230769231
sg33
F-4.1923076923076925
sg34
F0.46153846153846156
sg35
S'yellow'
p1453
sbasba(icurlovision
StoneLayout
p1454
(dp1455
g27
F0.4791666666666667
sg28
(lp1456
(icurlovision
Stone
p1457
(dp1458
g32
F-5.384615384615385
sg33
F3.1730769230769234
sg34
F0.2692307692307693
sg35
S'yellow'
p1459
sba(icurlovision
Stone
p1460
(dp1461
g32
F11.846153846153847
sg33
F-2.8653846153846154
sg34
F0.2884615384615385
sg35
S'red'
p1462
sba(icurlovision
Stone
p1463
(dp1464
g32
F-3.5384615384615388
sg33
F-2.7884615384615388
sg34
F0.4807692307692308
sg35
S'red'
p1465
sba(icurlovision
Stone
p1466
(dp1467
g32
F3.7692307692307696
sg33
F-4.25
sg34
F0.3269230769230769
sg35
S'yellow'
p1468
sba(icurlovision
Stone
p1469
(dp1470
g32
F4.6923076923076925
sg33
F-2.3653846153846154
sg34
F0.34615384615384615
sg35
S'yellow'
p1471
sbasba(icurlovision
StoneLayout
p1472
(dp1473
g27
F0.4791666666666667
sg28
(lp1474
(icurlovision
Stone
p1475
(dp1476
g32
F-1.5576923076923077
sg33
F-2.1346153846153846
sg34
F0.2884615384615385
sg35
S'yellow'
p1477
sba(icurlovision
Stone
p1478
(dp1479
g32
F11.711538461538462
sg33
F-2.8653846153846154
sg34
F0.44230769230769235
sg35
S'red'
p1480
sba(icurlovision
Stone
p1481
(dp1482
g32
F-5.25
sg33
F3.1730769230769234
sg34
F0.2884615384615385
sg35
S'yellow'
p1483
sba(icurlovision
Stone
p1484
(dp1485
g32
F4.634615384615385
sg33
F-2.3653846153846154
sg34
F0.3269230769230769
sg35
S'yellow'
p1486
sba(icurlovision
Stone
p1487
(dp1488
g32
F-3.5192307692307696
sg33
F-2.75
sg34
F0.3269230769230769
sg35
S'red'
p1489
sba(icurlovision
Stone
p1490
(dp1491
g32
F3.75
sg33
F-4.211538461538462
sg34
F0.3269230769230769
sg35
S'yellow'
p1492
sba(icurlovision
Stone
p1493
(dp1494
g32
F-4.4423076923076925
sg33
F1.826923076923077
sg34
F0.3076923076923077
sg35
S'yellow'
p1495
sbasba(icurlovision
StoneLayout
p1496
(dp1497
g27
F0.4791666666666667
sg28
(lp1498
(icurlovision
Stone
p1499
(dp1500
g32
F-2.195121951219512
sg33
F-2.451219512195122
sg34
F0.45731707317073167
sg35
S'yellow'
p1501
sba(icurlovision
Stone
p1502
(dp1503
g32
F-5.1951219512195115
sg33
F3.1097560975609753
sg34
F0.47560975609756095
sg35
S'yellow'
p1504
sba(icurlovision
Stone
p1505
(dp1506
g32
F11.524390243902438
sg33
F-2.8536585365853657
sg34
F0.4390243902439024
sg35
S'red'
p1507
sba(icurlovision
Stone
p1508
(dp1509
g32
F-0.6585365853658536
sg33
F-1.9024390243902438
sg34
F0.2926829268292683
sg35
S'red'
p1510
sba(icurlovision
Stone
p1511
(dp1512
g32
F3.6585365853658534
sg33
F-4.170731707317073
sg34
F0.3292682926829268
sg35
S'yellow'
p1513
sba(icurlovision
Stone
p1514
(dp1515
g32
F4.573170731707317
sg33
F-2.3780487804878048
sg34
F0.40243902439024387
sg35
S'yellow'
p1516
sba(icurlovision
Stone
p1517
(dp1518
g32
F-3.475609756097561
sg33
F-2.74390243902439
sg34
F0.47560975609756095
sg35
S'red'
p1519
sbasba(icurlovision
StoneLayout
p1520
(dp1521
g27
F0.4791666666666667
sg28
(lp1522
(icurlovision
Stone
p1523
(dp1524
g32
F-2.644736842105263
sg33
F-2.506578947368421
sg34
F0.47368421052631576
sg35
S'yellow'
p1525
sba(icurlovision
Stone
p1526
(dp1527
g32
F3.75
sg33
F-4.243421052631579
sg34
F0.3355263157894737
sg35
S'yellow'
p1528
sba(icurlovision
Stone
p1529
(dp1530
g32
F11.802631578947368
sg33
F-2.8618421052631575
sg34
F0.4539473684210526
sg35
S'red'
p1531
sba(icurlovision
Stone
p1532
(dp1533
g32
F-5.13157894736842
sg33
F-2.94078947368421
sg34
F0.2763157894736842
sg35
S'red'
p1534
sba(icurlovision
Stone
p1535
(dp1536
g32
F-5.328947368421052
sg33
F3.177631578947368
sg34
F0.47368421052631576
sg35
S'yellow'
p1537
sba(icurlovision
Stone
p1538
(dp1539
g32
F4.7368421052631575
sg33
F-2.427631578947368
sg34
F0.375
sg35
S'yellow'
p1540
sba(icurlovision
Stone
p1541
(dp1542
g32
F-4.618421052631579
sg33
F2.3092105263157894
sg34
F0.29605263157894735
sg35
S'yellow'
p1543
sbasbasg121
I4
sg122
I1
sba(icurlovision
EndResult
p1544
(dp1545
g2
I6
sg9
(lp1546
(I7
I8
tp1547
a(I7
I7
tp1548
a(I6
I7
tp1549
a(I6
I6
tp1550
a(I5
I6
tp1551
a(I5
I5
tp1552
a(I4
I5
tp1553
a(I4
I4
tp1554
a(I3
I4
tp1555
a(I3
I3
tp1556
a(I2
I3
tp1557
a(I2
I2
tp1558
a(I1
I1
tp1559
a(I0
I1
tp1560
asg22
I9
sg23
(lp1561
(icurlovision
StoneLayout
p1562
(dp1563
g27
F0.4791666666666667
sg28
(lp1564
(icurlovision
Stone
p1565
(dp1566
g32
F12.99
sg33
F0.8999999999999999
sg34
F0.42
sg35
S'red'
p1567
sbasba(icurlovision
StoneLayout
p1568
(dp1569
g27
F0.4791666666666667
sg28
(lp1570
(icurlovision
Stone
p1571
(dp1572
g32
F13.615384615384617
sg33
F1.0
sg34
F0.42307692307692313
sg35
S'red'
p1573
sba(icurlovision
Stone
p1574
(dp1575
g32
F-2.8461538461538463
sg33
F-4.269230769230769
sg34
F0.34615384615384615
sg35
S'yellow'
p1576
sbasba(icurlovision
StoneLayout
p1577
(dp1578
g27
F0.4791666666666667
sg28
(lp1579
(icurlovision
Stone
p1580
(dp1581
g32
F7.353658536585366
sg33
F0.8780487804878048
sg34
F0.4390243902439024
sg35
S'red'
p1582
sba(icurlovision
Stone
p1583
(dp1584
g32
F13.207317073170731
sg33
F0.9512195121951219
sg34
F0.42073170731707316
sg35
S'red'
p1585
sba(icurlovision
Stone
p1586
(dp1587
g32
F-2.7804878048780486
sg33
F-4.2073170731707314
sg34
F0.3292682926829268
sg35
S'yellow'
p1588
sbasba(icurlovision
StoneLayout
p1589
(dp1590
g27
F0.4791666666666667
sg28
(lp1591
(icurlovision
Stone
p1592
(dp1593
g32
F12.91875
sg33
F0.91875
sg34
F0.4125
sg35
S'red'
p1594
sba(icurlovision
Stone
p1595
(dp1596
g32
F7.21875
sg33
F0.88125
sg34
F0.43124999999999997
sg35
S'red'
p1597
sba(icurlovision
Stone
p1598
(dp1599
g32
F2.26875
sg33
F0.31875
sg34
F0.33749999999999997
sg35
S'yellow'
p1600
sba(icurlovision
Stone
p1601
(dp1602
g32
F-2.68125
sg33
F-4.06875
sg34
F0.3
sg35
S'yellow'
p1603
sbasba(icurlovision
StoneLayout
p1604
(dp1605
g27
F0.4791666666666667
sg28
(lp1606
(icurlovision
Stone
p1607
(dp1608
g32
F-5.901315789473684
sg33
F0.29605263157894735
sg34
F0.256578947368421
sg35
S'red'
p1609
sba(icurlovision
Stone
p1610
(dp1611
g32
F7.243421052631579
sg33
F0.888157894736842
sg34
F0.4539473684210526
sg35
S'red'
p1612
sba(icurlovision
Stone
p1613
(dp1614
g32
F2.269736842105263
sg33
F0.29605263157894735
sg34
F0.256578947368421
sg35
S'yellow'
p1615
sba(icurlovision
Stone
p1616
(dp1617
g32
F-2.7039473684210527
sg33
F-4.125
sg34
F0.35526315789473684
sg35
S'yellow'
p1618
sba(icurlovision
Stone
p1619
(dp1620
g32
F13.046052631578947
sg33
F0.9671052631578947
sg34
F0.43421052631578944
sg35
S'red'
p1621
sbasba(icurlovision
StoneLayout
p1622
(dp1623
g27
F0.4791666666666667
sg28
(lp1624
(icurlovision
Stone
p1625
(dp1626
g32
F-6.0
sg33
F0.29411764705882354
sg34
F0.3529411764705882
sg35
S'red'
p1627
sba(icurlovision
Stone
p1628
(dp1629
g32
F7.470588235294118
sg33
F0.9411764705882353
sg34
F0.45588235294117646
sg35
S'red'
p1630
sba(icurlovision
Stone
p1631
(dp1632
g32
F2.323529411764706
sg33
F0.3235294117647059
sg34
F0.4411764705882353
sg35
S'yellow'
p1633
sba(icurlovision
Stone
p1634
(dp1635
g32
F-6.529411764705882
sg33
F-6.588235294117647
sg34
F0.3382352941176471
sg35
S'yellow'
p1636
sba(icurlovision
Stone
p1637
(dp1638
g32
F-2.764705882352941
sg33
F-4.147058823529412
sg34
F0.3382352941176471
sg35
S'yellow'
p1639
sbasba(icurlovision
StoneLayout
p1640
(dp1641
g27
F0.4791666666666667
sg28
(lp1642
(icurlovision
Stone
p1643
(dp1644
g32
F-2.84375
sg33
F-4.28125
sg34
F0.34375
sg35
S'yellow'
p1645
sba(icurlovision
Stone
p1646
(dp1647
g32
F-6.1875
sg33
F0.3125
sg34
F0.34375
sg35
S'red'
p1648
sba(icurlovision
Stone
p1649
(dp1650
g32
F7.65625
sg33
F0.96875
sg34
F0.453125
sg35
S'red'
p1651
sba(icurlovision
Stone
p1652
(dp1653
g32
F2.59375
sg33
F-0.6875
sg34
F0.46875
sg35
S'red'
p1654
sba(icurlovision
Stone
p1655
(dp1656
g32
F2.125
sg33
F0.5
sg34
F0.28125
sg35
S'yellow'
p1657
sbasba(icurlovision
StoneLayout
p1658
(dp1659
g27
F0.4791666666666667
sg28
(lp1660
(icurlovision
Stone
p1661
(dp1662
g32
F7.484999999999999
sg33
F0.9149999999999999
sg34
F0.46499999999999997
sg35
S'red'
p1663
sba(icurlovision
Stone
p1664
(dp1665
g32
F-6.075
sg33
F0.285
sg34
F0.345
sg35
S'red'
p1666
sba(icurlovision
Stone
p1667
(dp1668
g32
F2.085
sg33
F0.495
sg34
F0.46499999999999997
sg35
S'yellow'
p1669
sba(icurlovision
Stone
p1670
(dp1671
g32
F3.135
sg33
F0.105
sg34
F0.32999999999999996
sg35
S'yellow'
p1672
sba(icurlovision
Stone
p1673
(dp1674
g32
F-2.775
sg33
F-4.215
sg34
F0.36
sg35
S'yellow'
p1675
sbasba(icurlovision
StoneLayout
p1676
(dp1677
g27
F0.4791666666666667
sg28
(lp1678
(icurlovision
Stone
p1679
(dp1680
g32
F-2.203125
sg33
F1.828125
sg34
F0.453125
sg35
S'yellow'
p1681
sba(icurlovision
Stone
p1682
(dp1683
g32
F3.015625
sg33
F-1.609375
sg34
F0.4375
sg35
S'red'
p1684
sba(icurlovision
Stone
p1685
(dp1686
g32
F7.453125
sg33
F0.921875
sg34
F0.453125
sg35
S'red'
p1687
sba(icurlovision
Stone
p1688
(dp1689
g32
F-6.015625
sg33
F0.265625
sg34
F0.46875
sg35
S'red'
p1690
sba(icurlovision
Stone
p1691
(dp1692
g32
F2.953125
sg33
F0.171875
sg34
F0.453125
sg35
S'yellow'
p1693
sba(icurlovision
Stone
p1694
(dp1695
g32
F-2.796875
sg33
F-4.203125
sg34
F0.328125
sg35
S'yellow'
p1696
sba(icurlovision
Stone
p1697
(dp1698
g32
F-0.015625
sg33
F-2.390625
sg34
F0.484375
sg35
S'yellow'
p1699
sbasba(icurlovision
StoneLayout
p1700
(dp1701
g27
F0.4791666666666667
sg28
(lp1702
(icurlovision
Stone
p1703
(dp1704
g32
F-2.173469387755102
sg33
F1.836734693877551
sg34
F0.45918367346938777
sg35
S'yellow'
p1705
sba(icurlovision
Stone
p1706
(dp1707
g32
F7.469387755102041
sg33
F0.8877551020408163
sg34
F0.44387755102040816
sg35
S'red'
p1708
sba(icurlovision
Stone
p1709
(dp1710
g32
F3.9489795918367347
sg33
F-1.530612244897959
sg34
F0.3520408163265306
sg35
S'yellow'
p1711
sba(icurlovision
Stone
p1712
(dp1713
g32
F-2.7857142857142856
sg33
F-4.163265306122449
sg34
F0.3214285714285714
sg35
S'yellow'
p1714
sba(icurlovision
Stone
p1715
(dp1716
g32
F2.9693877551020407
sg33
F0.18367346938775508
sg34
F0.30612244897959184
sg35
S'yellow'
p1717
sba(icurlovision
Stone
p1718
(dp1719
g32
F-6.0
sg33
F0.336734693877551
sg34
F0.45918367346938777
sg35
S'red'
p1720
sba(icurlovision
Stone
p1721
(dp1722
g32
F7.193877551020408
sg33
F-5.877551020408163
sg34
F0.2755102040816326
sg35
S'yellow'
p1723
sbasba(icurlovision
StoneLayout
p1724
(dp1725
g27
F0.4791666666666667
sg28
(lp1726
(icurlovision
Stone
p1727
(dp1728
g32
F2.941176470588235
sg33
F-1.7058823529411764
sg34
F0.45588235294117646
sg35
S'yellow'
p1729
sba(icurlovision
Stone
p1730
(dp1731
g32
F-2.235294117647059
sg33
F1.8823529411764706
sg34
F0.3382352941176471
sg35
S'yellow'
p1732
sba(icurlovision
Stone
p1733
(dp1734
g32
F7.0
sg33
F1.6470588235294117
sg34
F0.47058823529411764
sg35
S'red'
p1735
sba(icurlovision
Stone
p1736
(dp1737
g32
F-6.088235294117647
sg33
F0.29411764705882354
sg34
F0.45588235294117646
sg35
S'red'
p1738
sba(icurlovision
Stone
p1739
(dp1740
g32
F3.0294117647058822
sg33
F0.23529411764705882
sg34
F0.3235294117647059
sg35
S'yellow'
p1741
sba(icurlovision
Stone
p1742
(dp1743
g32
F-2.7941176470588234
sg33
F-4.235294117647059
sg34
F0.3529411764705882
sg35
S'yellow'
p1744
sba(icurlovision
Stone
p1745
(dp1746
g32
F4.852941176470588
sg33
F-1.6764705882352942
sg34
F0.45588235294117646
sg35
S'red'
p1747
sba(icurlovision
Stone
p1748
(dp1749
g32
F2.441176470588235
sg33
F1.4411764705882353
sg34
F0.3088235294117647
sg35
S'yellow'
p1750
sbasba(icurlovision
StoneLayout
p1751
(dp1752
g27
F0.4791666666666667
sg28
(lp1753
(icurlovision
Stone
p1754
(dp1755
g32
F5.754545454545454
sg33
F-2.7818181818181817
sg34
F0.44999999999999996
sg35
S'yellow'
p1756
sba(icurlovision
Stone
p1757
(dp1758
g32
F-2.1545454545454543
sg33
F1.8545454545454545
sg34
F0.44999999999999996
sg35
S'yellow'
p1759
sba(icurlovision
Stone
p1760
(dp1761
g32
F2.8363636363636364
sg33
F-1.6363636363636362
sg34
F0.44999999999999996
sg35
S'yellow'
p1762
sba(icurlovision
Stone
p1763
(dp1764
g32
F2.918181818181818
sg33
F0.24545454545454545
sg34
F0.32727272727272727
sg35
S'yellow'
p1765
sba(icurlovision
Stone
p1766
(dp1767
g32
F-2.6999999999999997
sg33
F-4.0636363636363635
sg34
F0.4636363636363636
sg35
S'yellow'
p1768
sba(icurlovision
Stone
p1769
(dp1770
g32
F-5.890909090909091
sg33
F0.32727272727272727
sg34
F0.4636363636363636
sg35
S'red'
p1771
sbasba(icurlovision
StoneLayout
p1772
(dp1773
g27
F0.4791666666666667
sg28
(lp1774
(icurlovision
Stone
p1775
(dp1776
g32
F-1.347222222222222
sg33
F2.5416666666666665
sg34
F0.4583333333333333
sg35
S'yellow'
p1777
sba(icurlovision
Stone
p1778
(dp1779
g32
F0.15277777777777776
sg33
F-5.097222222222222
sg34
F0.3333333333333333
sg35
S'yellow'
p1780
sba(icurlovision
Stone
p1781
(dp1782
g32
F1.097222222222222
sg33
F-6.013888888888888
sg34
F0.3333333333333333
sg35
S'yellow'
p1783
sba(icurlovision
Stone
p1784
(dp1785
g32
F5.875
sg33
F-2.9305555555555554
sg34
F0.3333333333333333
sg35
S'yellow'
p1786
sba(icurlovision
Stone
p1787
(dp1788
g32
F-2.7916666666666665
sg33
F-4.208333333333333
sg34
F0.3333333333333333
sg35
S'yellow'
p1789
sba(icurlovision
Stone
p1790
(dp1791
g32
F-6.041666666666666
sg33
F0.29166666666666663
sg34
F0.4444444444444444
sg35
S'red'
p1792
sbasba(icurlovision
StoneLayout
p1793
(dp1794
g27
F0.4791666666666667
sg28
(lp1795
(icurlovision
Stone
p1796
(dp1797
g32
F1.1037735849056605
sg33
F-6.113207547169812
sg34
F0.339622641509434
sg35
S'yellow'
p1798
sba(icurlovision
Stone
p1799
(dp1800
g32
F-1.358490566037736
sg33
F2.6037735849056602
sg34
F0.3113207547169811
sg35
S'yellow'
p1801
sba(icurlovision
Stone
p1802
(dp1803
g32
F0.14150943396226415
sg33
F-5.179245283018868
sg34
F0.4669811320754717
sg35
S'yellow'
p1804
sba(icurlovision
Stone
p1805
(dp1806
g32
F6.0
sg33
F-2.9716981132075473
sg34
F0.49528301886792453
sg35
S'yellow'
p1807
sba(icurlovision
Stone
p1808
(dp1809
g32
F-1.9811320754716981
sg33
F-3.4811320754716983
sg34
F0.4669811320754717
sg35
S'red'
p1810
sba(icurlovision
Stone
p1811
(dp1812
g32
F-2.858490566037736
sg33
F-4.273584905660377
sg34
F0.339622641509434
sg35
S'yellow'
p1813
sba(icurlovision
Stone
p1814
(dp1815
g32
F-6.113207547169812
sg33
F0.2830188679245283
sg34
F0.2971698113207547
sg35
S'red'
p1816
sbasbasg121
I4
sg122
I0
sba(icurlovision
EndResult
p1817
(dp1818
g2
I6
sg9
(lp1819
(I7
I7
tp1820
a(I6
I5
tp1821
a(I5
I5
tp1822
a(I5
I4
tp1823
a(I4
I4
tp1824
a(I4
I3
tp1825
a(I3
I3
tp1826
a(I3
I2
tp1827
a(I2
I2
tp1828
a(I2
I1
tp1829
a(I1
I1
tp1830
a(I1
I0
tp1831
asg22
I10
sg23
(lp1832
(icurlovision
StoneLayout
p1833
(dp1834
g27
F0.4791666666666667
sg28
(lp1835
(icurlovision
Stone
p1836
(dp1837
g32
F11.549999999999999
sg33
F-3.36
sg34
F0.435
sg35
S'red'
p1838
sba(icurlovision
Stone
p1839
(dp1840
g32
F3.51
sg33
F0.3
sg34
F0.315
sg35
S'yellow'
p1841
sbasba(icurlovision
StoneLayout
p1842
(dp1843
g27
F0.4791666666666667
sg28
(lp1844
(icurlovision
Stone
p1845
(dp1846
g32
F2.9558823529411766
sg33
F6.338235294117647
sg34
F0.4411764705882353
sg35
S'red'
p1847
sba(icurlovision
Stone
p1848
(dp1849
g32
F1.7794117647058822
sg33
F-6.544117647058823
sg34
F0.45588235294117646
sg35
S'yellow'
p1850
sba(icurlovision
Stone
p1851
(dp1852
g32
F11.132352941176471
sg33
F-3.2205882352941178
sg34
F0.4117647058823529
sg35
S'red'
p1853
sba(icurlovision
Stone
p1854
(dp1855
g32
F3.3676470588235294
sg33
F0.3088235294117647
sg34
F0.3088235294117647
sg35
S'yellow'
p1856
sba(icurlovision
Stone
p1857
(dp1858
g32
F9.073529411764707
sg33
F6.573529411764706
sg34
F0.5147058823529411
sg35
S'yellow'
p1859
sbasba(icurlovision
StoneLayout
p1860
(dp1861
g27
F0.4791666666666667
sg28
(lp1862
(icurlovision
Stone
p1863
(dp1864
g32
F8.096938775510203
sg33
F2.4642857142857144
sg34
F0.29081632653061223
sg35
S'red'
p1865
sba(icurlovision
Stone
p1866
(dp1867
g32
F3.5357142857142856
sg33
F0.22959183673469388
sg34
F0.45918367346938777
sg35
S'yellow'
p1868
sba(icurlovision
Stone
p1869
(dp1870
g32
F11.58673469387755
sg33
F-3.4132653061224487
sg34
F0.42857142857142855
sg35
S'red'
p1871
sba(icurlovision
Stone
p1872
(dp1873
g32
F2.954081632653061
sg33
F2.954081632653061
sg34
F0.45918367346938777
sg35
S'yellow'
p1874
sbasba(icurlovision
StoneLayout
p1875
(dp1876
g27
F0.4791666666666667
sg28
(lp1877
(icurlovision
Stone
p1878
(dp1879
g32
F7.285714285714286
sg33
F2.571428571428571
sg34
F0.45535714285714285
sg35
S'red'
p1880
sba(icurlovision
Stone
p1881
(dp1882
g32
F3.5357142857142856
sg33
F0.26785714285714285
sg34
F0.33482142857142855
sg35
S'yellow'
p1883
sba(icurlovision
Stone
p1884
(dp1885
g32
F-0.3214285714285714
sg33
F6.4017857142857135
sg34
F0.33482142857142855
sg35
S'yellow'
p1886
sbasba(icurlovision
StoneLayout
p1887
(dp1888
g27
F0.4791666666666667
sg28
(lp1889
(icurlovision
Stone
p1890
(dp1891
g32
F7.2594339622641515
sg33
F2.547169811320755
sg34
F0.4528301886792453
sg35
S'red'
p1892
sba(icurlovision
Stone
p1893
(dp1894
g32
F3.5235849056603774
sg33
F0.25471698113207547
sg34
F0.32547169811320753
sg35
S'yellow'
p1895
sba(icurlovision
Stone
p1896
(dp1897
g32
F8.617924528301886
sg33
F-3.339622641509434
sg34
F0.4669811320754717
sg35
S'red'
p1898
sba(icurlovision
Stone
p1899
(dp1900
g32
F2.7311320754716983
sg33
F-3.7358490566037736
sg34
F0.3113207547169811
sg35
S'yellow'
p1901
sbasba(icurlovision
StoneLayout
p1902
(dp1903
g27
F0.4791666666666667
sg28
(lp1904
(icurlovision
Stone
p1905
(dp1906
g32
F7.159090909090909
sg33
F2.5227272727272725
sg34
F0.35454545454545455
sg35
S'red'
p1907
sba(icurlovision
Stone
p1908
(dp1909
g32
F3.477272727272727
sg33
F0.2590909090909091
sg34
F0.3409090909090909
sg35
S'yellow'
p1910
sbasba(icurlovision
StoneLayout
p1911
(dp1912
g27
F0.4791666666666667
sg28
(lp1913
(icurlovision
Stone
p1914
(dp1915
g32
F2.685
sg33
F-0.195
sg34
F0.44999999999999996
sg35
S'yellow'
p1916
sba(icurlovision
Stone
p1917
(dp1918
g32
F7.2749999999999995
sg33
F2.5949999999999998
sg34
F0.46499999999999997
sg35
S'red'
p1919
sba(icurlovision
Stone
p1920
(dp1921
g32
F0.105
sg33
F3.315
sg34
F0.44999999999999996
sg35
S'red'
p1922
sba(icurlovision
Stone
p1923
(dp1924
g32
F7.425
sg33
F-5.925
sg34
F0.27
sg35
S'yellow'
p1925
sbasba(icurlovision
StoneLayout
p1926
(dp1927
g27
F0.4791666666666667
sg28
(lp1928
(icurlovision
Stone
p1929
(dp1930
g32
F2.625
sg33
F-0.17500000000000002
sg34
F0.45
sg35
S'yellow'
p1931
sba(icurlovision
Stone
p1932
(dp1933
g32
F0.1
sg33
F3.2750000000000004
sg34
F0.4625
sg35
S'red'
p1934
sbasba(icurlovision
StoneLayout
p1935
(dp1936
g27
F0.4791666666666667
sg28
(lp1937
(icurlovision
Stone
p1938
(dp1939
g32
F2.7136363636363634
sg33
F-0.17727272727272728
sg34
F0.4636363636363636
sg35
S'yellow'
p1940
sba(icurlovision
Stone
p1941
(dp1942
g32
F0.09545454545454544
sg33
F3.3136363636363635
sg34
F0.4636363636363636
sg35
S'red'
p1943
sba(icurlovision
Stone
p1944
(dp1945
g32
F9.23181818181818
sg33
F3.286363636363636
sg34
F0.4636363636363636
sg35
S'red'
p1946
sba(icurlovision
Stone
p1947
(dp1948
g32
F4.0227272727272725
sg33
F3.259090909090909
sg34
F0.43636363636363634
sg35
S'yellow'
p1949
sbasba(icurlovision
StoneLayout
p1950
(dp1951
g27
F0.4791666666666667
sg28
(lp1952
(icurlovision
Stone
p1953
(dp1954
g32
F2.6307692307692307
sg33
F-0.2076923076923077
sg34
F0.3230769230769231
sg35
S'yellow'
p1955
sba(icurlovision
Stone
p1956
(dp1957
g32
F0.09230769230769231
sg33
F3.230769230769231
sg34
F0.4730769230769231
sg35
S'red'
p1958
sbasba(icurlovision
StoneLayout
p1959
(dp1960
g27
F0.4791666666666667
sg28
(lp1961
(icurlovision
Stone
p1962
(dp1963
g32
F0.10344827586206896
sg33
F3.206896551724138
sg34
F0.34913793103448276
sg35
S'red'
p1964
sba(icurlovision
Stone
p1965
(dp1966
g32
F2.8448275862068964
sg33
F1.1637931034482758
sg34
F0.4525862068965517
sg35
S'red'
p1967
sbasba(icurlovision
StoneLayout
p1968
(dp1969
g27
F0.4791666666666667
sg28
(lp1970
(icurlovision
Stone
p1971
(dp1972
g32
F0.10384615384615385
sg33
F3.2653846153846158
sg34
F0.46153846153846156
sg35
S'red'
p1973
sbasbasg121
I6
sg122
I1
sba(icurlovision
EndResult
p1974
(dp1975
g2
I6
sg9
(lp1976
(I7
I8
tp1977
a(I7
I7
tp1978
a(I6
I6
tp1979
a(I5
I6
tp1980
a(I5
I5
tp1981
a(I4
I5
tp1982
a(I4
I4
tp1983
a(I3
I4
tp1984
a(I3
I3
tp1985
a(I2
I3
tp1986
a(I2
I2
tp1987
a(I1
I2
tp1988
a(I0
I1
tp1989
asg22
I11
sg23
(lp1990
(icurlovision
StoneLayout
p1991
(dp1992
g27
F0.4791666666666667
sg28
(lp1993
(icurlovision
Stone
p1994
(dp1995
g32
F15.033333333333333
sg33
F1.1666666666666667
sg34
F0.4
sg35
S'red'
p1996
sba(icurlovision
Stone
p1997
(dp1998
g32
F10.266666666666666
sg33
F-0.1
sg34
F0.5
sg35
S'yellow'
p1999
sbasba(icurlovision
StoneLayout
p2000
(dp2001
g27
F0.4791666666666667
sg28
(lp2002
(icurlovision
Stone
p2003
(dp2004
g32
F14.912790697674419
sg33
F1.1337209302325582
sg34
F0.41860465116279066
sg35
S'red'
p2005
sbasba(icurlovision
StoneLayout
p2006
(dp2007
g27
F0.4791666666666667
sg28
(lp2008
(icurlovision
Stone
p2009
(dp2010
g32
F1.4184782608695652
sg33
F0.5706521739130435
sg34
F0.47282608695652173
sg35
S'yellow'
p2011
sba(icurlovision
Stone
p2012
(dp2013
g32
F11.559782608695652
sg33
F0.8967391304347826
sg34
F0.42391304347826086
sg35
S'red'
p2014
sba(icurlovision
Stone
p2015
(dp2016
g32
F15.440217391304348
sg33
F1.2228260869565217
sg34
F0.27717391304347827
sg35
S'red'
p2017
sba(icurlovision
Stone
p2018
(dp2019
g32
F8.13586956521739
sg33
F0.016304347826086956
sg34
F0.42391304347826086
sg35
S'red'
p2020
sbasba(icurlovision
StoneLayout
p2021
(dp2022
g27
F0.4791666666666667
sg28
(lp2023
(icurlovision
Stone
p2024
(dp2025
g32
F3.274390243902439
sg33
F0.9329268292682926
sg34
F0.45731707317073167
sg35
S'red'
p2026
sba(icurlovision
Stone
p2027
(dp2028
g32
F1.4085365853658536
sg33
F0.5670731707317073
sg34
F0.45731707317073167
sg35
S'yellow'
p2029
sba(icurlovision
Stone
p2030
(dp2031
g32
F15.274390243902438
sg33
F1.1890243902439024
sg34
F0.3841463414634146
sg35
S'red'
p2032
sba(icurlovision
Stone
p2033
(dp2034
g32
F10.664634146341463
sg33
F1.847560975609756
sg34
F0.3841463414634146
sg35
S'yellow'
p2035
sbasba(icurlovision
StoneLayout
p2036
(dp2037
g27
F0.4791666666666667
sg28
(lp2038
(icurlovision
Stone
p2039
(dp2040
g32
F3.264705882352941
sg33
F0.9411764705882353
sg34
F0.45588235294117646
sg35
S'red'
p2041
sba(icurlovision
Stone
p2042
(dp2043
g32
F1.3823529411764706
sg33
F0.5294117647058824
sg34
F0.3235294117647059
sg35
S'yellow'
p2044
sba(icurlovision
Stone
p2045
(dp2046
g32
F11.382352941176471
sg33
F0.9117647058823529
sg34
F0.4411764705882353
sg35
S'red'
p2047
sbasba(icurlovision
StoneLayout
p2048
(dp2049
g27
F0.4791666666666667
sg28
(lp2050
(icurlovision
Stone
p2051
(dp2052
g32
F3.204545454545454
sg33
F0.9204545454545454
sg34
F0.4431818181818181
sg35
S'red'
p2053
sba(icurlovision
Stone
p2054
(dp2055
g32
F-2.4886363636363633
sg33
F2.8636363636363633
sg34
F0.3409090909090909
sg35
S'yellow'
p2056
sba(icurlovision
Stone
p2057
(dp2058
g32
F0.20454545454545453
sg33
F-2.0795454545454546
sg34
F0.30681818181818177
sg35
S'red'
p2059
sba(icurlovision
Stone
p2060
(dp2061
g32
F11.25
sg33
F0.8863636363636362
sg34
F0.4261363636363636
sg35
S'red'
p2062
sba(icurlovision
Stone
p2063
(dp2064
g32
F2.625
sg33
F4.5681818181818175
sg34
F0.2727272727272727
sg35
S'red'
p2065
sbasba(icurlovision
StoneLayout
p2066
(dp2067
g27
F0.4791666666666667
sg28
(lp2068
(icurlovision
Stone
p2069
(dp2070
g32
F3.2125000000000004
sg33
F0.9125000000000001
sg34
F0.45
sg35
S'red'
p2071
sba(icurlovision
Stone
p2072
(dp2073
g32
F-2.0125
sg33
F6.9375
sg34
F0.3375
sg35
S'yellow'
p2074
sba(icurlovision
Stone
p2075
(dp2076
g32
F-2.6125000000000003
sg33
F2.9125
sg34
F0.3375
sg35
S'yellow'
p2077
sba(icurlovision
Stone
p2078
(dp2079
g32
F0.08750000000000001
sg33
F-2.1375
sg34
F0.325
sg35
S'red'
p2080
sbasba(icurlovision
StoneLayout
p2081
(dp2082
g27
F0.4791666666666667
sg28
(lp2083
(icurlovision
Stone
p2084
(dp2085
g32
F-2.5588235294117645
sg33
F2.8529411764705883
sg34
F0.47058823529411764
sg35
S'yellow'
p2086
sba(icurlovision
Stone
p2087
(dp2088
g32
F10.058823529411764
sg33
F0.5588235294117647
sg34
F0.4411764705882353
sg35
S'red'
p2089
sba(icurlovision
Stone
p2090
(dp2091
g32
F0.08823529411764705
sg33
F-2.088235294117647
sg34
F0.4264705882352941
sg35
S'red'
p2092
sba(icurlovision
Stone
p2093
(dp2094
g32
F3.2058823529411766
sg33
F0.8823529411764706
sg34
F0.4411764705882353
sg35
S'red'
p2095
sba(icurlovision
Stone
p2096
(dp2097
g32
F-0.9117647058823529
sg33
F0.3529411764705882
sg34
F0.45588235294117646
sg35
S'yellow'
p2098
sbasba(icurlovision
StoneLayout
p2099
(dp2100
g27
F0.4791666666666667
sg28
(lp2101
(icurlovision
Stone
p2102
(dp2103
g32
F3.2750000000000004
sg33
F0.9500000000000001
sg34
F0.4625
sg35
S'red'
p2104
sba(icurlovision
Stone
p2105
(dp2106
g32
F-2.6500000000000004
sg33
F2.95
sg34
F0.3375
sg35
S'yellow'
p2107
sba(icurlovision
Stone
p2108
(dp2109
g32
F0.05
sg33
F-2.15
sg34
F0.3375
sg35
S'red'
p2110
sba(icurlovision
Stone
p2111
(dp2112
g32
F-6.125
sg33
F6.65
sg34
F0.325
sg35
S'yellow'
p2113
sba(icurlovision
Stone
p2114
(dp2115
g32
F-6.45
sg33
F2.95
sg34
F0.4375
sg35
S'yellow'
p2116
sbasba(icurlovision
StoneLayout
p2117
(dp2118
g27
F0.4791666666666667
sg28
(lp2119
(icurlovision
Stone
p2120
(dp2121
g32
F0.05084745762711865
sg33
F-2.1610169491525424
sg34
F0.4576271186440678
sg35
S'red'
p2122
sba(icurlovision
Stone
p2123
(dp2124
g32
F-2.6440677966101696
sg33
F2.9491525423728815
sg34
F0.3686440677966102
sg35
S'yellow'
p2125
sba(icurlovision
Stone
p2126
(dp2127
g32
F3.1271186440677967
sg33
F1.1949152542372883
sg34
F0.3432203389830509
sg35
S'red'
p2128
sba(icurlovision
Stone
p2129
(dp2130
g32
F1.957627118644068
sg33
F-0.5593220338983051
sg34
F0.4703389830508475
sg35
S'red'
p2131
sbasba(icurlovision
StoneLayout
p2132
(dp2133
g27
F0.4791666666666667
sg28
(lp2134
(icurlovision
Stone
p2135
(dp2136
g32
F-2.6379310344827585
sg33
F2.935344827586207
sg34
F0.3620689655172414
sg35
S'yellow'
p2137
sba(icurlovision
Stone
p2138
(dp2139
g32
F3.103448275862069
sg33
F1.2025862068965516
sg34
F0.46551724137931033
sg35
S'red'
p2140
sba(icurlovision
Stone
p2141
(dp2142
g32
F-3.2844827586206895
sg33
F6.995689655172414
sg34
F0.3232758620689655
sg35
S'yellow'
p2143
sba(icurlovision
Stone
p2144
(dp2145
g32
F-6.155172413793103
sg33
F-5.495689655172414
sg34
F0.47844827586206895
sg35
S'red'
p2146
sbasba(icurlovision
StoneLayout
p2147
(dp2148
g27
F0.4791666666666667
sg28
(lp2149
(icurlovision
Stone
p2150
(dp2151
g32
F-2.642045454545454
sg33
F2.9488636363636362
sg34
F0.47727272727272724
sg35
S'yellow'
p2152
sba(icurlovision
Stone
p2153
(dp2154
g32
F3.1193181818181817
sg33
F1.1761363636363635
sg34
F0.4431818181818181
sg35
S'red'
p2155
sba(icurlovision
Stone
p2156
(dp2157
g32
F12.426136363636363
sg33
F0.7329545454545454
sg34
F0.4602272727272727
sg35
S'red'
p2158
sba(icurlovision
Stone
p2159
(dp2160
g32
F8.02840909090909
sg33
F1.1420454545454544
sg34
F0.4431818181818181
sg35
S'yellow'
p2161
sba(icurlovision
Stone
p2162
(dp2163
g32
F8.0625
sg33
F0.6988636363636364
sg34
F0.5284090909090908
sg35
S'yellow'
p2164
sbasba(icurlovision
StoneLayout
p2165
(dp2166
g27
F0.4791666666666667
sg28
(lp2167
(icurlovision
Stone
p2168
(dp2169
g32
F-2.5238095238095237
sg33
F2.9285714285714284
sg34
F0.3333333333333333
sg35
S'yellow'
p2170
sba(icurlovision
Stone
p2171
(dp2172
g32
F3.071428571428571
sg33
F1.2142857142857142
sg34
F0.41666666666666663
sg35
S'red'
p2173
sba(icurlovision
Stone
p2174
(dp2175
g32
F-1.9047619047619047
sg33
F1.619047619047619
sg34
F0.5
sg35
S'yellow'
p2176
sbasbasg121
I6
sg122
I0
sbasS'version'
p2177
I20180812
sg121
I6
sS'metadata'
p2178
(icurlovision
MatchMetadata
p2179
(dp2180
S'team_name_red'
p2181
S'Unknown'
p2182
sS'event_name'
p2183
g2182
sS'gender'
p2184
g2182
sS'other_info'
p2185
g2182
sS'team_name_yel'
p2186
g2182
sS'date'
p2187
g2182
sbsb.