(icurlovision
MatchResult
p0
(dp1
S'yel_score'
p2
I6
sS'name'
p3
S"VideoLibrary/PyeongChang.Olympics.2018.curling.men's.round-robin.Great.Britain.v.Denmark.1080p.NBC.WEB-DL-FINFUNGUS.mp4"
p4
sS'end_results'
p5
(lp6
(icurlovision
EndResult
p7
(dp8
g2
I1
sS'stones_left'
p9
(lp10
(I7
I8
tp11
a(I7
I7
tp12
a(I6
I7
tp13
a(I6
I6
tp14
a(I5
I6
tp15
a(I5
I5
tp16
a(I4
I5
tp17
a(I4
I4
tp18
a(I3
I4
tp19
a(I3
I3
tp20
a(I2
I3
tp21
a(I2
I2
tp22
a(I1
I2
tp23
a(I1
I1
tp24
a(I0
I1
tp25
asS'end_num'
p26
I1
sS'stone_layouts'
p27
(lp28
(icurlovision
StoneLayout
p29
(dp30
S'stone_radius'
p31
F0.4791666666666667
sS'stones'
p32
(lp33
(icurlovision
Stone
p34
(dp35
S'y'
p36
F9.319444444444445
sS'x'
p37
F0.3472222222222222
sS'r'
p38
F0.41666666666666663
sS'color'
p39
S'red'
p40
sbasba(icurlovision
StoneLayout
p41
(dp42
g31
F0.4791666666666667
sg32
(lp43
(icurlovision
Stone
p44
(dp45
g36
F2.005813953488372
sg37
F0.0872093023255814
sg38
F0.313953488372093
sg39
S'yellow'
p46
sba(icurlovision
Stone
p47
(dp48
g36
F9.645348837209303
sg37
F0.36627906976744184
sg38
F0.436046511627907
sg39
S'red'
p49
sbasba(icurlovision
StoneLayout
p50
(dp51
g31
F0.4791666666666667
sg32
(lp52
(icurlovision
Stone
p53
(dp54
g36
F9.551020408163264
sg37
F0.3979591836734694
sg38
F0.44387755102040816
sg39
S'red'
p55
sba(icurlovision
Stone
p56
(dp57
g36
F2.020408163265306
sg37
F0.09183673469387754
sg38
F0.336734693877551
sg39
S'yellow'
p58
sba(icurlovision
Stone
p59
(dp60
g36
F4.071428571428571
sg37
F0.061224489795918366
sg38
F0.336734693877551
sg39
S'red'
p61
sbasba(icurlovision
StoneLayout
p62
(dp63
g31
F0.4791666666666667
sg32
(lp64
(icurlovision
Stone
p65
(dp66
g36
F1.9949999999999999
sg37
F0.045
sg38
F0.44999999999999996
sg39
S'yellow'
p67
sba(icurlovision
Stone
p68
(dp69
g36
F3.4949999999999997
sg37
F-0.075
sg38
F0.345
sg39
S'red'
p70
sba(icurlovision
Stone
p71
(dp72
g36
F9.705
sg37
F0.375
sg38
F0.3
sg39
S'red'
p73
sba(icurlovision
Stone
p74
(dp75
g36
F4.875
sg37
F0.525
sg38
F0.42
sg39
S'yellow'
p76
sbasba(icurlovision
StoneLayout
p77
(dp78
g31
F0.4791666666666667
sg32
(lp79
(icurlovision
Stone
p80
(dp81
g36
F0.6166666666666667
sg37
F-1.1833333333333333
sg38
F0.35
sg39
S'red'
p82
sba(icurlovision
Stone
p83
(dp84
g36
F3.55
sg37
F-0.08333333333333333
sg38
F0.48333333333333334
sg39
S'red'
p85
sba(icurlovision
Stone
p86
(dp87
g36
F1.95
sg37
F0.21666666666666667
sg38
F0.3333333333333333
sg39
S'yellow'
p88
sba(icurlovision
Stone
p89
(dp90
g36
F9.683333333333334
sg37
F0.3833333333333333
sg38
F0.45
sg39
S'red'
p91
sba(icurlovision
Stone
p92
(dp93
g36
F4.916666666666667
sg37
F0.5833333333333334
sg38
F0.3
sg39
S'yellow'
p94
sbasba(icurlovision
StoneLayout
p95
(dp96
g31
F0.4791666666666667
sg32
(lp97
(icurlovision
Stone
p98
(dp99
g36
F9.698863636363635
sg37
F0.39204545454545453
sg38
F0.4261363636363636
sg39
S'red'
p100
sba(icurlovision
Stone
p101
(dp102
g36
F4.892045454545454
sg37
F0.5625
sg38
F0.4261363636363636
sg39
S'yellow'
p103
sba(icurlovision
Stone
p104
(dp105
g36
F1.9261363636363635
sg37
F0.15340909090909088
sg38
F0.4431818181818181
sg39
S'yellow'
p106
sba(icurlovision
Stone
p107
(dp108
g36
F1.3806818181818181
sg37
F-1.6534090909090908
sg38
F0.32386363636363635
sg39
S'yellow'
p109
sbasba(icurlovision
StoneLayout
p110
(dp111
g31
F0.4791666666666667
sg32
(lp112
(icurlovision
Stone
p113
(dp114
g36
F3.33
sg37
F0.0
sg38
F0.32999999999999996
sg39
S'red'
p115
sba(icurlovision
Stone
p116
(dp117
g36
F4.62
sg37
F0.63
sg38
F0.3
sg39
S'yellow'
p118
sba(icurlovision
Stone
p119
(dp120
g36
F9.15
sg37
F0.44999999999999996
sg38
F0.285
sg39
S'red'
p121
sba(icurlovision
Stone
p122
(dp123
g36
F0.18
sg37
F-0.48
sg38
F0.435
sg39
S'red'
p124
sba(icurlovision
Stone
p125
(dp126
g36
F1.08
sg37
F4.2
sg38
F0.315
sg39
S'yellow'
p127
sbasba(icurlovision
StoneLayout
p128
(dp129
g31
F0.4791666666666667
sg32
(lp130
(icurlovision
Stone
p131
(dp132
g36
F3.543103448275862
sg37
F-0.06465517241379311
sg38
F0.34913793103448276
sg39
S'red'
p133
sbasba(icurlovision
StoneLayout
p134
(dp135
g31
F0.4791666666666667
sg32
(lp136
(icurlovision
Stone
p137
(dp138
g36
F3.4861111111111107
sg37
F-0.06944444444444445
sg38
F0.3472222222222222
sg39
S'red'
p139
sba(icurlovision
Stone
p140
(dp141
g36
F0.125
sg37
F-0.5694444444444444
sg38
F0.38888888888888884
sg39
S'red'
p142
sba(icurlovision
Stone
p143
(dp144
g36
F4.125
sg37
F-2.2916666666666665
sg38
F0.3472222222222222
sg39
S'red'
p145
sbasba(icurlovision
StoneLayout
p146
(dp147
g31
F0.4791666666666667
sg32
(lp148
(icurlovision
Stone
p149
(dp150
g36
F3.435
sg37
F-0.045
sg38
F0.44999999999999996
sg39
S'red'
p151
sba(icurlovision
Stone
p152
(dp153
g36
F0.16499999999999998
sg37
F-0.525
sg38
F0.32999999999999996
sg39
S'red'
p154
sba(icurlovision
Stone
p155
(dp156
g36
F4.965
sg37
F-2.235
sg38
F0.32999999999999996
sg39
S'yellow'
p157
sbasba(icurlovision
StoneLayout
p158
(dp159
g31
F0.4791666666666667
sg32
(lp160
(icurlovision
Stone
p161
(dp162
g36
F0.8839285714285714
sg37
F0.65625
sg38
F0.3482142857142857
sg39
S'red'
p163
sba(icurlovision
Stone
p164
(dp165
g36
F0.1875
sg37
F-0.5758928571428571
sg38
F0.36160714285714285
sg39
S'red'
p166
sba(icurlovision
Stone
p167
(dp168
g36
F4.553571428571428
sg37
F3.8973214285714284
sg38
F0.45535714285714285
sg39
S'red'
p169
sbasba(icurlovision
StoneLayout
p170
(dp171
g31
F0.4791666666666667
sg32
(lp172
(icurlovision
Stone
p173
(dp174
g36
F0.169811320754717
sg37
F-0.5660377358490566
sg38
F0.3537735849056604
sg39
S'red'
p175
sba(icurlovision
Stone
p176
(dp177
g36
F1.7547169811320755
sg37
F0.5377358490566038
sg38
F0.32547169811320753
sg39
S'yellow'
p178
sba(icurlovision
Stone
p179
(dp180
g36
F4.415094339622642
sg37
F3.7924528301886795
sg38
F0.32547169811320753
sg39
S'red'
p181
sbasba(icurlovision
StoneLayout
p182
(dp183
g31
F0.4791666666666667
sg32
(lp184
(icurlovision
Stone
p185
(dp186
g36
F2.6440677966101696
sg37
F0.5338983050847458
sg38
F0.4576271186440678
sg39
S'red'
p187
sba(icurlovision
Stone
p188
(dp189
g36
F0.15254237288135594
sg37
F-0.5593220338983051
sg38
F0.3432203389830509
sg39
S'red'
p190
sba(icurlovision
Stone
p191
(dp192
g36
F4.423728813559323
sg37
F3.76271186440678
sg38
F0.3432203389830509
sg39
S'red'
p193
sbasba(icurlovision
StoneLayout
p194
(dp195
g31
F0.4791666666666667
sg32
(lp196
(icurlovision
Stone
p197
(dp198
g36
F0.1839622641509434
sg37
F-0.6084905660377359
sg38
F0.3537735849056604
sg39
S'red'
p199
sba(icurlovision
Stone
p200
(dp201
g36
F4.627358490566038
sg37
F3.919811320754717
sg38
F0.3113207547169811
sg39
S'red'
p202
sba(icurlovision
Stone
p203
(dp204
g36
F3.7216981132075473
sg37
F0.6367924528301887
sg38
F0.3537735849056604
sg39
S'yellow'
p205
sbasba(icurlovision
StoneLayout
p206
(dp207
g31
F0.4791666666666667
sg32
(lp208
(icurlovision
Stone
p209
(dp210
g36
F0.20833333333333331
sg37
F-0.5972222222222222
sg38
F0.4722222222222222
sg39
S'red'
p211
sba(icurlovision
Stone
p212
(dp213
g36
F4.569444444444444
sg37
F3.875
sg38
F0.4722222222222222
sg39
S'red'
p214
sba(icurlovision
Stone
p215
(dp216
g36
F4.597222222222222
sg37
F0.625
sg38
F0.3472222222222222
sg39
S'red'
p217
sbasbasS'red_score'
p218
I0
sS'red_hammer'
p219
I0
sba(icurlovision
EndResult
p220
(dp221
g2
I1
sg9
(lp222
(I7
I7
tp223
a(I5
I5
tp224
a(I4
I3
tp225
a(I3
I3
tp226
a(I3
I2
tp227
a(I2
I2
tp228
a(I2
I1
tp229
a(I1
I1
tp230
a(I1
I0
tp231
asg26
I2
sg27
(lp232
(icurlovision
StoneLayout
p233
(dp234
g31
F0.4791666666666667
sg32
(lp235
(icurlovision
Stone
p236
(dp237
g36
F0.5217391304347826
sg37
F-0.9456521739130435
sg38
F0.32608695652173914
sg39
S'yellow'
p238
sba(icurlovision
Stone
p239
(dp240
g36
F11.380434782608695
sg37
F2.608695652173913
sg38
F0.45652173913043476
sg39
S'red'
p241
sbasba(icurlovision
StoneLayout
p242
(dp243
g31
F0.4791666666666667
sg32
(lp244
(icurlovision
Stone
p245
(dp246
g36
F0.4875
sg37
F-0.9375
sg38
F0.33749999999999997
sg39
S'yellow'
p247
sba(icurlovision
Stone
p248
(dp249
g36
F11.5125
sg37
F-6.8625
sg38
F0.28125
sg39
S'red'
p250
sba(icurlovision
Stone
p251
(dp252
g36
F11.25
sg37
F2.475
sg38
F0.43124999999999997
sg39
S'red'
p253
sba(icurlovision
Stone
p254
(dp255
g36
F14.962499999999999
sg37
F-2.1374999999999997
sg38
F0.4125
sg39
S'yellow'
p256
sba(icurlovision
Stone
p257
(dp258
g36
F4.6125
sg37
F-2.3249999999999997
sg38
F0.43124999999999997
sg39
S'yellow'
p259
sbasba(icurlovision
StoneLayout
p260
(dp261
g31
F0.4791666666666667
sg32
(lp262
(icurlovision
Stone
p263
(dp264
g36
F1.4375
sg37
F-0.6875
sg38
F0.4583333333333333
sg39
S'red'
p265
sba(icurlovision
Stone
p266
(dp267
g36
F-1.5208333333333333
sg37
F-1.4375
sg38
F0.47916666666666663
sg39
S'yellow'
p268
sba(icurlovision
Stone
p269
(dp270
g36
F11.354166666666666
sg37
F2.6041666666666665
sg38
F0.4375
sg39
S'red'
p271
sba(icurlovision
Stone
p272
(dp273
g36
F4.645833333333333
sg37
F-2.270833333333333
sg38
F0.4583333333333333
sg39
S'yellow'
p274
sba(icurlovision
Stone
p275
(dp276
g36
F15.145833333333332
sg37
F-2.0625
sg38
F0.25
sg39
S'yellow'
p277
sba(icurlovision
Stone
p278
(dp279
g36
F3.9791666666666665
sg37
F-0.6875
sg38
F0.3333333333333333
sg39
S'yellow'
p280
sba(icurlovision
Stone
p281
(dp282
g36
F15.020833333333332
sg37
F-0.8125
sg38
F0.3333333333333333
sg39
S'yellow'
p283
sba(icurlovision
Stone
p284
(dp285
g36
F-2.270833333333333
sg37
F1.0625
sg38
F0.2708333333333333
sg39
S'red'
p286
sbasba(icurlovision
StoneLayout
p287
(dp288
g31
F0.4791666666666667
sg32
(lp289
(icurlovision
Stone
p290
(dp291
g36
F1.3250000000000002
sg37
F-2.7
sg38
F0.3375
sg39
S'yellow'
p292
sba(icurlovision
Stone
p293
(dp294
g36
F-1.5750000000000002
sg37
F-1.4000000000000001
sg38
F0.3375
sg39
S'yellow'
p295
sba(icurlovision
Stone
p296
(dp297
g36
F-6.25
sg37
F1.7000000000000002
sg38
F0.35000000000000003
sg39
S'red'
p298
sba(icurlovision
Stone
p299
(dp300
g36
F4.6000000000000005
sg37
F-2.4000000000000004
sg38
F0.3375
sg39
S'yellow'
p301
sba(icurlovision
Stone
p302
(dp303
g36
F4.675
sg37
F-0.2
sg38
F0.36250000000000004
sg39
S'red'
p304
sbasba(icurlovision
StoneLayout
p305
(dp306
g31
F0.4791666666666667
sg32
(lp307
(icurlovision
Stone
p308
(dp309
g36
F1.3958333333333333
sg37
F-2.6875
sg38
F0.4583333333333333
sg39
S'yellow'
p310
sba(icurlovision
Stone
p311
(dp312
g36
F-1.5625
sg37
F-1.4375
sg38
F0.3333333333333333
sg39
S'yellow'
p313
sba(icurlovision
Stone
p314
(dp315
g36
F11.395833333333332
sg37
F2.4791666666666665
sg38
F0.4583333333333333
sg39
S'red'
p316
sba(icurlovision
Stone
p317
(dp318
g36
F15.104166666666666
sg37
F-2.2291666666666665
sg38
F0.41666666666666663
sg39
S'yellow'
p319
sba(icurlovision
Stone
p320
(dp321
g36
F15.354166666666666
sg37
F0.8125
sg38
F0.41666666666666663
sg39
S'yellow'
p322
sba(icurlovision
Stone
p323
(dp324
g36
F14.9375
sg37
F-0.9375
sg38
F0.41666666666666663
sg39
S'yellow'
p325
sba(icurlovision
Stone
p326
(dp327
g36
F4.604166666666666
sg37
F-2.3125
sg38
F0.41666666666666663
sg39
S'yellow'
p328
sba(icurlovision
Stone
p329
(dp330
g36
F4.729166666666666
sg37
F-0.14583333333333331
sg38
F0.20833333333333331
sg39
S'red'
p331
sbasba(icurlovision
StoneLayout
p332
(dp333
g31
F0.4791666666666667
sg32
(lp334
(icurlovision
Stone
p335
(dp336
g36
F1.3958333333333333
sg37
F-2.6875
sg38
F0.4583333333333333
sg39
S'yellow'
p337
sba(icurlovision
Stone
p338
(dp339
g36
F15.104166666666666
sg37
F-2.2291666666666665
sg38
F0.4375
sg39
S'yellow'
p340
sba(icurlovision
Stone
p341
(dp342
g36
F-6.3125
sg37
F1.6875
sg38
F0.47916666666666663
sg39
S'red'
p343
sba(icurlovision
Stone
p344
(dp345
g36
F-1.5625
sg37
F-1.4375
sg38
F0.4583333333333333
sg39
S'yellow'
p346
sba(icurlovision
Stone
p347
(dp348
g36
F7.0625
sg37
F0.35416666666666663
sg38
F0.4583333333333333
sg39
S'red'
p349
sba(icurlovision
Stone
p350
(dp351
g36
F11.395833333333332
sg37
F2.4791666666666665
sg38
F0.2708333333333333
sg39
S'red'
p352
sba(icurlovision
Stone
p353
(dp354
g36
F4.604166666666666
sg37
F-2.3125
sg38
F0.29166666666666663
sg39
S'yellow'
p355
sba(icurlovision
Stone
p356
(dp357
g36
F4.729166666666666
sg37
F-0.14583333333333331
sg38
F0.2708333333333333
sg39
S'red'
p358
sbasba(icurlovision
StoneLayout
p359
(dp360
g31
F0.4791666666666667
sg32
(lp361
(icurlovision
Stone
p362
(dp363
g36
F1.375
sg37
F-2.6666666666666665
sg38
F0.3333333333333333
sg39
S'yellow'
p364
sba(icurlovision
Stone
p365
(dp366
g36
F-1.5833333333333333
sg37
F-1.4583333333333333
sg38
F0.3333333333333333
sg39
S'yellow'
p367
sba(icurlovision
Stone
p368
(dp369
g36
F11.333333333333332
sg37
F2.625
sg38
F0.25
sg39
S'red'
p370
sba(icurlovision
Stone
p371
(dp372
g36
F6.458333333333333
sg37
F-0.9583333333333333
sg38
F0.4583333333333333
sg39
S'yellow'
p373
sba(icurlovision
Stone
p374
(dp375
g36
F15.083333333333332
sg37
F-2.0416666666666665
sg38
F0.4375
sg39
S'yellow'
p376
sba(icurlovision
Stone
p377
(dp378
g36
F7.0
sg37
F0.4583333333333333
sg38
F0.4375
sg39
S'red'
p379
sba(icurlovision
Stone
p380
(dp381
g36
F4.625
sg37
F-2.2916666666666665
sg38
F0.41666666666666663
sg39
S'yellow'
p382
sba(icurlovision
Stone
p383
(dp384
g36
F-6.333333333333333
sg37
F1.5833333333333333
sg38
F0.3958333333333333
sg39
S'red'
p385
sba(icurlovision
Stone
p386
(dp387
g36
F4.625
sg37
F-0.125
sg38
F0.35416666666666663
sg39
S'red'
p388
sbasba(icurlovision
StoneLayout
p389
(dp390
g31
F0.4791666666666667
sg32
(lp391
(icurlovision
Stone
p392
(dp393
g36
F1.3581081081081081
sg37
F-2.614864864864865
sg38
F0.46621621621621623
sg39
S'yellow'
p394
sba(icurlovision
Stone
p395
(dp396
g36
F-1.560810810810811
sg37
F-1.3986486486486487
sg38
F0.32432432432432434
sg39
S'yellow'
p397
sba(icurlovision
Stone
p398
(dp399
g36
F14.695945945945947
sg37
F-2.0472972972972974
sg38
F0.40540540540540543
sg39
S'yellow'
p400
sba(icurlovision
Stone
p401
(dp402
g36
F7.560810810810811
sg37
F0.9932432432432433
sg38
F0.44594594594594594
sg39
S'red'
p403
sba(icurlovision
Stone
p404
(dp405
g36
F6.344594594594595
sg37
F-0.9932432432432433
sg38
F0.32432432432432434
sg39
S'yellow'
p406
sba(icurlovision
Stone
p407
(dp408
g36
F11.047297297297298
sg37
F2.4932432432432434
sg38
F0.4256756756756757
sg39
S'red'
p409
sba(icurlovision
Stone
p410
(dp411
g36
F4.47972972972973
sg37
F-2.25
sg38
F0.44594594594594594
sg39
S'yellow'
p412
sba(icurlovision
Stone
p413
(dp414
g36
F-6.1824324324324325
sg37
F1.560810810810811
sg38
F0.32432432432432434
sg39
S'red'
p415
sba(icurlovision
Stone
p416
(dp417
g36
F5.452702702702703
sg37
F-0.060810810810810814
sg38
F0.44594594594594594
sg39
S'red'
p418
sba(icurlovision
Stone
p419
(dp420
g36
F1.1554054054054055
sg37
F-0.26351351351351354
sg38
F0.32432432432432434
sg39
S'red'
p421
sbasba(icurlovision
StoneLayout
p422
(dp423
g31
F0.4791666666666667
sg32
(lp424
(icurlovision
Stone
p425
(dp426
g36
F1.3541666666666665
sg37
F-2.645833333333333
sg38
F0.47916666666666663
sg39
S'yellow'
p427
sba(icurlovision
Stone
p428
(dp429
g36
F-1.6041666666666665
sg37
F-1.3958333333333333
sg38
F0.4583333333333333
sg39
S'yellow'
p430
sba(icurlovision
Stone
p431
(dp432
g36
F6.479166666666666
sg37
F-1.0208333333333333
sg38
F0.4583333333333333
sg39
S'yellow'
p433
sba(icurlovision
Stone
p434
(dp435
g36
F11.354166666666666
sg37
F2.5625
sg38
F0.4583333333333333
sg39
S'red'
p436
sba(icurlovision
Stone
p437
(dp438
g36
F10.3125
sg37
F0.0625
sg38
F0.4375
sg39
S'yellow'
p439
sba(icurlovision
Stone
p440
(dp441
g36
F7.729166666666666
sg37
F0.9791666666666666
sg38
F0.29166666666666663
sg39
S'red'
p442
sba(icurlovision
Stone
p443
(dp444
g36
F15.104166666666666
sg37
F-2.145833333333333
sg38
F0.41666666666666663
sg39
S'yellow'
p445
sba(icurlovision
Stone
p446
(dp447
g36
F1.1875
sg37
F-0.2708333333333333
sg38
F0.25
sg39
S'red'
p448
sba(icurlovision
Stone
p449
(dp450
g36
F-6.354166666666666
sg37
F1.7291666666666665
sg38
F0.3333333333333333
sg39
S'red'
p451
sba(icurlovision
Stone
p452
(dp453
g36
F4.5625
sg37
F-2.270833333333333
sg38
F0.4583333333333333
sg39
S'yellow'
p454
sba(icurlovision
Stone
p455
(dp456
g36
F5.604166666666666
sg37
F-0.10416666666666666
sg38
F0.35416666666666663
sg39
S'red'
p457
sbasbasg218
I1
sg219
I1
sba(icurlovision
EndResult
p458
(dp459
g2
I2
sg9
(lp460
(I7
I8
tp461
a(I7
I7
tp462
a(I6
I7
tp463
a(I6
I6
tp464
a(I5
I6
tp465
a(I5
I5
tp466
a(I4
I5
tp467
a(I4
I4
tp468
a(I3
I4
tp469
a(I3
I3
tp470
a(I2
I3
tp471
a(I2
I2
tp472
a(I1
I2
tp473
a(I1
I1
tp474
a(I0
I1
tp475
asg26
I3
sg27
(lp476
(icurlovision
StoneLayout
p477
(dp478
g31
F0.4791666666666667
sg32
(lp479
(icurlovision
Stone
p480
(dp481
g36
F8.846590909090908
sg37
F0.08522727272727272
sg38
F0.28977272727272724
sg39
S'red'
p482
sbasba(icurlovision
StoneLayout
p483
(dp484
g31
F0.4791666666666667
sg32
(lp485
(icurlovision
Stone
p486
(dp487
g36
F-1.6744186046511627
sg37
F0.45348837209302323
sg38
F0.3488372093023256
sg39
S'yellow'
p488
sba(icurlovision
Stone
p489
(dp490
g36
F9.209302325581396
sg37
F0.20930232558139533
sg38
F0.47093023255813954
sg39
S'red'
p491
sbasba(icurlovision
StoneLayout
p492
(dp493
g31
F0.4791666666666667
sg32
(lp494
(icurlovision
Stone
p495
(dp496
g36
F-2.25
sg37
F1.08
sg38
F0.315
sg39
S'yellow'
p497
sba(icurlovision
Stone
p498
(dp499
g36
F8.94
sg37
F0.15
sg38
F0.44999999999999996
sg39
S'red'
p500
sba(icurlovision
Stone
p501
(dp502
g36
F-2.13
sg37
F-0.84
sg38
F0.46499999999999997
sg39
S'red'
p503
sbasba(icurlovision
StoneLayout
p504
(dp505
g31
F0.4791666666666667
sg32
(lp506
(icurlovision
Stone
p507
(dp508
g36
F-2.164772727272727
sg37
F-0.8352272727272727
sg38
F0.3579545454545454
sg39
S'red'
p509
sba(icurlovision
Stone
p510
(dp511
g36
F-1.2443181818181817
sg37
F0.7329545454545454
sg38
F0.28977272727272724
sg39
S'yellow'
p512
sba(icurlovision
Stone
p513
(dp514
g36
F-2.2670454545454546
sg37
F1.0738636363636362
sg38
F0.32386363636363635
sg39
S'yellow'
p515
sba(icurlovision
Stone
p516
(dp517
g36
F8.948863636363635
sg37
F0.11931818181818181
sg38
F0.4431818181818181
sg39
S'red'
p518
sbasba(icurlovision
StoneLayout
p519
(dp520
g31
F0.4791666666666667
sg32
(lp521
(icurlovision
Stone
p522
(dp523
g36
F-2.5212765957446805
sg37
F-0.9095744680851063
sg38
F0.351063829787234
sg39
S'red'
p524
sba(icurlovision
Stone
p525
(dp526
g36
F-1.4680851063829785
sg37
F-1.2925531914893615
sg38
F0.3191489361702127
sg39
S'red'
p527
sba(icurlovision
Stone
p528
(dp529
g36
F-3.861702127659574
sg37
F1.6117021276595744
sg38
F0.4627659574468085
sg39
S'yellow'
p530
sba(icurlovision
Stone
p531
(dp532
g36
F9.063829787234042
sg37
F0.14361702127659573
sg38
F0.28723404255319146
sg39
S'red'
p533
sba(icurlovision
Stone
p534
(dp535
g36
F-1.404255319148936
sg37
F0.8138297872340425
sg38
F0.33510638297872336
sg39
S'yellow'
p536
sbasba(icurlovision
StoneLayout
p537
(dp538
g31
F0.4791666666666667
sg32
(lp539
(icurlovision
Stone
p540
(dp541
g36
F-3.8457446808510634
sg37
F1.627659574468085
sg38
F0.33510638297872336
sg39
S'yellow'
p542
sba(icurlovision
Stone
p543
(dp544
g36
F-0.7180851063829786
sg37
F-0.6702127659574467
sg38
F0.33510638297872336
sg39
S'yellow'
p545
sba(icurlovision
Stone
p546
(dp547
g36
F-2.473404255319149
sg37
F-0.8936170212765957
sg38
F0.4627659574468085
sg39
S'red'
p548
sba(icurlovision
Stone
p549
(dp550
g36
F-1.6436170212765957
sg37
F-1.3085106382978722
sg38
F0.4627659574468085
sg39
S'red'
p551
sba(icurlovision
Stone
p552
(dp553
g36
F-1.4202127659574466
sg37
F0.8297872340425532
sg38
F0.33510638297872336
sg39
S'yellow'
p554
sba(icurlovision
Stone
p555
(dp556
g36
F8.920212765957446
sg37
F0.1276595744680851
sg38
F0.44680851063829785
sg39
S'red'
p557
sbasba(icurlovision
StoneLayout
p558
(dp559
g31
F0.4791666666666667
sg32
(lp560
(icurlovision
Stone
p561
(dp562
g36
F0.20588235294117646
sg37
F-0.6323529411764706
sg38
F0.4411764705882353
sg39
S'red'
p563
sba(icurlovision
Stone
p564
(dp565
g36
F-1.7058823529411764
sg37
F-1.3970588235294117
sg38
F0.3529411764705882
sg39
S'red'
p566
sba(icurlovision
Stone
p567
(dp568
g36
F-1.3823529411764706
sg37
F0.8088235294117647
sg38
F0.47058823529411764
sg39
S'yellow'
p569
sba(icurlovision
Stone
p570
(dp571
g36
F-1.1764705882352942
sg37
F-0.4852941176470588
sg38
F0.4411764705882353
sg39
S'yellow'
p572
sba(icurlovision
Stone
p573
(dp574
g36
F8.852941176470589
sg37
F0.10294117647058823
sg38
F0.4264705882352941
sg39
S'red'
p575
sba(icurlovision
Stone
p576
(dp577
g36
F-3.7941176470588234
sg37
F1.6029411764705883
sg38
F0.47058823529411764
sg39
S'yellow'
p578
sba(icurlovision
Stone
p579
(dp580
g36
F-2.5
sg37
F-0.8970588235294118
sg38
F0.3529411764705882
sg39
S'red'
p581
sbasba(icurlovision
StoneLayout
p582
(dp583
g31
F0.4791666666666667
sg32
(lp584
(icurlovision
Stone
p585
(dp586
g36
F-2.321428571428571
sg37
F-0.7976190476190476
sg38
F0.42857142857142855
sg39
S'red'
p587
sba(icurlovision
Stone
p588
(dp589
g36
F-1.5833333333333333
sg37
F-1.2976190476190474
sg38
F0.3333333333333333
sg39
S'red'
p590
sba(icurlovision
Stone
p591
(dp592
g36
F-3.226190476190476
sg37
F-6.869047619047619
sg38
F0.42857142857142855
sg39
S'yellow'
p593
sba(icurlovision
Stone
p594
(dp595
g36
F0.22619047619047616
sg37
F-0.5119047619047619
sg38
F0.44047619047619047
sg39
S'red'
p596
sba(icurlovision
Stone
p597
(dp598
g36
F-1.2976190476190474
sg37
F0.8452380952380952
sg38
F0.3214285714285714
sg39
S'yellow'
p599
sba(icurlovision
Stone
p600
(dp601
g36
F-3.583333333333333
sg37
F1.5595238095238095
sg38
F0.41666666666666663
sg39
S'yellow'
p602
sba(icurlovision
Stone
p603
(dp604
g36
F-1.107142857142857
sg37
F-0.41666666666666663
sg38
F0.42857142857142855
sg39
S'yellow'
p605
sbasba(icurlovision
StoneLayout
p606
(dp607
g31
F0.4791666666666667
sg32
(lp608
(icurlovision
Stone
p609
(dp610
g36
F-1.6875
sg37
F-1.4125
sg38
F0.4625
sg39
S'red'
p611
sba(icurlovision
Stone
p612
(dp613
g36
F-2.4875000000000003
sg37
F-0.8875000000000001
sg38
F0.35000000000000003
sg39
S'red'
p614
sba(icurlovision
Stone
p615
(dp616
g36
F0.21250000000000002
sg37
F-0.6375000000000001
sg38
F0.4375
sg39
S'red'
p617
sba(icurlovision
Stone
p618
(dp619
g36
F-1.2375
sg37
F-0.5625
sg38
F0.45
sg39
S'yellow'
p620
sba(icurlovision
Stone
p621
(dp622
g36
F-0.6625000000000001
sg37
F0.28750000000000003
sg38
F0.45
sg39
S'red'
p623
sbasba(icurlovision
StoneLayout
p624
(dp625
g31
F0.4791666666666667
sg32
(lp626
(icurlovision
Stone
p627
(dp628
g36
F-2.2016129032258065
sg37
F-2.008064516129032
sg38
F0.4596774193548387
sg39
S'red'
p629
sba(icurlovision
Stone
p630
(dp631
g36
F-3.7016129032258065
sg37
F-1.4032258064516128
sg38
F0.3508064516129032
sg39
S'red'
p632
sba(icurlovision
Stone
p633
(dp634
g36
F-4.862903225806451
sg37
F3.120967741935484
sg38
F0.3387096774193548
sg39
S'yellow'
p635
sba(icurlovision
Stone
p636
(dp637
g36
F-0.7016129032258064
sg37
F0.31451612903225806
sg38
F0.32661290322580644
sg39
S'red'
p638
sba(icurlovision
Stone
p639
(dp640
g36
F1.1129032258064515
sg37
F-0.5806451612903225
sg38
F0.4596774193548387
sg39
S'yellow'
p641
sbasba(icurlovision
StoneLayout
p642
(dp643
g31
F0.4791666666666667
sg32
(lp644
(icurlovision
Stone
p645
(dp646
g36
F-2.1875
sg37
F-1.9875
sg38
F0.4625
sg39
S'red'
p647
sba(icurlovision
Stone
p648
(dp649
g36
F-0.6625000000000001
sg37
F0.3375
sg38
F0.325
sg39
S'red'
p650
sba(icurlovision
Stone
p651
(dp652
g36
F1.9625000000000001
sg37
F-0.1875
sg38
F0.35000000000000003
sg39
S'red'
p653
sba(icurlovision
Stone
p654
(dp655
g36
F-0.5125000000000001
sg37
F-0.6375000000000001
sg38
F0.45
sg39
S'red'
p656
sba(icurlovision
Stone
p657
(dp658
g36
F-4.8375
sg37
F3.1375
sg38
F0.3375
sg39
S'yellow'
p659
sbasba(icurlovision
StoneLayout
p660
(dp661
g31
F0.4791666666666667
sg32
(lp662
(icurlovision
Stone
p663
(dp664
g36
F-2.19140625
sg37
F-1.95703125
sg38
F0.4453125
sg39
S'red'
p665
sba(icurlovision
Stone
p666
(dp667
g36
F-3.66796875
sg37
F-1.37109375
sg38
F0.328125
sg39
S'red'
p668
sba(icurlovision
Stone
p669
(dp670
g36
F-0.55078125
sg37
F-0.62109375
sg38
F0.43359375
sg39
S'red'
p671
sba(icurlovision
Stone
p672
(dp673
g36
F-0.66796875
sg37
F0.31640625
sg38
F0.4453125
sg39
S'red'
p674
sba(icurlovision
Stone
p675
(dp676
g36
F-4.81640625
sg37
F3.08203125
sg38
F0.33984375
sg39
S'yellow'
p677
sbasba(icurlovision
StoneLayout
p678
(dp679
g31
F0.4791666666666667
sg32
(lp680
(icurlovision
Stone
p681
(dp682
g36
F-2.4293478260869565
sg37
F-2.25
sg38
F0.4891304347826087
sg39
S'red'
p683
sba(icurlovision
Stone
p684
(dp685
g36
F0.5706521739130435
sg37
F-1.0108695652173914
sg38
F0.358695652173913
sg39
S'yellow'
p686
sba(icurlovision
Stone
p687
(dp688
g36
F-0.7989130434782609
sg37
F0.2608695652173913
sg38
F0.375
sg39
S'red'
p689
sba(icurlovision
Stone
p690
(dp691
g36
F-4.092391304347826
sg37
F-1.5978260869565217
sg38
F0.358695652173913
sg39
S'red'
p692
sba(icurlovision
Stone
p693
(dp694
g36
F-5.331521739130435
sg37
F3.3260869565217392
sg38
F0.358695652173913
sg39
S'yellow'
p695
sba(icurlovision
Stone
p696
(dp697
g36
F8.78804347826087
sg37
F-0.358695652173913
sg38
F0.4891304347826087
sg39
S'red'
p698
sbasba(icurlovision
StoneLayout
p699
(dp700
g31
F0.4791666666666667
sg32
(lp701
(icurlovision
Stone
p702
(dp703
g36
F-2.171875
sg37
F-2.046875
sg38
F0.34375
sg39
S'red'
p704
sba(icurlovision
Stone
p705
(dp706
g36
F-1.015625
sg37
F1.609375
sg38
F0.46875
sg39
S'red'
p707
sba(icurlovision
Stone
p708
(dp709
g36
F-5.609375
sg37
F1.484375
sg38
F0.46875
sg39
S'red'
p710
sba(icurlovision
Stone
p711
(dp712
g36
F-4.859375
sg37
F3.046875
sg38
F0.328125
sg39
S'yellow'
p713
sba(icurlovision
Stone
p714
(dp715
g36
F8.203125
sg37
F-0.203125
sg38
F0.34375
sg39
S'red'
p716
sba(icurlovision
Stone
p717
(dp718
g36
F0.328125
sg37
F-0.640625
sg38
F0.296875
sg39
S'yellow'
p719
sbasba(icurlovision
StoneLayout
p720
(dp721
g31
F0.4791666666666667
sg32
(lp722
(icurlovision
Stone
p723
(dp724
g36
F-2.265625
sg37
F-2.078125
sg38
F0.46875
sg39
S'red'
p725
sba(icurlovision
Stone
p726
(dp727
g36
F8.234375
sg37
F-0.265625
sg38
F0.296875
sg39
S'red'
p728
sba(icurlovision
Stone
p729
(dp730
g36
F-1.046875
sg37
F1.640625
sg38
F0.328125
sg39
S'red'
p731
sba(icurlovision
Stone
p732
(dp733
g36
F1.296875
sg37
F-0.828125
sg38
F0.453125
sg39
S'red'
p734
sba(icurlovision
Stone
p735
(dp736
g36
F-4.921875
sg37
F3.140625
sg38
F0.328125
sg39
S'yellow'
p737
sba(icurlovision
Stone
p738
(dp739
g36
F-5.796875
sg37
F1.578125
sg38
F0.34375
sg39
S'red'
p740
sbasbasg218
I1
sg219
I0
sba(icurlovision
EndResult
p741
(dp742
g2
I2
sg9
(lp743
(I8
I7
tp744
a(I7
I7
tp745
a(I6
I5
tp746
a(I5
I5
tp747
a(I4
I4
tp748
a(I4
I3
tp749
a(I3
I3
tp750
a(I3
I2
tp751
a(I2
I2
tp752
a(I2
I1
tp753
a(I1
I0
tp754
asg26
I4
sg27
(lp755
(icurlovision
StoneLayout
p756
(dp757
g31
F0.4791666666666667
sg32
(lp758
(icurlovision
Stone
p759
(dp760
g36
F0.5294117647058824
sg37
F-0.0661764705882353
sg38
F0.34191176470588236
sg39
S'yellow'
p761
sbasba(icurlovision
StoneLayout
p762
(dp763
g31
F0.4791666666666667
sg32
(lp764
(icurlovision
Stone
p765
(dp766
g36
F0.5204081632653061
sg37
F-0.030612244897959183
sg38
F0.44387755102040816
sg39
S'yellow'
p767
sba(icurlovision
Stone
p768
(dp769
g36
F9.581632653061224
sg37
F3.7346938775510203
sg38
F0.42857142857142855
sg39
S'red'
p770
sbasba(icurlovision
StoneLayout
p771
(dp772
g31
F0.4791666666666667
sg32
(lp773
(icurlovision
Stone
p774
(dp775
g36
F0.5869565217391304
sg37
F-0.06521739130434782
sg38
F0.34239130434782605
sg39
S'yellow'
p776
sba(icurlovision
Stone
p777
(dp778
g36
F5.3478260869565215
sg37
F-1.076086956521739
sg38
F0.32608695652173914
sg39
S'yellow'
p779
sba(icurlovision
Stone
p780
(dp781
g36
F10.33695652173913
sg37
F4.010869565217392
sg38
F0.45652173913043476
sg39
S'red'
p782
sbasba(icurlovision
StoneLayout
p783
(dp784
g31
F0.4791666666666667
sg32
(lp785
(icurlovision
Stone
p786
(dp787
g36
F-0.13095238095238093
sg37
F0.17857142857142855
sg38
F0.34523809523809523
sg39
S'yellow'
p788
sba(icurlovision
Stone
p789
(dp790
g36
F-0.05952380952380952
sg37
F-2.011904761904762
sg38
F0.34523809523809523
sg39
S'red'
p791
sba(icurlovision
Stone
p792
(dp793
g36
F5.321428571428571
sg37
F-1.0595238095238095
sg38
F0.3333333333333333
sg39
S'yellow'
p794
sbasba(icurlovision
StoneLayout
p795
(dp796
g31
F0.4791666666666667
sg32
(lp797
(icurlovision
Stone
p798
(dp799
g36
F-1.5394736842105263
sg37
F2.9605263157894735
sg38
F0.4605263157894737
sg39
S'yellow'
p800
sba(icurlovision
Stone
p801
(dp802
g36
F5.25
sg37
F-0.9605263157894737
sg38
F0.3289473684210526
sg39
S'yellow'
p803
sba(icurlovision
Stone
p804
(dp805
g36
F0.14473684210526316
sg37
F-0.7236842105263157
sg38
F0.3421052631578947
sg39
S'red'
p806
sbasba(icurlovision
StoneLayout
p807
(dp808
g31
F0.4791666666666667
sg32
(lp809
(icurlovision
Stone
p810
(dp811
g36
F-1.5129310344827587
sg37
F3.038793103448276
sg38
F0.46551724137931033
sg39
S'yellow'
p812
sba(icurlovision
Stone
p813
(dp814
g36
F0.14224137931034483
sg37
F-0.7112068965517241
sg38
F0.46551724137931033
sg39
S'red'
p815
sba(icurlovision
Stone
p816
(dp817
g36
F4.435344827586206
sg37
F-4.125
sg38
F0.3620689655172414
sg39
S'yellow'
p818
sba(icurlovision
Stone
p819
(dp820
g36
F-6.426724137931035
sg37
F3.168103448275862
sg38
F0.4525862068965517
sg39
S'yellow'
p821
sbasba(icurlovision
StoneLayout
p822
(dp823
g31
F0.4791666666666667
sg32
(lp824
(icurlovision
Stone
p825
(dp826
g36
F0.13524590163934425
sg37
F-0.7254098360655737
sg38
F0.3442622950819672
sg39
S'red'
p827
sba(icurlovision
Stone
p828
(dp829
g36
F-0.9959016393442622
sg37
F2.1024590163934427
sg38
F0.319672131147541
sg39
S'red'
p830
sba(icurlovision
Stone
p831
(dp832
g36
F-4.045081967213115
sg37
F4.536885245901639
sg38
F0.45491803278688525
sg39
S'yellow'
p833
sba(icurlovision
Stone
p834
(dp835
g36
F4.192622950819672
sg37
F-4.094262295081967
sg38
F0.3442622950819672
sg39
S'yellow'
p836
sbasba(icurlovision
StoneLayout
p837
(dp838
g31
F0.4791666666666667
sg32
(lp839
(icurlovision
Stone
p840
(dp841
g36
F-3.4909090909090907
sg37
F3.4499999999999997
sg38
F0.35454545454545455
sg39
S'red'
p842
sba(icurlovision
Stone
p843
(dp844
g36
F4.172727272727273
sg37
F-3.995454545454545
sg38
F0.3409090909090909
sg39
S'yellow'
p845
sba(icurlovision
Stone
p846
(dp847
g36
F-4.036363636363636
sg37
F4.459090909090909
sg38
F0.3409090909090909
sg39
S'yellow'
p848
sba(icurlovision
Stone
p849
(dp850
g36
F0.4636363636363636
sg37
F4.077272727272727
sg38
F0.32727272727272727
sg39
S'yellow'
p851
sbasba(icurlovision
StoneLayout
p852
(dp853
g31
F0.4791666666666667
sg32
(lp854
(icurlovision
Stone
p855
(dp856
g36
F10.116666666666667
sg37
F4.05
sg38
F0.45
sg39
S'red'
p857
sba(icurlovision
Stone
p858
(dp859
g36
F-0.35
sg37
F4.883333333333333
sg38
F0.31666666666666665
sg39
S'yellow'
p860
sba(icurlovision
Stone
p861
(dp862
g36
F-4.116666666666666
sg37
F4.55
sg38
F0.3333333333333333
sg39
S'yellow'
p863
sba(icurlovision
Stone
p864
(dp865
g36
F-3.8833333333333333
sg37
F1.7166666666666666
sg38
F0.36666666666666664
sg39
S'red'
p866
sba(icurlovision
Stone
p867
(dp868
g36
F-3.55
sg37
F3.4499999999999997
sg38
F0.3
sg39
S'red'
p869
sba(icurlovision
Stone
p870
(dp871
g36
F4.216666666666667
sg37
F-4.016666666666667
sg38
F0.3333333333333333
sg39
S'yellow'
p872
sbasba(icurlovision
StoneLayout
p873
(dp874
g31
F0.4791666666666667
sg32
(lp875
(icurlovision
Stone
p876
(dp877
g36
F10.039772727272727
sg37
F4.039772727272727
sg38
F0.4602272727272727
sg39
S'red'
p878
sba(icurlovision
Stone
p879
(dp880
g36
F-2.403409090909091
sg37
F0.32386363636363635
sg38
F0.32386363636363635
sg39
S'yellow'
p881
sba(icurlovision
Stone
p882
(dp883
g36
F-0.32386363636363635
sg37
F4.823863636363636
sg38
F0.4602272727272727
sg39
S'yellow'
p884
sba(icurlovision
Stone
p885
(dp886
g36
F4.176136363636363
sg37
F-3.9715909090909087
sg38
F0.32386363636363635
sg39
S'yellow'
p887
sbasba(icurlovision
StoneLayout
p888
(dp889
g31
F0.4791666666666667
sg32
(lp890
(icurlovision
Stone
p891
(dp892
g36
F-4.10377358490566
sg37
F6.877358490566038
sg38
F0.4811320754716981
sg39
S'yellow'
p893
sba(icurlovision
Stone
p894
(dp895
g36
F-0.3113207547169811
sg37
F4.867924528301887
sg38
F0.339622641509434
sg39
S'yellow'
p896
sba(icurlovision
Stone
p897
(dp898
g36
F-3.8773584905660377
sg37
F-5.80188679245283
sg38
F0.32547169811320753
sg39
S'red'
p899
sba(icurlovision
Stone
p900
(dp901
g36
F4.216981132075472
sg37
F-4.0754716981132075
sg38
F0.339622641509434
sg39
S'yellow'
p902
sbasbasg218
I2
sg219
I1
sba(icurlovision
EndResult
p903
(dp904
g2
I4
sg9
(lp905
(I7
I8
tp906
a(I6
I7
tp907
a(I6
I6
tp908
a(I4
I5
tp909
a(I4
I4
tp910
a(I3
I4
tp911
a(I3
I3
tp912
a(I2
I3
tp913
a(I2
I2
tp914
a(I1
I2
tp915
a(I1
I1
tp916
a(I0
I1
tp917
asg26
I5
sg27
(lp918
(icurlovision
StoneLayout
p919
(dp920
g31
F0.4791666666666667
sg32
(lp921
(icurlovision
Stone
p922
(dp923
g36
F7.199999999999999
sg37
F0.4636363636363636
sg38
F0.3136363636363636
sg39
S'red'
p924
sbasba(icurlovision
StoneLayout
p925
(dp926
g31
F0.4791666666666667
sg32
(lp927
(icurlovision
Stone
p928
(dp929
g36
F-2.5875
sg37
F1.4625
sg38
F0.4875
sg39
S'yellow'
p930
sba(icurlovision
Stone
p931
(dp932
g36
F7.425
sg37
F0.44999999999999996
sg38
F0.44999999999999996
sg39
S'red'
p933
sba(icurlovision
Stone
p934
(dp935
g36
F14.362499999999999
sg37
F0.6375
sg38
F0.44999999999999996
sg39
S'red'
p936
sbasba(icurlovision
StoneLayout
p937
(dp938
g31
F0.4791666666666667
sg32
(lp939
(icurlovision
Stone
p940
(dp941
g36
F-2.5124999999999997
sg37
F1.425
sg38
F0.44999999999999996
sg39
S'yellow'
p942
sba(icurlovision
Stone
p943
(dp944
g36
F-0.1875
sg37
F1.1624999999999999
sg38
F0.46875
sg39
S'yellow'
p945
sba(icurlovision
Stone
p946
(dp947
g36
F7.2375
sg37
F0.4875
sg38
F0.3
sg39
S'red'
p948
sba(icurlovision
Stone
p949
(dp950
g36
F14.025
sg37
F0.6375
sg38
F0.43124999999999997
sg39
S'red'
p951
sbasba(icurlovision
StoneLayout
p952
(dp953
g31
F0.4791666666666667
sg32
(lp954
(icurlovision
Stone
p955
(dp956
g36
F4.163265306122449
sg37
F0.5051020408163265
sg38
F0.336734693877551
sg39
S'red'
p957
sba(icurlovision
Stone
p958
(dp959
g36
F-0.24489795918367346
sg37
F1.1479591836734693
sg38
F0.3214285714285714
sg39
S'yellow'
p960
sba(icurlovision
Stone
p961
(dp962
g36
F7.040816326530612
sg37
F0.44387755102040816
sg38
F0.42857142857142855
sg39
S'red'
p963
sba(icurlovision
Stone
p964
(dp965
g36
F1.2551020408163265
sg37
F1.1479591836734693
sg38
F0.336734693877551
sg39
S'red'
p966
sba(icurlovision
Stone
p967
(dp968
g36
F-2.4795918367346936
sg37
F1.3928571428571428
sg38
F0.336734693877551
sg39
S'yellow'
p969
sbasba(icurlovision
StoneLayout
p970
(dp971
g31
F0.4791666666666667
sg32
(lp972
(icurlovision
Stone
p973
(dp974
g36
F6.073529411764706
sg37
F-3.7205882352941178
sg38
F0.3382352941176471
sg39
S'yellow'
p975
sba(icurlovision
Stone
p976
(dp977
g36
F1.338235294117647
sg37
F1.1911764705882353
sg38
F0.3382352941176471
sg39
S'red'
p978
sbasba(icurlovision
StoneLayout
p979
(dp980
g31
F0.4791666666666667
sg32
(lp981
(icurlovision
Stone
p982
(dp983
g36
F-2.44811320754717
sg37
F-0.3537735849056604
sg38
F0.4669811320754717
sg39
S'yellow'
p984
sba(icurlovision
Stone
p985
(dp986
g36
F6.014150943396227
sg37
F-3.6650943396226414
sg38
F0.2830188679245283
sg39
S'yellow'
p987
sba(icurlovision
Stone
p988
(dp989
g36
F1.8537735849056605
sg37
F0.32547169811320753
sg38
F0.3537735849056604
sg39
S'red'
p990
sba(icurlovision
Stone
p991
(dp992
g36
F0.6084905660377359
sg37
F1.599056603773585
sg38
F0.4669811320754717
sg39
S'red'
p993
sbasba(icurlovision
StoneLayout
p994
(dp995
g31
F0.4791666666666667
sg32
(lp996
(icurlovision
Stone
p997
(dp998
g36
F-2.394230769230769
sg37
F-0.375
sg38
F0.46153846153846156
sg39
S'yellow'
p999
sba(icurlovision
Stone
p1000
(dp1001
g36
F5.884615384615385
sg37
F-3.634615384615385
sg38
F0.31730769230769235
sg39
S'yellow'
p1002
sba(icurlovision
Stone
p1003
(dp1004
g36
F1.8173076923076925
sg37
F0.2884615384615385
sg38
F0.34615384615384615
sg39
S'red'
p1005
sba(icurlovision
Stone
p1006
(dp1007
g36
F1.5
sg37
F1.5
sg38
F0.3317307692307693
sg39
S'yellow'
p1008
sbasba(icurlovision
StoneLayout
p1009
(dp1010
g31
F0.4791666666666667
sg32
(lp1011
(icurlovision
Stone
p1012
(dp1013
g36
F1.8103448275862069
sg37
F0.28448275862068967
sg38
F0.4525862068965517
sg39
S'red'
p1014
sba(icurlovision
Stone
p1015
(dp1016
g36
F5.844827586206897
sg37
F-3.5948275862068964
sg38
F0.46551724137931033
sg39
S'yellow'
p1017
sba(icurlovision
Stone
p1018
(dp1019
g36
F-1.0344827586206897
sg37
F6.129310344827586
sg38
F0.46551724137931033
sg39
S'red'
p1020
sba(icurlovision
Stone
p1021
(dp1022
g36
F-3.5172413793103448
sg37
F1.5775862068965516
sg38
F0.33620689655172414
sg39
S'yellow'
p1023
sbasba(icurlovision
StoneLayout
p1024
(dp1025
g31
F0.4791666666666667
sg32
(lp1026
(icurlovision
Stone
p1027
(dp1028
g36
F5.986363636363636
sg37
F-3.6954545454545453
sg38
F0.4636363636363636
sg39
S'yellow'
p1029
sba(icurlovision
Stone
p1030
(dp1031
g36
F-3.6136363636363633
sg37
F1.6227272727272726
sg38
F0.32727272727272727
sg39
S'yellow'
p1032
sba(icurlovision
Stone
p1033
(dp1034
g36
F-1.4045454545454545
sg37
F6.640909090909091
sg38
F0.4636363636363636
sg39
S'red'
p1035
sba(icurlovision
Stone
p1036
(dp1037
g36
F-0.75
sg37
F5.4409090909090905
sg38
F0.32727272727272727
sg39
S'yellow'
p1038
sbasba(icurlovision
StoneLayout
p1039
(dp1040
g31
F0.4791666666666667
sg32
(lp1041
(icurlovision
Stone
p1042
(dp1043
g36
F5.8125
sg37
F-3.589285714285714
sg38
F0.45535714285714285
sg39
S'yellow'
p1044
sba(icurlovision
Stone
p1045
(dp1046
g36
F-3.508928571428571
sg37
F1.5803571428571428
sg38
F0.33482142857142855
sg39
S'yellow'
p1047
sba(icurlovision
Stone
p1048
(dp1049
g36
F-1.3660714285714286
sg37
F6.455357142857142
sg38
F0.45535714285714285
sg39
S'red'
p1050
sba(icurlovision
Stone
p1051
(dp1052
g36
F-0.10714285714285714
sg37
F6.0267857142857135
sg38
F0.45535714285714285
sg39
S'red'
p1053
sbasba(icurlovision
StoneLayout
p1054
(dp1055
g31
F0.4791666666666667
sg32
(lp1056
(icurlovision
Stone
p1057
(dp1058
g36
F0.9576923076923077
sg37
F-3.0
sg38
F0.45
sg39
S'yellow'
p1059
sba(icurlovision
Stone
p1060
(dp1061
g36
F-1.326923076923077
sg37
F6.484615384615385
sg38
F0.34615384615384615
sg39
S'red'
p1062
sba(icurlovision
Stone
p1063
(dp1064
g36
F5.8038461538461545
sg37
F-3.530769230769231
sg38
F0.43846153846153846
sg39
S'yellow'
p1065
sba(icurlovision
Stone
p1066
(dp1067
g36
F-0.10384615384615385
sg37
F6.046153846153847
sg38
F0.34615384615384615
sg39
S'red'
p1068
sbasba(icurlovision
StoneLayout
p1069
(dp1070
g31
F0.4791666666666667
sg32
(lp1071
(icurlovision
Stone
p1072
(dp1073
g36
F-3.642857142857143
sg37
F1.5952380952380951
sg38
F0.46428571428571425
sg39
S'yellow'
p1074
sba(icurlovision
Stone
p1075
(dp1076
g36
F-1.4523809523809523
sg37
F6.7142857142857135
sg38
F0.3333333333333333
sg39
S'red'
p1077
sba(icurlovision
Stone
p1078
(dp1079
g36
F-0.16666666666666666
sg37
F6.261904761904762
sg38
F0.34523809523809523
sg39
S'red'
p1080
sba(icurlovision
Stone
p1081
(dp1082
g36
F6.023809523809524
sg37
F-3.6666666666666665
sg38
F0.47619047619047616
sg39
S'yellow'
p1083
sbasbasg218
I2
sg219
I0
sba(icurlovision
EndResult
p1084
(dp1085
g2
I4
sg9
(lp1086
(I8
I7
tp1087
a(I7
I7
tp1088
a(I7
I6
tp1089
a(I6
I6
tp1090
a(I5
I5
tp1091
a(I5
I4
tp1092
a(I4
I4
tp1093
a(I4
I3
tp1094
a(I3
I3
tp1095
a(I3
I2
tp1096
a(I2
I2
tp1097
a(I2
I1
tp1098
a(I1
I1
tp1099
a(I1
I0
tp1100
asg26
I6
sg27
(lp1101
(icurlovision
StoneLayout
p1102
(dp1103
g31
F0.4791666666666667
sg32
(lp1104
(icurlovision
Stone
p1105
(dp1106
g36
F0.4666666666666667
sg37
F-0.43333333333333335
sg38
F0.35
sg39
S'yellow'
p1107
sbasba(icurlovision
StoneLayout
p1108
(dp1109
g31
F0.4791666666666667
sg32
(lp1110
(icurlovision
Stone
p1111
(dp1112
g36
F8.863636363636363
sg37
F-3.6477272727272725
sg38
F0.4261363636363636
sg39
S'red'
p1113
sba(icurlovision
Stone
p1114
(dp1115
g36
F0.2727272727272727
sg37
F-0.47727272727272724
sg38
F0.32386363636363635
sg39
S'yellow'
p1116
sbasba(icurlovision
StoneLayout
p1117
(dp1118
g31
F0.4791666666666667
sg32
(lp1119
(icurlovision
Stone
p1120
(dp1121
g36
F9.331395348837209
sg37
F-4.011627906976744
sg38
F0.47093023255813954
sg39
S'red'
p1122
sba(icurlovision
Stone
p1123
(dp1124
g36
F0.2965116279069767
sg37
F-0.4883720930232558
sg38
F0.47093023255813954
sg39
S'yellow'
p1125
sba(icurlovision
Stone
p1126
(dp1127
g36
F3.9244186046511627
sg37
F-1.2209302325581395
sg38
F0.313953488372093
sg39
S'yellow'
p1128
sbasba(icurlovision
StoneLayout
p1129
(dp1130
g31
F0.4791666666666667
sg32
(lp1131
(icurlovision
Stone
p1132
(dp1133
g36
F-1.275
sg37
F2.6625
sg38
F0.46875
sg39
S'yellow'
p1134
sba(icurlovision
Stone
p1135
(dp1136
g36
F9.112499999999999
sg37
F-4.0125
sg38
F0.44999999999999996
sg39
S'red'
p1137
sba(icurlovision
Stone
p1138
(dp1139
g36
F0.3
sg37
F-0.4875
sg38
F0.28125
sg39
S'yellow'
p1140
sba(icurlovision
Stone
p1141
(dp1142
g36
F1.0125
sg37
F-4.8374999999999995
sg38
F0.24375
sg39
S'red'
p1143
sbasba(icurlovision
StoneLayout
p1144
(dp1145
g31
F0.4791666666666667
sg32
(lp1146
(icurlovision
Stone
p1147
(dp1148
g36
F7.335
sg37
F-4.26
sg38
F0.46499999999999997
sg39
S'red'
p1149
sba(icurlovision
Stone
p1150
(dp1151
g36
F-3.6149999999999998
sg37
F4.859999999999999
sg38
F0.44999999999999996
sg39
S'yellow'
p1152
sba(icurlovision
Stone
p1153
(dp1154
g36
F0.285
sg37
F-0.48
sg38
F0.46499999999999997
sg39
S'yellow'
p1155
sba(icurlovision
Stone
p1156
(dp1157
g36
F-0.22499999999999998
sg37
F-5.1
sg38
F0.36
sg39
S'red'
p1158
sbasba(icurlovision
StoneLayout
p1159
(dp1160
g31
F0.4791666666666667
sg32
(lp1161
(icurlovision
Stone
p1162
(dp1163
g36
F8.016666666666666
sg37
F-4.583333333333333
sg38
F0.45
sg39
S'yellow'
p1164
sba(icurlovision
Stone
p1165
(dp1166
g36
F-3.5166666666666666
sg37
F4.783333333333333
sg38
F0.31666666666666665
sg39
S'yellow'
p1167
sba(icurlovision
Stone
p1168
(dp1169
g36
F0.2833333333333333
sg37
F-0.5166666666666666
sg38
F0.3333333333333333
sg39
S'yellow'
p1170
sba(icurlovision
Stone
p1171
(dp1172
g36
F-0.55
sg37
F-5.716666666666667
sg38
F0.43333333333333335
sg39
S'red'
p1173
sbasba(icurlovision
StoneLayout
p1174
(dp1175
g31
F0.4791666666666667
sg32
(lp1176
(icurlovision
Stone
p1177
(dp1178
g36
F-3.609375
sg37
F4.75
sg38
F0.453125
sg39
S'yellow'
p1179
sba(icurlovision
Stone
p1180
(dp1181
g36
F8.078125
sg37
F-4.5
sg38
F0.453125
sg39
S'yellow'
p1182
sba(icurlovision
Stone
p1183
(dp1184
g36
F0.921875
sg37
F0.28125
sg38
F0.4375
sg39
S'red'
p1185
sba(icurlovision
Stone
p1186
(dp1187
g36
F-0.515625
sg37
F-5.71875
sg38
F0.359375
sg39
S'red'
p1188
sbasba(icurlovision
StoneLayout
p1189
(dp1190
g31
F0.4791666666666667
sg32
(lp1191
(icurlovision
Stone
p1192
(dp1193
g36
F7.95
sg37
F-4.583333333333333
sg38
F0.4666666666666667
sg39
S'yellow'
p1194
sba(icurlovision
Stone
p1195
(dp1196
g36
F-3.4833333333333334
sg37
F4.85
sg38
F0.3333333333333333
sg39
S'yellow'
p1197
sba(icurlovision
Stone
p1198
(dp1199
g36
F-2.216666666666667
sg37
F-4.116666666666666
sg38
F0.31666666666666665
sg39
S'yellow'
p1200
sba(icurlovision
Stone
p1201
(dp1202
g36
F-0.55
sg37
F-5.716666666666667
sg38
F0.26666666666666666
sg39
S'red'
p1203
sba(icurlovision
Stone
p1204
(dp1205
g36
F-5.816666666666666
sg37
F4.616666666666666
sg38
F0.3333333333333333
sg39
S'red'
p1206
sbasba(icurlovision
StoneLayout
p1207
(dp1208
g31
F0.4791666666666667
sg32
(lp1209
(icurlovision
Stone
p1210
(dp1211
g36
F-5.982558139534883
sg37
F-6.697674418604651
sg38
F0.3488372093023256
sg39
S'yellow'
p1212
sba(icurlovision
Stone
p1213
(dp1214
g36
F-4.8313953488372094
sg37
F3.488372093023256
sg38
F0.3488372093023256
sg39
S'red'
p1215
sba(icurlovision
Stone
p1216
(dp1217
g36
F8.25
sg37
F-4.569767441860465
sg38
F0.47093023255813954
sg39
S'yellow'
p1218
sba(icurlovision
Stone
p1219
(dp1220
g36
F-3.6104651162790695
sg37
F4.883720930232558
sg38
F0.47093023255813954
sg39
S'yellow'
p1221
sba(icurlovision
Stone
p1222
(dp1223
g36
F-0.436046511627907
sg37
F-5.790697674418604
sg38
F0.3488372093023256
sg39
S'red'
p1224
sbasba(icurlovision
StoneLayout
p1225
(dp1226
g31
F0.4791666666666667
sg32
(lp1227
(icurlovision
Stone
p1228
(dp1229
g36
F-4.875
sg37
F3.5054347826086953
sg38
F0.358695652173913
sg39
S'red'
p1230
sba(icurlovision
Stone
p1231
(dp1232
g36
F8.168478260869565
sg37
F-4.581521739130435
sg38
F0.47282608695652173
sg39
S'yellow'
p1233
sba(icurlovision
Stone
p1234
(dp1235
g36
F-3.635869565217391
sg37
F4.875
sg38
F0.34239130434782605
sg39
S'yellow'
p1236
sba(icurlovision
Stone
p1237
(dp1238
g36
F-0.5380434782608695
sg37
F-5.820652173913043
sg38
F0.47282608695652173
sg39
S'red'
p1239
sba(icurlovision
Stone
p1240
(dp1241
g36
F-6.081521739130435
sg37
F-6.668478260869565
sg38
F0.4891304347826087
sg39
S'yellow'
p1242
sba(icurlovision
Stone
p1243
(dp1244
g36
F-3.016304347826087
sg37
F3.5706521739130435
sg38
F0.2934782608695652
sg39
S'yellow'
p1245
sbasba(icurlovision
StoneLayout
p1246
(dp1247
g31
F0.4791666666666667
sg32
(lp1248
(icurlovision
Stone
p1249
(dp1250
g36
F-3.606382978723404
sg37
F5.074468085106383
sg38
F0.4627659574468085
sg39
S'yellow'
p1251
sba(icurlovision
Stone
p1252
(dp1253
g36
F8.170212765957446
sg37
F-4.5638297872340425
sg38
F0.4787234042553191
sg39
S'yellow'
p1254
sba(icurlovision
Stone
p1255
(dp1256
g36
F-5.904255319148936
sg37
F-6.606382978723404
sg38
F0.4787234042553191
sg39
S'yellow'
p1257
sba(icurlovision
Stone
p1258
(dp1259
g36
F-4.340425531914893
sg37
F4.148936170212766
sg38
F0.4627659574468085
sg39
S'yellow'
p1260
sba(icurlovision
Stone
p1261
(dp1262
g36
F-5.01063829787234
sg37
F-0.44680851063829785
sg38
F0.351063829787234
sg39
S'red'
p1263
sba(icurlovision
Stone
p1264
(dp1265
g36
F-0.4787234042553191
sg37
F-5.8085106382978715
sg38
F0.351063829787234
sg39
S'red'
p1266
sbasba(icurlovision
StoneLayout
p1267
(dp1268
g31
F0.4791666666666667
sg32
(lp1269
(icurlovision
Stone
p1270
(dp1271
g36
F-5.984375
sg37
F-6.625
sg38
F0.359375
sg39
S'yellow'
p1272
sba(icurlovision
Stone
p1273
(dp1274
g36
F-3.640625
sg37
F5.125
sg38
F0.46875
sg39
S'yellow'
p1275
sba(icurlovision
Stone
p1276
(dp1277
g36
F-4.140625
sg37
F-0.3125
sg38
F0.421875
sg39
S'yellow'
p1278
sba(icurlovision
Stone
p1279
(dp1280
g36
F-4.359375
sg37
F4.15625
sg38
F0.3125
sg39
S'yellow'
p1281
sba(icurlovision
Stone
p1282
(dp1283
g36
F8.265625
sg37
F-4.5625
sg38
F0.328125
sg39
S'yellow'
p1284
sba(icurlovision
Stone
p1285
(dp1286
g36
F-0.484375
sg37
F-5.78125
sg38
F0.453125
sg39
S'red'
p1287
sbasba(icurlovision
StoneLayout
p1288
(dp1289
g31
F0.4791666666666667
sg32
(lp1290
(icurlovision
Stone
p1291
(dp1292
g36
F-3.261627906976744
sg37
F0.22674418604651161
sg38
F0.3488372093023256
sg39
S'red'
p1293
sba(icurlovision
Stone
p1294
(dp1295
g36
F-5.738372093023256
sg37
F-6.366279069767442
sg38
F0.2441860465116279
sg39
S'yellow'
p1296
sba(icurlovision
Stone
p1297
(dp1298
g36
F-3.4709302325581395
sg37
F4.970930232558139
sg38
F0.436046511627907
sg39
S'yellow'
p1299
sba(icurlovision
Stone
p1300
(dp1301
g36
F7.936046511627907
sg37
F-4.412790697674419
sg38
F0.436046511627907
sg39
S'yellow'
p1302
sba(icurlovision
Stone
p1303
(dp1304
g36
F-4.203488372093023
sg37
F4.02906976744186
sg38
F0.47093023255813954
sg39
S'yellow'
p1305
sba(icurlovision
Stone
p1306
(dp1307
g36
F-0.47093023255813954
sg37
F-5.598837209302325
sg38
F0.2616279069767442
sg39
S'red'
p1308
sbasba(icurlovision
StoneLayout
p1309
(dp1310
g31
F0.4791666666666667
sg32
(lp1311
(icurlovision
Stone
p1312
(dp1313
g36
F-4.8954545454545455
sg37
F4.759090909090909
sg38
F0.4909090909090909
sg39
S'yellow'
p1314
sba(icurlovision
Stone
p1315
(dp1316
g36
F-3.6954545454545453
sg37
F5.168181818181818
sg38
F0.4636363636363636
sg39
S'yellow'
p1317
sba(icurlovision
Stone
p1318
(dp1319
g36
F-6.040909090909091
sg37
F-6.75
sg38
F0.47727272727272724
sg39
S'yellow'
p1320
sba(icurlovision
Stone
p1321
(dp1322
g36
F-3.7227272727272727
sg37
F3.477272727272727
sg38
F0.35454545454545455
sg39
S'yellow'
p1323
sba(icurlovision
Stone
p1324
(dp1325
g36
F-0.44999999999999996
sg37
F-5.877272727272727
sg38
F0.3
sg39
S'red'
p1326
sbasbasg218
I4
sg219
I1
sba(icurlovision
EndResult
p1327
(dp1328
g2
I5
sg9
(lp1329
(I7
I7
tp1330
a(I6
I6
tp1331
a(I5
I6
tp1332
a(I5
I5
tp1333
a(I4
I5
tp1334
a(I3
I5
tp1335
a(I4
I4
tp1336
a(I3
I4
tp1337
a(I3
I3
tp1338
a(I2
I3
tp1339
a(I2
I2
tp1340
a(I1
I2
tp1341
a(I1
I1
tp1342
a(I0
I1
tp1343
asg26
I7
sg27
(lp1344
(icurlovision
StoneLayout
p1345
(dp1346
g31
F0.4791666666666667
sg32
(lp1347
(icurlovision
Stone
p1348
(dp1349
g36
F9.929347826086957
sg37
F-3.7010869565217392
sg38
F0.27717391304347827
sg39
S'yellow'
p1350
sbasba(icurlovision
StoneLayout
p1351
(dp1352
g31
F0.4791666666666667
sg32
(lp1353
(icurlovision
Stone
p1354
(dp1355
g36
F3.78
sg37
F-3.9899999999999998
sg38
F0.32999999999999996
sg39
S'yellow'
p1356
sba(icurlovision
Stone
p1357
(dp1358
g36
F9.78
sg37
F-3.6599999999999997
sg38
F0.435
sg39
S'yellow'
p1359
sba(icurlovision
Stone
p1360
(dp1361
g36
F12.03
sg37
F0.12
sg38
F0.435
sg39
S'red'
p1362
sbasba(icurlovision
StoneLayout
p1363
(dp1364
g31
F0.4791666666666667
sg32
(lp1365
(icurlovision
Stone
p1366
(dp1367
g36
F6.837209302325581
sg37
F1.2906976744186047
sg38
F0.436046511627907
sg39
S'red'
p1368
sba(icurlovision
Stone
p1369
(dp1370
g36
F3.697674418604651
sg37
F-3.941860465116279
sg38
F0.313953488372093
sg39
S'yellow'
p1371
sba(icurlovision
Stone
p1372
(dp1373
g36
F11.790697674418604
sg37
F0.13953488372093023
sg38
F0.41860465116279066
sg39
S'red'
p1374
sba(icurlovision
Stone
p1375
(dp1376
g36
F7.0813953488372094
sg37
F3.2790697674418605
sg38
F0.436046511627907
sg39
S'red'
p1377
sbasba(icurlovision
StoneLayout
p1378
(dp1379
g31
F0.4791666666666667
sg32
(lp1380
(icurlovision
Stone
p1381
(dp1382
g36
F6.0
sg37
F0.4117647058823529
sg38
F0.3382352941176471
sg39
S'yellow'
p1383
sbasba(icurlovision
StoneLayout
p1384
(dp1385
g31
F0.4791666666666667
sg32
(lp1386
(icurlovision
Stone
p1387
(dp1388
g36
F7.4605263157894735
sg37
F3.4342105263157894
sg38
F0.4539473684210526
sg39
S'red'
p1389
sba(icurlovision
Stone
p1390
(dp1391
g36
F3.8684210526315788
sg37
F-4.105263157894736
sg38
F0.3355263157894737
sg39
S'yellow'
p1392
sba(icurlovision
Stone
p1393
(dp1394
g36
F7.184210526315789
sg37
F1.3421052631578947
sg38
F0.4539473684210526
sg39
S'red'
p1395
sba(icurlovision
Stone
p1396
(dp1397
g36
F12.31578947368421
sg37
F0.11842105263157894
sg38
F0.43421052631578944
sg39
S'red'
p1398
sba(icurlovision
Stone
p1399
(dp1400
g36
F-0.39473684210526316
sg37
F0.39473684210526316
sg38
F0.3355263157894737
sg39
S'yellow'
p1401
sba(icurlovision
Stone
p1402
(dp1403
g36
F5.802631578947368
sg37
F-1.0657894736842104
sg38
F0.3355263157894737
sg39
S'red'
p1404
sbasba(icurlovision
StoneLayout
p1405
(dp1406
g31
F0.4791666666666667
sg32
(lp1407
(icurlovision
Stone
p1408
(dp1409
g36
F6.980769230769231
sg37
F1.326923076923077
sg38
F0.44230769230769235
sg39
S'red'
p1410
sba(icurlovision
Stone
p1411
(dp1412
g36
F-1.5576923076923077
sg37
F1.1346153846153846
sg38
F0.3269230769230769
sg39
S'yellow'
p1413
sba(icurlovision
Stone
p1414
(dp1415
g36
F7.211538461538462
sg37
F3.326923076923077
sg38
F0.44230769230769235
sg39
S'red'
p1416
sba(icurlovision
Stone
p1417
(dp1418
g36
F3.75
sg37
F-3.980769230769231
sg38
F0.42307692307692313
sg39
S'yellow'
p1419
sba(icurlovision
Stone
p1420
(dp1421
g36
F0.2884615384615385
sg37
F-0.25
sg38
F0.46153846153846156
sg39
S'red'
p1422
sba(icurlovision
Stone
p1423
(dp1424
g36
F11.980769230769232
sg37
F0.13461538461538464
sg38
F0.42307692307692313
sg39
S'red'
p1425
sbasba(icurlovision
StoneLayout
p1426
(dp1427
g31
F0.4791666666666667
sg32
(lp1428
(icurlovision
Stone
p1429
(dp1430
g36
F7.378378378378379
sg37
F3.445945945945946
sg38
F0.44594594594594594
sg39
S'red'
p1431
sba(icurlovision
Stone
p1432
(dp1433
g36
F0.972972972972973
sg37
F0.4864864864864865
sg38
F0.3445945945945946
sg39
S'yellow'
p1434
sba(icurlovision
Stone
p1435
(dp1436
g36
F3.8513513513513518
sg37
F-4.094594594594595
sg38
F0.32432432432432434
sg39
S'yellow'
p1437
sba(icurlovision
Stone
p1438
(dp1439
g36
F-1.5810810810810811
sg37
F1.135135135135135
sg38
F0.46621621621621623
sg39
S'yellow'
p1440
sba(icurlovision
Stone
p1441
(dp1442
g36
F12.243243243243244
sg37
F0.12162162162162163
sg38
F0.44594594594594594
sg39
S'red'
p1443
sba(icurlovision
Stone
p1444
(dp1445
g36
F7.094594594594595
sg37
F1.337837837837838
sg38
F0.44594594594594594
sg39
S'red'
p1446
sba(icurlovision
Stone
p1447
(dp1448
g36
F-5.797297297297297
sg37
F-1.6216216216216217
sg38
F0.30405405405405406
sg39
S'red'
p1449
sbasba(icurlovision
StoneLayout
p1450
(dp1451
g31
F0.4791666666666667
sg32
(lp1452
(icurlovision
Stone
p1453
(dp1454
g36
F3.69078947368421
sg37
F-3.927631578947368
sg38
F0.43421052631578944
sg39
S'yellow'
p1455
sba(icurlovision
Stone
p1456
(dp1457
g36
F7.677631578947368
sg37
F1.3618421052631577
sg38
F0.43421052631578944
sg39
S'red'
p1458
sba(icurlovision
Stone
p1459
(dp1460
g36
F-1.5592105263157894
sg37
F1.125
sg38
F0.3355263157894737
sg39
S'yellow'
p1461
sba(icurlovision
Stone
p1462
(dp1463
g36
F-5.664473684210526
sg37
F-1.519736842105263
sg38
F0.3157894736842105
sg39
S'red'
p1464
sba(icurlovision
Stone
p1465
(dp1466
g36
F7.125
sg37
F3.375
sg38
F0.29605263157894735
sg39
S'red'
p1467
sba(icurlovision
Stone
p1468
(dp1469
g36
F11.82236842105263
sg37
F0.17763157894736842
sg38
F0.43421052631578944
sg39
S'red'
p1470
sbasba(icurlovision
StoneLayout
p1471
(dp1472
g31
F0.4791666666666667
sg32
(lp1473
(icurlovision
Stone
p1474
(dp1475
g36
F-1.5681818181818181
sg37
F1.1136363636363638
sg38
F0.34090909090909094
sg39
S'yellow'
p1476
sba(icurlovision
Stone
p1477
(dp1478
g36
F-5.7727272727272725
sg37
F-1.590909090909091
sg38
F0.3522727272727273
sg39
S'red'
p1479
sba(icurlovision
Stone
p1480
(dp1481
g36
F3.840909090909091
sg37
F-4.136363636363637
sg38
F0.34090909090909094
sg39
S'yellow'
p1482
sbasba(icurlovision
StoneLayout
p1483
(dp1484
g31
F0.4791666666666667
sg32
(lp1485
(icurlovision
Stone
p1486
(dp1487
g36
F7.978723404255319
sg37
F1.3404255319148934
sg38
F0.44680851063829785
sg39
S'red'
p1488
sba(icurlovision
Stone
p1489
(dp1490
g36
F-5.744680851063829
sg37
F-1.5638297872340425
sg38
F0.4627659574468085
sg39
S'red'
p1491
sba(icurlovision
Stone
p1492
(dp1493
g36
F-1.5319148936170213
sg37
F1.1489361702127658
sg38
F0.4787234042553191
sg39
S'yellow'
p1494
sba(icurlovision
Stone
p1495
(dp1496
g36
F7.404255319148936
sg37
F3.478723404255319
sg38
F0.33510638297872336
sg39
S'red'
p1497
sba(icurlovision
Stone
p1498
(dp1499
g36
F3.829787234042553
sg37
F-4.085106382978723
sg38
F0.44680851063829785
sg39
S'yellow'
p1500
sba(icurlovision
Stone
p1501
(dp1502
g36
F4.0212765957446805
sg37
F0.2553191489361702
sg38
F0.33510638297872336
sg39
S'yellow'
p1503
sba(icurlovision
Stone
p1504
(dp1505
g36
F-1.180851063829787
sg37
F0.0
sg38
F0.28723404255319146
sg39
S'red'
p1506
sbasba(icurlovision
StoneLayout
p1507
(dp1508
g31
F0.4791666666666667
sg32
(lp1509
(icurlovision
Stone
p1510
(dp1511
g36
F-1.575
sg37
F-0.075
sg38
F0.31875
sg39
S'red'
p1512
sba(icurlovision
Stone
p1513
(dp1514
g36
F7.8374999999999995
sg37
F1.3499999999999999
sg38
F0.2625
sg39
S'red'
p1515
sba(icurlovision
Stone
p1516
(dp1517
g36
F12.112499999999999
sg37
F0.11249999999999999
sg38
F0.44999999999999996
sg39
S'red'
p1518
sba(icurlovision
Stone
p1519
(dp1520
g36
F7.2749999999999995
sg37
F3.4125
sg38
F0.44999999999999996
sg39
S'red'
p1521
sba(icurlovision
Stone
p1522
(dp1523
g36
F3.7874999999999996
sg37
F-4.05
sg38
F0.44999999999999996
sg39
S'yellow'
p1524
sba(icurlovision
Stone
p1525
(dp1526
g36
F-0.3
sg37
F0.11249999999999999
sg38
F0.31875
sg39
S'yellow'
p1527
sba(icurlovision
Stone
p1528
(dp1529
g36
F4.0125
sg37
F0.2625
sg38
F0.33749999999999997
sg39
S'yellow'
p1530
sba(icurlovision
Stone
p1531
(dp1532
g36
F-5.8125
sg37
F-1.6125
sg38
F0.28125
sg39
S'red'
p1533
sbasba(icurlovision
StoneLayout
p1534
(dp1535
g31
F0.4791666666666667
sg32
(lp1536
(icurlovision
Stone
p1537
(dp1538
g36
F-1.5384615384615385
sg37
F-0.038461538461538464
sg38
F0.46153846153846156
sg39
S'red'
p1539
sba(icurlovision
Stone
p1540
(dp1541
g36
F2.653846153846154
sg37
F-1.3076923076923077
sg38
F0.34615384615384615
sg39
S'red'
p1542
sba(icurlovision
Stone
p1543
(dp1544
g36
F3.4230769230769234
sg37
F1.0
sg38
F0.46153846153846156
sg39
S'yellow'
p1545
sba(icurlovision
Stone
p1546
(dp1547
g36
F-1.576923076923077
sg37
F1.153846153846154
sg38
F0.34615384615384615
sg39
S'yellow'
p1548
sba(icurlovision
Stone
p1549
(dp1550
g36
F7.884615384615385
sg37
F1.3461538461538463
sg38
F0.44230769230769235
sg39
S'red'
p1551
sba(icurlovision
Stone
p1552
(dp1553
g36
F-5.807692307692308
sg37
F-1.576923076923077
sg38
F0.46153846153846156
sg39
S'red'
p1554
sba(icurlovision
Stone
p1555
(dp1556
g36
F7.346153846153847
sg37
F3.384615384615385
sg38
F0.3269230769230769
sg39
S'red'
p1557
sba(icurlovision
Stone
p1558
(dp1559
g36
F-0.3076923076923077
sg37
F0.11538461538461539
sg38
F0.3269230769230769
sg39
S'yellow'
p1560
sba(icurlovision
Stone
p1561
(dp1562
g36
F12.153846153846155
sg37
F0.11538461538461539
sg38
F0.42307692307692313
sg39
S'red'
p1563
sba(icurlovision
Stone
p1564
(dp1565
g36
F3.807692307692308
sg37
F-4.038461538461538
sg38
F0.3076923076923077
sg39
S'yellow'
p1566
sbasba(icurlovision
StoneLayout
p1567
(dp1568
g31
F0.4791666666666667
sg32
(lp1569
(icurlovision
Stone
p1570
(dp1571
g36
F3.4008620689655173
sg37
F0.9568965517241379
sg38
F0.3232758620689655
sg39
S'yellow'
p1572
sba(icurlovision
Stone
p1573
(dp1574
g36
F3.7370689655172415
sg37
F-4.060344827586206
sg38
F0.33620689655172414
sg39
S'yellow'
p1575
sba(icurlovision
Stone
p1576
(dp1577
g36
F-0.7112068965517241
sg37
F0.7758620689655172
sg38
F0.3232758620689655
sg39
S'yellow'
p1578
sba(icurlovision
Stone
p1579
(dp1580
g36
F3.038793103448276
sg37
F-2.3793103448275863
sg38
F0.4525862068965517
sg39
S'yellow'
p1581
sba(icurlovision
Stone
p1582
(dp1583
g36
F-1.4870689655172413
sg37
F-0.05172413793103448
sg38
F0.4525862068965517
sg39
S'red'
p1584
sba(icurlovision
Stone
p1585
(dp1586
g36
F-4.797413793103448
sg37
F-1.5517241379310345
sg38
F0.34913793103448276
sg39
S'red'
p1587
sba(icurlovision
Stone
p1588
(dp1589
g36
F7.306034482758621
sg37
F3.413793103448276
sg38
F0.4267241379310345
sg39
S'red'
p1590
sbasba(icurlovision
StoneLayout
p1591
(dp1592
g31
F0.4791666666666667
sg32
(lp1593
(icurlovision
Stone
p1594
(dp1595
g36
F-1.6312499999999999
sg37
F1.21875
sg38
F0.33749999999999997
sg39
S'yellow'
p1596
sba(icurlovision
Stone
p1597
(dp1598
g36
F3.31875
sg37
F1.14375
sg38
F0.33749999999999997
sg39
S'yellow'
p1599
sba(icurlovision
Stone
p1600
(dp1601
g36
F7.856249999999999
sg37
F1.33125
sg38
F0.44999999999999996
sg39
S'red'
p1602
sba(icurlovision
Stone
p1603
(dp1604
g36
F-0.73125
sg37
F0.80625
sg38
F0.31875
sg39
S'yellow'
p1605
sba(icurlovision
Stone
p1606
(dp1607
g36
F3.76875
sg37
F-4.03125
sg38
F0.44999999999999996
sg39
S'yellow'
p1608
sba(icurlovision
Stone
p1609
(dp1610
g36
F-1.55625
sg37
F-0.01875
sg38
F0.46875
sg39
S'red'
p1611
sba(icurlovision
Stone
p1612
(dp1613
g36
F7.293749999999999
sg37
F3.39375
sg38
F0.44999999999999996
sg39
S'red'
p1614
sba(icurlovision
Stone
p1615
(dp1616
g36
F3.09375
sg37
F-2.38125
sg38
F0.31875
sg39
S'yellow'
p1617
sba(icurlovision
Stone
p1618
(dp1619
g36
F12.09375
sg37
F0.13125
sg38
F0.44999999999999996
sg39
S'red'
p1620
sba(icurlovision
Stone
p1621
(dp1622
g36
F1.4437499999999999
sg37
F-0.31875
sg38
F0.44999999999999996
sg39
S'red'
p1623
sba(icurlovision
Stone
p1624
(dp1625
g36
F-4.89375
sg37
F-1.59375
sg38
F0.28125
sg39
S'red'
p1626
sbasbasg218
I4
sg219
I0
sba(icurlovision
EndResult
p1627
(dp1628
g2
I5
sg9
(lp1629
(I7
I6
tp1630
a(I6
I6
tp1631
a(I6
I5
tp1632
a(I5
I5
tp1633
a(I5
I4
tp1634
a(I4
I4
tp1635
a(I3
I3
tp1636
a(I3
I2
tp1637
a(I2
I2
tp1638
a(I2
I1
tp1639
a(I1
I1
tp1640
a(I1
I0
tp1641
asg26
I8
sg27
(lp1642
(icurlovision
StoneLayout
p1643
(dp1644
g31
F0.4791666666666667
sg32
(lp1645
(icurlovision
Stone
p1646
(dp1647
g36
F10.59375
sg37
F-4.03125
sg38
F0.421875
sg39
S'red'
p1648
sba(icurlovision
Stone
p1649
(dp1650
g36
F0.375
sg37
F-1.0625
sg38
F0.3125
sg39
S'yellow'
p1651
sba(icurlovision
Stone
p1652
(dp1653
g36
F1.59375
sg37
F-0.71875
sg38
F0.3125
sg39
S'yellow'
p1654
sbasba(icurlovision
StoneLayout
p1655
(dp1656
g31
F0.4791666666666667
sg32
(lp1657
(icurlovision
Stone
p1658
(dp1659
g36
F11.02659574468085
sg37
F-4.356382978723404
sg38
F0.28723404255319146
sg39
S'red'
p1660
sba(icurlovision
Stone
p1661
(dp1662
g36
F0.39893617021276595
sg37
F-1.101063829787234
sg38
F0.4787234042553191
sg39
S'yellow'
p1663
sba(icurlovision
Stone
p1664
(dp1665
g36
F1.6436170212765957
sg37
F-0.8138297872340425
sg38
F0.3191489361702127
sg39
S'yellow'
p1666
sba(icurlovision
Stone
p1667
(dp1668
g36
F4.7712765957446805
sg37
F-4.228723404255319
sg38
F0.3191489361702127
sg39
S'red'
p1669
sbasba(icurlovision
StoneLayout
p1670
(dp1671
g31
F0.4791666666666667
sg32
(lp1672
(icurlovision
Stone
p1673
(dp1674
g36
F1.6363636363636365
sg37
F-0.75
sg38
F0.34090909090909094
sg39
S'yellow'
p1675
sba(icurlovision
Stone
p1676
(dp1677
g36
F0.36363636363636365
sg37
F-1.0909090909090908
sg38
F0.46590909090909094
sg39
S'yellow'
p1678
sba(icurlovision
Stone
p1679
(dp1680
g36
F4.795454545454546
sg37
F-4.159090909090909
sg38
F0.4545454545454546
sg39
S'red'
p1681
sba(icurlovision
Stone
p1682
(dp1683
g36
F-0.5
sg37
F4.636363636363637
sg38
F0.36363636363636365
sg39
S'yellow'
p1684
sbasba(icurlovision
StoneLayout
p1685
(dp1686
g31
F0.4791666666666667
sg32
(lp1687
(icurlovision
Stone
p1688
(dp1689
g36
F11.074468085106382
sg37
F-3.1914893617021276
sg38
F0.4148936170212766
sg39
S'red'
p1690
sba(icurlovision
Stone
p1691
(dp1692
g36
F1.5638297872340425
sg37
F-0.7340425531914893
sg38
F0.4308510638297872
sg39
S'yellow'
p1693
sba(icurlovision
Stone
p1694
(dp1695
g36
F0.351063829787234
sg37
F-1.0212765957446808
sg38
F0.44680851063829785
sg39
S'yellow'
p1696
sba(icurlovision
Stone
p1697
(dp1698
g36
F4.531914893617021
sg37
F-4.0212765957446805
sg38
F0.4308510638297872
sg39
S'red'
p1699
sbasba(icurlovision
StoneLayout
p1700
(dp1701
g31
F0.4791666666666667
sg32
(lp1702
(icurlovision
Stone
p1703
(dp1704
g36
F1.55
sg37
F-0.7000000000000001
sg38
F0.4375
sg39
S'yellow'
p1705
sba(icurlovision
Stone
p1706
(dp1707
g36
F0.35000000000000003
sg37
F-1.0
sg38
F0.45
sg39
S'yellow'
p1708
sba(icurlovision
Stone
p1709
(dp1710
g36
F4.55
sg37
F-3.95
sg38
F0.4375
sg39
S'red'
p1711
sba(icurlovision
Stone
p1712
(dp1713
g36
F5.625
sg37
F6.9750000000000005
sg38
F0.45
sg39
S'yellow'
p1714
sbasba(icurlovision
StoneLayout
p1715
(dp1716
g31
F0.4791666666666667
sg32
(lp1717
(icurlovision
Stone
p1718
(dp1719
g36
F1.6199999999999999
sg37
F-0.75
sg38
F0.315
sg39
S'yellow'
p1720
sba(icurlovision
Stone
p1721
(dp1722
g36
F0.39
sg37
F-1.08
sg38
F0.345
sg39
S'yellow'
p1723
sba(icurlovision
Stone
p1724
(dp1725
g36
F13.68
sg37
F-3.48
sg38
F0.435
sg39
S'red'
p1726
sba(icurlovision
Stone
p1727
(dp1728
g36
F4.71
sg37
F-4.08
sg38
F0.435
sg39
S'red'
p1729
sbasba(icurlovision
StoneLayout
p1730
(dp1731
g31
F0.4791666666666667
sg32
(lp1732
(icurlovision
Stone
p1733
(dp1734
g36
F-0.4305555555555555
sg37
F-1.4305555555555556
sg38
F0.3472222222222222
sg39
S'yellow'
p1735
sba(icurlovision
Stone
p1736
(dp1737
g36
F-4.791666666666666
sg37
F6.569444444444444
sg38
F0.4861111111111111
sg39
S'yellow'
p1738
sba(icurlovision
Stone
p1739
(dp1740
g36
F-2.569444444444444
sg37
F-6.930555555555555
sg38
F0.3472222222222222
sg39
S'red'
p1741
sba(icurlovision
Stone
p1742
(dp1743
g36
F4.902777777777778
sg37
F-4.319444444444445
sg38
F0.4583333333333333
sg39
S'red'
p1744
sbasba(icurlovision
StoneLayout
p1745
(dp1746
g31
F0.4791666666666667
sg32
(lp1747
(icurlovision
Stone
p1748
(dp1749
g36
F-0.40178571428571425
sg37
F-1.3660714285714286
sg38
F0.30803571428571425
sg39
S'yellow'
p1750
sba(icurlovision
Stone
p1751
(dp1752
g36
F-6.1875
sg37
F-4.044642857142857
sg38
F0.46875
sg39
S'red'
p1753
sba(icurlovision
Stone
p1754
(dp1755
g36
F-6.053571428571428
sg37
F6.241071428571428
sg38
F0.4821428571428571
sg39
S'yellow'
p1756
sba(icurlovision
Stone
p1757
(dp1758
g36
F5.892857142857142
sg37
F-5.571428571428571
sg38
F0.33482142857142855
sg39
S'yellow'
p1759
sbasba(icurlovision
StoneLayout
p1760
(dp1761
g31
F0.4791666666666667
sg32
(lp1762
(icurlovision
Stone
p1763
(dp1764
g36
F-0.3913043478260869
sg37
F-1.3858695652173914
sg38
F0.30978260869565216
sg39
S'yellow'
p1765
sba(icurlovision
Stone
p1766
(dp1767
g36
F9.91304347826087
sg37
F-2.0706521739130435
sg38
F0.44021739130434784
sg39
S'red'
p1768
sbasba(icurlovision
StoneLayout
p1769
(dp1770
g31
F0.4791666666666667
sg32
(lp1771
(icurlovision
Stone
p1772
(dp1773
g36
F-0.4076086956521739
sg37
F-1.434782608695652
sg38
F0.47282608695652173
sg39
S'yellow'
p1774
sba(icurlovision
Stone
p1775
(dp1776
g36
F10.125
sg37
F-2.0869565217391304
sg38
F0.30978260869565216
sg39
S'red'
p1777
sba(icurlovision
Stone
p1778
(dp1779
g36
F2.4293478260869565
sg37
F-1.0434782608695652
sg38
F0.2934782608695652
sg39
S'yellow'
p1780
sbasba(icurlovision
StoneLayout
p1781
(dp1782
g31
F0.4791666666666667
sg32
(lp1783
(icurlovision
Stone
p1784
(dp1785
g36
F2.632978723404255
sg37
F-2.3936170212765955
sg38
F0.3191489361702127
sg39
S'red'
p1786
sba(icurlovision
Stone
p1787
(dp1788
g36
F9.686170212765957
sg37
F-2.1702127659574466
sg38
F0.4308510638297872
sg39
S'red'
p1789
sbasba(icurlovision
StoneLayout
p1790
(dp1791
g31
F0.4791666666666667
sg32
(lp1792
(icurlovision
Stone
p1793
(dp1794
g36
F2.7625
sg37
F-2.4375
sg38
F0.35000000000000003
sg39
S'red'
p1795
sba(icurlovision
Stone
p1796
(dp1797
g36
F-0.037500000000000006
sg37
F-2.0125
sg38
F0.4625
sg39
S'yellow'
p1798
sbasbasg218
I5
sg219
I1
sba(icurlovision
EndResult
p1799
(dp1800
g2
I6
sg9
(lp1801
(I7
I8
tp1802
a(I7
I7
tp1803
a(I6
I7
tp1804
a(I6
I6
tp1805
a(I5
I6
tp1806
a(I5
I5
tp1807
a(I4
I5
tp1808
a(I4
I4
tp1809
a(I3
I4
tp1810
a(I3
I3
tp1811
a(I2
I2
tp1812
a(I1
I2
tp1813
a(I1
I1
tp1814
asg26
I9
sg27
(lp1815
(icurlovision
StoneLayout
p1816
(dp1817
g31
F0.4791666666666667
sg32
(lp1818
(icurlovision
Stone
p1819
(dp1820
g36
F14.853260869565217
sg37
F-0.08152173913043478
sg38
F0.4076086956521739
sg39
S'red'
p1821
sbasba(icurlovision
StoneLayout
p1822
(dp1823
g31
F0.4791666666666667
sg32
(lp1824
(icurlovision
Stone
p1825
(dp1826
g36
F-0.8297872340425532
sg37
F-4.787234042553191
sg38
F0.351063829787234
sg39
S'yellow'
p1827
sba(icurlovision
Stone
p1828
(dp1829
g36
F14.872340425531913
sg37
F-0.09574468085106383
sg38
F0.4308510638297872
sg39
S'red'
p1830
sbasba(icurlovision
StoneLayout
p1831
(dp1832
g31
F0.4791666666666667
sg32
(lp1833
(icurlovision
Stone
p1834
(dp1835
g36
F8.016666666666666
sg37
F-0.016666666666666666
sg38
F0.26666666666666666
sg39
S'red'
p1836
sba(icurlovision
Stone
p1837
(dp1838
g36
F-0.8166666666666667
sg37
F-4.816666666666666
sg38
F0.3333333333333333
sg39
S'yellow'
p1839
sba(icurlovision
Stone
p1840
(dp1841
g36
F14.85
sg37
F-0.08333333333333333
sg38
F0.4166666666666667
sg39
S'red'
p1842
sbasba(icurlovision
StoneLayout
p1843
(dp1844
g31
F0.4791666666666667
sg32
(lp1845
(icurlovision
Stone
p1846
(dp1847
g36
F-0.80625
sg37
F-4.81875
sg38
F0.44999999999999996
sg39
S'yellow'
p1848
sba(icurlovision
Stone
p1849
(dp1850
g36
F-0.61875
sg37
F0.61875
sg38
F0.46875
sg39
S'yellow'
p1851
sba(icurlovision
Stone
p1852
(dp1853
g36
F8.081249999999999
sg37
F-0.056249999999999994
sg38
F0.43124999999999997
sg39
S'red'
p1854
sba(icurlovision
Stone
p1855
(dp1856
g36
F15.056249999999999
sg37
F-0.09375
sg38
F0.43124999999999997
sg39
S'red'
p1857
sbasba(icurlovision
StoneLayout
p1858
(dp1859
g31
F0.4791666666666667
sg32
(lp1860
(icurlovision
Stone
p1861
(dp1862
g36
F-0.8011363636363635
sg37
F-4.875
sg38
F0.3409090909090909
sg39
S'yellow'
p1863
sba(icurlovision
Stone
p1864
(dp1865
g36
F-0.5965909090909091
sg37
F0.6136363636363635
sg38
F0.3409090909090909
sg39
S'yellow'
p1866
sba(icurlovision
Stone
p1867
(dp1868
g36
F8.130681818181818
sg37
F-0.03409090909090909
sg38
F0.4431818181818181
sg39
S'red'
p1869
sba(icurlovision
Stone
p1870
(dp1871
g36
F0.6647727272727272
sg37
F0.0
sg38
F0.32386363636363635
sg39
S'red'
p1872
sba(icurlovision
Stone
p1873
(dp1874
g36
F15.017045454545453
sg37
F-0.10227272727272727
sg38
F0.4261363636363636
sg39
S'red'
p1875
sbasba(icurlovision
StoneLayout
p1876
(dp1877
g31
F0.4791666666666667
sg32
(lp1878
(icurlovision
Stone
p1879
(dp1880
g36
F8.350961538461538
sg37
F0.014423076923076924
sg38
F0.34615384615384615
sg39
S'red'
p1881
sba(icurlovision
Stone
p1882
(dp1883
g36
F-0.8509615384615385
sg37
F-4.918269230769231
sg38
F0.3317307692307693
sg39
S'yellow'
p1884
sba(icurlovision
Stone
p1885
(dp1886
g36
F-0.6201923076923077
sg37
F0.6490384615384616
sg38
F0.34615384615384615
sg39
S'yellow'
p1887
sba(icurlovision
Stone
p1888
(dp1889
g36
F0.6201923076923077
sg37
F0.07211538461538462
sg38
F0.3605769230769231
sg39
S'red'
p1890
sba(icurlovision
Stone
p1891
(dp1892
g36
F-1.7740384615384617
sg37
F6.793269230769231
sg38
F0.4759615384615385
sg39
S'red'
p1893
sbasba(icurlovision
StoneLayout
p1894
(dp1895
g31
F0.4791666666666667
sg32
(lp1896
(icurlovision
Stone
p1897
(dp1898
g36
F-0.7826086956521738
sg37
F-4.663043478260869
sg38
F0.45652173913043476
sg39
S'yellow'
p1899
sba(icurlovision
Stone
p1900
(dp1901
g36
F-0.5869565217391304
sg37
F0.5869565217391304
sg38
F0.30978260869565216
sg39
S'yellow'
p1902
sba(icurlovision
Stone
p1903
(dp1904
g36
F0.6195652173913043
sg37
F0.0
sg38
F0.44021739130434784
sg39
S'red'
p1905
sba(icurlovision
Stone
p1906
(dp1907
g36
F13.597826086956522
sg37
F0.2934782608695652
sg38
F0.3913043478260869
sg39
S'red'
p1908
sba(icurlovision
Stone
p1909
(dp1910
g36
F7.760869565217391
sg37
F-0.03260869565217391
sg38
F0.4076086956521739
sg39
S'red'
p1911
sbasba(icurlovision
StoneLayout
p1912
(dp1913
g31
F0.4791666666666667
sg32
(lp1914
(icurlovision
Stone
p1915
(dp1916
g36
F-0.6071428571428571
sg37
F0.6428571428571428
sg38
F0.47619047619047616
sg39
S'yellow'
p1917
sba(icurlovision
Stone
p1918
(dp1919
g36
F-0.8452380952380952
sg37
F-4.8809523809523805
sg38
F0.3333333333333333
sg39
S'yellow'
p1920
sba(icurlovision
Stone
p1921
(dp1922
g36
F0.6309523809523809
sg37
F0.047619047619047616
sg38
F0.3571428571428571
sg39
S'red'
p1923
sba(icurlovision
Stone
p1924
(dp1925
g36
F8.178571428571429
sg37
F0.0
sg38
F0.46428571428571425
sg39
S'red'
p1926
sbasba(icurlovision
StoneLayout
p1927
(dp1928
g31
F0.4791666666666667
sg32
(lp1929
(icurlovision
Stone
p1930
(dp1931
g36
F-0.826530612244898
sg37
F-4.86734693877551
sg38
F0.45918367346938777
sg39
S'yellow'
p1932
sba(icurlovision
Stone
p1933
(dp1934
g36
F-0.6428571428571428
sg37
F0.6122448979591837
sg38
F0.336734693877551
sg39
S'yellow'
p1935
sba(icurlovision
Stone
p1936
(dp1937
g36
F0.6428571428571428
sg37
F0.030612244897959183
sg38
F0.336734693877551
sg39
S'red'
p1938
sba(icurlovision
Stone
p1939
(dp1940
g36
F10.959183673469388
sg37
F0.7346938775510203
sg38
F0.44387755102040816
sg39
S'red'
p1941
sbasba(icurlovision
StoneLayout
p1942
(dp1943
g31
F0.4791666666666667
sg32
(lp1944
(icurlovision
Stone
p1945
(dp1946
g36
F-0.6382978723404255
sg37
F0.5904255319148936
sg38
F0.33510638297872336
sg39
S'yellow'
p1947
sba(icurlovision
Stone
p1948
(dp1949
g36
F8.106382978723403
sg37
F-3.0478723404255317
sg38
F0.44680851063829785
sg39
S'red'
p1950
sba(icurlovision
Stone
p1951
(dp1952
g36
F-0.7978723404255319
sg37
F-4.7712765957446805
sg38
F0.3031914893617021
sg39
S'yellow'
p1953
sba(icurlovision
Stone
p1954
(dp1955
g36
F0.6063829787234042
sg37
F0.015957446808510637
sg38
F0.33510638297872336
sg39
S'red'
p1956
sbasba(icurlovision
StoneLayout
p1957
(dp1958
g31
F0.4791666666666667
sg32
(lp1959
(icurlovision
Stone
p1960
(dp1961
g36
F-1.0535714285714286
sg37
F-3.125
sg38
F0.4821428571428571
sg39
S'red'
p1962
sba(icurlovision
Stone
p1963
(dp1964
g36
F8.517857142857142
sg37
F-3.1607142857142856
sg38
F0.46428571428571425
sg39
S'red'
p1965
sba(icurlovision
Stone
p1966
(dp1967
g36
F0.6607142857142857
sg37
F0.05357142857142857
sg38
F0.26785714285714285
sg39
S'red'
p1968
sba(icurlovision
Stone
p1969
(dp1970
g36
F-0.625
sg37
F0.6607142857142857
sg38
F0.3571428571428571
sg39
S'yellow'
p1971
sbasba(icurlovision
StoneLayout
p1972
(dp1973
g31
F0.4791666666666667
sg32
(lp1974
(icurlovision
Stone
p1975
(dp1976
g36
F-1.0375
sg37
F-2.9375
sg38
F0.42500000000000004
sg39
S'red'
p1977
sba(icurlovision
Stone
p1978
(dp1979
g36
F-0.5625
sg37
F0.5625
sg38
F0.325
sg39
S'yellow'
p1980
sba(icurlovision
Stone
p1981
(dp1982
g36
F0.6125
sg37
F-0.0125
sg38
F0.4375
sg39
S'red'
p1983
sba(icurlovision
Stone
p1984
(dp1985
g36
F7.8875
sg37
F-3.1125000000000003
sg38
F0.42500000000000004
sg39
S'red'
p1986
sba(icurlovision
Stone
p1987
(dp1988
g36
F5.6875
sg37
F0.4375
sg38
F0.41250000000000003
sg39
S'red'
p1989
sbasba(icurlovision
StoneLayout
p1990
(dp1991
g31
F0.4791666666666667
sg32
(lp1992
(icurlovision
Stone
p1993
(dp1994
g36
F-1.053191489361702
sg37
F-3.095744680851064
sg38
F0.4627659574468085
sg39
S'red'
p1995
sba(icurlovision
Stone
p1996
(dp1997
g36
F-0.6382978723404255
sg37
F0.6063829787234042
sg38
F0.33510638297872336
sg39
S'yellow'
p1998
sba(icurlovision
Stone
p1999
(dp2000
g36
F8.425531914893616
sg37
F-3.1595744680851063
sg38
F0.44680851063829785
sg39
S'red'
p2001
sba(icurlovision
Stone
p2002
(dp2003
g36
F0.6382978723404255
sg37
F0.031914893617021274
sg38
F0.351063829787234
sg39
S'red'
p2004
sbasbasg218
I5
sg219
I0
sba(icurlovision
EndResult
p2005
(dp2006
g2
I6
sg9
(lp2007
(I8
I7
tp2008
a(I7
I7
tp2009
a(I7
I6
tp2010
a(I6
I6
tp2011
a(I6
I5
tp2012
a(I5
I5
tp2013
a(I5
I4
tp2014
a(I4
I3
tp2015
a(I3
I3
tp2016
a(I2
I2
tp2017
a(I1
I1
tp2018
a(I1
I0
tp2019
asg26
I10
sg27
(lp2020
(icurlovision
StoneLayout
p2021
(dp2022
g31
F0.4791666666666667
sg32
(lp2023
(icurlovision
Stone
p2024
(dp2025
g36
F2.203125
sg37
F-0.265625
sg38
F0.328125
sg39
S'yellow'
p2026
sbasba(icurlovision
StoneLayout
p2027
(dp2028
g31
F0.4791666666666667
sg32
(lp2029
(icurlovision
Stone
p2030
(dp2031
g36
F2.1778846153846154
sg37
F-0.3317307692307693
sg38
F0.44711538461538464
sg39
S'yellow'
p2032
sba(icurlovision
Stone
p2033
(dp2034
g36
F9.447115384615385
sg37
F-3.8798076923076925
sg38
F0.4182692307692308
sg39
S'red'
p2035
sbasba(icurlovision
StoneLayout
p2036
(dp2037
g31
F0.4791666666666667
sg32
(lp2038
(icurlovision
Stone
p2039
(dp2040
g36
F2.125
sg37
F-0.25
sg38
F0.325
sg39
S'yellow'
p2041
sba(icurlovision
Stone
p2042
(dp2043
g36
F9.25
sg37
F-3.575
sg38
F0.42500000000000004
sg39
S'red'
p2044
sba(icurlovision
Stone
p2045
(dp2046
g36
F4.925000000000001
sg37
F-0.35000000000000003
sg38
F0.41250000000000003
sg39
S'yellow'
p2047
sbasba(icurlovision
StoneLayout
p2048
(dp2049
g31
F0.4791666666666667
sg32
(lp2050
(icurlovision
Stone
p2051
(dp2052
g36
F3.138157894736842
sg37
F-0.29605263157894735
sg38
F0.47368421052631576
sg39
S'yellow'
p2053
sba(icurlovision
Stone
p2054
(dp2055
g36
F9.730263157894736
sg37
F-4.006578947368421
sg38
F0.4539473684210526
sg39
S'red'
p2056
sba(icurlovision
Stone
p2057
(dp2058
g36
F6.098684210526315
sg37
F-0.5328947368421052
sg38
F0.2763157894736842
sg39
S'red'
p2059
sbasba(icurlovision
StoneLayout
p2060
(dp2061
g31
F0.4791666666666667
sg32
(lp2062
(icurlovision
Stone
p2063
(dp2064
g36
F3.0865384615384617
sg37
F-0.20192307692307693
sg38
F0.46153846153846156
sg39
S'yellow'
p2065
sba(icurlovision
Stone
p2066
(dp2067
g36
F6.057692307692308
sg37
F-0.4326923076923077
sg38
F0.34615384615384615
sg39
S'red'
p2068
sbasba(icurlovision
StoneLayout
p2069
(dp2070
g31
F0.4791666666666667
sg32
(lp2071
(icurlovision
Stone
p2072
(dp2073
g36
F3.107142857142857
sg37
F-0.24489795918367346
sg38
F0.44387755102040816
sg39
S'yellow'
p2074
sba(icurlovision
Stone
p2075
(dp2076
g36
F1.2091836734693877
sg37
F-3.9489795918367347
sg38
F0.44387755102040816
sg39
S'red'
p2077
sba(icurlovision
Stone
p2078
(dp2079
g36
F4.423469387755102
sg37
F1.1020408163265305
sg38
F0.30612244897959184
sg39
S'red'
p2080
sbasba(icurlovision
StoneLayout
p2081
(dp2082
g31
F0.4791666666666667
sg32
(lp2083
(icurlovision
Stone
p2084
(dp2085
g36
F3.142857142857143
sg37
F-0.23809523809523808
sg38
F0.3333333333333333
sg39
S'yellow'
p2086
sba(icurlovision
Stone
p2087
(dp2088
g36
F4.476190476190476
sg37
F1.1428571428571428
sg38
F0.3214285714285714
sg39
S'red'
p2089
sba(icurlovision
Stone
p2090
(dp2091
g36
F2.119047619047619
sg37
F-3.714285714285714
sg38
F0.34523809523809523
sg39
S'yellow'
p2092
sbasba(icurlovision
StoneLayout
p2093
(dp2094
g31
F0.4791666666666667
sg32
(lp2095
(icurlovision
Stone
p2096
(dp2097
g36
F0.8771186440677967
sg37
F-4.90677966101695
sg38
F0.35593220338983056
sg39
S'red'
p2098
sbasba(icurlovision
StoneLayout
p2099
(dp2100
g31
F0.4791666666666667
sg32
(lp2101
(icurlovision
Stone
p2102
(dp2103
g36
F0.5201612903225806
sg37
F3.786290322580645
sg38
F0.3387096774193548
sg39
S'red'
p2104
sba(icurlovision
Stone
p2105
(dp2106
g36
F0.907258064516129
sg37
F-4.971774193548387
sg38
F0.4596774193548387
sg39
S'red'
p2107
sbasba(icurlovision
StoneLayout
p2108
(dp2109
g31
F0.4791666666666667
sg32
(lp2110
(icurlovision
Stone
p2111
(dp2112
g36
F2.15
sg37
F3.2
sg38
F0.3375
sg39
S'red'
p2113
sba(icurlovision
Stone
p2114
(dp2115
g36
F0.8
sg37
F-4.75
sg38
F0.3375
sg39
S'red'
p2116
sbasba(icurlovision
StoneLayout
p2117
(dp2118
g31
F0.4791666666666667
sg32
(lp2119
(icurlovision
Stone
p2120
(dp2121
g36
F0.8483606557377049
sg37
F-4.831967213114754
sg38
F0.35655737704918034
sg39
S'red'
p2122
sba(icurlovision
Stone
p2123
(dp2124
g36
F3.9959016393442623
sg37
F3.4057377049180326
sg38
F0.319672131147541
sg39
S'red'
p2125
sbasba(icurlovision
StoneLayout
p2126
(dp2127
g31
F0.4791666666666667
sg32
(lp2128
(icurlovision
Stone
p2129
(dp2130
g36
F1.021551724137931
sg37
F-5.625
sg38
F0.34913793103448276
sg39
S'red'
p2131
sba(icurlovision
Stone
p2132
(dp2133
g36
F-3.7370689655172415
sg37
F-5.7284482758620685
sg38
F0.34913793103448276
sg39
S'yellow'
p2134
sbasbasg218
I5
sg219
I1
sbasS'version'
p2135
I20180812
sg218
I5
sS'metadata'
p2136
(icurlovision
MatchMetadata
p2137
(dp2138
S'team_name_red'
p2139
S'Unknown'
p2140
sS'event_name'
p2141
g2140
sS'gender'
p2142
g2140
sS'other_info'
p2143
g2140
sS'team_name_yel'
p2144
g2140
sS'date'
p2145
g2140
sbsb.