(icurlovision
MatchResult
p0
(dp1
S'yel_score'
p2
I-1
sS'name'
p3
S"VideoLibrary/PyeongChang.Olympics.2018.curling.women's.semi-finals.Korea.v.Japan.1080p.NBC.WEB-DL-FINFUNGUS.mp4"
p4
sS'end_results'
p5
(lp6
(icurlovision
EndResult
p7
(dp8
g2
I-1
sS'stones_left'
p9
(lp10
sS'end_num'
p11
I-1
sS'stone_layouts'
p12
(lp13
sS'red_score'
p14
I-1
sS'red_hammer'
p15
I-1
sbasS'version'
p16
I20180812
sg14
I-1
sS'metadata'
p17
(icurlovision
MatchMetadata
p18
(dp19
S'team_name_red'
p20
S'Unknown'
p21
sS'event_name'
p22
g21
sS'gender'
p23
g21
sS'other_info'
p24
g21
sS'team_name_yel'
p25
g21
sS'date'
p26
g21
sbsb.