(icurlovision
MatchResult
p0
(dp1
S'yel_score'
p2
I8
sS'name'
p3
S"VideoLibrary/PyeongChang.Olympics.2018.curling.women's.round-robin.Denmark.v.Canada.1080p.NBC.WEB-DL-FINFUNGUS.mp4"
p4
sS'end_results'
p5
(lp6
(icurlovision
EndResult
p7
(dp8
g2
I0
sS'stones_left'
p9
(lp10
(I7
I8
tp11
a(I6
I7
tp12
a(I5
I6
tp13
a(I4
I5
tp14
a(I4
I4
tp15
a(I3
I4
tp16
a(I3
I3
tp17
a(I2
I3
tp18
a(I1
I2
tp19
a(I0
I1
tp20
asS'end_num'
p21
I1
sS'stone_layouts'
p22
(lp23
(icurlovision
StoneLayout
p24
(dp25
S'stone_radius'
p26
F0.4791666666666667
sS'stones'
p27
(lp28
(icurlovision
Stone
p29
(dp30
S'y'
p31
F2.2674418604651163
sS'x'
p32
F0.03488372093023256
sS'r'
p33
F0.3488372093023256
sS'color'
p34
S'red'
p35
sbasba(icurlovision
StoneLayout
p36
(dp37
g26
F0.4791666666666667
sg27
(lp38
(icurlovision
Stone
p39
(dp40
g31
F-2.360655737704918
sg32
F6.627049180327869
sg33
F0.4426229508196721
sg34
S'yellow'
p41
sba(icurlovision
Stone
p42
(dp43
g31
F-5.508196721311475
sg32
F-1.0942622950819672
sg33
F0.3442622950819672
sg34
S'red'
p44
sbasba(icurlovision
StoneLayout
p45
(dp46
g26
F0.4791666666666667
sg27
(lp47
(icurlovision
Stone
p48
(dp49
g31
F-0.9051724137931034
sg32
F3.5172413793103448
sg33
F0.34913793103448276
sg34
S'red'
p50
sbasba(icurlovision
StoneLayout
p51
(dp52
g26
F0.4791666666666667
sg27
(lp53
(icurlovision
Stone
p54
(dp55
g31
F-0.11904761904761904
sg32
F1.2857142857142856
sg33
F0.34523809523809523
sg34
S'red'
p56
sba(icurlovision
Stone
p57
(dp58
g31
F1.5714285714285714
sg32
F-2.333333333333333
sg33
F0.46428571428571425
sg34
S'red'
p59
sba(icurlovision
Stone
p60
(dp61
g31
F-6.119047619047619
sg32
F5.3809523809523805
sg33
F0.3333333333333333
sg34
S'yellow'
p62
sbasba(icurlovision
StoneLayout
p63
(dp64
g26
F0.4791666666666667
sg27
(lp65
(icurlovision
Stone
p66
(dp67
g31
F-6.302631578947368
sg32
F-6.197368421052631
sg33
F0.3157894736842105
sg34
S'yellow'
p68
sbasba(icurlovision
StoneLayout
p69
(dp70
g26
F0.4791666666666667
sg27
(lp71
(icurlovision
Stone
p72
(dp73
g31
F-2.486111111111111
sg32
F0.875
sg33
F0.4444444444444444
sg34
S'red'
p74
sbasba(icurlovision
StoneLayout
p75
(dp76
g26
F0.4791666666666667
sg27
(lp77
(icurlovision
Stone
p78
(dp79
g31
F-1.995762711864407
sg32
F1.4364406779661019
sg33
F0.3432203389830509
sg34
S'yellow'
p80
sbasba(icurlovision
StoneLayout
p81
(dp82
g26
F0.4791666666666667
sg27
(lp83
(icurlovision
Stone
p84
(dp85
g31
F-5.780172413793103
sg32
F-4.668103448275862
sg33
F0.47844827586206895
sg34
S'red'
p86
sba(icurlovision
Stone
p87
(dp88
g31
F-2.935344827586207
sg32
F0.8922413793103449
sg33
F0.47844827586206895
sg34
S'red'
p89
sbasba(icurlovision
StoneLayout
p90
(dp91
g26
F0.4791666666666667
sg27
(lp92
sba(icurlovision
StoneLayout
p93
(dp94
g26
F0.4791666666666667
sg27
(lp95
(icurlovision
Stone
p96
(dp97
g31
F-4.554545454545455
sg32
F0.21818181818181817
sg33
F0.35454545454545455
sg34
S'red'
p98
sbasbasS'red_score'
p99
I0
sS'red_hammer'
p100
I0
sba(icurlovision
EndResult
p101
(dp102
g2
I2
sg9
(lp103
(I7
I8
tp104
a(I6
I7
tp105
a(I6
I6
tp106
a(I5
I5
tp107
a(I4
I5
tp108
a(I4
I4
tp109
a(I3
I4
tp110
a(I3
I3
tp111
a(I2
I3
tp112
a(I2
I2
tp113
a(I1
I2
tp114
a(I1
I1
tp115
asg21
I2
sg22
(lp116
(icurlovision
StoneLayout
p117
(dp118
g26
F0.4791666666666667
sg27
(lp119
(icurlovision
Stone
p120
(dp121
g31
F-5.3088235294117645
sg32
F1.2794117647058822
sg33
F0.45588235294117646
sg34
S'red'
p122
sbasba(icurlovision
StoneLayout
p123
(dp124
g26
F0.4791666666666667
sg27
(lp125
(icurlovision
Stone
p126
(dp127
g31
F3.1595744680851063
sg32
F-0.44680851063829785
sg33
F0.3191489361702127
sg34
S'red'
p128
sba(icurlovision
Stone
p129
(dp130
g31
F6.861702127659574
sg32
F2.712765957446808
sg33
F0.44680851063829785
sg34
S'yellow'
p131
sba(icurlovision
Stone
p132
(dp133
g31
F-5.234042553191489
sg32
F1.276595744680851
sg33
F0.351063829787234
sg34
S'red'
p134
sbasba(icurlovision
StoneLayout
p135
(dp136
g26
F0.4791666666666667
sg27
(lp137
(icurlovision
Stone
p138
(dp139
g31
F-5.341836734693877
sg32
F1.3010204081632653
sg33
F0.29081632653061223
sg34
S'red'
p140
sba(icurlovision
Stone
p141
(dp142
g31
F6.658163265306122
sg32
F3.0459183673469385
sg33
F0.45918367346938777
sg34
S'yellow'
p143
sba(icurlovision
Stone
p144
(dp145
g31
F3.137755102040816
sg32
F-0.44387755102040816
sg33
F0.45918367346938777
sg34
S'red'
p146
sbasba(icurlovision
StoneLayout
p147
(dp148
g26
F0.4791666666666667
sg27
(lp149
(icurlovision
Stone
p150
(dp151
g31
F6.416666666666667
sg32
F2.8833333333333333
sg33
F0.43333333333333335
sg34
S'yellow'
p152
sba(icurlovision
Stone
p153
(dp154
g31
F2.05
sg32
F-2.85
sg33
F0.2833333333333333
sg34
S'red'
p155
sba(icurlovision
Stone
p156
(dp157
g31
F9.95
sg32
F2.5166666666666666
sg33
F0.45
sg34
S'yellow'
p158
sba(icurlovision
Stone
p159
(dp160
g31
F1.9833333333333334
sg32
F6.983333333333333
sg33
F0.3333333333333333
sg34
S'red'
p161
sbasba(icurlovision
StoneLayout
p162
(dp163
g26
F0.4791666666666667
sg27
(lp164
(icurlovision
Stone
p165
(dp166
g31
F2.135869565217391
sg32
F-2.918478260869565
sg33
F0.32608695652173914
sg34
S'red'
p167
sba(icurlovision
Stone
p168
(dp169
g31
F6.4728260869565215
sg32
F3.1793478260869565
sg33
F0.45652173913043476
sg34
S'yellow'
p170
sba(icurlovision
Stone
p171
(dp172
g31
F10.353260869565217
sg32
F2.6902173913043477
sg33
F0.45652173913043476
sg34
S'yellow'
p173
sba(icurlovision
Stone
p174
(dp175
g31
F6.733695652173913
sg32
F2.005434782608696
sg33
F0.45652173913043476
sg34
S'red'
p176
sba(icurlovision
Stone
p177
(dp178
g31
F8.983695652173912
sg32
F1.0923913043478262
sg33
F0.5217391304347826
sg34
S'red'
p179
sbasba(icurlovision
StoneLayout
p180
(dp181
g26
F0.4791666666666667
sg27
(lp182
(icurlovision
Stone
p183
(dp184
g31
F-5.162790697674419
sg32
F5.686046511627907
sg33
F0.47093023255813954
sg34
S'yellow'
p185
sba(icurlovision
Stone
p186
(dp187
g31
F10.011627906976743
sg32
F2.5813953488372094
sg33
F0.436046511627907
sg34
S'yellow'
p188
sba(icurlovision
Stone
p189
(dp190
g31
F6.27906976744186
sg32
F3.0697674418604652
sg33
F0.436046511627907
sg34
S'yellow'
p191
sba(icurlovision
Stone
p192
(dp193
g31
F6.523255813953488
sg32
F1.9534883720930232
sg33
F0.27906976744186046
sg34
S'red'
p194
sba(icurlovision
Stone
p195
(dp196
g31
F-7.0813953488372094
sg32
F-4.186046511627907
sg33
F0.5232558139534884
sg34
S'red'
p197
sbasba(icurlovision
StoneLayout
p198
(dp199
g26
F0.4791666666666667
sg27
(lp200
(icurlovision
Stone
p201
(dp202
g31
F6.4186046511627906
sg32
F3.13953488372093
sg33
F0.3313953488372093
sg34
S'yellow'
p203
sba(icurlovision
Stone
p204
(dp205
g31
F6.627906976744186
sg32
F1.9534883720930232
sg33
F0.27906976744186046
sg34
S'red'
p206
sba(icurlovision
Stone
p207
(dp208
g31
F10.151162790697674
sg32
F2.6162790697674416
sg33
F0.4011627906976744
sg34
S'yellow'
p209
sbasba(icurlovision
StoneLayout
p210
(dp211
g26
F0.4791666666666667
sg27
(lp212
(icurlovision
Stone
p213
(dp214
g31
F6.533333333333333
sg32
F3.2
sg33
F0.31666666666666665
sg34
S'yellow'
p215
sba(icurlovision
Stone
p216
(dp217
g31
F6.333333333333333
sg32
F-2.5666666666666664
sg33
F0.45
sg34
S'yellow'
p218
sba(icurlovision
Stone
p219
(dp220
g31
F-2.1333333333333333
sg32
F4.733333333333333
sg33
F0.3333333333333333
sg34
S'yellow'
p221
sba(icurlovision
Stone
p222
(dp223
g31
F-6.933333333333334
sg32
F-3.4
sg33
F0.31666666666666665
sg34
S'red'
p224
sba(icurlovision
Stone
p225
(dp226
g31
F-5.866666666666666
sg32
F-3.6333333333333333
sg33
F0.31666666666666665
sg34
S'red'
p227
sbasba(icurlovision
StoneLayout
p228
(dp229
g26
F0.4791666666666667
sg27
(lp230
(icurlovision
Stone
p231
(dp232
g31
F6.375
sg32
F-2.6105769230769234
sg33
F0.46153846153846156
sg34
S'yellow'
p233
sba(icurlovision
Stone
p234
(dp235
g31
F6.519230769230769
sg32
F3.216346153846154
sg33
F0.4759615384615385
sg34
S'yellow'
p236
sba(icurlovision
Stone
p237
(dp238
g31
F-5.596153846153847
sg32
F2.668269230769231
sg33
F0.34615384615384615
sg34
S'red'
p239
sba(icurlovision
Stone
p240
(dp241
g31
F3.3461538461538463
sg32
F5.4375
sg33
F0.3028846153846154
sg34
S'red'
p242
sbasba(icurlovision
StoneLayout
p243
(dp244
g26
F0.4791666666666667
sg27
(lp245
(icurlovision
Stone
p246
(dp247
g31
F6.409090909090909
sg32
F3.1636363636363636
sg33
F0.3409090909090909
sg34
S'yellow'
p248
sba(icurlovision
Stone
p249
(dp250
g31
F6.245454545454545
sg32
F-2.5636363636363635
sg33
F0.43636363636363634
sg34
S'yellow'
p251
sba(icurlovision
Stone
p252
(dp253
g31
F1.5818181818181818
sg32
F3.0272727272727273
sg33
F0.32727272727272727
sg34
S'yellow'
p254
sbasba(icurlovision
StoneLayout
p255
(dp256
g26
F0.4791666666666667
sg27
(lp257
(icurlovision
Stone
p258
(dp259
g31
F6.194444444444444
sg32
F-2.5277777777777777
sg33
F0.4444444444444444
sg34
S'yellow'
p260
sba(icurlovision
Stone
p261
(dp262
g31
F2.638888888888889
sg32
F6.138888888888888
sg33
F0.4305555555555555
sg34
S'yellow'
p263
sba(icurlovision
Stone
p264
(dp265
g31
F0.6388888888888888
sg32
F-1.5555555555555554
sg33
F0.3333333333333333
sg34
S'red'
p266
sbasba(icurlovision
StoneLayout
p267
(dp268
g26
F0.4791666666666667
sg27
(lp269
(icurlovision
Stone
p270
(dp271
g31
F6.183673469387755
sg32
F-2.4948979591836733
sg33
F0.42857142857142855
sg34
S'yellow'
p272
sba(icurlovision
Stone
p273
(dp274
g31
F1.5
sg32
F-1.4540816326530612
sg33
F0.44387755102040816
sg34
S'yellow'
p275
sba(icurlovision
Stone
p276
(dp277
g31
F1.5612244897959184
sg32
F3.0153061224489797
sg33
F0.3214285714285714
sg34
S'yellow'
p278
sba(icurlovision
Stone
p279
(dp280
g31
F2.63265306122449
sg32
F6.076530612244897
sg33
F0.44387755102040816
sg34
S'yellow'
p281
sbasbasg99
I0
sg100
I0
sba(icurlovision
EndResult
p282
(dp283
g2
I2
sg9
(lp284
(I7
I7
tp285
a(I6
I6
tp286
a(I6
I5
tp287
a(I5
I5
tp288
a(I5
I4
tp289
a(I4
I3
tp290
a(I3
I3
tp291
a(I2
I2
tp292
a(I2
I1
tp293
a(I1
I1
tp294
a(I1
I0
tp295
asg21
I3
sg22
(lp296
(icurlovision
StoneLayout
p297
(dp298
g26
F0.4791666666666667
sg27
(lp299
(icurlovision
Stone
p300
(dp301
g31
F7.602272727272727
sg32
F-0.9886363636363635
sg33
F0.4602272727272727
sg34
S'yellow'
p302
sba(icurlovision
Stone
p303
(dp304
g31
F4.0227272727272725
sg32
F-1.3977272727272727
sg33
F0.3409090909090909
sg34
S'red'
p305
sba(icurlovision
Stone
p306
(dp307
g31
F9.477272727272727
sg32
F0.75
sg33
F0.28977272727272724
sg34
S'red'
p308
sbasba(icurlovision
StoneLayout
p309
(dp310
g26
F0.4791666666666667
sg27
(lp311
(icurlovision
Stone
p312
(dp313
g31
F1.53125
sg32
F2.453125
sg33
F0.4375
sg34
S'red'
p314
sba(icurlovision
Stone
p315
(dp316
g31
F3.9375
sg32
F-1.453125
sg33
F0.34375
sg34
S'red'
p317
sba(icurlovision
Stone
p318
(dp319
g31
F7.53125
sg32
F-1.078125
sg33
F0.453125
sg34
S'yellow'
p320
sba(icurlovision
Stone
p321
(dp322
g31
F-6.15625
sg32
F-1.578125
sg33
F0.34375
sg34
S'yellow'
p323
sbasba(icurlovision
StoneLayout
p324
(dp325
g26
F0.4791666666666667
sg27
(lp326
(icurlovision
Stone
p327
(dp328
g31
F2.394736842105263
sg32
F2.4210526315789473
sg33
F0.4605263157894737
sg34
S'yellow'
p329
sba(icurlovision
Stone
p330
(dp331
g31
F7.578947368421052
sg32
F-1.0
sg33
F0.35526315789473684
sg34
S'yellow'
p332
sba(icurlovision
Stone
p333
(dp334
g31
F3.9736842105263155
sg32
F-1.394736842105263
sg33
F0.3289473684210526
sg34
S'red'
p335
sbasba(icurlovision
StoneLayout
p336
(dp337
g26
F0.4791666666666667
sg27
(lp338
(icurlovision
Stone
p339
(dp340
g31
F-5.958333333333333
sg32
F-1.6666666666666665
sg33
F0.3472222222222222
sg34
S'yellow'
p341
sba(icurlovision
Stone
p342
(dp343
g31
F3.958333333333333
sg32
F-1.3055555555555556
sg33
F0.3472222222222222
sg34
S'red'
p344
sba(icurlovision
Stone
p345
(dp346
g31
F2.986111111111111
sg32
F3.222222222222222
sg33
F0.3472222222222222
sg34
S'red'
p347
sba(icurlovision
Stone
p348
(dp349
g31
F0.4861111111111111
sg32
F2.0277777777777777
sg33
F0.3611111111111111
sg34
S'yellow'
p350
sba(icurlovision
Stone
p351
(dp352
g31
F7.541666666666666
sg32
F-0.861111111111111
sg33
F0.3055555555555555
sg34
S'yellow'
p353
sba(icurlovision
Stone
p354
(dp355
g31
F2.486111111111111
sg32
F-0.5
sg33
F0.38888888888888884
sg34
S'red'
p356
sbasba(icurlovision
StoneLayout
p357
(dp358
g26
F0.4791666666666667
sg27
(lp359
(icurlovision
Stone
p360
(dp361
g31
F-5.925
sg32
F-1.515
sg33
F0.435
sg34
S'yellow'
p362
sba(icurlovision
Stone
p363
(dp364
g31
F7.305
sg32
F-1.065
sg33
F0.435
sg34
S'yellow'
p365
sba(icurlovision
Stone
p366
(dp367
g31
F2.565
sg32
F4.185
sg33
F0.32999999999999996
sg34
S'yellow'
p368
sba(icurlovision
Stone
p369
(dp370
g31
F3.795
sg32
F-1.365
sg33
F0.435
sg34
S'red'
p371
sba(icurlovision
Stone
p372
(dp373
g31
F-3.195
sg32
F3.735
sg33
F0.27
sg34
S'red'
p374
sbasba(icurlovision
StoneLayout
p375
(dp376
g26
F0.4791666666666667
sg27
(lp377
(icurlovision
Stone
p378
(dp379
g31
F-4.399038461538462
sg32
F5.956730769230769
sg33
F0.4759615384615385
sg34
S'yellow'
p380
sba(icurlovision
Stone
p381
(dp382
g31
F-6.100961538461539
sg32
F-1.5721153846153848
sg33
F0.44711538461538464
sg34
S'yellow'
p383
sba(icurlovision
Stone
p384
(dp385
g31
F3.9375
sg32
F-1.3990384615384617
sg33
F0.44711538461538464
sg34
S'red'
p386
sba(icurlovision
Stone
p387
(dp388
g31
F7.5144230769230775
sg32
F-1.0528846153846154
sg33
F0.3605769230769231
sg34
S'yellow'
p389
sbasba(icurlovision
StoneLayout
p390
(dp391
g26
F0.4791666666666667
sg27
(lp392
(icurlovision
Stone
p393
(dp394
g31
F7.471153846153847
sg32
F-1.0096153846153846
sg33
F0.44711538461538464
sg34
S'yellow'
p395
sba(icurlovision
Stone
p396
(dp397
g31
F-6.028846153846154
sg32
F-1.528846153846154
sg33
F0.4759615384615385
sg34
S'yellow'
p398
sba(icurlovision
Stone
p399
(dp400
g31
F3.9230769230769234
sg32
F-1.3846153846153846
sg33
F0.34615384615384615
sg34
S'red'
p401
sba(icurlovision
Stone
p402
(dp403
g31
F-4.384615384615385
sg32
F6.0
sg33
F0.3317307692307693
sg34
S'yellow'
p404
sba(icurlovision
Stone
p405
(dp406
g31
F0.31730769230769235
sg32
F4.211538461538462
sg33
F0.46153846153846156
sg34
S'red'
p407
sbasba(icurlovision
StoneLayout
p408
(dp409
g26
F0.4791666666666667
sg27
(lp410
(icurlovision
Stone
p411
(dp412
g31
F7.544117647058823
sg32
F-1.1323529411764706
sg33
F0.3088235294117647
sg34
S'yellow'
p413
sba(icurlovision
Stone
p414
(dp415
g31
F-0.07352941176470588
sg32
F6.6911764705882355
sg33
F0.45588235294117646
sg34
S'yellow'
p416
sba(icurlovision
Stone
p417
(dp418
g31
F-6.13235294117647
sg32
F-1.5147058823529411
sg33
F0.3382352941176471
sg34
S'yellow'
p419
sba(icurlovision
Stone
p420
(dp421
g31
F3.926470588235294
sg32
F-1.4852941176470589
sg33
F0.3382352941176471
sg34
S'red'
p422
sba(icurlovision
Stone
p423
(dp424
g31
F-4.367647058823529
sg32
F6.073529411764706
sg33
F0.3382352941176471
sg34
S'yellow'
p425
sba(icurlovision
Stone
p426
(dp427
g31
F0.25
sg32
F4.25
sg33
F0.47058823529411764
sg34
S'red'
p428
sbasba(icurlovision
StoneLayout
p429
(dp430
g26
F0.4791666666666667
sg27
(lp431
(icurlovision
Stone
p432
(dp433
g31
F-5.870192307692308
sg32
F-1.5576923076923077
sg33
F0.4326923076923077
sg34
S'yellow'
p434
sba(icurlovision
Stone
p435
(dp436
g31
F-0.15865384615384617
sg32
F6.461538461538462
sg33
F0.3317307692307693
sg34
S'yellow'
p437
sba(icurlovision
Stone
p438
(dp439
g31
F7.2548076923076925
sg32
F-0.9807692307692308
sg33
F0.4326923076923077
sg34
S'yellow'
p440
sba(icurlovision
Stone
p441
(dp442
g31
F-1.2259615384615385
sg32
F0.20192307692307693
sg33
F0.3028846153846154
sg34
S'yellow'
p443
sba(icurlovision
Stone
p444
(dp445
g31
F3.822115384615385
sg32
F-1.3557692307692308
sg33
F0.3317307692307693
sg34
S'red'
p446
sbasba(icurlovision
StoneLayout
p447
(dp448
g26
F0.4791666666666667
sg27
(lp449
(icurlovision
Stone
p450
(dp451
g31
F-5.897058823529411
sg32
F-1.5441176470588236
sg33
F0.3382352941176471
sg34
S'yellow'
p452
sba(icurlovision
Stone
p453
(dp454
g31
F-0.16176470588235295
sg32
F6.397058823529411
sg33
F0.4411764705882353
sg34
S'yellow'
p455
sba(icurlovision
Stone
p456
(dp457
g31
F3.8088235294117645
sg32
F-1.3676470588235294
sg33
F0.3382352941176471
sg34
S'red'
p458
sba(icurlovision
Stone
p459
(dp460
g31
F7.220588235294118
sg32
F-1.0147058823529411
sg33
F0.4411764705882353
sg34
S'yellow'
p461
sba(icurlovision
Stone
p462
(dp463
g31
F-1.0441176470588236
sg32
F-1.25
sg33
F0.45588235294117646
sg34
S'red'
p464
sbasba(icurlovision
StoneLayout
p465
(dp466
g26
F0.4791666666666667
sg27
(lp467
(icurlovision
Stone
p468
(dp469
g31
F-0.20833333333333331
sg32
F6.680555555555555
sg33
F0.3333333333333333
sg34
S'yellow'
p470
sba(icurlovision
Stone
p471
(dp472
g31
F3.9305555555555554
sg32
F-1.347222222222222
sg33
F0.4583333333333333
sg34
S'red'
p473
sba(icurlovision
Stone
p474
(dp475
g31
F-1.1805555555555556
sg32
F-1.4027777777777777
sg33
F0.4722222222222222
sg34
S'red'
p476
sba(icurlovision
Stone
p477
(dp478
g31
F7.513888888888888
sg32
F-0.9583333333333333
sg33
F0.3055555555555555
sg34
S'yellow'
p479
sba(icurlovision
Stone
p480
(dp481
g31
F-0.9305555555555555
sg32
F-0.2361111111111111
sg33
F0.4444444444444444
sg34
S'yellow'
p482
sba(icurlovision
Stone
p483
(dp484
g31
F-6.041666666666666
sg32
F-1.597222222222222
sg33
F0.4722222222222222
sg34
S'yellow'
p485
sbasbasg99
I3
sg100
I1
sba(icurlovision
EndResult
p486
(dp487
g2
I2
sg9
(lp488
(I7
I8
tp489
a(I7
I7
tp490
a(I5
I6
tp491
a(I5
I5
tp492
a(I4
I5
tp493
a(I4
I4
tp494
a(I3
I4
tp495
a(I3
I3
tp496
a(I2
I3
tp497
a(I2
I2
tp498
a(I1
I2
tp499
a(I1
I1
tp500
a(I0
I1
tp501
asg21
I4
sg22
(lp502
(icurlovision
StoneLayout
p503
(dp504
g26
F0.4791666666666667
sg27
(lp505
(icurlovision
Stone
p506
(dp507
g31
F2.1232394366197185
sg32
F0.2852112676056338
sg33
F0.4225352112676056
sg34
S'red'
p508
sbasba(icurlovision
StoneLayout
p509
(dp510
g26
F0.4791666666666667
sg27
(lp511
(icurlovision
Stone
p512
(dp513
g31
F2.076923076923077
sg32
F0.34615384615384615
sg33
F0.3605769230769231
sg34
S'red'
p514
sba(icurlovision
Stone
p515
(dp516
g31
F5.394230769230769
sg32
F3.3173076923076925
sg33
F0.44711538461538464
sg34
S'yellow'
p517
sbasba(icurlovision
StoneLayout
p518
(dp519
g26
F0.4791666666666667
sg27
(lp520
(icurlovision
Stone
p521
(dp522
g31
F-1.141304347826087
sg32
F-6.815217391304348
sg33
F0.45652173913043476
sg34
S'red'
p523
sba(icurlovision
Stone
p524
(dp525
g31
F1.5652173913043477
sg32
F0.42391304347826086
sg33
F0.32608695652173914
sg34
S'red'
p526
sba(icurlovision
Stone
p527
(dp528
g31
F9.456521739130434
sg32
F2.4782608695652173
sg33
F0.27717391304347827
sg34
S'red'
p529
sbasba(icurlovision
StoneLayout
p530
(dp531
g26
F0.4791666666666667
sg27
(lp532
(icurlovision
Stone
p533
(dp534
g31
F-0.5217391304347826
sg32
F3.0
sg33
F0.45652173913043476
sg34
S'yellow'
p535
sba(icurlovision
Stone
p536
(dp537
g31
F-1.1739130434782608
sg32
F-6.913043478260869
sg33
F0.44021739130434784
sg34
S'red'
p538
sba(icurlovision
Stone
p539
(dp540
g31
F1.5652173913043477
sg32
F0.42391304347826086
sg33
F0.45652173913043476
sg34
S'red'
p541
sba(icurlovision
Stone
p542
(dp543
g31
F9.58695652173913
sg32
F2.543478260869565
sg33
F0.42391304347826086
sg34
S'red'
p544
sbasba(icurlovision
StoneLayout
p545
(dp546
g26
F0.4791666666666667
sg27
(lp547
(icurlovision
Stone
p548
(dp549
g31
F-1.180851063829787
sg32
F-6.8936170212765955
sg33
F0.4627659574468085
sg34
S'red'
p550
sba(icurlovision
Stone
p551
(dp552
g31
F-0.5425531914893617
sg32
F2.9999999999999996
sg33
F0.4627659574468085
sg34
S'yellow'
p553
sba(icurlovision
Stone
p554
(dp555
g31
F9.574468085106382
sg32
F2.5212765957446805
sg33
F0.44680851063829785
sg34
S'red'
p556
sba(icurlovision
Stone
p557
(dp558
g31
F1.5638297872340425
sg32
F0.44680851063829785
sg33
F0.33510638297872336
sg34
S'red'
p559
sbasba(icurlovision
StoneLayout
p560
(dp561
g26
F0.4791666666666667
sg27
(lp562
(icurlovision
Stone
p563
(dp564
g31
F-0.55
sg32
F3.033333333333333
sg33
F0.3333333333333333
sg34
S'yellow'
p565
sba(icurlovision
Stone
p566
(dp567
g31
F-1.15
sg32
F-6.933333333333334
sg33
F0.31666666666666665
sg34
S'red'
p568
sba(icurlovision
Stone
p569
(dp570
g31
F2.4166666666666665
sg32
F0.6333333333333333
sg33
F0.31666666666666665
sg34
S'yellow'
p571
sba(icurlovision
Stone
p572
(dp573
g31
F9.616666666666667
sg32
F2.533333333333333
sg33
F0.2833333333333333
sg34
S'red'
p574
sbasba(icurlovision
StoneLayout
p575
(dp576
g26
F0.4791666666666667
sg27
(lp577
(icurlovision
Stone
p578
(dp579
g31
F-0.5454545454545454
sg32
F2.9829545454545454
sg33
F0.4431818181818181
sg34
S'yellow'
p580
sba(icurlovision
Stone
p581
(dp582
g31
F-1.159090909090909
sg32
F-6.903409090909091
sg33
F0.4602272727272727
sg34
S'red'
p583
sba(icurlovision
Stone
p584
(dp585
g31
F9.545454545454545
sg32
F2.505681818181818
sg33
F0.4431818181818181
sg34
S'red'
p586
sba(icurlovision
Stone
p587
(dp588
g31
F0.7840909090909091
sg32
F4.653409090909091
sg33
F0.3409090909090909
sg34
S'red'
p589
sbasba(icurlovision
StoneLayout
p590
(dp591
g26
F0.4791666666666667
sg27
(lp592
(icurlovision
Stone
p593
(dp594
g31
F-0.6
sg32
F3.0666666666666664
sg33
F0.3333333333333333
sg34
S'yellow'
p595
sba(icurlovision
Stone
p596
(dp597
g31
F-2.033333333333333
sg32
F2.0666666666666664
sg33
F0.3333333333333333
sg34
S'yellow'
p598
sba(icurlovision
Stone
p599
(dp600
g31
F-1.2
sg32
F-6.966666666666667
sg33
F0.3
sg34
S'red'
p601
sba(icurlovision
Stone
p602
(dp603
g31
F9.633333333333333
sg32
F2.533333333333333
sg33
F0.43333333333333335
sg34
S'red'
p604
sba(icurlovision
Stone
p605
(dp606
g31
F0.7666666666666666
sg32
F4.7
sg33
F0.45
sg34
S'red'
p607
sba(icurlovision
Stone
p608
(dp609
g31
F-3.6333333333333333
sg32
F-1.1
sg33
F0.2833333333333333
sg34
S'red'
p610
sbasba(icurlovision
StoneLayout
p611
(dp612
g26
F0.4791666666666667
sg27
(lp613
(icurlovision
Stone
p614
(dp615
g31
F-2.0166666666666666
sg32
F2.05
sg33
F0.3333333333333333
sg34
S'yellow'
p616
sba(icurlovision
Stone
p617
(dp618
g31
F-1.1833333333333333
sg32
F-6.916666666666667
sg33
F0.45
sg34
S'red'
p619
sba(icurlovision
Stone
p620
(dp621
g31
F-0.6166666666666667
sg32
F3.0833333333333335
sg33
F0.3333333333333333
sg34
S'yellow'
p622
sba(icurlovision
Stone
p623
(dp624
g31
F9.55
sg32
F2.4833333333333334
sg33
F0.43333333333333335
sg34
S'red'
p625
sba(icurlovision
Stone
p626
(dp627
g31
F0.05
sg32
F2.35
sg33
F0.26666666666666666
sg34
S'red'
p628
sba(icurlovision
Stone
p629
(dp630
g31
F0.7833333333333333
sg32
F4.583333333333333
sg33
F0.4166666666666667
sg34
S'red'
p631
sbasba(icurlovision
StoneLayout
p632
(dp633
g26
F0.4791666666666667
sg27
(lp634
(icurlovision
Stone
p635
(dp636
g31
F-1.9946808510638296
sg32
F2.0106382978723403
sg33
F0.33510638297872336
sg34
S'yellow'
p637
sba(icurlovision
Stone
p638
(dp639
g31
F-1.1329787234042552
sg32
F-6.989361702127659
sg33
F0.44680851063829785
sg34
S'red'
p640
sba(icurlovision
Stone
p641
(dp642
g31
F9.590425531914892
sg32
F2.585106382978723
sg33
F0.4627659574468085
sg34
S'red'
p643
sba(icurlovision
Stone
p644
(dp645
g31
F-0.6542553191489361
sg32
F3.031914893617021
sg33
F0.4627659574468085
sg34
S'yellow'
p646
sba(icurlovision
Stone
p647
(dp648
g31
F1.5159574468085104
sg32
F4.180851063829787
sg33
F0.44680851063829785
sg34
S'yellow'
p649
sba(icurlovision
Stone
p650
(dp651
g31
F0.015957446808510637
sg32
F2.361702127659574
sg33
F0.3191489361702127
sg34
S'red'
p652
sbasba(icurlovision
StoneLayout
p653
(dp654
g26
F0.4791666666666667
sg27
(lp655
(icurlovision
Stone
p656
(dp657
g31
F-1.434782608695652
sg32
F2.7717391304347827
sg33
F0.47282608695652173
sg34
S'yellow'
p658
sba(icurlovision
Stone
p659
(dp660
g31
F0.13043478260869565
sg32
F3.684782608695652
sg33
F0.34239130434782605
sg34
S'yellow'
p661
sba(icurlovision
Stone
p662
(dp663
g31
F9.978260869565217
sg32
F2.6739130434782608
sg33
F0.30978260869565216
sg34
S'red'
p664
sba(icurlovision
Stone
p665
(dp666
g31
F-0.0
sg32
F2.4456521739130435
sg33
F0.358695652173913
sg34
S'red'
p667
sba(icurlovision
Stone
p668
(dp669
g31
F-5.9021739130434785
sg32
F-1.141304347826087
sg33
F0.34239130434782605
sg34
S'yellow'
p670
sbasba(icurlovision
StoneLayout
p671
(dp672
g26
F0.4791666666666667
sg27
(lp673
(icurlovision
Stone
p674
(dp675
g31
F-2.3
sg32
F3.0
sg33
F0.3333333333333333
sg34
S'yellow'
p676
sba(icurlovision
Stone
p677
(dp678
g31
F0.1
sg32
F3.533333333333333
sg33
F0.3333333333333333
sg34
S'yellow'
p679
sba(icurlovision
Stone
p680
(dp681
g31
F0.9
sg32
F2.4
sg33
F0.31666666666666665
sg34
S'yellow'
p682
sba(icurlovision
Stone
p683
(dp684
g31
F-1.1
sg32
F-6.966666666666667
sg33
F0.45
sg34
S'red'
p685
sba(icurlovision
Stone
p686
(dp687
g31
F-5.666666666666667
sg32
F-1.1333333333333333
sg33
F0.3333333333333333
sg34
S'yellow'
p688
sba(icurlovision
Stone
p689
(dp690
g31
F9.566666666666666
sg32
F2.6
sg33
F0.48333333333333334
sg34
S'red'
p691
sba(icurlovision
Stone
p692
(dp693
g31
F-0.5666666666666667
sg32
F2.3
sg33
F0.45
sg34
S'red'
p694
sbasba(icurlovision
StoneLayout
p695
(dp696
g26
F0.4791666666666667
sg27
(lp697
(icurlovision
Stone
p698
(dp699
g31
F0.9130434782608695
sg32
F2.3641304347826084
sg33
F0.44021739130434784
sg34
S'yellow'
p700
sba(icurlovision
Stone
p701
(dp702
g31
F0.13043478260869565
sg32
F3.4728260869565215
sg33
F0.32608695652173914
sg34
S'yellow'
p703
sba(icurlovision
Stone
p704
(dp705
g31
F-1.1739130434782608
sg32
F-6.929347826086956
sg33
F0.44021739130434784
sg34
S'red'
p706
sba(icurlovision
Stone
p707
(dp708
g31
F-2.25
sg32
F2.983695652173913
sg33
F0.32608695652173914
sg34
S'yellow'
p709
sba(icurlovision
Stone
p710
(dp711
g31
F-0.5217391304347826
sg32
F2.233695652173913
sg33
F0.45652173913043476
sg34
S'red'
p712
sba(icurlovision
Stone
p713
(dp714
g31
F8.445652173913043
sg32
F2.7228260869565215
sg33
F0.45652173913043476
sg34
S'red'
p715
sba(icurlovision
Stone
p716
(dp717
g31
F10.17391304347826
sg32
F1.9728260869565217
sg33
F0.44021739130434784
sg34
S'red'
p718
sbasbasg99
I4
sg100
I0
sba(icurlovision
EndResult
p719
(dp720
g2
I6
sg9
(lp721
(I7
I7
tp722
a(I6
I7
tp723
a(I6
I6
tp724
a(I5
I6
tp725
a(I5
I5
tp726
a(I4
I5
tp727
a(I4
I4
tp728
a(I3
I4
tp729
a(I3
I3
tp730
a(I2
I3
tp731
a(I2
I2
tp732
a(I1
I2
tp733
a(I1
I1
tp734
a(I0
I1
tp735
asg21
I5
sg22
(lp736
(icurlovision
StoneLayout
p737
(dp738
g26
F0.4791666666666667
sg27
(lp739
(icurlovision
Stone
p740
(dp741
g31
F7.547872340425531
sg32
F-1.1968085106382977
sg33
F0.44680851063829785
sg34
S'red'
p742
sba(icurlovision
Stone
p743
(dp744
g31
F-2.0904255319148937
sg32
F-2.4095744680851063
sg33
F0.3829787234042553
sg34
S'red'
p745
sbasba(icurlovision
StoneLayout
p746
(dp747
g26
F0.4791666666666667
sg27
(lp748
(icurlovision
Stone
p749
(dp750
g31
F8.186170212765957
sg32
F2.234042553191489
sg33
F0.3031914893617021
sg34
S'yellow'
p751
sba(icurlovision
Stone
p752
(dp753
g31
F-3.6542553191489358
sg32
F-1.8191489361702127
sg33
F0.351063829787234
sg34
S'red'
p754
sba(icurlovision
Stone
p755
(dp756
g31
F7.675531914893616
sg32
F-1.2446808510638296
sg33
F0.33510638297872336
sg34
S'red'
p757
sbasba(icurlovision
StoneLayout
p758
(dp759
g26
F0.4791666666666667
sg27
(lp760
(icurlovision
Stone
p761
(dp762
g31
F7.397058823529411
sg32
F-1.1911764705882353
sg33
F0.4411764705882353
sg34
S'red'
p763
sba(icurlovision
Stone
p764
(dp765
g31
F0.39705882352941174
sg32
F2.2794117647058822
sg33
F0.47058823529411764
sg34
S'yellow'
p766
sba(icurlovision
Stone
p767
(dp768
g31
F7.926470588235294
sg32
F2.1323529411764706
sg33
F0.29411764705882354
sg34
S'yellow'
p769
sba(icurlovision
Stone
p770
(dp771
g31
F-3.4558823529411766
sg32
F-1.75
sg33
F0.45588235294117646
sg34
S'red'
p772
sba(icurlovision
Stone
p773
(dp774
g31
F9.25
sg32
F5.602941176470588
sg33
F0.45588235294117646
sg34
S'red'
p775
sbasba(icurlovision
StoneLayout
p776
(dp777
g26
F0.4791666666666667
sg27
(lp778
(icurlovision
Stone
p779
(dp780
g31
F0.3605769230769231
sg32
F2.3221153846153846
sg33
F0.3317307692307693
sg34
S'yellow'
p781
sba(icurlovision
Stone
p782
(dp783
g31
F-3.5336538461538463
sg32
F-1.7740384615384617
sg33
F0.34615384615384615
sg34
S'red'
p784
sba(icurlovision
Stone
p785
(dp786
g31
F7.600961538461539
sg32
F-0.3317307692307693
sg33
F0.3317307692307693
sg34
S'red'
p787
sba(icurlovision
Stone
p788
(dp789
g31
F7.341346153846154
sg32
F-1.2259615384615385
sg33
F0.3317307692307693
sg34
S'red'
p790
sbasba(icurlovision
StoneLayout
p791
(dp792
g26
F0.4791666666666667
sg27
(lp793
(icurlovision
Stone
p794
(dp795
g31
F-3.0340909090909087
sg32
F-0.9204545454545454
sg33
F0.47727272727272724
sg34
S'yellow'
p796
sba(icurlovision
Stone
p797
(dp798
g31
F7.499999999999999
sg32
F-0.2727272727272727
sg33
F0.4431818181818181
sg34
S'red'
p799
sba(icurlovision
Stone
p800
(dp801
g31
F7.261363636363636
sg32
F-1.1931818181818181
sg33
F0.4431818181818181
sg34
S'red'
p802
sba(icurlovision
Stone
p803
(dp804
g31
F0.375
sg32
F2.2840909090909087
sg33
F0.4602272727272727
sg34
S'yellow'
p805
sba(icurlovision
Stone
p806
(dp807
g31
F-3.443181818181818
sg32
F-1.7045454545454544
sg33
F0.4431818181818181
sg34
S'red'
p808
sba(icurlovision
Stone
p809
(dp810
g31
F-4.9431818181818175
sg32
F0.8863636363636362
sg33
F0.3579545454545454
sg34
S'red'
p811
sbasba(icurlovision
StoneLayout
p812
(dp813
g26
F0.4791666666666667
sg27
(lp814
(icurlovision
Stone
p815
(dp816
g31
F-3.140625
sg32
F-0.953125
sg33
F0.46875
sg34
S'yellow'
p817
sba(icurlovision
Stone
p818
(dp819
g31
F7.796875
sg32
F-0.359375
sg33
F0.28125
sg34
S'red'
p820
sba(icurlovision
Stone
p821
(dp822
g31
F-3.578125
sg32
F-1.796875
sg33
F0.359375
sg34
S'red'
p823
sba(icurlovision
Stone
p824
(dp825
g31
F7.515625
sg32
F-1.234375
sg33
F0.46875
sg34
S'red'
p826
sba(icurlovision
Stone
p827
(dp828
g31
F0.296875
sg32
F0.421875
sg33
F0.28125
sg34
S'red'
p829
sba(icurlovision
Stone
p830
(dp831
g31
F8.203125
sg32
F-4.703125
sg33
F0.28125
sg34
S'yellow'
p832
sbasba(icurlovision
StoneLayout
p833
(dp834
g26
F0.4791666666666667
sg27
(lp835
(icurlovision
Stone
p836
(dp837
g31
F7.484375
sg32
F-1.5
sg33
F0.46875
sg34
S'red'
p838
sba(icurlovision
Stone
p839
(dp840
g31
F-3.140625
sg32
F-0.875
sg33
F0.46875
sg34
S'yellow'
p841
sba(icurlovision
Stone
p842
(dp843
g31
F7.640625
sg32
F-0.28125
sg33
F0.328125
sg34
S'red'
p844
sba(icurlovision
Stone
p845
(dp846
g31
F-3.609375
sg32
F-1.75
sg33
F0.34375
sg34
S'red'
p847
sba(icurlovision
Stone
p848
(dp849
g31
F0.265625
sg32
F0.46875
sg33
F0.34375
sg34
S'red'
p850
sba(icurlovision
Stone
p851
(dp852
g31
F-6.234375
sg32
F3.71875
sg33
F0.3125
sg34
S'yellow'
p853
sbasba(icurlovision
StoneLayout
p854
(dp855
g26
F0.4791666666666667
sg27
(lp856
(icurlovision
Stone
p857
(dp858
g31
F1.1785714285714286
sg32
F0.44387755102040816
sg33
F0.30612244897959184
sg34
S'red'
p859
sba(icurlovision
Stone
p860
(dp861
g31
F0.10714285714285714
sg32
F0.44387755102040816
sg33
F0.3520408163265306
sg34
S'red'
p862
sba(icurlovision
Stone
p863
(dp864
g31
F7.576530612244897
sg32
F-0.3214285714285714
sg33
F0.45918367346938777
sg34
S'red'
p865
sba(icurlovision
Stone
p866
(dp867
g31
F7.454081632653061
sg32
F-1.5153061224489797
sg33
F0.336734693877551
sg34
S'red'
p868
sba(icurlovision
Stone
p869
(dp870
g31
F-3.076530612244898
sg32
F-0.9030612244897959
sg33
F0.4744897959183673
sg34
S'yellow'
p871
sba(icurlovision
Stone
p872
(dp873
g31
F-3.5357142857142856
sg32
F-1.760204081632653
sg33
F0.3520408163265306
sg34
S'red'
p874
sbasba(icurlovision
StoneLayout
p875
(dp876
g26
F0.4791666666666667
sg27
(lp877
(icurlovision
Stone
p878
(dp879
g31
F-3.1799999999999997
sg32
F-0.8999999999999999
sg33
F0.48
sg34
S'yellow'
p880
sba(icurlovision
Stone
p881
(dp882
g31
F7.56
sg32
F-1.65
sg33
F0.48
sg34
S'red'
p883
sba(icurlovision
Stone
p884
(dp885
g31
F7.05
sg32
F-0.72
sg33
F0.48
sg34
S'red'
p886
sba(icurlovision
Stone
p887
(dp888
g31
F-6.45
sg32
F3.54
sg33
F0.32999999999999996
sg34
S'yellow'
p889
sba(icurlovision
Stone
p890
(dp891
g31
F0.24
sg32
F0.42
sg33
F0.345
sg34
S'red'
p892
sba(icurlovision
Stone
p893
(dp894
g31
F-3.63
sg32
F-1.7999999999999998
sg33
F0.32999999999999996
sg34
S'red'
p895
sbasba(icurlovision
StoneLayout
p896
(dp897
g26
F0.4791666666666667
sg27
(lp898
(icurlovision
Stone
p899
(dp900
g31
F-3.1323529411764706
sg32
F-0.8970588235294118
sg33
F0.3382352941176471
sg34
S'yellow'
p901
sba(icurlovision
Stone
p902
(dp903
g31
F-3.5735294117647056
sg32
F-1.7794117647058822
sg33
F0.3529411764705882
sg34
S'red'
p904
sba(icurlovision
Stone
p905
(dp906
g31
F0.27941176470588236
sg32
F0.4264705882352941
sg33
F0.3382352941176471
sg34
S'red'
p907
sba(icurlovision
Stone
p908
(dp909
g31
F7.602941176470588
sg32
F-1.6323529411764706
sg33
F0.3382352941176471
sg34
S'red'
p910
sba(icurlovision
Stone
p911
(dp912
g31
F6.985294117647059
sg32
F-0.8088235294117647
sg33
F0.45588235294117646
sg34
S'red'
p913
sba(icurlovision
Stone
p914
(dp915
g31
F-6.397058823529411
sg32
F3.485294117647059
sg33
F0.4852941176470588
sg34
S'yellow'
p916
sba(icurlovision
Stone
p917
(dp918
g31
F5.102941176470588
sg32
F0.8676470588235294
sg33
F0.3235294117647059
sg34
S'red'
p919
sba(icurlovision
Stone
p920
(dp921
g31
F-3.7205882352941178
sg32
F1.3676470588235294
sg33
F0.3382352941176471
sg34
S'red'
p922
sbasba(icurlovision
StoneLayout
p923
(dp924
g26
F0.4791666666666667
sg27
(lp925
(icurlovision
Stone
p926
(dp927
g31
F-3.1132075471698113
sg32
F-0.9056603773584906
sg33
F0.4669811320754717
sg34
S'yellow'
p928
sba(icurlovision
Stone
p929
(dp930
g31
F6.849056603773585
sg32
F-0.8207547169811321
sg33
F0.4669811320754717
sg34
S'red'
p931
sba(icurlovision
Stone
p932
(dp933
g31
F2.009433962264151
sg32
F-4.330188679245283
sg33
F0.4669811320754717
sg34
S'yellow'
p934
sba(icurlovision
Stone
p935
(dp936
g31
F7.471698113207547
sg32
F-1.6132075471698113
sg33
F0.4386792452830189
sg34
S'red'
p937
sba(icurlovision
Stone
p938
(dp939
g31
F-3.5377358490566038
sg32
F-1.7547169811320755
sg33
F0.339622641509434
sg34
S'red'
p940
sba(icurlovision
Stone
p941
(dp942
g31
F0.25471698113207547
sg32
F0.39622641509433965
sg33
F0.339622641509434
sg34
S'red'
p943
sba(icurlovision
Stone
p944
(dp945
g31
F-6.367924528301887
sg32
F3.452830188679245
sg33
F0.3113207547169811
sg34
S'yellow'
p946
sba(icurlovision
Stone
p947
(dp948
g31
F-4.0754716981132075
sg32
F4.6415094339622645
sg33
F0.2971698113207547
sg34
S'red'
p949
sbasba(icurlovision
StoneLayout
p950
(dp951
g26
F0.4791666666666667
sg27
(lp952
(icurlovision
Stone
p953
(dp954
g31
F6.838235294117647
sg32
F-0.7058823529411764
sg33
F0.45588235294117646
sg34
S'red'
p955
sba(icurlovision
Stone
p956
(dp957
g31
F-1.6617647058823528
sg32
F0.08823529411764705
sg33
F0.3382352941176471
sg34
S'red'
p958
sba(icurlovision
Stone
p959
(dp960
g31
F-3.1029411764705883
sg32
F-0.9705882352941176
sg33
F0.47058823529411764
sg34
S'yellow'
p961
sba(icurlovision
Stone
p962
(dp963
g31
F7.485294117647059
sg32
F-1.4411764705882353
sg33
F0.29411764705882354
sg34
S'red'
p964
sba(icurlovision
Stone
p965
(dp966
g31
F1.1323529411764706
sg32
F0.6176470588235294
sg33
F0.3529411764705882
sg34
S'red'
p967
sba(icurlovision
Stone
p968
(dp969
g31
F-3.5441176470588234
sg32
F-1.7941176470588236
sg33
F0.3088235294117647
sg34
S'red'
p970
sba(icurlovision
Stone
p971
(dp972
g31
F2.073529411764706
sg32
F-4.264705882352941
sg33
F0.45588235294117646
sg34
S'yellow'
p973
sba(icurlovision
Stone
p974
(dp975
g31
F-6.397058823529411
sg32
F3.3529411764705883
sg33
F0.47058823529411764
sg34
S'yellow'
p976
sbasba(icurlovision
StoneLayout
p977
(dp978
g26
F0.4791666666666667
sg27
(lp979
(icurlovision
Stone
p980
(dp981
g31
F-1.65
sg32
F1.65
sg33
F0.32999999999999996
sg34
S'red'
p982
sba(icurlovision
Stone
p983
(dp984
g31
F1.3199999999999998
sg32
F1.89
sg33
F0.44999999999999996
sg34
S'yellow'
p985
sba(icurlovision
Stone
p986
(dp987
g31
F6.75
sg32
F-0.8099999999999999
sg33
F0.44999999999999996
sg34
S'red'
p988
sba(icurlovision
Stone
p989
(dp990
g31
F-6.27
sg32
F3.3899999999999997
sg33
F0.32999999999999996
sg34
S'yellow'
p991
sba(icurlovision
Stone
p992
(dp993
g31
F7.35
sg32
F-1.5899999999999999
sg33
F0.435
sg34
S'red'
p994
sba(icurlovision
Stone
p995
(dp996
g31
F-5.37
sg32
F-0.6
sg33
F0.345
sg34
S'yellow'
p997
sba(icurlovision
Stone
p998
(dp999
g31
F2.01
sg32
F-4.26
sg33
F0.44999999999999996
sg34
S'yellow'
p1000
sbasba(icurlovision
StoneLayout
p1001
(dp1002
g26
F0.4791666666666667
sg27
(lp1003
(icurlovision
Stone
p1004
(dp1005
g31
F6.533653846153847
sg32
F-1.0817307692307694
sg33
F0.3317307692307693
sg34
S'red'
p1006
sba(icurlovision
Stone
p1007
(dp1008
g31
F1.2836538461538463
sg32
F1.9182692307692308
sg33
F0.44711538461538464
sg34
S'yellow'
p1009
sba(icurlovision
Stone
p1010
(dp1011
g31
F-5.408653846153847
sg32
F-0.5625
sg33
F0.3317307692307693
sg34
S'yellow'
p1012
sba(icurlovision
Stone
p1013
(dp1014
g31
F-1.6875
sg32
F1.716346153846154
sg33
F0.34615384615384615
sg34
S'red'
p1015
sba(icurlovision
Stone
p1016
(dp1017
g31
F7.341346153846154
sg32
F-1.6298076923076923
sg33
F0.3317307692307693
sg34
S'red'
p1018
sba(icurlovision
Stone
p1019
(dp1020
g31
F1.4855769230769231
sg32
F0.8509615384615385
sg33
F0.3317307692307693
sg34
S'red'
p1021
sba(icurlovision
Stone
p1022
(dp1023
g31
F1.9759615384615385
sg32
F-4.283653846153847
sg33
F0.31730769230769235
sg34
S'yellow'
p1024
sba(icurlovision
Stone
p1025
(dp1026
g31
F-6.245192307692308
sg32
F3.447115384615385
sg33
F0.46153846153846156
sg34
S'yellow'
p1027
sbasbasg99
I4
sg100
I0
sba(icurlovision
EndResult
p1028
(dp1029
g2
I6
sg9
(lp1030
(I8
I7
tp1031
a(I7
I6
tp1032
a(I6
I6
tp1033
a(I5
I5
tp1034
a(I5
I4
tp1035
a(I4
I3
tp1036
a(I3
I3
tp1037
a(I3
I2
tp1038
a(I2
I2
tp1039
a(I2
I1
tp1040
a(I1
I1
tp1041
a(I1
I0
tp1042
asg21
I6
sg22
(lp1043
(icurlovision
StoneLayout
p1044
(dp1045
g26
F0.4791666666666667
sg27
(lp1046
(icurlovision
Stone
p1047
(dp1048
g31
F4.254545454545454
sg32
F-0.05454545454545454
sg33
F0.32727272727272727
sg34
S'yellow'
p1049
sbasba(icurlovision
StoneLayout
p1050
(dp1051
g26
F0.4791666666666667
sg27
(lp1052
(icurlovision
Stone
p1053
(dp1054
g31
F4.15
sg32
F-0.06666666666666667
sg33
F0.35
sg34
S'yellow'
p1055
sba(icurlovision
Stone
p1056
(dp1057
g31
F10.183333333333334
sg32
F3.1
sg33
F0.26666666666666666
sg34
S'red'
p1058
sba(icurlovision
Stone
p1059
(dp1060
g31
F5.716666666666667
sg32
F4.766666666666667
sg33
F0.3333333333333333
sg34
S'red'
p1061
sba(icurlovision
Stone
p1062
(dp1063
g31
F-4.683333333333334
sg32
F-2.1
sg33
F0.3
sg34
S'red'
p1064
sbasba(icurlovision
StoneLayout
p1065
(dp1066
g26
F0.4791666666666667
sg27
(lp1067
(icurlovision
Stone
p1068
(dp1069
g31
F4.636363636363636
sg32
F0.8863636363636362
sg33
F0.2727272727272727
sg34
S'red'
p1070
sba(icurlovision
Stone
p1071
(dp1072
g31
F1.0909090909090908
sg32
F-0.9886363636363635
sg33
F0.4602272727272727
sg34
S'yellow'
p1073
sba(icurlovision
Stone
p1074
(dp1075
g31
F10.056818181818182
sg32
F3.0340909090909087
sg33
F0.2727272727272727
sg34
S'red'
p1076
sba(icurlovision
Stone
p1077
(dp1078
g31
F-4.227272727272727
sg32
F0.3409090909090909
sg33
F0.4602272727272727
sg34
S'yellow'
p1079
sba(icurlovision
Stone
p1080
(dp1081
g31
F4.840909090909091
sg32
F3.1363636363636362
sg33
F0.375
sg34
S'red'
p1082
sbasba(icurlovision
StoneLayout
p1083
(dp1084
g26
F0.4791666666666667
sg27
(lp1085
(icurlovision
Stone
p1086
(dp1087
g31
F0.75
sg32
F-0.7166666666666667
sg33
F0.31666666666666665
sg34
S'yellow'
p1088
sba(icurlovision
Stone
p1089
(dp1090
g31
F9.25
sg32
F3.0166666666666666
sg33
F0.43333333333333335
sg34
S'red'
p1091
sba(icurlovision
Stone
p1092
(dp1093
g31
F5.483333333333333
sg32
F1.7166666666666666
sg33
F0.4
sg34
S'red'
p1094
sbasba(icurlovision
StoneLayout
p1095
(dp1096
g26
F0.4791666666666667
sg27
(lp1097
(icurlovision
Stone
p1098
(dp1099
g31
F9.91304347826087
sg32
F3.032608695652174
sg33
F0.30978260869565216
sg34
S'red'
p1100
sbasba(icurlovision
StoneLayout
p1101
(dp1102
g26
F0.4791666666666667
sg27
(lp1103
(icurlovision
Stone
p1104
(dp1105
g31
F-1.2333333333333334
sg32
F2.3
sg33
F0.3333333333333333
sg34
S'yellow'
p1106
sba(icurlovision
Stone
p1107
(dp1108
g31
F1.1
sg32
F-0.9
sg33
F0.31666666666666665
sg34
S'yellow'
p1109
sba(icurlovision
Stone
p1110
(dp1111
g31
F10.1
sg32
F3.0666666666666664
sg33
F0.45
sg34
S'red'
p1112
sba(icurlovision
Stone
p1113
(dp1114
g31
F-1.6666666666666667
sg32
F4.2
sg33
F0.2833333333333333
sg34
S'red'
p1115
sba(icurlovision
Stone
p1116
(dp1117
g31
F-6.333333333333333
sg32
F0.16666666666666666
sg33
F0.4
sg34
S'red'
p1118
sbasba(icurlovision
StoneLayout
p1119
(dp1120
g26
F0.4791666666666667
sg27
(lp1121
(icurlovision
Stone
p1122
(dp1123
g31
F-1.2333333333333334
sg32
F2.2333333333333334
sg33
F0.45
sg34
S'yellow'
p1124
sba(icurlovision
Stone
p1125
(dp1126
g31
F-1.2
sg32
F3.8
sg33
F0.3333333333333333
sg34
S'red'
p1127
sba(icurlovision
Stone
p1128
(dp1129
g31
F9.733333333333333
sg32
F2.966666666666667
sg33
F0.2833333333333333
sg34
S'red'
p1130
sba(icurlovision
Stone
p1131
(dp1132
g31
F-2.966666666666667
sg32
F5.166666666666667
sg33
F0.45
sg34
S'red'
p1133
sba(icurlovision
Stone
p1134
(dp1135
g31
F7.033333333333333
sg32
F1.0666666666666667
sg33
F0.5166666666666666
sg34
S'red'
p1136
sbasba(icurlovision
StoneLayout
p1137
(dp1138
g26
F0.4791666666666667
sg27
(lp1139
(icurlovision
Stone
p1140
(dp1141
g31
F-1.2065217391304348
sg32
F2.217391304347826
sg33
F0.34239130434782605
sg34
S'yellow'
p1142
sba(icurlovision
Stone
p1143
(dp1144
g31
F8.934782608695652
sg32
F3.5217391304347827
sg33
F0.45652173913043476
sg34
S'red'
p1145
sba(icurlovision
Stone
p1146
(dp1147
g31
F-1.1739130434782608
sg32
F3.782608695652174
sg33
F0.45652173913043476
sg34
S'red'
p1148
sba(icurlovision
Stone
p1149
(dp1150
g31
F10.076086956521738
sg32
F1.9565217391304348
sg33
F0.27717391304347827
sg34
S'yellow'
p1151
sba(icurlovision
Stone
p1152
(dp1153
g31
F-2.934782608695652
sg32
F5.184782608695652
sg33
F0.45652173913043476
sg34
S'red'
p1154
sbasba(icurlovision
StoneLayout
p1155
(dp1156
g26
F0.4791666666666667
sg27
(lp1157
(icurlovision
Stone
p1158
(dp1159
g31
F-1.483695652173913
sg32
F2.233695652173913
sg33
F0.45652173913043476
sg34
S'yellow'
p1160
sba(icurlovision
Stone
p1161
(dp1162
g31
F-1.1576086956521738
sg32
F3.7989130434782608
sg33
F0.32608695652173914
sg34
S'red'
p1163
sba(icurlovision
Stone
p1164
(dp1165
g31
F10.092391304347826
sg32
F1.9402173913043477
sg33
F0.44021739130434784
sg34
S'yellow'
p1166
sba(icurlovision
Stone
p1167
(dp1168
g31
F-0.30978260869565216
sg32
F2.135869565217391
sg33
F0.34239130434782605
sg34
S'red'
p1169
sba(icurlovision
Stone
p1170
(dp1171
g31
F-2.918478260869565
sg32
F5.201086956521739
sg33
F0.47282608695652173
sg34
S'red'
p1172
sba(icurlovision
Stone
p1173
(dp1174
g31
F8.918478260869565
sg32
F3.5054347826086953
sg33
F0.44021739130434784
sg34
S'red'
p1175
sbasba(icurlovision
StoneLayout
p1176
(dp1177
g26
F0.4791666666666667
sg27
(lp1178
(icurlovision
Stone
p1179
(dp1180
g31
F-1.5714285714285714
sg32
F2.357142857142857
sg33
F0.33928571428571425
sg34
S'yellow'
p1181
sba(icurlovision
Stone
p1182
(dp1183
g31
F10.464285714285714
sg32
F2.0357142857142856
sg33
F0.2857142857142857
sg34
S'yellow'
p1184
sba(icurlovision
Stone
p1185
(dp1186
g31
F7.178571428571428
sg32
F1.8214285714285714
sg33
F0.3214285714285714
sg34
S'yellow'
p1187
sba(icurlovision
Stone
p1188
(dp1189
g31
F-1.25
sg32
F3.964285714285714
sg33
F0.25
sg34
S'red'
p1190
sba(icurlovision
Stone
p1191
(dp1192
g31
F9.285714285714285
sg32
F3.6785714285714284
sg33
F0.46428571428571425
sg34
S'red'
p1193
sba(icurlovision
Stone
p1194
(dp1195
g31
F-0.3214285714285714
sg32
F2.214285714285714
sg33
F0.4821428571428571
sg34
S'red'
p1196
sba(icurlovision
Stone
p1197
(dp1198
g31
F-3.071428571428571
sg32
F5.428571428571428
sg33
F0.33928571428571425
sg34
S'red'
p1199
sba(icurlovision
Stone
p1200
(dp1201
g31
F-1.9285714285714284
sg32
F-1.6785714285714284
sg33
F0.5
sg34
S'red'
p1202
sbasba(icurlovision
StoneLayout
p1203
(dp1204
g26
F0.4791666666666667
sg27
(lp1205
(icurlovision
Stone
p1206
(dp1207
g31
F9.983333333333333
sg32
F1.9166666666666667
sg33
F0.4166666666666667
sg34
S'yellow'
p1208
sba(icurlovision
Stone
p1209
(dp1210
g31
F6.85
sg32
F1.7166666666666666
sg33
F0.3333333333333333
sg34
S'yellow'
p1211
sba(icurlovision
Stone
p1212
(dp1213
g31
F-1.15
sg32
F3.75
sg33
F0.3333333333333333
sg34
S'red'
p1214
sba(icurlovision
Stone
p1215
(dp1216
g31
F8.883333333333333
sg32
F3.4833333333333334
sg33
F0.3
sg34
S'red'
p1217
sba(icurlovision
Stone
p1218
(dp1219
g31
F-1.4833333333333334
sg32
F2.183333333333333
sg33
F0.45
sg34
S'yellow'
p1220
sba(icurlovision
Stone
p1221
(dp1222
g31
F-0.05
sg32
F0.9833333333333333
sg33
F0.3
sg34
S'red'
p1223
sba(icurlovision
Stone
p1224
(dp1225
g31
F-0.5833333333333334
sg32
F2.3833333333333333
sg33
F0.35
sg34
S'red'
p1226
sba(icurlovision
Stone
p1227
(dp1228
g31
F-2.9166666666666665
sg32
F5.15
sg33
F0.26666666666666666
sg34
S'red'
p1229
sbasba(icurlovision
StoneLayout
p1230
(dp1231
g26
F0.4791666666666667
sg27
(lp1232
(icurlovision
Stone
p1233
(dp1234
g31
F0.7159090909090908
sg32
F0.5454545454545454
sg33
F0.4602272727272727
sg34
S'yellow'
p1235
sba(icurlovision
Stone
p1236
(dp1237
g31
F-1.1931818181818181
sg32
F3.818181818181818
sg33
F0.4602272727272727
sg34
S'red'
p1238
sba(icurlovision
Stone
p1239
(dp1240
g31
F-1.7045454545454544
sg32
F2.5227272727272725
sg33
F0.4602272727272727
sg34
S'yellow'
p1241
sba(icurlovision
Stone
p1242
(dp1243
g31
F6.988636363636363
sg32
F1.7386363636363635
sg33
F0.30681818181818177
sg34
S'yellow'
p1244
sba(icurlovision
Stone
p1245
(dp1246
g31
F-0.5795454545454545
sg32
F2.4204545454545454
sg33
F0.4602272727272727
sg34
S'red'
p1247
sba(icurlovision
Stone
p1248
(dp1249
g31
F10.159090909090908
sg32
F1.9431818181818181
sg33
F0.4261363636363636
sg34
S'yellow'
p1250
sba(icurlovision
Stone
p1251
(dp1252
g31
F9.034090909090908
sg32
F3.545454545454545
sg33
F0.4261363636363636
sg34
S'red'
p1253
sba(icurlovision
Stone
p1254
(dp1255
g31
F-4.7727272727272725
sg32
F0.9204545454545454
sg33
F0.4602272727272727
sg34
S'red'
p1256
sba(icurlovision
Stone
p1257
(dp1258
g31
F-2.965909090909091
sg32
F5.25
sg33
F0.2727272727272727
sg34
S'red'
p1259
sbasbasg99
I6
sg100
I1
sba(icurlovision
EndResult
p1260
(dp1261
g2
I7
sg9
(lp1262
(I7
I7
tp1263
a(I6
I7
tp1264
a(I5
I6
tp1265
a(I5
I5
tp1266
a(I4
I5
tp1267
a(I4
I4
tp1268
a(I3
I4
tp1269
a(I2
I3
tp1270
a(I2
I2
tp1271
a(I1
I2
tp1272
a(I1
I1
tp1273
asg21
I7
sg22
(lp1274
(icurlovision
StoneLayout
p1275
(dp1276
g26
F0.4791666666666667
sg27
(lp1277
(icurlovision
Stone
p1278
(dp1279
g31
F-3.4705882352941178
sg32
F-3.3529411764705883
sg33
F0.3382352941176471
sg34
S'yellow'
p1280
sba(icurlovision
Stone
p1281
(dp1282
g31
F7.205882352941177
sg32
F-0.08823529411764705
sg33
F0.45588235294117646
sg34
S'red'
p1283
sbasba(icurlovision
StoneLayout
p1284
(dp1285
g26
F0.4791666666666667
sg27
(lp1286
(icurlovision
Stone
p1287
(dp1288
g31
F7.288043478260869
sg32
F-0.048913043478260865
sg33
F0.358695652173913
sg34
S'red'
p1289
sba(icurlovision
Stone
p1290
(dp1291
g31
F-6.048913043478261
sg32
F0.375
sg33
F0.30978260869565216
sg34
S'red'
p1292
sbasba(icurlovision
StoneLayout
p1293
(dp1294
g26
F0.4791666666666667
sg27
(lp1295
(icurlovision
Stone
p1296
(dp1297
g31
F7.273584905660377
sg32
F-0.11320754716981132
sg33
F0.32547169811320753
sg34
S'red'
p1298
sba(icurlovision
Stone
p1299
(dp1300
g31
F0.8773584905660378
sg32
F-0.02830188679245283
sg33
F0.339622641509434
sg34
S'red'
p1301
sba(icurlovision
Stone
p1302
(dp1303
g31
F-1.1037735849056605
sg32
F-0.5660377358490566
sg33
F0.32547169811320753
sg34
S'yellow'
p1304
sba(icurlovision
Stone
p1305
(dp1306
g31
F-6.056603773584905
sg32
F0.3679245283018868
sg33
F0.4528301886792453
sg34
S'red'
p1307
sba(icurlovision
Stone
p1308
(dp1309
g31
F-4.867924528301887
sg32
F-4.89622641509434
sg33
F0.3537735849056604
sg34
S'red'
p1310
sbasba(icurlovision
StoneLayout
p1311
(dp1312
g26
F0.4791666666666667
sg27
(lp1313
(icurlovision
Stone
p1314
(dp1315
g31
F0.8942307692307693
sg32
F-0.028846153846153848
sg33
F0.34615384615384615
sg34
S'red'
p1316
sba(icurlovision
Stone
p1317
(dp1318
g31
F-6.028846153846154
sg32
F0.2884615384615385
sg33
F0.34615384615384615
sg34
S'red'
p1319
sba(icurlovision
Stone
p1320
(dp1321
g31
F-1.0673076923076923
sg32
F-0.5480769230769231
sg33
F0.44711538461538464
sg34
S'yellow'
p1322
sba(icurlovision
Stone
p1323
(dp1324
g31
F-6.490384615384616
sg32
F6.057692307692308
sg33
F0.4759615384615385
sg34
S'red'
p1325
sbasba(icurlovision
StoneLayout
p1326
(dp1327
g26
F0.4791666666666667
sg27
(lp1328
(icurlovision
Stone
p1329
(dp1330
g31
F-6.135
sg32
F0.375
sg33
F0.345
sg34
S'red'
p1331
sba(icurlovision
Stone
p1332
(dp1333
g31
F8.235
sg32
F-0.255
sg33
F0.32999999999999996
sg34
S'red'
p1334
sba(icurlovision
Stone
p1335
(dp1336
g31
F0.9149999999999999
sg32
F-0.045
sg33
F0.32999999999999996
sg34
S'red'
p1337
sba(icurlovision
Stone
p1338
(dp1339
g31
F-1.095
sg32
F-0.585
sg33
F0.3
sg34
S'yellow'
p1340
sbasba(icurlovision
StoneLayout
p1341
(dp1342
g26
F0.4791666666666667
sg27
(lp1343
(icurlovision
Stone
p1344
(dp1345
g31
F-6.15625
sg32
F0.34375
sg33
F0.328125
sg34
S'red'
p1346
sba(icurlovision
Stone
p1347
(dp1348
g31
F0.90625
sg32
F-0.03125
sg33
F0.34375
sg34
S'red'
p1349
sba(icurlovision
Stone
p1350
(dp1351
g31
F-1.09375
sg32
F-0.53125
sg33
F0.46875
sg34
S'yellow'
p1352
sbasba(icurlovision
StoneLayout
p1353
(dp1354
g26
F0.4791666666666667
sg27
(lp1355
(icurlovision
Stone
p1356
(dp1357
g31
F-1.1341463414634145
sg32
F-0.548780487804878
sg33
F0.3475609756097561
sg34
S'yellow'
p1358
sba(icurlovision
Stone
p1359
(dp1360
g31
F-6.2195121951219505
sg32
F0.36585365853658536
sg33
F0.45731707317073167
sg34
S'red'
p1361
sba(icurlovision
Stone
p1362
(dp1363
g31
F0.9512195121951219
sg32
F0.0
sg33
F0.45731707317073167
sg34
S'red'
p1364
sba(icurlovision
Stone
p1365
(dp1366
g31
F9.329268292682926
sg32
F-0.2926829268292683
sg33
F0.3475609756097561
sg34
S'red'
p1367
sba(icurlovision
Stone
p1368
(dp1369
g31
F-5.597560975609756
sg32
F-4.7560975609756095
sg33
F0.3292682926829268
sg34
S'red'
p1370
sbasba(icurlovision
StoneLayout
p1371
(dp1372
g26
F0.4791666666666667
sg27
(lp1373
(icurlovision
Stone
p1374
(dp1375
g31
F-6.147058823529411
sg32
F0.4117647058823529
sg33
F0.3676470588235294
sg34
S'red'
p1376
sba(icurlovision
Stone
p1377
(dp1378
g31
F0.9117647058823529
sg32
F0.029411764705882353
sg33
F0.45588235294117646
sg34
S'red'
p1379
sba(icurlovision
Stone
p1380
(dp1381
g31
F-1.1176470588235294
sg32
F-0.5294117647058824
sg33
F0.3382352941176471
sg34
S'yellow'
p1382
sba(icurlovision
Stone
p1383
(dp1384
g31
F3.6470588235294117
sg32
F-0.6176470588235294
sg33
F0.47058823529411764
sg34
S'red'
p1385
sbasba(icurlovision
StoneLayout
p1386
(dp1387
g26
F0.4791666666666667
sg27
(lp1388
(icurlovision
Stone
p1389
(dp1390
g31
F-6.053571428571428
sg32
F0.3214285714285714
sg33
F0.33482142857142855
sg34
S'red'
p1391
sba(icurlovision
Stone
p1392
(dp1393
g31
F2.2232142857142856
sg32
F-4.875
sg33
F0.30803571428571425
sg34
S'yellow'
p1394
sba(icurlovision
Stone
p1395
(dp1396
g31
F1.8214285714285714
sg32
F-0.1607142857142857
sg33
F0.3482142857142857
sg34
S'red'
p1397
sba(icurlovision
Stone
p1398
(dp1399
g31
F-1.0714285714285714
sg32
F-0.5357142857142857
sg33
F0.4419642857142857
sg34
S'yellow'
p1400
sbasba(icurlovision
StoneLayout
p1401
(dp1402
g26
F0.4791666666666667
sg27
(lp1403
(icurlovision
Stone
p1404
(dp1405
g31
F-5.972222222222222
sg32
F0.3611111111111111
sg33
F0.3472222222222222
sg34
S'red'
p1406
sba(icurlovision
Stone
p1407
(dp1408
g31
F1.75
sg32
F-0.1388888888888889
sg33
F0.4444444444444444
sg34
S'red'
p1409
sba(icurlovision
Stone
p1410
(dp1411
g31
F-1.0833333333333333
sg32
F-0.5555555555555556
sg33
F0.3333333333333333
sg34
S'yellow'
p1412
sba(icurlovision
Stone
p1413
(dp1414
g31
F3.0
sg32
F-4.972222222222222
sg33
F0.3472222222222222
sg34
S'red'
p1415
sbasba(icurlovision
StoneLayout
p1416
(dp1417
g26
F0.4791666666666667
sg27
(lp1418
(icurlovision
Stone
p1419
(dp1420
g31
F-0.4957627118644068
sg32
F2.300847457627119
sg33
F0.4703389830508475
sg34
S'red'
p1421
sba(icurlovision
Stone
p1422
(dp1423
g31
F-1.0805084745762712
sg32
F-0.5720338983050848
sg33
F0.3305084745762712
sg34
S'yellow'
p1424
sba(icurlovision
Stone
p1425
(dp1426
g31
F3.0635593220338984
sg32
F-5.046610169491526
sg33
F0.48305084745762716
sg34
S'red'
p1427
sba(icurlovision
Stone
p1428
(dp1429
g31
F-6.038135593220339
sg32
F0.3432203389830509
sg33
F0.35593220338983056
sg34
S'red'
p1430
sbasbasg99
I6
sg100
I0
sba(icurlovision
EndResult
p1431
(dp1432
g2
I8
sg9
(lp1433
(I8
I7
tp1434
a(I7
I7
tp1435
a(I7
I6
tp1436
a(I6
I6
tp1437
a(I6
I5
tp1438
a(I5
I5
tp1439
a(I4
I4
tp1440
a(I4
I3
tp1441
a(I3
I3
tp1442
a(I3
I2
tp1443
a(I2
I2
tp1444
a(I2
I1
tp1445
a(I1
I1
tp1446
a(I1
I0
tp1447
asg21
I8
sg22
(lp1448
(icurlovision
StoneLayout
p1449
(dp1450
g26
F0.4791666666666667
sg27
(lp1451
(icurlovision
Stone
p1452
(dp1453
g31
F0.4838709677419355
sg32
F0.3024193548387097
sg33
F0.3387096774193548
sg34
S'yellow'
p1454
sbasba(icurlovision
StoneLayout
p1455
(dp1456
g26
F0.4791666666666667
sg27
(lp1457
(icurlovision
Stone
p1458
(dp1459
g31
F0.3
sg32
F0.23333333333333334
sg33
F0.3333333333333333
sg34
S'yellow'
p1460
sba(icurlovision
Stone
p1461
(dp1462
g31
F11.166666666666666
sg32
F2.7666666666666666
sg33
F0.3
sg34
S'red'
p1463
sba(icurlovision
Stone
p1464
(dp1465
g31
F6.733333333333333
sg32
F-3.1
sg33
F0.26666666666666666
sg34
S'red'
p1466
sbasba(icurlovision
StoneLayout
p1467
(dp1468
g26
F0.4791666666666667
sg27
(lp1469
(icurlovision
Stone
p1470
(dp1471
g31
F6.540697674418604
sg32
F0.7151162790697674
sg33
F0.3488372093023256
sg34
S'yellow'
p1472
sba(icurlovision
Stone
p1473
(dp1474
g31
F11.180232558139535
sg32
F3.191860465116279
sg33
F0.2965116279069767
sg34
S'red'
p1475
sba(icurlovision
Stone
p1476
(dp1477
g31
F0.3313953488372093
sg32
F0.2965116279069767
sg33
F0.45348837209302323
sg34
S'yellow'
p1478
sbasba(icurlovision
StoneLayout
p1479
(dp1480
g26
F0.4791666666666667
sg27
(lp1481
(icurlovision
Stone
p1482
(dp1483
g31
F4.016666666666667
sg32
F-2.283333333333333
sg33
F0.3
sg34
S'yellow'
p1484
sba(icurlovision
Stone
p1485
(dp1486
g31
F10.583333333333334
sg32
F2.95
sg33
F0.45
sg34
S'red'
p1487
sba(icurlovision
Stone
p1488
(dp1489
g31
F5.016666666666667
sg32
F2.283333333333333
sg33
F0.36666666666666664
sg34
S'red'
p1490
sbasba(icurlovision
StoneLayout
p1491
(dp1492
g26
F0.4791666666666667
sg27
(lp1493
(icurlovision
Stone
p1494
(dp1495
g31
F4.010869565217392
sg32
F-2.3152173913043477
sg33
F0.30978260869565216
sg34
S'yellow'
p1496
sba(icurlovision
Stone
p1497
(dp1498
g31
F0.2934782608695652
sg32
F0.22826086956521738
sg33
F0.45652173913043476
sg34
S'yellow'
p1499
sba(icurlovision
Stone
p1500
(dp1501
g31
F11.054347826086957
sg32
F2.5760869565217392
sg33
F0.42391304347826086
sg34
S'yellow'
p1502
sbasba(icurlovision
StoneLayout
p1503
(dp1504
g26
F0.4791666666666667
sg27
(lp1505
(icurlovision
Stone
p1506
(dp1507
g31
F4.1923076923076925
sg32
F-2.4230769230769234
sg33
F0.3269230769230769
sg34
S'yellow'
p1508
sba(icurlovision
Stone
p1509
(dp1510
g31
F1.153846153846154
sg32
F0.46153846153846156
sg33
F0.4807692307692308
sg34
S'red'
p1511
sba(icurlovision
Stone
p1512
(dp1513
g31
F11.576923076923078
sg32
F2.6923076923076925
sg33
F0.23076923076923078
sg34
S'yellow'
p1514
sba(icurlovision
Stone
p1515
(dp1516
g31
F-6.653846153846154
sg32
F-0.38461538461538464
sg33
F0.3076923076923077
sg34
S'yellow'
p1517
sba(icurlovision
Stone
p1518
(dp1519
g31
F4.269230769230769
sg32
F1.653846153846154
sg33
F0.4807692307692308
sg34
S'red'
p1520
sbasba(icurlovision
StoneLayout
p1521
(dp1522
g26
F0.4791666666666667
sg27
(lp1523
(icurlovision
Stone
p1524
(dp1525
g31
F11.4
sg32
F2.6999999999999997
sg33
F0.44999999999999996
sg34
S'yellow'
p1526
sba(icurlovision
Stone
p1527
(dp1528
g31
F1.6875
sg32
F0.975
sg33
F0.35625
sg34
S'red'
p1529
sba(icurlovision
Stone
p1530
(dp1531
g31
F4.125
sg32
F-2.3249999999999997
sg33
F0.31875
sg34
S'yellow'
p1532
sba(icurlovision
Stone
p1533
(dp1534
g31
F7.6499999999999995
sg32
F2.4375
sg33
F0.4125
sg34
S'red'
p1535
sbasba(icurlovision
StoneLayout
p1536
(dp1537
g26
F0.4791666666666667
sg27
(lp1538
(icurlovision
Stone
p1539
(dp1540
g31
F1.4268292682926829
sg32
F-1.0792682926829267
sg33
F0.3292682926829268
sg34
S'yellow'
p1541
sba(icurlovision
Stone
p1542
(dp1543
g31
F4.060975609756097
sg32
F-2.323170731707317
sg33
F0.4390243902439024
sg34
S'yellow'
p1544
sba(icurlovision
Stone
p1545
(dp1546
g31
F11.304878048780488
sg32
F2.652439024390244
sg33
F0.45731707317073167
sg34
S'yellow'
p1547
sba(icurlovision
Stone
p1548
(dp1549
g31
F-3.1829268292682924
sg32
F-1.0060975609756098
sg33
F0.3292682926829268
sg34
S'red'
p1550
sbasba(icurlovision
StoneLayout
p1551
(dp1552
g26
F0.4791666666666667
sg27
(lp1553
(icurlovision
Stone
p1554
(dp1555
g31
F11.357142857142856
sg32
F2.6607142857142856
sg33
F0.4464285714285714
sg34
S'yellow'
p1556
sba(icurlovision
Stone
p1557
(dp1558
g31
F4.107142857142857
sg32
F-2.339285714285714
sg33
F0.3214285714285714
sg34
S'yellow'
p1559
sba(icurlovision
Stone
p1560
(dp1561
g31
F-2.892857142857143
sg32
F5.053571428571428
sg33
F0.46428571428571425
sg34
S'red'
p1562
sbasba(icurlovision
StoneLayout
p1563
(dp1564
g26
F0.4791666666666667
sg27
(lp1565
(icurlovision
Stone
p1566
(dp1567
g31
F11.34375
sg32
F2.68125
sg33
F0.46875
sg34
S'yellow'
p1568
sba(icurlovision
Stone
p1569
(dp1570
g31
F-6.50625
sg32
F6.58125
sg33
F0.46875
sg34
S'yellow'
p1571
sba(icurlovision
Stone
p1572
(dp1573
g31
F4.06875
sg32
F-2.34375
sg33
F0.31875
sg34
S'yellow'
p1574
sba(icurlovision
Stone
p1575
(dp1576
g31
F-5.23125
sg32
F1.8187499999999999
sg33
F0.2625
sg34
S'red'
p1577
sbasba(icurlovision
StoneLayout
p1578
(dp1579
g26
F0.4791666666666667
sg27
(lp1580
(icurlovision
Stone
p1581
(dp1582
g31
F4.133720930232558
sg32
F-2.38953488372093
sg33
F0.3313953488372093
sg34
S'yellow'
p1583
sba(icurlovision
Stone
p1584
(dp1585
g31
F7.308139534883721
sg32
F1.3430232558139534
sg33
F0.313953488372093
sg34
S'red'
p1586
sba(icurlovision
Stone
p1587
(dp1588
g31
F11.424418604651162
sg32
F2.808139534883721
sg33
F0.436046511627907
sg34
S'yellow'
p1589
sbasba(icurlovision
StoneLayout
p1590
(dp1591
g26
F0.4791666666666667
sg27
(lp1592
(icurlovision
Stone
p1593
(dp1594
g31
F4.0
sg32
F0.8214285714285714
sg33
F0.33928571428571425
sg34
S'yellow'
p1595
sba(icurlovision
Stone
p1596
(dp1597
g31
F4.071428571428571
sg32
F-2.392857142857143
sg33
F0.42857142857142855
sg34
S'yellow'
p1598
sba(icurlovision
Stone
p1599
(dp1600
g31
F11.357142857142856
sg32
F2.75
sg33
F0.42857142857142855
sg34
S'yellow'
p1601
sba(icurlovision
Stone
p1602
(dp1603
g31
F7.25
sg32
F1.2857142857142856
sg33
F0.4464285714285714
sg34
S'red'
p1604
sba(icurlovision
Stone
p1605
(dp1606
g31
F-4.357142857142857
sg32
F-1.357142857142857
sg33
F0.25
sg34
S'red'
p1607
sbasba(icurlovision
StoneLayout
p1608
(dp1609
g26
F0.4791666666666667
sg27
(lp1610
(icurlovision
Stone
p1611
(dp1612
g31
F6.8352272727272725
sg32
F1.346590909090909
sg33
F0.4261363636363636
sg34
S'red'
p1613
sba(icurlovision
Stone
p1614
(dp1615
g31
F3.664772727272727
sg32
F-0.017045454545454544
sg33
F0.32386363636363635
sg34
S'red'
p1616
sba(icurlovision
Stone
p1617
(dp1618
g31
F3.5965909090909087
sg32
F1.9943181818181817
sg33
F0.28977272727272724
sg34
S'yellow'
p1619
sba(icurlovision
Stone
p1620
(dp1621
g31
F10.6875
sg32
F2.778409090909091
sg33
F0.4261363636363636
sg34
S'yellow'
p1622
sba(icurlovision
Stone
p1623
(dp1624
g31
F-2.505681818181818
sg32
F0.8693181818181818
sg33
F0.30681818181818177
sg34
S'red'
p1625
sbasba(icurlovision
StoneLayout
p1626
(dp1627
g26
F0.4791666666666667
sg27
(lp1628
(icurlovision
Stone
p1629
(dp1630
g31
F4.75657894736842
sg32
F-0.23684210526315788
sg33
F0.3157894736842105
sg34
S'yellow'
p1631
sba(icurlovision
Stone
p1632
(dp1633
g31
F11.348684210526315
sg32
F2.7236842105263155
sg33
F0.43421052631578944
sg34
S'yellow'
p1634
sba(icurlovision
Stone
p1635
(dp1636
g31
F7.282894736842104
sg32
F1.3026315789473684
sg33
F0.4539473684210526
sg34
S'red'
p1637
sba(icurlovision
Stone
p1638
(dp1639
g31
F3.8486842105263155
sg32
F2.013157894736842
sg33
F0.3157894736842105
sg34
S'yellow'
p1640
sba(icurlovision
Stone
p1641
(dp1642
g31
F-6.967105263157895
sg32
F0.9473684210526315
sg33
F0.47368421052631576
sg34
S'red'
p1643
sba(icurlovision
Stone
p1644
(dp1645
g31
F13.480263157894736
sg32
F-0.11842105263157894
sg33
F0.23684210526315788
sg34
S'red'
p1646
sbasbasg99
I6
sg100
I1
sba(icurlovision
EndResult
p1647
(dp1648
g2
I8
sg9
(lp1649
(I7
I7
tp1650
a(I7
I6
tp1651
a(I6
I6
tp1652
a(I6
I5
tp1653
a(I5
I5
tp1654
a(I5
I4
tp1655
a(I3
I2
tp1656
a(I2
I2
tp1657
a(I2
I1
tp1658
a(I1
I1
tp1659
a(I1
I0
tp1660
asg21
I9
sg22
(lp1661
(icurlovision
StoneLayout
p1662
(dp1663
g26
F0.4791666666666667
sg27
(lp1664
(icurlovision
Stone
p1665
(dp1666
g31
F5.6686046511627906
sg32
F-3.4709302325581395
sg33
F0.45348837209302323
sg34
S'red'
p1667
sba(icurlovision
Stone
p1668
(dp1669
g31
F0.5755813953488372
sg32
F-0.6453488372093024
sg33
F0.3488372093023256
sg34
S'yellow'
p1670
sba(icurlovision
Stone
p1671
(dp1672
g31
F-6.122093023255814
sg32
F5.354651162790698
sg33
F0.5058139534883721
sg34
S'red'
p1673
sbasba(icurlovision
StoneLayout
p1674
(dp1675
g26
F0.4791666666666667
sg27
(lp1676
(icurlovision
Stone
p1677
(dp1678
g31
F5.504716981132075
sg32
F-3.410377358490566
sg33
F0.4528301886792453
sg34
S'red'
p1679
sba(icurlovision
Stone
p1680
(dp1681
g31
F1.7971698113207548
sg32
F-0.49528301886792453
sg33
F0.4528301886792453
sg34
S'yellow'
p1682
sba(icurlovision
Stone
p1683
(dp1684
g31
F0.5518867924528302
sg32
F-0.6084905660377359
sg33
F0.339622641509434
sg34
S'yellow'
p1685
sbasba(icurlovision
StoneLayout
p1686
(dp1687
g26
F0.4791666666666667
sg27
(lp1688
(icurlovision
Stone
p1689
(dp1690
g31
F1.8375
sg32
F-0.525
sg33
F0.44999999999999996
sg34
S'yellow'
p1691
sba(icurlovision
Stone
p1692
(dp1693
g31
F0.5625
sg32
F-0.6
sg33
F0.46875
sg34
S'yellow'
p1694
sba(icurlovision
Stone
p1695
(dp1696
g31
F5.5874999999999995
sg32
F-3.4499999999999997
sg33
F0.31875
sg34
S'red'
p1697
sba(icurlovision
Stone
p1698
(dp1699
g31
F14.8875
sg32
F-3.0375
sg33
F0.4125
sg34
S'red'
p1700
sbasba(icurlovision
StoneLayout
p1701
(dp1702
g26
F0.4791666666666667
sg27
(lp1703
(icurlovision
Stone
p1704
(dp1705
g31
F0.5454545454545454
sg32
F-0.6477272727272727
sg33
F0.4431818181818181
sg34
S'yellow'
p1706
sba(icurlovision
Stone
p1707
(dp1708
g31
F5.590909090909091
sg32
F-3.545454545454545
sg33
F0.4602272727272727
sg34
S'red'
p1709
sba(icurlovision
Stone
p1710
(dp1711
g31
F1.8409090909090908
sg32
F-0.5454545454545454
sg33
F0.3409090909090909
sg34
S'yellow'
p1712
sbasba(icurlovision
StoneLayout
p1713
(dp1714
g26
F0.4791666666666667
sg27
(lp1715
(icurlovision
Stone
p1716
(dp1717
g31
F1.9230769230769231
sg32
F-0.576923076923077
sg33
F0.46153846153846156
sg34
S'yellow'
p1718
sba(icurlovision
Stone
p1719
(dp1720
g31
F10.692307692307693
sg32
F-3.807692307692308
sg33
F0.46153846153846156
sg34
S'red'
p1721
sba(icurlovision
Stone
p1722
(dp1723
g31
F0.576923076923077
sg32
F-0.6538461538461539
sg33
F0.4807692307692308
sg34
S'yellow'
p1724
sba(icurlovision
Stone
p1725
(dp1726
g31
F4.269230769230769
sg32
F-3.4615384615384617
sg33
F0.4807692307692308
sg34
S'red'
p1727
sbasba(icurlovision
StoneLayout
p1728
(dp1729
g26
F0.4791666666666667
sg27
(lp1730
(icurlovision
Stone
p1731
(dp1732
g31
F5.478260869565217
sg32
F-3.5217391304347827
sg33
F0.2934782608695652
sg34
S'red'
p1733
sba(icurlovision
Stone
p1734
(dp1735
g31
F1.826086956521739
sg32
F-0.5543478260869565
sg33
F0.32608695652173914
sg34
S'yellow'
p1736
sba(icurlovision
Stone
p1737
(dp1738
g31
F0.5217391304347826
sg32
F-0.6521739130434783
sg33
F0.30978260869565216
sg34
S'yellow'
p1739
sbasba(icurlovision
StoneLayout
p1740
(dp1741
g26
F0.4791666666666667
sg27
(lp1742
(icurlovision
Stone
p1743
(dp1744
g31
F1.53125
sg32
F-2.671875
sg33
F0.453125
sg34
S'red'
p1745
sba(icurlovision
Stone
p1746
(dp1747
g31
F-6.53125
sg32
F-1.109375
sg33
F0.359375
sg34
S'yellow'
p1748
sba(icurlovision
Stone
p1749
(dp1750
g31
F2.03125
sg32
F-0.578125
sg33
F0.453125
sg34
S'yellow'
p1751
sbasba(icurlovision
StoneLayout
p1752
(dp1753
g26
F0.4791666666666667
sg27
(lp1754
(icurlovision
Stone
p1755
(dp1756
g31
F-6.485294117647059
sg32
F-1.0588235294117647
sg33
F0.3235294117647059
sg34
S'yellow'
p1757
sba(icurlovision
Stone
p1758
(dp1759
g31
F1.4852941176470589
sg32
F-2.676470588235294
sg33
F0.45588235294117646
sg34
S'red'
p1760
sba(icurlovision
Stone
p1761
(dp1762
g31
F2.073529411764706
sg32
F1.088235294117647
sg33
F0.47058823529411764
sg34
S'red'
p1763
sbasba(icurlovision
StoneLayout
p1764
(dp1765
g26
F0.4791666666666667
sg27
(lp1766
(icurlovision
Stone
p1767
(dp1768
g31
F1.4278846153846154
sg32
F-3.1586538461538463
sg33
F0.3317307692307693
sg34
S'red'
p1769
sba(icurlovision
Stone
p1770
(dp1771
g31
F1.6009615384615385
sg32
F-1.7451923076923077
sg33
F0.34615384615384615
sg34
S'yellow'
p1772
sba(icurlovision
Stone
p1773
(dp1774
g31
F-6.5625
sg32
F-1.0240384615384617
sg33
F0.34615384615384615
sg34
S'yellow'
p1775
sbasba(icurlovision
StoneLayout
p1776
(dp1777
g26
F0.4791666666666667
sg27
(lp1778
(icurlovision
Stone
p1779
(dp1780
g31
F2.097457627118644
sg32
F-2.555084745762712
sg33
F0.3432203389830509
sg34
S'red'
p1781
sba(icurlovision
Stone
p1782
(dp1783
g31
F1.3601694915254239
sg32
F-3.0889830508474576
sg33
F0.3432203389830509
sg34
S'red'
p1784
sbasba(icurlovision
StoneLayout
p1785
(dp1786
g26
F0.4791666666666667
sg27
(lp1787
(icurlovision
Stone
p1788
(dp1789
g31
F1.5394736842105263
sg32
F-6.802631578947368
sg33
F0.4473684210526315
sg34
S'yellow'
p1790
sbasbasg99
I6
sg100
I1
sba(icurlovision
EndResult
p1791
(dp1792
g2
I8
sg9
(lp1793
(I8
I7
tp1794
a(I7
I7
tp1795
a(I7
I6
tp1796
a(I6
I5
tp1797
a(I5
I4
tp1798
a(I4
I4
tp1799
a(I4
I3
tp1800
a(I3
I3
tp1801
a(I3
I2
tp1802
a(I2
I2
tp1803
a(I2
I1
tp1804
a(I1
I1
tp1805
a(I1
I0
tp1806
asg21
I10
sg22
(lp1807
(icurlovision
StoneLayout
p1808
(dp1809
g26
F0.4791666666666667
sg27
(lp1810
(icurlovision
Stone
p1811
(dp1812
g31
F1.6
sg32
F0.325
sg33
F0.325
sg34
S'yellow'
p1813
sbasba(icurlovision
StoneLayout
p1814
(dp1815
g26
F0.4791666666666667
sg27
(lp1816
(icurlovision
Stone
p1817
(dp1818
g31
F1.3295454545454544
sg32
F0.1875
sg33
F0.4602272727272727
sg34
S'yellow'
p1819
sba(icurlovision
Stone
p1820
(dp1821
g31
F13.909090909090908
sg32
F2.3011363636363633
sg33
F0.2727272727272727
sg34
S'red'
p1822
sba(icurlovision
Stone
p1823
(dp1824
g31
F14.454545454545453
sg32
F4.551136363636363
sg33
F0.5113636363636364
sg34
S'red'
p1825
sbasba(icurlovision
StoneLayout
p1826
(dp1827
g26
F0.4791666666666667
sg27
(lp1828
(icurlovision
Stone
p1829
(dp1830
g31
F2.27027027027027
sg32
F0.0
sg33
F0.32432432432432434
sg34
S'yellow'
p1831
sba(icurlovision
Stone
p1832
(dp1833
g31
F0.6891891891891893
sg32
F0.28378378378378377
sg33
F0.3445945945945946
sg34
S'yellow'
p1834
sba(icurlovision
Stone
p1835
(dp1836
g31
F13.702702702702704
sg32
F2.5135135135135136
sg33
F0.4256756756756757
sg34
S'red'
p1837
sba(icurlovision
Stone
p1838
(dp1839
g31
F4.216216216216217
sg32
F3.1621621621621623
sg33
F0.4256756756756757
sg34
S'red'
p1840
sbasba(icurlovision
StoneLayout
p1841
(dp1842
g26
F0.4791666666666667
sg27
(lp1843
(icurlovision
Stone
p1844
(dp1845
g31
F6.734042553191489
sg32
F-2.8882978723404253
sg33
F0.28723404255319146
sg34
S'red'
p1846
sba(icurlovision
Stone
p1847
(dp1848
g31
F2.202127659574468
sg32
F0.015957446808510637
sg33
F0.4627659574468085
sg34
S'yellow'
p1849
sba(icurlovision
Stone
p1850
(dp1851
g31
F-5.297872340425531
sg32
F5.25
sg33
F0.4627659574468085
sg34
S'red'
p1852
sba(icurlovision
Stone
p1853
(dp1854
g31
F6.957446808510638
sg32
F-6.941489361702127
sg33
F0.4627659574468085
sg34
S'yellow'
p1855
sba(icurlovision
Stone
p1856
(dp1857
g31
F8.170212765957446
sg32
F-5.664893617021276
sg33
F0.4148936170212766
sg34
S'red'
p1858
sba(icurlovision
Stone
p1859
(dp1860
g31
F-3.382978723404255
sg32
F6.335106382978723
sg33
F0.5106382978723404
sg34
S'red'
p1861
sbasba(icurlovision
StoneLayout
p1862
(dp1863
g26
F0.4791666666666667
sg27
(lp1864
(icurlovision
Stone
p1865
(dp1866
g31
F0.6911764705882353
sg32
F-2.161764705882353
sg33
F0.3529411764705882
sg34
S'yellow'
p1867
sba(icurlovision
Stone
p1868
(dp1869
g31
F15.073529411764707
sg32
F3.2205882352941178
sg33
F0.39705882352941174
sg34
S'red'
p1870
sba(icurlovision
Stone
p1871
(dp1872
g31
F5.602941176470588
sg32
F2.926470588235294
sg33
F0.29411764705882354
sg34
S'red'
p1873
sba(icurlovision
Stone
p1874
(dp1875
g31
F0.22058823529411764
sg32
F4.8088235294117645
sg33
F0.3529411764705882
sg34
S'yellow'
p1876
sbasba(icurlovision
StoneLayout
p1877
(dp1878
g26
F0.4791666666666667
sg27
(lp1879
(icurlovision
Stone
p1880
(dp1881
g31
F0.7105263157894737
sg32
F-2.1710526315789473
sg33
F0.47368421052631576
sg34
S'yellow'
p1882
sba(icurlovision
Stone
p1883
(dp1884
g31
F0.23684210526315788
sg32
F4.776315789473684
sg33
F0.43421052631578944
sg34
S'yellow'
p1885
sba(icurlovision
Stone
p1886
(dp1887
g31
F15.039473684210526
sg32
F3.1973684210526314
sg33
F0.256578947368421
sg34
S'red'
p1888
sba(icurlovision
Stone
p1889
(dp1890
g31
F-2.131578947368421
sg32
F3.8684210526315788
sg33
F0.4539473684210526
sg34
S'red'
p1891
sbasba(icurlovision
StoneLayout
p1892
(dp1893
g26
F0.4791666666666667
sg27
(lp1894
(icurlovision
Stone
p1895
(dp1896
g31
F0.73125
sg32
F-2.19375
sg33
F0.3
sg34
S'yellow'
p1897
sba(icurlovision
Stone
p1898
(dp1899
g31
F-1.55625
sg32
F4.5562499999999995
sg33
F0.33749999999999997
sg34
S'yellow'
p1900
sba(icurlovision
Stone
p1901
(dp1902
g31
F15.393749999999999
sg32
F3.46875
sg33
F0.4125
sg34
S'red'
p1903
sbasba(icurlovision
StoneLayout
p1904
(dp1905
g26
F0.4791666666666667
sg27
(lp1906
(icurlovision
Stone
p1907
(dp1908
g31
F0.6513157894736842
sg32
F-2.1907894736842106
sg33
F0.43421052631578944
sg34
S'yellow'
p1909
sba(icurlovision
Stone
p1910
(dp1911
g31
F-1.4802631578947367
sg32
F4.440789473684211
sg33
F0.3355263157894737
sg34
S'yellow'
p1912
sba(icurlovision
Stone
p1913
(dp1914
g31
F15.019736842105262
sg32
F3.2171052631578947
sg33
F0.39473684210526316
sg34
S'red'
p1915
sba(icurlovision
Stone
p1916
(dp1917
g31
F3.2960526315789473
sg32
F4.282894736842105
sg33
F0.23684210526315788
sg34
S'red'
p1918
sba(icurlovision
Stone
p1919
(dp1920
g31
F6.848684210526315
sg32
F2.3092105263157894
sg33
F0.43421052631578944
sg34
S'red'
p1921
sbasba(icurlovision
StoneLayout
p1922
(dp1923
g26
F0.4791666666666667
sg27
(lp1924
(icurlovision
Stone
p1925
(dp1926
g31
F0.7258064516129032
sg32
F-2.213709677419355
sg33
F0.3387096774193548
sg34
S'yellow'
p1927
sba(icurlovision
Stone
p1928
(dp1929
g31
F3.411290322580645
sg32
F4.512096774193548
sg33
F0.3387096774193548
sg34
S'red'
p1930
sbasba(icurlovision
StoneLayout
p1931
(dp1932
g26
F0.4791666666666667
sg27
(lp1933
(icurlovision
Stone
p1934
(dp1935
g31
F1.5535714285714284
sg32
F-2.5982142857142856
sg33
F0.3482142857142857
sg34
S'red'
p1936
sba(icurlovision
Stone
p1937
(dp1938
g31
F0.42857142857142855
sg32
F-2.142857142857143
sg33
F0.46875
sg34
S'yellow'
p1939
sba(icurlovision
Stone
p1940
(dp1941
g31
F3.4285714285714284
sg32
F4.5
sg33
F0.3482142857142857
sg34
S'red'
p1942
sbasba(icurlovision
StoneLayout
p1943
(dp1944
g26
F0.4791666666666667
sg27
(lp1945
(icurlovision
Stone
p1946
(dp1947
g31
F-1.4404761904761905
sg32
F3.511904761904762
sg33
F0.3333333333333333
sg34
S'yellow'
p1948
sba(icurlovision
Stone
p1949
(dp1950
g31
F3.2738095238095237
sg32
F4.321428571428571
sg33
F0.3333333333333333
sg34
S'red'
p1951
sba(icurlovision
Stone
p1952
(dp1953
g31
F-2.392857142857143
sg32
F6.9642857142857135
sg33
F0.44047619047619047
sg34
S'yellow'
p1954
sbasba(icurlovision
StoneLayout
p1955
(dp1956
g26
F0.4791666666666667
sg27
(lp1957
(icurlovision
Stone
p1958
(dp1959
g31
F-0.5564516129032258
sg32
F3.604838709677419
sg33
F0.3387096774193548
sg34
S'red'
p1960
sba(icurlovision
Stone
p1961
(dp1962
g31
F-2.370967741935484
sg32
F3.7741935483870965
sg33
F0.3387096774193548
sg34
S'yellow'
p1963
sba(icurlovision
Stone
p1964
(dp1965
g31
F3.435483870967742
sg32
F4.475806451612903
sg33
F0.3387096774193548
sg34
S'red'
p1966
sbasba(icurlovision
StoneLayout
p1967
(dp1968
g26
F0.4791666666666667
sg27
(lp1969
(icurlovision
Stone
p1970
(dp1971
g31
F-0.5720338983050848
sg32
F3.648305084745763
sg33
F0.4703389830508475
sg34
S'red'
p1972
sba(icurlovision
Stone
p1973
(dp1974
g31
F-2.4279661016949152
sg32
F3.8516949152542375
sg33
F0.3432203389830509
sg34
S'yellow'
p1975
sbasbasg99
I8
sg100
I1
sba(icurlovision
EndResult
p1976
(dp1977
g2
I8
sg9
(lp1978
(I7
I8
tp1979
a(I7
I7
tp1980
a(I6
I7
tp1981
a(I6
I6
tp1982
a(I5
I6
tp1983
a(I5
I5
tp1984
a(I4
I5
tp1985
a(I4
I4
tp1986
a(I3
I4
tp1987
a(I3
I3
tp1988
a(I2
I3
tp1989
a(I2
I2
tp1990
a(I1
I2
tp1991
a(I0
I1
tp1992
asg21
I11
sg22
(lp1993
(icurlovision
StoneLayout
p1994
(dp1995
g26
F0.4791666666666667
sg27
(lp1996
(icurlovision
Stone
p1997
(dp1998
g31
F11.19375
sg32
F-0.4875
sg33
F0.3
sg34
S'red'
p1999
sbasba(icurlovision
StoneLayout
p2000
(dp2001
g26
F0.4791666666666667
sg27
(lp2002
(icurlovision
Stone
p2003
(dp2004
g31
F11.11046511627907
sg32
F-0.5406976744186046
sg33
F0.2965116279069767
sg34
S'red'
p2005
sbasba(icurlovision
StoneLayout
p2006
(dp2007
g26
F0.4791666666666667
sg27
(lp2008
(icurlovision
Stone
p2009
(dp2010
g31
F10.953947368421051
sg32
F-0.4934210526315789
sg33
F0.43421052631578944
sg34
S'red'
p2011
sba(icurlovision
Stone
p2012
(dp2013
g31
F11.861842105263158
sg32
F-0.09868421052631579
sg33
F0.43421052631578944
sg34
S'red'
p2014
sba(icurlovision
Stone
p2015
(dp2016
g31
F2.269736842105263
sg32
F-6.651315789473684
sg33
F0.3355263157894737
sg34
S'red'
p2017
sbasba(icurlovision
StoneLayout
p2018
(dp2019
g26
F0.4791666666666667
sg27
(lp2020
(icurlovision
Stone
p2021
(dp2022
g31
F0.3841463414634146
sg32
F-0.6036585365853658
sg33
F0.3292682926829268
sg34
S'yellow'
p2023
sba(icurlovision
Stone
p2024
(dp2025
g31
F12.091463414634145
sg32
F-0.12804878048780488
sg33
F0.45731707317073167
sg34
S'red'
p2026
sba(icurlovision
Stone
p2027
(dp2028
g31
F11.140243902439023
sg32
F-0.5304878048780487
sg33
F0.45731707317073167
sg34
S'red'
p2029
sba(icurlovision
Stone
p2030
(dp2031
g31
F-3.2378048780487805
sg32
F-1.920731707317073
sg33
F0.25609756097560976
sg34
S'red'
p2032
sbasba(icurlovision
StoneLayout
p2033
(dp2034
g26
F0.4791666666666667
sg27
(lp2035
(icurlovision
Stone
p2036
(dp2037
g31
F10.91860465116279
sg32
F1.4302325581395348
sg33
F0.45348837209302323
sg34
S'red'
p2038
sba(icurlovision
Stone
p2039
(dp2040
g31
F0.38372093023255816
sg32
F-0.627906976744186
sg33
F0.3488372093023256
sg34
S'yellow'
p2041
sba(icurlovision
Stone
p2042
(dp2043
g31
F10.220930232558139
sg32
F-0.8023255813953488
sg33
F0.45348837209302323
sg34
S'red'
p2044
sba(icurlovision
Stone
p2045
(dp2046
g31
F12.034883720930232
sg32
F-1.9186046511627908
sg33
F0.2965116279069767
sg34
S'red'
p2047
sbasba(icurlovision
StoneLayout
p2048
(dp2049
g26
F0.4791666666666667
sg27
(lp2050
(icurlovision
Stone
p2051
(dp2052
g31
F12.0
sg32
F-1.9230769230769231
sg33
F0.44230769230769235
sg34
S'red'
p2053
sba(icurlovision
Stone
p2054
(dp2055
g31
F0.38461538461538464
sg32
F-0.6153846153846154
sg33
F0.3269230769230769
sg34
S'yellow'
p2056
sba(icurlovision
Stone
p2057
(dp2058
g31
F-5.730769230769231
sg32
F1.9230769230769231
sg33
F0.3653846153846154
sg34
S'red'
p2059
sbasba(icurlovision
StoneLayout
p2060
(dp2061
g26
F0.4791666666666667
sg27
(lp2062
(icurlovision
Stone
p2063
(dp2064
g31
F0.40243902439024387
sg32
F-0.6219512195121951
sg33
F0.3292682926829268
sg34
S'yellow'
p2065
sba(icurlovision
Stone
p2066
(dp2067
g31
F12.0
sg32
F-1.9024390243902438
sg33
F0.45731707317073167
sg34
S'red'
p2068
sba(icurlovision
Stone
p2069
(dp2070
g31
F4.939024390243902
sg32
F-0.25609756097560976
sg33
F0.3292682926829268
sg34
S'red'
p2071
sba(icurlovision
Stone
p2072
(dp2073
g31
F7.499999999999999
sg32
F-0.6219512195121951
sg33
F0.40243902439024387
sg34
S'red'
p2074
sbasba(icurlovision
StoneLayout
p2075
(dp2076
g26
F0.4791666666666667
sg27
(lp2077
(icurlovision
Stone
p2078
(dp2079
g31
F4.78125
sg32
F-1.51875
sg33
F0.31875
sg34
S'yellow'
p2080
sba(icurlovision
Stone
p2081
(dp2082
g31
F0.35625
sg32
F-0.54375
sg33
F0.31875
sg34
S'yellow'
p2083
sba(icurlovision
Stone
p2084
(dp2085
g31
F11.49375
sg32
F-1.78125
sg33
F0.24375
sg34
S'red'
p2086
sbasba(icurlovision
StoneLayout
p2087
(dp2088
g26
F0.4791666666666667
sg27
(lp2089
(icurlovision
Stone
p2090
(dp2091
g31
F0.017857142857142856
sg32
F-0.9107142857142857
sg33
F0.3214285714285714
sg34
S'yellow'
p2092
sba(icurlovision
Stone
p2093
(dp2094
g31
F-0.4107142857142857
sg32
F0.8392857142857142
sg33
F0.42857142857142855
sg34
S'red'
p2095
sba(icurlovision
Stone
p2096
(dp2097
g31
F4.803571428571428
sg32
F-1.625
sg33
F0.2857142857142857
sg34
S'yellow'
p2098
sba(icurlovision
Stone
p2099
(dp2100
g31
F11.553571428571427
sg32
F-1.8392857142857142
sg33
F0.26785714285714285
sg34
S'red'
p2101
sbasba(icurlovision
StoneLayout
p2102
(dp2103
g26
F0.4791666666666667
sg27
(lp2104
(icurlovision
Stone
p2105
(dp2106
g31
F4.975609756097561
sg32
F-1.6097560975609755
sg33
F0.3292682926829268
sg34
S'yellow'
p2107
sba(icurlovision
Stone
p2108
(dp2109
g31
F-0.036585365853658534
sg32
F-0.9512195121951219
sg33
F0.45731707317073167
sg34
S'yellow'
p2110
sba(icurlovision
Stone
p2111
(dp2112
g31
F11.963414634146341
sg32
F-1.7560975609756095
sg33
F0.45731707317073167
sg34
S'red'
p2113
sba(icurlovision
Stone
p2114
(dp2115
g31
F-5.012195121951219
sg32
F0.47560975609756095
sg33
F0.25609756097560976
sg34
S'red'
p2116
sbasba(icurlovision
StoneLayout
p2117
(dp2118
g26
F0.4791666666666667
sg27
(lp2119
(icurlovision
Stone
p2120
(dp2121
g31
F11.6625
sg32
F-1.8375
sg33
F0.43124999999999997
sg34
S'red'
p2122
sba(icurlovision
Stone
p2123
(dp2124
g31
F-0.6
sg32
F-0.825
sg33
F0.44999999999999996
sg34
S'yellow'
p2125
sba(icurlovision
Stone
p2126
(dp2127
g31
F4.8374999999999995
sg32
F-1.575
sg33
F0.43124999999999997
sg34
S'yellow'
p2128
sba(icurlovision
Stone
p2129
(dp2130
g31
F0.8999999999999999
sg32
F-1.05
sg33
F0.44999999999999996
sg34
S'red'
p2131
sba(icurlovision
Stone
p2132
(dp2133
g31
F-5.3625
sg32
F0.1875
sg33
F0.50625
sg34
S'red'
p2134
sbasba(icurlovision
StoneLayout
p2135
(dp2136
g26
F0.4791666666666667
sg27
(lp2137
(icurlovision
Stone
p2138
(dp2139
g31
F4.81875
sg32
F-1.51875
sg33
F0.31875
sg34
S'yellow'
p2140
sba(icurlovision
Stone
p2141
(dp2142
g31
F-0.61875
sg32
F-0.7687499999999999
sg33
F0.44999999999999996
sg34
S'yellow'
p2143
sba(icurlovision
Stone
p2144
(dp2145
g31
F11.456249999999999
sg32
F-1.8187499999999999
sg33
F0.43124999999999997
sg34
S'red'
p2146
sbasba(icurlovision
StoneLayout
p2147
(dp2148
g26
F0.4791666666666667
sg27
(lp2149
(icurlovision
Stone
p2150
(dp2151
g31
F4.810975609756097
sg32
F-1.5914634146341462
sg33
F0.3475609756097561
sg34
S'yellow'
p2152
sba(icurlovision
Stone
p2153
(dp2154
g31
F11.579268292682926
sg32
F-1.8109756097560974
sg33
F0.42073170731707316
sg34
S'red'
p2155
sba(icurlovision
Stone
p2156
(dp2157
g31
F-2.2134146341463414
sg32
F-1.0792682926829267
sg33
F0.31097560975609756
sg34
S'yellow'
p2158
sba(icurlovision
Stone
p2159
(dp2160
g31
F0.23780487804878048
sg32
F-0.5304878048780487
sg33
F0.25609756097560976
sg34
S'red'
p2161
sbasba(icurlovision
StoneLayout
p2162
(dp2163
g26
F0.4791666666666667
sg27
(lp2164
(icurlovision
Stone
p2165
(dp2166
g31
F-2.25
sg32
F-1.107142857142857
sg33
F0.33928571428571425
sg34
S'yellow'
p2167
sba(icurlovision
Stone
p2168
(dp2169
g31
F8.892857142857142
sg32
F-1.5357142857142856
sg33
F0.3214285714285714
sg34
S'red'
p2170
sba(icurlovision
Stone
p2171
(dp2172
g31
F11.785714285714285
sg32
F-1.857142857142857
sg33
F0.4464285714285714
sg34
S'red'
p2173
sba(icurlovision
Stone
p2174
(dp2175
g31
F0.25
sg32
F-0.5714285714285714
sg33
F0.3571428571428571
sg34
S'red'
p2176
sbasbasg99
I8
sg100
I0
sbasS'version'
p2177
I20180812
sg99
I8
sS'metadata'
p2178
(icurlovision
MatchMetadata
p2179
(dp2180
S'team_name_red'
p2181
S'Unknown'
p2182
sS'event_name'
p2183
g2182
sS'gender'
p2184
g2182
sS'other_info'
p2185
g2182
sS'team_name_yel'
p2186
g2182
sS'date'
p2187
g2182
sbsb.