(icurlovision
MatchResult
p0
(dp1
S'yel_score'
p2
I8
sS'name'
p3
S"VideoLibrary/PyeongChang.Olympics.2018.curling.men's.round-robin.Denmark.v.Sweden.1080p.NBC.WEB-DL-FINFUNGUS.mp4"
p4
sS'end_results'
p5
(lp6
(icurlovision
EndResult
p7
(dp8
g2
I0
sS'stones_left'
p9
(lp10
(I7
I7
tp11
a(I6
I6
tp12
a(I5
I6
tp13
a(I5
I5
tp14
a(I4
I4
tp15
a(I3
I4
tp16
a(I3
I3
tp17
a(I2
I3
tp18
a(I2
I2
tp19
a(I1
I2
tp20
a(I1
I1
tp21
a(I0
I1
tp22
asS'end_num'
p23
I1
sS'stone_layouts'
p24
(lp25
(icurlovision
StoneLayout
p26
(dp27
S'stone_radius'
p28
F0.4791666666666667
sS'stones'
p29
(lp30
(icurlovision
Stone
p31
(dp32
S'y'
p33
F0.2712765957446808
sS'x'
p34
F0.4627659574468085
sS'r'
p35
F0.4627659574468085
sS'color'
p36
S'yellow'
p37
sbasba(icurlovision
StoneLayout
p38
(dp39
g28
F0.4791666666666667
sg29
(lp40
(icurlovision
Stone
p41
(dp42
g33
F8.755813953488373
sg34
F-3.0697674418604652
sg35
F0.2965116279069767
sg36
S'yellow'
p43
sba(icurlovision
Stone
p44
(dp45
g33
F-5.720930232558139
sg34
F6.941860465116279
sg35
F0.45348837209302323
sg36
S'yellow'
p46
sbasba(icurlovision
StoneLayout
p47
(dp48
g28
F0.4791666666666667
sg29
(lp49
(icurlovision
Stone
p50
(dp51
g33
F-5.693877551020408
sg34
F6.979591836734694
sg35
F0.45918367346938777
sg36
S'yellow'
p52
sbasba(icurlovision
StoneLayout
p53
(dp54
g28
F0.4791666666666667
sg29
(lp55
(icurlovision
Stone
p56
(dp57
g33
F0.413265306122449
sg34
F2.9846938775510203
sg35
F0.336734693877551
sg36
S'yellow'
p58
sbasba(icurlovision
StoneLayout
p59
(dp60
g28
F0.4791666666666667
sg29
(lp61
sba(icurlovision
StoneLayout
p62
(dp63
g28
F0.4791666666666667
sg29
(lp64
(icurlovision
Stone
p65
(dp66
g33
F-5.387755102040816
sg34
F-0.9183673469387755
sg35
F0.3214285714285714
sg36
S'red'
p67
sbasba(icurlovision
StoneLayout
p68
(dp69
g28
F0.4791666666666667
sg29
(lp70
(icurlovision
Stone
p71
(dp72
g33
F-4.484999999999999
sg34
F-0.96
sg35
F0.345
sg36
S'yellow'
p73
sbasba(icurlovision
StoneLayout
p74
(dp75
g28
F0.4791666666666667
sg29
(lp76
sba(icurlovision
StoneLayout
p77
(dp78
g28
F0.4791666666666667
sg29
(lp79
(icurlovision
Stone
p80
(dp81
g33
F-0.6409090909090909
sg34
F3.4636363636363634
sg35
F0.3136363636363636
sg36
S'yellow'
p82
sba(icurlovision
Stone
p83
(dp84
g33
F-5.74090909090909
sg34
F6.872727272727272
sg35
F0.3136363636363636
sg36
S'yellow'
p85
sbasba(icurlovision
StoneLayout
p86
(dp87
g28
F0.4791666666666667
sg29
(lp88
(icurlovision
Stone
p89
(dp90
g33
F0.09722222222222221
sg34
F3.0277777777777777
sg35
F0.3333333333333333
sg36
S'red'
p91
sba(icurlovision
Stone
p92
(dp93
g33
F-5.791666666666666
sg34
F7.0
sg35
F0.3333333333333333
sg36
S'yellow'
p94
sbasba(icurlovision
StoneLayout
p95
(dp96
g28
F0.4791666666666667
sg29
(lp97
(icurlovision
Stone
p98
(dp99
g33
F0.6184210526315789
sg34
F3.7236842105263155
sg35
F0.3421052631578947
sg36
S'yellow'
p100
sba(icurlovision
Stone
p101
(dp102
g33
F-5.75
sg34
F6.9868421052631575
sg35
F0.3289473684210526
sg36
S'yellow'
p103
sbasba(icurlovision
StoneLayout
p104
(dp105
g28
F0.4791666666666667
sg29
(lp106
(icurlovision
Stone
p107
(dp108
g33
F1.1111111111111112
sg34
F4.486111111111111
sg35
F0.3333333333333333
sg36
S'red'
p109
sba(icurlovision
Stone
p110
(dp111
g33
F-5.777777777777778
sg34
F6.902777777777778
sg35
F0.4861111111111111
sg36
S'yellow'
p112
sbasbasS'red_score'
p113
I0
sS'red_hammer'
p114
I0
sba(icurlovision
EndResult
p115
(dp116
g2
I2
sg9
(lp117
(I7
I8
tp118
a(I7
I7
tp119
a(I6
I6
tp120
a(I5
I6
tp121
a(I5
I5
tp122
a(I4
I5
tp123
a(I4
I4
tp124
a(I3
I4
tp125
a(I3
I3
tp126
a(I2
I3
tp127
a(I2
I2
tp128
a(I1
I2
tp129
a(I1
I1
tp130
a(I0
I1
tp131
asg23
I2
sg24
(lp132
(icurlovision
StoneLayout
p133
(dp134
g28
F0.4791666666666667
sg29
(lp135
(icurlovision
Stone
p136
(dp137
g33
F0.8169642857142857
sg34
F-0.17410714285714285
sg35
F0.45535714285714285
sg36
S'red'
p138
sbasba(icurlovision
StoneLayout
p139
(dp140
g28
F0.4791666666666667
sg29
(lp141
(icurlovision
Stone
p142
(dp143
g33
F0.8684210526315789
sg34
F-0.19736842105263158
sg35
F0.3355263157894737
sg36
S'red'
p144
sba(icurlovision
Stone
p145
(dp146
g33
F14.13157894736842
sg34
F2.7236842105263155
sg35
F0.43421052631578944
sg36
S'yellow'
p147
sbasba(icurlovision
StoneLayout
p148
(dp149
g28
F0.4791666666666667
sg29
(lp150
(icurlovision
Stone
p151
(dp152
g33
F-6.425675675675676
sg34
F-5.493243243243244
sg35
F0.46621621621621623
sg36
S'red'
p153
sba(icurlovision
Stone
p154
(dp155
g33
F5.8175675675675675
sg34
F0.38513513513513514
sg35
F0.30405405405405406
sg36
S'yellow'
p156
sba(icurlovision
Stone
p157
(dp158
g33
F14.006756756756758
sg34
F2.695945945945946
sg35
F0.44594594594594594
sg36
S'yellow'
p159
sbasba(icurlovision
StoneLayout
p160
(dp161
g28
F0.4791666666666667
sg29
(lp162
(icurlovision
Stone
p163
(dp164
g33
F13.657894736842104
sg34
F2.6052631578947367
sg35
F0.41447368421052627
sg36
S'yellow'
p165
sba(icurlovision
Stone
p166
(dp167
g33
F-6.276315789473684
sg34
F-5.328947368421052
sg35
F0.3157894736842105
sg36
S'red'
p168
sbasba(icurlovision
StoneLayout
p169
(dp170
g28
F0.4791666666666667
sg29
(lp171
(icurlovision
Stone
p172
(dp173
g33
F-6.425675675675676
sg34
F-5.452702702702703
sg35
F0.44594594594594594
sg36
S'red'
p174
sba(icurlovision
Stone
p175
(dp176
g33
F1.0337837837837838
sg34
F3.5472972972972974
sg35
F0.3445945945945946
sg36
S'yellow'
p177
sba(icurlovision
Stone
p178
(dp179
g33
F14.047297297297298
sg34
F2.736486486486487
sg35
F0.44594594594594594
sg36
S'yellow'
p180
sba(icurlovision
Stone
p181
(dp182
g33
F-0.14189189189189189
sg34
F-0.38513513513513514
sg35
F0.30405405405405406
sg36
S'red'
p183
sbasba(icurlovision
StoneLayout
p184
(dp185
g28
F0.4791666666666667
sg29
(lp186
(icurlovision
Stone
p187
(dp188
g33
F1.0397727272727273
sg34
F3.528409090909091
sg35
F0.3409090909090909
sg36
S'yellow'
p189
sba(icurlovision
Stone
p190
(dp191
g33
F-6.596590909090908
sg34
F-5.539772727272727
sg35
F0.32386363636363635
sg36
S'red'
p192
sbasba(icurlovision
StoneLayout
p193
(dp194
g28
F0.4791666666666667
sg29
(lp195
(icurlovision
Stone
p196
(dp197
g33
F1.0372340425531914
sg34
F3.4946808510638294
sg35
F0.33510638297872336
sg36
S'yellow'
p198
sba(icurlovision
Stone
p199
(dp200
g33
F1.101063829787234
sg34
F-4.292553191489361
sg35
F0.44680851063829785
sg36
S'yellow'
p201
sba(icurlovision
Stone
p202
(dp203
g33
F-6.526595744680851
sg34
F-5.50531914893617
sg35
F0.4627659574468085
sg36
S'red'
p204
sbasba(icurlovision
StoneLayout
p205
(dp206
g28
F0.4791666666666667
sg29
(lp207
(icurlovision
Stone
p208
(dp209
g33
F-6.5585106382978715
sg34
F-5.50531914893617
sg35
F0.33510638297872336
sg36
S'red'
p210
sba(icurlovision
Stone
p211
(dp212
g33
F1.0372340425531914
sg34
F3.462765957446808
sg35
F0.4627659574468085
sg36
S'yellow'
p213
sba(icurlovision
Stone
p214
(dp215
g33
F-3.111702127659574
sg34
F2.824468085106383
sg35
F0.351063829787234
sg36
S'red'
p216
sba(icurlovision
Stone
p217
(dp218
g33
F-1.3244680851063828
sg34
F4.00531914893617
sg35
F0.5106382978723404
sg36
S'yellow'
p219
sbasba(icurlovision
StoneLayout
p220
(dp221
g28
F0.4791666666666667
sg29
(lp222
(icurlovision
Stone
p223
(dp224
g33
F1.0188679245283019
sg34
F3.452830188679245
sg35
F0.339622641509434
sg36
S'yellow'
p225
sba(icurlovision
Stone
p226
(dp227
g33
F1.2452830188679245
sg34
F-3.311320754716981
sg35
F0.4528301886792453
sg36
S'yellow'
p228
sba(icurlovision
Stone
p229
(dp230
g33
F-6.452830188679245
sg34
F-5.462264150943397
sg35
F0.3537735849056604
sg36
S'red'
p231
sba(icurlovision
Stone
p232
(dp233
g33
F-3.1132075471698113
sg34
F2.7452830188679247
sg35
F0.339622641509434
sg36
S'red'
p234
sbasba(icurlovision
StoneLayout
p235
(dp236
g28
F0.4791666666666667
sg29
(lp237
(icurlovision
Stone
p238
(dp239
g33
F1.0691489361702127
sg34
F3.4946808510638294
sg35
F0.33510638297872336
sg36
S'yellow'
p240
sba(icurlovision
Stone
p241
(dp242
g33
F-6.494680851063829
sg34
F-5.569148936170213
sg35
F0.3031914893617021
sg36
S'red'
p243
sba(icurlovision
Stone
p244
(dp245
g33
F-3.1436170212765955
sg34
F2.7606382978723403
sg35
F0.3191489361702127
sg36
S'red'
p246
sbasba(icurlovision
StoneLayout
p247
(dp248
g28
F0.4791666666666667
sg29
(lp249
(icurlovision
Stone
p250
(dp251
g33
F1.0169491525423728
sg34
F3.4322033898305087
sg35
F0.31779661016949157
sg36
S'yellow'
p252
sba(icurlovision
Stone
p253
(dp254
g33
F0.8135593220338984
sg34
F-2.8220338983050848
sg35
F0.4576271186440678
sg36
S'yellow'
p255
sba(icurlovision
Stone
p256
(dp257
g33
F-6.38135593220339
sg34
F-5.364406779661017
sg35
F0.48305084745762716
sg36
S'red'
p258
sba(icurlovision
Stone
p259
(dp260
g33
F-3.050847457627119
sg34
F2.7203389830508478
sg35
F0.31779661016949157
sg36
S'red'
p261
sbasba(icurlovision
StoneLayout
p262
(dp263
g28
F0.4791666666666667
sg29
(lp264
(icurlovision
Stone
p265
(dp266
g33
F1.1785714285714286
sg34
F-1.6683673469387754
sg35
F0.45918367346938777
sg36
S'red'
p267
sba(icurlovision
Stone
p268
(dp269
g33
F-6.566326530612245
sg34
F-5.525510204081632
sg35
F0.3214285714285714
sg36
S'red'
p270
sba(icurlovision
Stone
p271
(dp272
g33
F0.9948979591836734
sg34
F3.5357142857142856
sg35
F0.45918367346938777
sg36
S'yellow'
p273
sba(icurlovision
Stone
p274
(dp275
g33
F-3.1683673469387754
sg34
F2.8010204081632653
sg35
F0.3520408163265306
sg36
S'red'
p276
sba(icurlovision
Stone
p277
(dp278
g33
F-3.8418367346938775
sg34
F0.8724489795918368
sg35
F0.44387755102040816
sg36
S'red'
p279
sbasba(icurlovision
StoneLayout
p280
(dp281
g28
F0.4791666666666667
sg29
(lp282
(icurlovision
Stone
p283
(dp284
g33
F1.575
sg34
F-3.0149999999999997
sg35
F0.32999999999999996
sg36
S'yellow'
p285
sba(icurlovision
Stone
p286
(dp287
g33
F-6.465
sg34
F-5.444999999999999
sg35
F0.315
sg36
S'red'
p288
sba(icurlovision
Stone
p289
(dp290
g33
F1.035
sg34
F3.435
sg35
F0.32999999999999996
sg36
S'yellow'
p291
sba(icurlovision
Stone
p292
(dp293
g33
F-3.105
sg34
F2.715
sg35
F0.32999999999999996
sg36
S'red'
p294
sbasba(icurlovision
StoneLayout
p295
(dp296
g28
F0.4791666666666667
sg29
(lp297
(icurlovision
Stone
p298
(dp299
g33
F1.013157894736842
sg34
F3.4605263157894735
sg35
F0.3157894736842105
sg36
S'yellow'
p300
sba(icurlovision
Stone
p301
(dp302
g33
F-6.407894736842105
sg34
F-5.328947368421052
sg35
F0.3289473684210526
sg36
S'red'
p303
sba(icurlovision
Stone
p304
(dp305
g33
F2.381578947368421
sg34
F-3.2236842105263155
sg35
F0.3289473684210526
sg36
S'red'
p306
sba(icurlovision
Stone
p307
(dp308
g33
F-3.039473684210526
sg34
F2.75
sg35
F0.35526315789473684
sg36
S'red'
p309
sbasbasg113
I0
sg114
I0
sba(icurlovision
EndResult
p310
(dp311
g2
I2
sg9
(lp312
(I8
I7
tp313
a(I7
I6
tp314
a(I6
I6
tp315
a(I6
I5
tp316
a(I5
I5
tp317
a(I5
I4
tp318
a(I4
I4
tp319
a(I4
I3
tp320
a(I3
I3
tp321
a(I3
I2
tp322
a(I2
I2
tp323
a(I2
I1
tp324
a(I1
I1
tp325
a(I1
I0
tp326
asg23
I3
sg24
(lp327
(icurlovision
StoneLayout
p328
(dp329
g28
F0.4791666666666667
sg29
(lp330
(icurlovision
Stone
p331
(dp332
g33
F1.190217391304348
sg34
F0.717391304347826
sg35
F0.32608695652173914
sg36
S'yellow'
p333
sba(icurlovision
Stone
p334
(dp335
g33
F7.451086956521739
sg34
F0.42391304347826086
sg35
F0.34239130434782605
sg36
S'red'
p336
sbasba(icurlovision
StoneLayout
p337
(dp338
g28
F0.4791666666666667
sg29
(lp339
(icurlovision
Stone
p340
(dp341
g33
F1.225609756097561
sg34
F0.7134146341463414
sg35
F0.45731707317073167
sg36
S'yellow'
p342
sba(icurlovision
Stone
p343
(dp344
g33
F7.4817073170731705
sg34
F-4.628048780487805
sg35
F0.45731707317073167
sg36
S'red'
p345
sba(icurlovision
Stone
p346
(dp347
g33
F7.335365853658536
sg34
F0.274390243902439
sg35
F0.3292682926829268
sg36
S'yellow'
p348
sba(icurlovision
Stone
p349
(dp350
g33
F-3.6036585365853657
sg34
F4.628048780487805
sg35
F0.2926829268292683
sg36
S'red'
p351
sbasba(icurlovision
StoneLayout
p352
(dp353
g28
F0.4791666666666667
sg29
(lp354
(icurlovision
Stone
p355
(dp356
g33
F1.1785714285714286
sg34
F0.7193877551020408
sg35
F0.42857142857142855
sg36
S'yellow'
p357
sba(icurlovision
Stone
p358
(dp359
g33
F4.974489795918367
sg34
F2.5255102040816326
sg35
F0.3214285714285714
sg36
S'red'
p360
sba(icurlovision
Stone
p361
(dp362
g33
F5.035714285714286
sg34
F-1.7908163265306123
sg35
F0.3214285714285714
sg36
S'yellow'
p363
sba(icurlovision
Stone
p364
(dp365
g33
F7.239795918367347
sg34
F-4.48469387755102
sg35
F0.44387755102040816
sg36
S'red'
p366
sbasba(icurlovision
StoneLayout
p367
(dp368
g28
F0.4791666666666667
sg29
(lp369
(icurlovision
Stone
p370
(dp371
g33
F1.9669811320754718
sg34
F-2.8726415094339623
sg35
F0.32547169811320753
sg36
S'yellow'
p372
sba(icurlovision
Stone
p373
(dp374
g33
F1.1745283018867925
sg34
F0.75
sg35
F0.4669811320754717
sg36
S'yellow'
p375
sba(icurlovision
Stone
p376
(dp377
g33
F5.193396226415095
sg34
F-1.7405660377358492
sg35
F0.32547169811320753
sg36
S'yellow'
p378
sbasba(icurlovision
StoneLayout
p379
(dp380
g28
F0.4791666666666667
sg29
(lp381
(icurlovision
Stone
p382
(dp383
g33
F1.0108695652173914
sg34
F-0.75
sg35
F0.32608695652173914
sg36
S'yellow'
p384
sba(icurlovision
Stone
p385
(dp386
g33
F7.369565217391304
sg34
F-4.532608695652174
sg35
F0.2934782608695652
sg36
S'red'
p387
sba(icurlovision
Stone
p388
(dp389
g33
F4.173913043478261
sg34
F1.6956521739130435
sg35
F0.44021739130434784
sg36
S'red'
p390
sba(icurlovision
Stone
p391
(dp392
g33
F1.2065217391304348
sg34
F0.717391304347826
sg35
F0.45652173913043476
sg36
S'yellow'
p393
sbasba(icurlovision
StoneLayout
p394
(dp395
g28
F0.4791666666666667
sg29
(lp396
(icurlovision
Stone
p397
(dp398
g33
F1.0147058823529411
sg34
F-0.75
sg35
F0.3235294117647059
sg36
S'yellow'
p399
sba(icurlovision
Stone
p400
(dp401
g33
F1.2205882352941175
sg34
F0.7205882352941176
sg35
F0.3235294117647059
sg36
S'yellow'
p402
sba(icurlovision
Stone
p403
(dp404
g33
F4.838235294117647
sg34
F1.0441176470588236
sg35
F0.4264705882352941
sg36
S'yellow'
p405
sba(icurlovision
Stone
p406
(dp407
g33
F7.397058823529411
sg34
F-4.573529411764706
sg35
F0.45588235294117646
sg36
S'red'
p408
sba(icurlovision
Stone
p409
(dp410
g33
F-1.6617647058823528
sg34
F-0.044117647058823525
sg35
F0.5
sg36
S'red'
p411
sbasba(icurlovision
StoneLayout
p412
(dp413
g28
F0.4791666666666667
sg29
(lp414
(icurlovision
Stone
p415
(dp416
g33
F1.7740384615384617
sg34
F0.27403846153846156
sg35
F0.34615384615384615
sg36
S'red'
p417
sba(icurlovision
Stone
p418
(dp419
g33
F4.975961538461538
sg34
F1.1682692307692308
sg35
F0.34615384615384615
sg36
S'yellow'
p420
sba(icurlovision
Stone
p421
(dp422
g33
F7.6875
sg34
F-4.543269230769231
sg35
F0.4759615384615385
sg36
S'red'
p423
sbasba(icurlovision
StoneLayout
p424
(dp425
g28
F0.4791666666666667
sg29
(lp426
(icurlovision
Stone
p427
(dp428
g33
F4.9728260869565215
sg34
F1.059782608695652
sg35
F0.32608695652173914
sg36
S'yellow'
p429
sba(icurlovision
Stone
p430
(dp431
g33
F7.516304347826087
sg34
F-4.679347826086956
sg35
F0.47282608695652173
sg36
S'red'
p432
sba(icurlovision
Stone
p433
(dp434
g33
F1.190217391304348
sg34
F-2.2989130434782608
sg35
F0.45652173913043476
sg36
S'yellow'
p435
sbasba(icurlovision
StoneLayout
p436
(dp437
g28
F0.4791666666666667
sg29
(lp438
(icurlovision
Stone
p439
(dp440
g33
F4.890625
sg34
F1.140625
sg35
F0.3125
sg36
S'yellow'
p441
sba(icurlovision
Stone
p442
(dp443
g33
F2.109375
sg34
F-2.296875
sg35
F0.453125
sg36
S'red'
p444
sba(icurlovision
Stone
p445
(dp446
g33
F-6.640625
sg34
F-1.640625
sg35
F0.296875
sg36
S'yellow'
p447
sba(icurlovision
Stone
p448
(dp449
g33
F7.484375
sg34
F-4.484375
sg35
F0.46875
sg36
S'red'
p450
sbasba(icurlovision
StoneLayout
p451
(dp452
g28
F0.4791666666666667
sg29
(lp453
(icurlovision
Stone
p454
(dp455
g33
F7.2299999999999995
sg34
F-4.455
sg35
F0.315
sg36
S'red'
p456
sba(icurlovision
Stone
p457
(dp458
g33
F4.71
sg34
F1.065
sg35
F0.315
sg36
S'yellow'
p459
sba(icurlovision
Stone
p460
(dp461
g33
F2.82
sg34
F-2.5349999999999997
sg35
F0.32999999999999996
sg36
S'yellow'
p462
sbasba(icurlovision
StoneLayout
p463
(dp464
g28
F0.4791666666666667
sg29
(lp465
(icurlovision
Stone
p466
(dp467
g33
F7.531914893617021
sg34
F-4.595744680851063
sg35
F0.3031914893617021
sg36
S'red'
p468
sba(icurlovision
Stone
p469
(dp470
g33
F4.946808510638298
sg34
F1.0851063829787233
sg35
F0.3191489361702127
sg36
S'yellow'
p471
sba(icurlovision
Stone
p472
(dp473
g33
F3.606382978723404
sg34
F-3.351063829787234
sg35
F0.44680851063829785
sg36
S'red'
p474
sbasba(icurlovision
StoneLayout
p475
(dp476
g28
F0.4791666666666667
sg29
(lp477
(icurlovision
Stone
p478
(dp479
g33
F6.513888888888888
sg34
F-4.347222222222222
sg35
F0.4444444444444444
sg36
S'red'
p480
sba(icurlovision
Stone
p481
(dp482
g33
F2.597222222222222
sg34
F-5.319444444444444
sg35
F0.40277777777777773
sg36
S'yellow'
p483
sba(icurlovision
Stone
p484
(dp485
g33
F4.097222222222222
sg34
F1.0138888888888888
sg35
F0.3055555555555555
sg36
S'yellow'
p486
sbasba(icurlovision
StoneLayout
p487
(dp488
g28
F0.4791666666666667
sg29
(lp489
(icurlovision
Stone
p490
(dp491
g33
F3.390625
sg34
F-5.703125
sg35
F0.328125
sg36
S'yellow'
p492
sba(icurlovision
Stone
p493
(dp494
g33
F7.546875
sg34
F-4.671875
sg35
F0.3125
sg36
S'red'
p495
sba(icurlovision
Stone
p496
(dp497
g33
F2.078125
sg34
F-4.203125
sg35
F0.328125
sg36
S'red'
p498
sbasba(icurlovision
StoneLayout
p499
(dp500
g28
F0.4791666666666667
sg29
(lp501
(icurlovision
Stone
p502
(dp503
g33
F3.433333333333333
sg34
F-5.7
sg35
F0.2833333333333333
sg36
S'yellow'
p504
sba(icurlovision
Stone
p505
(dp506
g33
F7.633333333333333
sg34
F-4.633333333333333
sg35
F0.4666666666666667
sg36
S'red'
p507
sbasbasg113
I0
sg114
I1
sba(icurlovision
EndResult
p508
(dp509
g2
I2
sg9
(lp510
(I8
I7
tp511
a(I7
I7
tp512
a(I7
I6
tp513
a(I6
I6
tp514
a(I6
I5
tp515
a(I5
I4
tp516
a(I4
I4
tp517
a(I4
I3
tp518
a(I3
I3
tp519
a(I3
I2
tp520
a(I2
I2
tp521
a(I2
I1
tp522
a(I1
I1
tp523
a(I1
I0
tp524
asg23
I4
sg24
(lp525
(icurlovision
StoneLayout
p526
(dp527
g28
F0.4791666666666667
sg29
(lp528
sba(icurlovision
StoneLayout
p529
(dp530
g28
F0.4791666666666667
sg29
(lp531
(icurlovision
Stone
p532
(dp533
g33
F10.353260869565217
sg34
F3.668478260869565
sg35
F0.44021739130434784
sg36
S'red'
p534
sba(icurlovision
Stone
p535
(dp536
g33
F-3.8641304347826084
sg34
F-5.298913043478261
sg35
F0.5217391304347826
sg36
S'yellow'
p537
sbasba(icurlovision
StoneLayout
p538
(dp539
g28
F0.4791666666666667
sg29
(lp540
(icurlovision
Stone
p541
(dp542
g33
F6.654255319148936
sg34
F0.19148936170212766
sg35
F0.4308510638297872
sg36
S'yellow'
p543
sba(icurlovision
Stone
p544
(dp545
g33
F2.0265957446808507
sg34
F0.6063829787234042
sg35
F0.44680851063829785
sg36
S'yellow'
p546
sba(icurlovision
Stone
p547
(dp548
g33
F10.484042553191488
sg34
F3.7659574468085104
sg35
F0.2712765957446808
sg36
S'red'
p549
sbasba(icurlovision
StoneLayout
p550
(dp551
g28
F0.4791666666666667
sg29
(lp552
(icurlovision
Stone
p553
(dp554
g33
F6.596590909090908
sg34
F0.22159090909090906
sg35
F0.3409090909090909
sg36
S'yellow'
p555
sba(icurlovision
Stone
p556
(dp557
g33
F2.8465909090909087
sg34
F0.9374999999999999
sg35
F0.4431818181818181
sg36
S'red'
p558
sba(icurlovision
Stone
p559
(dp560
g33
F10.3125
sg34
F3.6988636363636362
sg35
F0.4431818181818181
sg36
S'red'
p561
sba(icurlovision
Stone
p562
(dp563
g33
F1.6874999999999998
sg34
F0.5625
sg35
F0.4602272727272727
sg36
S'yellow'
p564
sba(icurlovision
Stone
p565
(dp566
g33
F-1.0397727272727273
sg34
F-0.8352272727272727
sg35
F0.47727272727272724
sg36
S'yellow'
p567
sbasba(icurlovision
StoneLayout
p568
(dp569
g28
F0.4791666666666667
sg29
(lp570
(icurlovision
Stone
p571
(dp572
g33
F1.6956521739130435
sg34
F0.5543478260869565
sg35
F0.45652173913043476
sg36
S'yellow'
p573
sba(icurlovision
Stone
p574
(dp575
g33
F7.793478260869565
sg34
F-2.152173913043478
sg35
F0.44021739130434784
sg36
S'yellow'
p576
sba(icurlovision
Stone
p577
(dp578
g33
F2.902173913043478
sg34
F0.9130434782608695
sg35
F0.34239130434782605
sg36
S'red'
p579
sba(icurlovision
Stone
p580
(dp581
g33
F-0.8478260869565217
sg34
F6.880434782608695
sg35
F0.32608695652173914
sg36
S'red'
p582
sba(icurlovision
Stone
p583
(dp584
g33
F8.608695652173912
sg34
F-4.010869565217392
sg35
F0.2934782608695652
sg36
S'yellow'
p585
sbasba(icurlovision
StoneLayout
p586
(dp587
g28
F0.4791666666666667
sg29
(lp588
(icurlovision
Stone
p589
(dp590
g33
F-2.964285714285714
sg34
F-1.25
sg35
F0.33928571428571425
sg36
S'yellow'
p591
sba(icurlovision
Stone
p592
(dp593
g33
F2.8571428571428568
sg34
F-0.9642857142857142
sg35
F0.46428571428571425
sg36
S'yellow'
p594
sba(icurlovision
Stone
p595
(dp596
g33
F7.928571428571428
sg34
F-2.2857142857142856
sg35
F0.2857142857142857
sg36
S'yellow'
p597
sba(icurlovision
Stone
p598
(dp599
g33
F10.571428571428571
sg34
F3.714285714285714
sg35
F0.3214285714285714
sg36
S'red'
p600
sba(icurlovision
Stone
p601
(dp602
g33
F-0.14285714285714285
sg34
F4.392857142857142
sg35
F0.46428571428571425
sg36
S'red'
p603
sbasba(icurlovision
StoneLayout
p604
(dp605
g28
F0.4791666666666667
sg29
(lp606
(icurlovision
Stone
p607
(dp608
g33
F-2.892857142857143
sg34
F-1.25
sg35
F0.46428571428571425
sg36
S'yellow'
p609
sba(icurlovision
Stone
p610
(dp611
g33
F7.785714285714286
sg34
F-2.2857142857142856
sg35
F0.33928571428571425
sg36
S'yellow'
p612
sba(icurlovision
Stone
p613
(dp614
g33
F3.321428571428571
sg34
F-2.071428571428571
sg35
F0.33928571428571425
sg36
S'red'
p615
sba(icurlovision
Stone
p616
(dp617
g33
F10.357142857142856
sg34
F3.571428571428571
sg35
F0.4464285714285714
sg36
S'red'
p618
sba(icurlovision
Stone
p619
(dp620
g33
F-0.14285714285714285
sg34
F4.321428571428571
sg35
F0.33928571428571425
sg36
S'red'
p621
sbasba(icurlovision
StoneLayout
p622
(dp623
g28
F0.4791666666666667
sg29
(lp624
(icurlovision
Stone
p625
(dp626
g33
F-2.85
sg34
F-1.2166666666666666
sg35
F0.4666666666666667
sg36
S'yellow'
p627
sba(icurlovision
Stone
p628
(dp629
g33
F7.75
sg34
F-2.25
sg35
F0.35
sg36
S'yellow'
p630
sba(icurlovision
Stone
p631
(dp632
g33
F3.3166666666666664
sg34
F-2.0166666666666666
sg35
F0.35
sg36
S'red'
p633
sba(icurlovision
Stone
p634
(dp635
g33
F10.283333333333333
sg34
F3.5833333333333335
sg35
F0.43333333333333335
sg36
S'red'
p636
sba(icurlovision
Stone
p637
(dp638
g33
F0.8166666666666667
sg34
F4.05
sg35
F0.43333333333333335
sg36
S'yellow'
p639
sba(icurlovision
Stone
p640
(dp641
g33
F-0.15
sg34
F4.25
sg35
F0.3
sg36
S'red'
p642
sbasba(icurlovision
StoneLayout
p643
(dp644
g28
F0.4791666666666667
sg29
(lp645
(icurlovision
Stone
p646
(dp647
g33
F3.296511627906977
sg34
F-2.005813953488372
sg35
F0.45348837209302323
sg36
S'red'
p648
sba(icurlovision
Stone
p649
(dp650
g33
F-2.5290697674418605
sg34
F0.05232558139534883
sg35
F0.47093023255813954
sg36
S'red'
p651
sba(icurlovision
Stone
p652
(dp653
g33
F7.691860465116279
sg34
F-2.2151162790697674
sg35
F0.45348837209302323
sg36
S'yellow'
p654
sba(icurlovision
Stone
p655
(dp656
g33
F0.8197674418604651
sg34
F4.063953488372093
sg35
F0.3313953488372093
sg36
S'yellow'
p657
sba(icurlovision
Stone
p658
(dp659
g33
F10.273255813953488
sg34
F3.5755813953488373
sg35
F0.2965116279069767
sg36
S'red'
p660
sba(icurlovision
Stone
p661
(dp662
g33
F-0.12209302325581395
sg34
F4.238372093023256
sg35
F0.45348837209302323
sg36
S'red'
p663
sbasba(icurlovision
StoneLayout
p664
(dp665
g28
F0.4791666666666667
sg29
(lp666
(icurlovision
Stone
p667
(dp668
g33
F-2.642857142857143
sg34
F0.03571428571428571
sg35
F0.46428571428571425
sg36
S'red'
p669
sba(icurlovision
Stone
p670
(dp671
g33
F4.25
sg34
F-2.142857142857143
sg35
F0.46428571428571425
sg36
S'yellow'
p672
sba(icurlovision
Stone
p673
(dp674
g33
F8.535714285714285
sg34
F-2.6785714285714284
sg35
F0.46428571428571425
sg36
S'yellow'
p675
sba(icurlovision
Stone
p676
(dp677
g33
F10.535714285714285
sg34
F3.6785714285714284
sg35
F0.26785714285714285
sg36
S'red'
p678
sba(icurlovision
Stone
p679
(dp680
g33
F-0.14285714285714285
sg34
F4.357142857142857
sg35
F0.46428571428571425
sg36
S'red'
p681
sba(icurlovision
Stone
p682
(dp683
g33
F0.8214285714285714
sg34
F4.107142857142857
sg35
F0.4464285714285714
sg36
S'yellow'
p684
sba(icurlovision
Stone
p685
(dp686
g33
F-5.357142857142857
sg34
F3.8571428571428568
sg35
F0.5178571428571428
sg36
S'red'
p687
sbasba(icurlovision
StoneLayout
p688
(dp689
g28
F0.4791666666666667
sg29
(lp690
(icurlovision
Stone
p691
(dp692
g33
F8.511627906976743
sg34
F-2.6162790697674416
sg35
F0.47093023255813954
sg36
S'yellow'
p693
sba(icurlovision
Stone
p694
(dp695
g33
F-2.6162790697674416
sg34
F0.06976744186046512
sg35
F0.47093023255813954
sg36
S'red'
p696
sba(icurlovision
Stone
p697
(dp698
g33
F-0.5581395348837209
sg34
F4.569767441860465
sg35
F0.3488372093023256
sg36
S'red'
p699
sba(icurlovision
Stone
p700
(dp701
g33
F1.1162790697674418
sg34
F3.1744186046511627
sg35
F0.45348837209302323
sg36
S'red'
p702
sba(icurlovision
Stone
p703
(dp704
g33
F0.8023255813953488
sg34
F4.220930232558139
sg35
F0.27906976744186046
sg36
S'yellow'
p705
sba(icurlovision
Stone
p706
(dp707
g33
F10.5
sg34
F3.697674418604651
sg35
F0.45348837209302323
sg36
S'red'
p708
sba(icurlovision
Stone
p709
(dp710
g33
F4.290697674418604
sg34
F-2.0930232558139537
sg35
F0.313953488372093
sg36
S'yellow'
p711
sbasba(icurlovision
StoneLayout
p712
(dp713
g28
F0.4791666666666667
sg29
(lp714
(icurlovision
Stone
p715
(dp716
g33
F8.352272727272727
sg34
F-2.5568181818181817
sg35
F0.32386363636363635
sg36
S'yellow'
p717
sba(icurlovision
Stone
p718
(dp719
g33
F4.1931818181818175
sg34
F-2.0795454545454546
sg35
F0.32386363636363635
sg36
S'yellow'
p720
sba(icurlovision
Stone
p721
(dp722
g33
F-2.5568181818181817
sg34
F0.06818181818181818
sg35
F0.4602272727272727
sg36
S'red'
p723
sba(icurlovision
Stone
p724
(dp725
g33
F10.295454545454545
sg34
F3.6136363636363633
sg35
F0.4261363636363636
sg36
S'red'
p726
sba(icurlovision
Stone
p727
(dp728
g33
F1.8409090909090908
sg34
F3.818181818181818
sg35
F0.32386363636363635
sg36
S'yellow'
p729
sba(icurlovision
Stone
p730
(dp731
g33
F0.7840909090909091
sg34
F4.159090909090909
sg35
F0.3409090909090909
sg36
S'yellow'
p732
sba(icurlovision
Stone
p733
(dp734
g33
F-0.5113636363636364
sg34
F4.431818181818182
sg35
F0.4431818181818181
sg36
S'red'
p735
sbasba(icurlovision
StoneLayout
p736
(dp737
g28
F0.4791666666666667
sg29
(lp738
(icurlovision
Stone
p739
(dp740
g33
F-2.607142857142857
sg34
F0.03571428571428571
sg35
F0.33928571428571425
sg36
S'red'
p741
sba(icurlovision
Stone
p742
(dp743
g33
F8.571428571428571
sg34
F-2.6785714285714284
sg35
F0.33928571428571425
sg36
S'yellow'
p744
sba(icurlovision
Stone
p745
(dp746
g33
F4.321428571428571
sg34
F-2.142857142857143
sg35
F0.3214285714285714
sg36
S'yellow'
p747
sba(icurlovision
Stone
p748
(dp749
g33
F-1.7857142857142856
sg34
F-1.1428571428571428
sg35
F0.46428571428571425
sg36
S'red'
p750
sba(icurlovision
Stone
p751
(dp752
g33
F-0.5
sg34
F4.535714285714286
sg35
F0.3571428571428571
sg36
S'red'
p753
sba(icurlovision
Stone
p754
(dp755
g33
F0.7857142857142857
sg34
F4.178571428571428
sg35
F0.33928571428571425
sg36
S'yellow'
p756
sba(icurlovision
Stone
p757
(dp758
g33
F10.571428571428571
sg34
F3.6785714285714284
sg35
F0.46428571428571425
sg36
S'red'
p759
sba(icurlovision
Stone
p760
(dp761
g33
F1.8928571428571428
sg34
F3.892857142857143
sg35
F0.33928571428571425
sg36
S'yellow'
p762
sbasba(icurlovision
StoneLayout
p763
(dp764
g28
F0.4791666666666667
sg29
(lp765
(icurlovision
Stone
p766
(dp767
g33
F-1.9230769230769231
sg34
F-1.8846153846153848
sg35
F0.4807692307692308
sg36
S'red'
p768
sba(icurlovision
Stone
p769
(dp770
g33
F8.692307692307693
sg34
F-2.730769230769231
sg35
F0.46153846153846156
sg36
S'yellow'
p771
sba(icurlovision
Stone
p772
(dp773
g33
F-1.7692307692307694
sg34
F-0.19230769230769232
sg35
F0.46153846153846156
sg36
S'yellow'
p774
sba(icurlovision
Stone
p775
(dp776
g33
F4.346153846153847
sg34
F-2.1923076923076925
sg35
F0.3269230769230769
sg36
S'yellow'
p777
sba(icurlovision
Stone
p778
(dp779
g33
F0.8076923076923077
sg34
F4.230769230769231
sg35
F0.3269230769230769
sg36
S'yellow'
p780
sba(icurlovision
Stone
p781
(dp782
g33
F-0.5384615384615385
sg34
F4.5769230769230775
sg35
F0.46153846153846156
sg36
S'red'
p783
sba(icurlovision
Stone
p784
(dp785
g33
F10.730769230769232
sg34
F3.7692307692307696
sg35
F0.3076923076923077
sg36
S'red'
p786
sba(icurlovision
Stone
p787
(dp788
g33
F1.9230769230769231
sg34
F3.9615384615384617
sg35
F0.34615384615384615
sg36
S'yellow'
p789
sbasbasg113
I2
sg114
I1
sba(icurlovision
EndResult
p790
(dp791
g2
I5
sg9
(lp792
(I7
I8
tp793
a(I7
I7
tp794
a(I6
I7
tp795
a(I5
I6
tp796
a(I5
I5
tp797
a(I4
I5
tp798
a(I4
I4
tp799
a(I3
I4
tp800
a(I3
I3
tp801
a(I2
I3
tp802
a(I2
I2
tp803
a(I1
I2
tp804
a(I1
I1
tp805
a(I0
I1
tp806
asg23
I5
sg24
(lp807
(icurlovision
StoneLayout
p808
(dp809
g28
F0.4791666666666667
sg29
(lp810
(icurlovision
Stone
p811
(dp812
g33
F8.670731707317072
sg34
F0.0
sg35
F0.4390243902439024
sg36
S'red'
p813
sbasba(icurlovision
StoneLayout
p814
(dp815
g28
F0.4791666666666667
sg29
(lp816
(icurlovision
Stone
p817
(dp818
g33
F10.125
sg34
F-3.0789473684210527
sg35
F0.43421052631578944
sg36
S'yellow'
p819
sba(icurlovision
Stone
p820
(dp821
g33
F8.664473684210526
sg34
F0.0
sg35
F0.4539473684210526
sg36
S'red'
p822
sba(icurlovision
Stone
p823
(dp824
g33
F-4.75657894736842
sg34
F-4.855263157894736
sg35
F0.5328947368421052
sg36
S'red'
p825
sbasba(icurlovision
StoneLayout
p826
(dp827
g28
F0.4791666666666667
sg29
(lp828
(icurlovision
Stone
p829
(dp830
g33
F3.1220930232558137
sg34
F-0.2965116279069767
sg35
F0.3488372093023256
sg36
S'red'
p831
sba(icurlovision
Stone
p832
(dp833
g33
F8.668604651162791
sg34
F-0.01744186046511628
sg35
F0.47093023255813954
sg36
S'red'
p834
sba(icurlovision
Stone
p835
(dp836
g33
F10.168604651162791
sg34
F-3.1220930232558137
sg35
F0.47093023255813954
sg36
S'yellow'
p837
sba(icurlovision
Stone
p838
(dp839
g33
F-1.7965116279069768
sg34
F-2.6686046511627906
sg35
F0.5232558139534884
sg36
S'yellow'
p840
sbasba(icurlovision
StoneLayout
p841
(dp842
g28
F0.4791666666666667
sg29
(lp843
(icurlovision
Stone
p844
(dp845
g33
F3.903846153846154
sg34
F-0.6346153846153847
sg35
F0.3269230769230769
sg36
S'yellow'
p846
sba(icurlovision
Stone
p847
(dp848
g33
F-6.596153846153847
sg34
F-5.903846153846154
sg35
F0.2884615384615385
sg36
S'yellow'
p849
sba(icurlovision
Stone
p850
(dp851
g33
F10.788461538461538
sg34
F-2.326923076923077
sg35
F0.3269230769230769
sg36
S'red'
p852
sba(icurlovision
Stone
p853
(dp854
g33
F8.75
sg34
F-0.057692307692307696
sg35
F0.46153846153846156
sg36
S'red'
p855
sba(icurlovision
Stone
p856
(dp857
g33
F-0.17307692307692307
sg34
F0.17307692307692307
sg35
F0.34615384615384615
sg36
S'red'
p858
sbasba(icurlovision
StoneLayout
p859
(dp860
g28
F0.4791666666666667
sg29
(lp861
(icurlovision
Stone
p862
(dp863
g33
F10.785714285714285
sg34
F-2.321428571428571
sg35
F0.30357142857142855
sg36
S'red'
p864
sba(icurlovision
Stone
p865
(dp866
g33
F0.6785714285714285
sg34
F0.5714285714285714
sg35
F0.33928571428571425
sg36
S'yellow'
p867
sba(icurlovision
Stone
p868
(dp869
g33
F-1.2857142857142856
sg34
F-0.10714285714285714
sg35
F0.33928571428571425
sg36
S'red'
p870
sba(icurlovision
Stone
p871
(dp872
g33
F8.75
sg34
F0.0
sg35
F0.46428571428571425
sg36
S'red'
p873
sba(icurlovision
Stone
p874
(dp875
g33
F3.892857142857143
sg34
F-0.6071428571428571
sg35
F0.25
sg36
S'yellow'
p876
sba(icurlovision
Stone
p877
(dp878
g33
F9.928571428571429
sg34
F-5.357142857142857
sg35
F0.3214285714285714
sg36
S'yellow'
p879
sbasba(icurlovision
StoneLayout
p880
(dp881
g28
F0.4791666666666667
sg29
(lp882
(icurlovision
Stone
p883
(dp884
g33
F1.5523255813953487
sg34
F0.2616279069767442
sg35
F0.45348837209302323
sg36
S'red'
p885
sba(icurlovision
Stone
p886
(dp887
g33
F3.8546511627906974
sg34
F-0.6453488372093024
sg35
F0.3313953488372093
sg36
S'yellow'
p888
sba(icurlovision
Stone
p889
(dp890
g33
F10.587209302325581
sg34
F-2.2848837209302326
sg35
F0.436046511627907
sg36
S'red'
p891
sba(icurlovision
Stone
p892
(dp893
g33
F0.0872093023255814
sg34
F0.6104651162790697
sg35
F0.45348837209302323
sg36
S'yellow'
p894
sba(icurlovision
Stone
p895
(dp896
g33
F-1.2034883720930232
sg34
F-0.0872093023255814
sg35
F0.2965116279069767
sg36
S'red'
p897
sba(icurlovision
Stone
p898
(dp899
g33
F8.563953488372093
sg34
F-0.01744186046511628
sg35
F0.436046511627907
sg36
S'red'
p900
sbasba(icurlovision
StoneLayout
p901
(dp902
g28
F0.4791666666666667
sg29
(lp903
(icurlovision
Stone
p904
(dp905
g33
F2.4375
sg34
F0.49431818181818177
sg35
F0.4602272727272727
sg36
S'yellow'
p906
sba(icurlovision
Stone
p907
(dp908
g33
F1.4829545454545454
sg34
F0.22159090909090906
sg35
F0.32386363636363635
sg36
S'red'
p909
sba(icurlovision
Stone
p910
(dp911
g33
F0.05113636363636363
sg34
F0.6306818181818181
sg35
F0.4602272727272727
sg36
S'yellow'
p912
sba(icurlovision
Stone
p913
(dp914
g33
F3.8693181818181817
sg34
F-0.6306818181818181
sg35
F0.32386363636363635
sg36
S'yellow'
p915
sba(icurlovision
Stone
p916
(dp917
g33
F-1.2784090909090908
sg34
F-0.08522727272727272
sg35
F0.4431818181818181
sg36
S'red'
p918
sba(icurlovision
Stone
p919
(dp920
g33
F10.6875
sg34
F-2.3011363636363633
sg35
F0.4431818181818181
sg36
S'red'
p921
sba(icurlovision
Stone
p922
(dp923
g33
F8.642045454545453
sg34
F-0.017045454545454544
sg35
F0.4431818181818181
sg36
S'red'
p924
sbasba(icurlovision
StoneLayout
p925
(dp926
g28
F0.4791666666666667
sg29
(lp927
(icurlovision
Stone
p928
(dp929
g33
F1.482142857142857
sg34
F0.26785714285714285
sg35
F0.2857142857142857
sg36
S'red'
p930
sba(icurlovision
Stone
p931
(dp932
g33
F10.732142857142856
sg34
F-2.339285714285714
sg35
F0.4464285714285714
sg36
S'red'
p933
sba(icurlovision
Stone
p934
(dp935
g33
F0.08928571428571427
sg34
F0.6607142857142857
sg35
F0.46428571428571425
sg36
S'yellow'
p936
sba(icurlovision
Stone
p937
(dp938
g33
F3.9107142857142856
sg34
F-0.625
sg35
F0.33928571428571425
sg36
S'yellow'
p939
sba(icurlovision
Stone
p940
(dp941
g33
F3.375
sg34
F0.6964285714285714
sg35
F0.33928571428571425
sg36
S'red'
p942
sba(icurlovision
Stone
p943
(dp944
g33
F2.4107142857142856
sg34
F0.4821428571428571
sg35
F0.3214285714285714
sg36
S'yellow'
p945
sba(icurlovision
Stone
p946
(dp947
g33
F-1.2678571428571428
sg34
F-0.08928571428571427
sg35
F0.46428571428571425
sg36
S'red'
p948
sba(icurlovision
Stone
p949
(dp950
g33
F8.696428571428571
sg34
F-0.017857142857142856
sg35
F0.4464285714285714
sg36
S'red'
p951
sbasba(icurlovision
StoneLayout
p952
(dp953
g28
F0.4791666666666667
sg29
(lp954
(icurlovision
Stone
p955
(dp956
g33
F-2.0755813953488373
sg34
F-2.4244186046511627
sg35
F0.47093023255813954
sg36
S'red'
p957
sba(icurlovision
Stone
p958
(dp959
g33
F2.25
sg34
F0.7151162790697674
sg35
F0.3313953488372093
sg36
S'yellow'
p960
sba(icurlovision
Stone
p961
(dp962
g33
F-0.9941860465116279
sg34
F1.2383720930232558
sg35
F0.3313953488372093
sg36
S'yellow'
p963
sba(icurlovision
Stone
p964
(dp965
g33
F-1.2732558139534884
sg34
F-0.0872093023255814
sg35
F0.3313953488372093
sg36
S'red'
p966
sba(icurlovision
Stone
p967
(dp968
g33
F2.808139534883721
sg34
F2.0406976744186047
sg35
F0.45348837209302323
sg36
S'red'
p969
sba(icurlovision
Stone
p970
(dp971
g33
F9.575581395348838
sg34
F0.01744186046511628
sg35
F0.3313953488372093
sg36
S'yellow'
p972
sba(icurlovision
Stone
p973
(dp974
g33
F10.761627906976743
sg34
F-2.3197674418604652
sg35
F0.45348837209302323
sg36
S'red'
p975
sbasba(icurlovision
StoneLayout
p976
(dp977
g28
F0.4791666666666667
sg29
(lp978
(icurlovision
Stone
p979
(dp980
g33
F-2.033333333333333
sg34
F-2.3333333333333335
sg35
F0.35
sg36
S'red'
p981
sba(icurlovision
Stone
p982
(dp983
g33
F2.1666666666666665
sg34
F0.7333333333333333
sg35
F0.31666666666666665
sg36
S'yellow'
p984
sba(icurlovision
Stone
p985
(dp986
g33
F-0.2
sg34
F1.6666666666666667
sg35
F0.45
sg36
S'red'
p987
sba(icurlovision
Stone
p988
(dp989
g33
F9.233333333333333
sg34
F0.03333333333333333
sg35
F0.3333333333333333
sg36
S'yellow'
p990
sba(icurlovision
Stone
p991
(dp992
g33
F-1.2333333333333334
sg34
F-0.06666666666666667
sg35
F0.45
sg36
S'red'
p993
sba(icurlovision
Stone
p994
(dp995
g33
F10.4
sg34
F-2.2333333333333334
sg35
F0.45
sg36
S'red'
p996
sba(icurlovision
Stone
p997
(dp998
g33
F3.1
sg34
F3.0
sg35
F0.35
sg36
S'red'
p999
sbasba(icurlovision
StoneLayout
p1000
(dp1001
g28
F0.4791666666666667
sg29
(lp1002
(icurlovision
Stone
p1003
(dp1004
g33
F2.1802325581395348
sg34
F0.75
sg35
F0.45348837209302323
sg36
S'yellow'
p1005
sba(icurlovision
Stone
p1006
(dp1007
g33
F-0.22674418604651161
sg34
F1.691860465116279
sg35
F0.3313953488372093
sg36
S'red'
p1008
sba(icurlovision
Stone
p1009
(dp1010
g33
F-2.145348837209302
sg34
F-2.4593023255813953
sg35
F0.313953488372093
sg36
S'red'
p1011
sba(icurlovision
Stone
p1012
(dp1013
g33
F9.366279069767442
sg34
F0.12209302325581395
sg35
F0.3313953488372093
sg36
S'yellow'
p1014
sba(icurlovision
Stone
p1015
(dp1016
g33
F-1.2383720930232558
sg34
F-1.8662790697674418
sg35
F0.45348837209302323
sg36
S'yellow'
p1017
sba(icurlovision
Stone
p1018
(dp1019
g33
F10.517441860465116
sg34
F-2.1802325581395348
sg35
F0.436046511627907
sg36
S'red'
p1020
sba(icurlovision
Stone
p1021
(dp1022
g33
F3.1569767441860463
sg34
F3.052325581395349
sg35
F0.313953488372093
sg36
S'red'
p1023
sbasba(icurlovision
StoneLayout
p1024
(dp1025
g28
F0.4791666666666667
sg29
(lp1026
(icurlovision
Stone
p1027
(dp1028
g33
F-0.21428571428571427
sg34
F1.7142857142857142
sg35
F0.33928571428571425
sg36
S'red'
p1029
sba(icurlovision
Stone
p1030
(dp1031
g33
F2.2857142857142856
sg34
F0.7142857142857142
sg35
F0.33928571428571425
sg36
S'yellow'
p1032
sba(icurlovision
Stone
p1033
(dp1034
g33
F-2.142857142857143
sg34
F-1.25
sg35
F0.33928571428571425
sg36
S'yellow'
p1035
sba(icurlovision
Stone
p1036
(dp1037
g33
F10.857142857142856
sg34
F-2.392857142857143
sg35
F0.30357142857142855
sg36
S'red'
p1038
sba(icurlovision
Stone
p1039
(dp1040
g33
F-0.5
sg34
F-1.607142857142857
sg35
F0.3571428571428571
sg36
S'red'
p1041
sba(icurlovision
Stone
p1042
(dp1043
g33
F9.678571428571429
sg34
F-0.03571428571428571
sg35
F0.2857142857142857
sg36
S'yellow'
p1044
sba(icurlovision
Stone
p1045
(dp1046
g33
F3.2857142857142856
sg34
F3.071428571428571
sg35
F0.3214285714285714
sg36
S'red'
p1047
sbasba(icurlovision
StoneLayout
p1048
(dp1049
g28
F0.4791666666666667
sg29
(lp1050
(icurlovision
Stone
p1051
(dp1052
g33
F2.2151162790697674
sg34
F0.7325581395348837
sg35
F0.47093023255813954
sg36
S'yellow'
p1053
sba(icurlovision
Stone
p1054
(dp1055
g33
F0.6802325581395349
sg34
F1.744186046511628
sg35
F0.313953488372093
sg36
S'yellow'
p1056
sba(icurlovision
Stone
p1057
(dp1058
g33
F9.470930232558139
sg34
F0.03488372093023256
sg35
F0.45348837209302323
sg36
S'yellow'
p1059
sba(icurlovision
Stone
p1060
(dp1061
g33
F-2.1104651162790695
sg34
F-1.1860465116279069
sg35
F0.3313953488372093
sg36
S'yellow'
p1062
sba(icurlovision
Stone
p1063
(dp1064
g33
F10.691860465116278
sg34
F-2.302325581395349
sg35
F0.45348837209302323
sg36
S'red'
p1065
sba(icurlovision
Stone
p1066
(dp1067
g33
F-0.47093023255813954
sg34
F-1.5348837209302326
sg35
F0.47093023255813954
sg36
S'red'
p1068
sba(icurlovision
Stone
p1069
(dp1070
g33
F3.2267441860465116
sg34
F3.0697674418604652
sg35
F0.3313953488372093
sg36
S'red'
p1071
sbasba(icurlovision
StoneLayout
p1072
(dp1073
g28
F0.4791666666666667
sg29
(lp1074
(icurlovision
Stone
p1075
(dp1076
g33
F2.454545454545454
sg34
F1.6704545454545454
sg35
F0.32386363636363635
sg36
S'red'
p1077
sba(icurlovision
Stone
p1078
(dp1079
g33
F0.6818181818181818
sg34
F1.8068181818181817
sg35
F0.3409090909090909
sg36
S'yellow'
p1080
sba(icurlovision
Stone
p1081
(dp1082
g33
F-0.5113636363636364
sg34
F-1.5681818181818181
sg35
F0.3409090909090909
sg36
S'red'
p1083
sba(icurlovision
Stone
p1084
(dp1085
g33
F2.1477272727272725
sg34
F0.40909090909090906
sg35
F0.3409090909090909
sg36
S'yellow'
p1086
sba(icurlovision
Stone
p1087
(dp1088
g33
F9.681818181818182
sg34
F0.06818181818181818
sg35
F0.28977272727272724
sg36
S'yellow'
p1089
sba(icurlovision
Stone
p1090
(dp1091
g33
F10.909090909090908
sg34
F-2.2840909090909087
sg35
F0.30681818181818177
sg36
S'red'
p1092
sba(icurlovision
Stone
p1093
(dp1094
g33
F-2.1477272727272725
sg34
F-1.227272727272727
sg35
F0.3409090909090909
sg36
S'yellow'
p1095
sbasbasg113
I2
sg114
I0
sba(icurlovision
EndResult
p1096
(dp1097
g2
I7
sg9
(lp1098
(I8
I7
tp1099
a(I7
I7
tp1100
a(I7
I6
tp1101
a(I6
I6
tp1102
a(I6
I5
tp1103
a(I5
I4
tp1104
a(I4
I4
tp1105
a(I3
I3
tp1106
a(I3
I2
tp1107
a(I2
I2
tp1108
a(I2
I1
tp1109
a(I1
I1
tp1110
a(I1
I0
tp1111
asg23
I6
sg24
(lp1112
(icurlovision
StoneLayout
p1113
(dp1114
g28
F0.4791666666666667
sg29
(lp1115
(icurlovision
Stone
p1116
(dp1117
g33
F1.5170454545454544
sg34
F0.39204545454545453
sg35
F0.3409090909090909
sg36
S'yellow'
p1118
sbasba(icurlovision
StoneLayout
p1119
(dp1120
g28
F0.4791666666666667
sg29
(lp1121
(icurlovision
Stone
p1122
(dp1123
g33
F1.5
sg34
F0.38888888888888884
sg35
F0.3472222222222222
sg36
S'yellow'
p1124
sba(icurlovision
Stone
p1125
(dp1126
g33
F5.722222222222222
sg34
F3.833333333333333
sg35
F0.4722222222222222
sg36
S'red'
p1127
sba(icurlovision
Stone
p1128
(dp1129
g33
F1.972222222222222
sg34
F-2.5
sg35
F0.4305555555555555
sg36
S'yellow'
p1130
sbasba(icurlovision
StoneLayout
p1131
(dp1132
g28
F0.4791666666666667
sg29
(lp1133
(icurlovision
Stone
p1134
(dp1135
g33
F1.5
sg34
F0.38888888888888884
sg35
F0.3472222222222222
sg36
S'yellow'
p1136
sba(icurlovision
Stone
p1137
(dp1138
g33
F4.916666666666666
sg34
F2.25
sg35
F0.3333333333333333
sg36
S'yellow'
p1139
sba(icurlovision
Stone
p1140
(dp1141
g33
F-6.083333333333333
sg34
F5.166666666666666
sg35
F0.3472222222222222
sg36
S'red'
p1142
sbasba(icurlovision
StoneLayout
p1143
(dp1144
g28
F0.4791666666666667
sg29
(lp1145
(icurlovision
Stone
p1146
(dp1147
g33
F1.5
sg34
F0.375
sg35
F0.46875
sg36
S'yellow'
p1148
sba(icurlovision
Stone
p1149
(dp1150
g33
F10.8375
sg34
F-3.1875
sg35
F0.44999999999999996
sg36
S'red'
p1151
sba(icurlovision
Stone
p1152
(dp1153
g33
F4.8374999999999995
sg34
F2.175
sg35
F0.44999999999999996
sg36
S'yellow'
p1154
sbasba(icurlovision
StoneLayout
p1155
(dp1156
g28
F0.4791666666666667
sg29
(lp1157
(icurlovision
Stone
p1158
(dp1159
g33
F1.434782608695652
sg34
F0.34239130434782605
sg35
F0.45652173913043476
sg36
S'yellow'
p1160
sba(icurlovision
Stone
p1161
(dp1162
g33
F5.576086956521739
sg34
F6.831521739130435
sg35
F0.47282608695652173
sg36
S'yellow'
p1163
sba(icurlovision
Stone
p1164
(dp1165
g33
F4.728260869565217
sg34
F2.135869565217391
sg35
F0.30978260869565216
sg36
S'yellow'
p1166
sbasba(icurlovision
StoneLayout
p1167
(dp1168
g28
F0.4791666666666667
sg29
(lp1169
(icurlovision
Stone
p1170
(dp1171
g33
F1.4642857142857142
sg34
F0.39285714285714285
sg35
F0.4464285714285714
sg36
S'yellow'
p1172
sba(icurlovision
Stone
p1173
(dp1174
g33
F5.678571428571428
sg34
F7.0
sg35
F0.3571428571428571
sg36
S'yellow'
p1175
sba(icurlovision
Stone
p1176
(dp1177
g33
F-7.535714285714286
sg34
F4.214285714285714
sg35
F0.46428571428571425
sg36
S'yellow'
p1178
sba(icurlovision
Stone
p1179
(dp1180
g33
F4.785714285714286
sg34
F2.214285714285714
sg35
F0.3214285714285714
sg36
S'yellow'
p1181
sbasba(icurlovision
StoneLayout
p1182
(dp1183
g28
F0.4791666666666667
sg29
(lp1184
(icurlovision
Stone
p1185
(dp1186
g33
F4.646739130434782
sg34
F2.135869565217391
sg35
F0.30978260869565216
sg36
S'yellow'
p1187
sba(icurlovision
Stone
p1188
(dp1189
g33
F1.4184782608695652
sg34
F0.34239130434782605
sg35
F0.45652173913043476
sg36
S'yellow'
p1190
sba(icurlovision
Stone
p1191
(dp1192
g33
F5.494565217391304
sg34
F6.766304347826087
sg35
F0.42391304347826086
sg36
S'yellow'
p1193
sba(icurlovision
Stone
p1194
(dp1195
g33
F10.646739130434783
sg34
F3.5706521739130435
sg35
F0.27717391304347827
sg36
S'red'
p1196
sba(icurlovision
Stone
p1197
(dp1198
g33
F-3.375
sg34
F-0.30978260869565216
sg35
F0.27717391304347827
sg36
S'yellow'
p1199
sbasba(icurlovision
StoneLayout
p1200
(dp1201
g28
F0.4791666666666667
sg29
(lp1202
(icurlovision
Stone
p1203
(dp1204
g33
F5.563953488372093
sg34
F6.784883720930233
sg35
F0.436046511627907
sg36
S'yellow'
p1205
sba(icurlovision
Stone
p1206
(dp1207
g33
F10.726744186046512
sg34
F3.5755813953488373
sg35
F0.436046511627907
sg36
S'red'
p1208
sba(icurlovision
Stone
p1209
(dp1210
g33
F4.691860465116279
sg34
F2.1802325581395348
sg35
F0.313953488372093
sg36
S'yellow'
p1211
sba(icurlovision
Stone
p1212
(dp1213
g33
F-2.4244186046511627
sg34
F5.598837209302325
sg35
F0.45348837209302323
sg36
S'red'
p1214
sba(icurlovision
Stone
p1215
(dp1216
g33
F5.773255813953488
sg34
F-0.6104651162790697
sg35
F0.313953488372093
sg36
S'yellow'
p1217
sbasba(icurlovision
StoneLayout
p1218
(dp1219
g28
F0.4791666666666667
sg29
(lp1220
(icurlovision
Stone
p1221
(dp1222
g33
F10.980769230769232
sg34
F3.6730769230769234
sg35
F0.46153846153846156
sg36
S'red'
p1223
sba(icurlovision
Stone
p1224
(dp1225
g33
F5.711538461538462
sg34
F6.980769230769231
sg35
F0.34615384615384615
sg36
S'yellow'
p1226
sba(icurlovision
Stone
p1227
(dp1228
g33
F5.9423076923076925
sg34
F-0.5961538461538461
sg35
F0.3269230769230769
sg36
S'yellow'
p1229
sba(icurlovision
Stone
p1230
(dp1231
g33
F4.8269230769230775
sg34
F2.2115384615384617
sg35
F0.34615384615384615
sg36
S'yellow'
p1232
sba(icurlovision
Stone
p1233
(dp1234
g33
F-4.557692307692308
sg34
F4.711538461538462
sg35
F0.5192307692307693
sg36
S'red'
p1235
sbasba(icurlovision
StoneLayout
p1236
(dp1237
g28
F0.4791666666666667
sg29
(lp1238
(icurlovision
Stone
p1239
(dp1240
g33
F10.767857142857142
sg34
F3.589285714285714
sg35
F0.46428571428571425
sg36
S'red'
p1241
sba(icurlovision
Stone
p1242
(dp1243
g33
F5.589285714285714
sg34
F6.8392857142857135
sg35
F0.3214285714285714
sg36
S'yellow'
p1244
sba(icurlovision
Stone
p1245
(dp1246
g33
F5.767857142857142
sg34
F-0.5892857142857143
sg35
F0.33928571428571425
sg36
S'yellow'
p1247
sba(icurlovision
Stone
p1248
(dp1249
g33
F5.303571428571428
sg34
F2.875
sg35
F0.30357142857142855
sg36
S'red'
p1250
sbasba(icurlovision
StoneLayout
p1251
(dp1252
g28
F0.4791666666666667
sg29
(lp1253
(icurlovision
Stone
p1254
(dp1255
g33
F2.85
sg34
F-1.5
sg35
F0.44999999999999996
sg36
S'yellow'
p1256
sba(icurlovision
Stone
p1257
(dp1258
g33
F5.8125
sg34
F-0.6
sg35
F0.4125
sg36
S'yellow'
p1259
sba(icurlovision
Stone
p1260
(dp1261
g33
F5.625
sg34
F6.825
sg35
F0.31875
sg36
S'yellow'
p1262
sba(icurlovision
Stone
p1263
(dp1264
g33
F10.799999999999999
sg34
F3.5625
sg35
F0.3
sg36
S'red'
p1265
sbasba(icurlovision
StoneLayout
p1266
(dp1267
g28
F0.4791666666666667
sg29
(lp1268
(icurlovision
Stone
p1269
(dp1270
g33
F3.0
sg34
F-0.3214285714285714
sg35
F0.2857142857142857
sg36
S'yellow'
p1271
sba(icurlovision
Stone
p1272
(dp1273
g33
F10.892857142857142
sg34
F3.6071428571428568
sg35
F0.4464285714285714
sg36
S'red'
p1274
sba(icurlovision
Stone
p1275
(dp1276
g33
F5.607142857142857
sg34
F6.857142857142857
sg35
F0.4464285714285714
sg36
S'yellow'
p1277
sba(icurlovision
Stone
p1278
(dp1279
g33
F5.464285714285714
sg34
F1.8928571428571428
sg35
F0.375
sg36
S'red'
p1280
sbasba(icurlovision
StoneLayout
p1281
(dp1282
g28
F0.4791666666666667
sg29
(lp1283
(icurlovision
Stone
p1284
(dp1285
g33
F2.9488636363636362
sg34
F-0.32386363636363635
sg35
F0.3409090909090909
sg36
S'yellow'
p1286
sba(icurlovision
Stone
p1287
(dp1288
g33
F10.755681818181817
sg34
F3.5965909090909087
sg35
F0.30681818181818177
sg36
S'red'
p1289
sba(icurlovision
Stone
p1290
(dp1291
g33
F5.573863636363636
sg34
F6.8352272727272725
sg35
F0.32386363636363635
sg36
S'yellow'
p1292
sba(icurlovision
Stone
p1293
(dp1294
g33
F5.369318181818182
sg34
F-0.017045454545454544
sg35
F0.4261363636363636
sg36
S'yellow'
p1295
sbasbasg113
I2
sg114
I1
sba(icurlovision
EndResult
p1296
(dp1297
g2
I7
sg9
(lp1298
(I8
I7
tp1299
a(I7
I7
tp1300
a(I7
I6
tp1301
a(I6
I6
tp1302
a(I6
I5
tp1303
a(I5
I4
tp1304
a(I4
I4
tp1305
a(I4
I3
tp1306
a(I3
I3
tp1307
a(I3
I2
tp1308
a(I2
I2
tp1309
a(I2
I1
tp1310
a(I1
I1
tp1311
a(I1
I0
tp1312
asg23
I7
sg24
(lp1313
(icurlovision
StoneLayout
p1314
(dp1315
g28
F0.4791666666666667
sg29
(lp1316
(icurlovision
Stone
p1317
(dp1318
g33
F5.264150943396227
sg34
F-0.02830188679245283
sg35
F0.4386792452830189
sg36
S'yellow'
p1319
sbasba(icurlovision
StoneLayout
p1320
(dp1321
g28
F0.4791666666666667
sg29
(lp1322
(icurlovision
Stone
p1323
(dp1324
g33
F11.486842105263158
sg34
F-3.7105263157894735
sg35
F0.39473684210526316
sg36
S'red'
p1325
sba(icurlovision
Stone
p1326
(dp1327
g33
F5.13157894736842
sg34
F-0.039473684210526314
sg35
F0.41447368421052627
sg36
S'yellow'
p1328
sbasba(icurlovision
StoneLayout
p1329
(dp1330
g28
F0.4791666666666667
sg29
(lp1331
(icurlovision
Stone
p1332
(dp1333
g33
F-3.5437499999999997
sg34
F-1.2
sg35
F0.31875
sg36
S'yellow'
p1334
sba(icurlovision
Stone
p1335
(dp1336
g33
F5.19375
sg34
F0.0
sg35
F0.31875
sg36
S'yellow'
p1337
sba(icurlovision
Stone
p1338
(dp1339
g33
F11.60625
sg34
F-3.8249999999999997
sg35
F0.22499999999999998
sg36
S'red'
p1340
sbasba(icurlovision
StoneLayout
p1341
(dp1342
g28
F0.4791666666666667
sg29
(lp1343
(icurlovision
Stone
p1344
(dp1345
g33
F-3.653846153846154
sg34
F-1.2307692307692308
sg35
F0.4807692307692308
sg36
S'yellow'
p1346
sba(icurlovision
Stone
p1347
(dp1348
g33
F5.269230769230769
sg34
F-0.07692307692307693
sg35
F0.3269230769230769
sg36
S'yellow'
p1349
sba(icurlovision
Stone
p1350
(dp1351
g33
F-0.8846153846153847
sg34
F-5.538461538461538
sg35
F0.3269230769230769
sg36
S'red'
p1352
sba(icurlovision
Stone
p1353
(dp1354
g33
F11.807692307692308
sg34
F-3.884615384615385
sg35
F0.44230769230769235
sg36
S'red'
p1355
sbasba(icurlovision
StoneLayout
p1356
(dp1357
g28
F0.4791666666666667
sg29
(lp1358
(icurlovision
Stone
p1359
(dp1360
g33
F5.388157894736842
sg34
F-0.07894736842105263
sg35
F0.3355263157894737
sg36
S'yellow'
p1361
sba(icurlovision
Stone
p1362
(dp1363
g33
F-3.69078947368421
sg34
F-1.263157894736842
sg35
F0.3355263157894737
sg36
S'yellow'
p1364
sba(icurlovision
Stone
p1365
(dp1366
g33
F12.019736842105262
sg34
F-3.9473684210526314
sg35
F0.43421052631578944
sg36
S'red'
p1367
sbasba(icurlovision
StoneLayout
p1368
(dp1369
g28
F0.4791666666666667
sg29
(lp1370
(icurlovision
Stone
p1371
(dp1372
g33
F-3.6333333333333333
sg34
F-1.25
sg35
F0.3333333333333333
sg36
S'yellow'
p1373
sba(icurlovision
Stone
p1374
(dp1375
g33
F5.2
sg34
F-0.05
sg35
F0.3333333333333333
sg36
S'yellow'
p1376
sba(icurlovision
Stone
p1377
(dp1378
g33
F0.7
sg34
F-4.583333333333333
sg35
F0.43333333333333335
sg36
S'red'
p1379
sbasba(icurlovision
StoneLayout
p1380
(dp1381
g28
F0.4791666666666667
sg29
(lp1382
(icurlovision
Stone
p1383
(dp1384
g33
F-3.7094594594594597
sg34
F-1.2162162162162162
sg35
F0.3445945945945946
sg36
S'yellow'
p1385
sba(icurlovision
Stone
p1386
(dp1387
g33
F5.371621621621622
sg34
F0.0
sg35
F0.44594594594594594
sg36
S'yellow'
p1388
sba(icurlovision
Stone
p1389
(dp1390
g33
F0.7094594594594595
sg34
F-4.743243243243244
sg35
F0.3648648648648649
sg36
S'red'
p1391
sba(icurlovision
Stone
p1392
(dp1393
g33
F11.371621621621623
sg34
F-4.824324324324325
sg35
F0.44594594594594594
sg36
S'red'
p1394
sbasba(icurlovision
StoneLayout
p1395
(dp1396
g28
F0.4791666666666667
sg29
(lp1397
(icurlovision
Stone
p1398
(dp1399
g33
F-3.651315789473684
sg34
F-1.243421052631579
sg35
F0.47368421052631576
sg36
S'yellow'
p1400
sba(icurlovision
Stone
p1401
(dp1402
g33
F5.348684210526316
sg34
F-0.05921052631578947
sg35
F0.2763157894736842
sg36
S'yellow'
p1403
sba(icurlovision
Stone
p1404
(dp1405
g33
F11.30921052631579
sg34
F-4.717105263157895
sg35
F0.41447368421052627
sg36
S'red'
p1406
sba(icurlovision
Stone
p1407
(dp1408
g33
F1.5986842105263157
sg34
F-4.440789473684211
sg35
F0.3355263157894737
sg36
S'yellow'
p1409
sbasba(icurlovision
StoneLayout
p1410
(dp1411
g28
F0.4791666666666667
sg29
(lp1412
(icurlovision
Stone
p1413
(dp1414
g33
F-1.9024390243902438
sg34
F-6.475609756097561
sg35
F0.45731707317073167
sg36
S'yellow'
p1415
sba(icurlovision
Stone
p1416
(dp1417
g33
F1.7195121951219512
sg34
F-3.219512195121951
sg35
F0.3475609756097561
sg36
S'red'
p1418
sba(icurlovision
Stone
p1419
(dp1420
g33
F11.195121951219512
sg34
F-4.792682926829268
sg35
F0.45731707317073167
sg36
S'red'
p1421
sba(icurlovision
Stone
p1422
(dp1423
g33
F5.304878048780488
sg34
F-0.07317073170731707
sg35
F0.3292682926829268
sg36
S'yellow'
p1424
sba(icurlovision
Stone
p1425
(dp1426
g33
F-3.621951219512195
sg34
F-1.2439024390243902
sg35
F0.47560975609756095
sg36
S'yellow'
p1427
sbasba(icurlovision
StoneLayout
p1428
(dp1429
g28
F0.4791666666666667
sg29
(lp1430
(icurlovision
Stone
p1431
(dp1432
g33
F5.190789473684211
sg34
F-0.05921052631578947
sg35
F0.3157894736842105
sg36
S'yellow'
p1433
sba(icurlovision
Stone
p1434
(dp1435
g33
F-1.875
sg34
F-6.296052631578947
sg35
F0.43421052631578944
sg36
S'yellow'
p1436
sba(icurlovision
Stone
p1437
(dp1438
g33
F-3.532894736842105
sg34
F-1.2039473684210527
sg35
F0.4539473684210526
sg36
S'yellow'
p1439
sba(icurlovision
Stone
p1440
(dp1441
g33
F10.914473684210526
sg34
F-4.677631578947368
sg35
F0.43421052631578944
sg36
S'red'
p1442
sba(icurlovision
Stone
p1443
(dp1444
g33
F2.269736842105263
sg34
F-3.8486842105263155
sg35
F0.39473684210526316
sg36
S'yellow'
p1445
sbasba(icurlovision
StoneLayout
p1446
(dp1447
g28
F0.4791666666666667
sg29
(lp1448
(icurlovision
Stone
p1449
(dp1450
g33
F-3.6785714285714284
sg34
F-1.25
sg35
F0.3214285714285714
sg36
S'yellow'
p1451
sba(icurlovision
Stone
p1452
(dp1453
g33
F5.321428571428571
sg34
F-0.07142857142857142
sg35
F0.4464285714285714
sg36
S'yellow'
p1454
sba(icurlovision
Stone
p1455
(dp1456
g33
F-1.9285714285714284
sg34
F-6.535714285714286
sg35
F0.30357142857142855
sg36
S'yellow'
p1457
sba(icurlovision
Stone
p1458
(dp1459
g33
F-0.8571428571428571
sg34
F0.5714285714285714
sg35
F0.46428571428571425
sg36
S'red'
p1460
sba(icurlovision
Stone
p1461
(dp1462
g33
F11.321428571428571
sg34
F-4.857142857142857
sg35
F0.4464285714285714
sg36
S'red'
p1463
sba(icurlovision
Stone
p1464
(dp1465
g33
F2.357142857142857
sg34
F-4.035714285714286
sg35
F0.33928571428571425
sg36
S'yellow'
p1466
sba(icurlovision
Stone
p1467
(dp1468
g33
F-4.357142857142857
sg34
F6.5
sg35
F0.39285714285714285
sg36
S'yellow'
p1469
sbasba(icurlovision
StoneLayout
p1470
(dp1471
g28
F0.4791666666666667
sg29
(lp1472
(icurlovision
Stone
p1473
(dp1474
g33
F-3.589285714285714
sg34
F-1.2142857142857142
sg35
F0.46428571428571425
sg36
S'yellow'
p1475
sba(icurlovision
Stone
p1476
(dp1477
g33
F-2.196428571428571
sg34
F0.6428571428571428
sg35
F0.4464285714285714
sg36
S'red'
p1478
sba(icurlovision
Stone
p1479
(dp1480
g33
F-1.9107142857142856
sg34
F-6.321428571428571
sg35
F0.46428571428571425
sg36
S'yellow'
p1481
sba(icurlovision
Stone
p1482
(dp1483
g33
F5.196428571428571
sg34
F-0.07142857142857142
sg35
F0.3214285714285714
sg36
S'yellow'
p1484
sba(icurlovision
Stone
p1485
(dp1486
g33
F0.017857142857142856
sg34
F0.3571428571428571
sg35
F0.46428571428571425
sg36
S'yellow'
p1487
sba(icurlovision
Stone
p1488
(dp1489
g33
F10.982142857142856
sg34
F-4.75
sg35
F0.4464285714285714
sg36
S'red'
p1490
sba(icurlovision
Stone
p1491
(dp1492
g33
F2.267857142857143
sg34
F-3.964285714285714
sg35
F0.25
sg36
S'yellow'
p1493
sbasba(icurlovision
StoneLayout
p1494
(dp1495
g28
F0.4791666666666667
sg29
(lp1496
(icurlovision
Stone
p1497
(dp1498
g33
F-3.528409090909091
sg34
F-1.1931818181818181
sg35
F0.4431818181818181
sg36
S'yellow'
p1499
sba(icurlovision
Stone
p1500
(dp1501
g33
F-1.1761363636363635
sg34
F-0.5454545454545454
sg35
F0.30681818181818177
sg36
S'yellow'
p1502
sba(icurlovision
Stone
p1503
(dp1504
g33
F-2.164772727272727
sg34
F0.6477272727272727
sg35
F0.4602272727272727
sg36
S'red'
p1505
sba(icurlovision
Stone
p1506
(dp1507
g33
F10.926136363636363
sg34
F-4.636363636363636
sg35
F0.4261363636363636
sg36
S'red'
p1508
sba(icurlovision
Stone
p1509
(dp1510
g33
F-1.8579545454545454
sg34
F-6.238636363636363
sg35
F0.4431818181818181
sg36
S'yellow'
p1511
sba(icurlovision
Stone
p1512
(dp1513
g33
F2.2670454545454546
sg34
F-3.852272727272727
sg35
F0.32386363636363635
sg36
S'yellow'
p1514
sba(icurlovision
Stone
p1515
(dp1516
g33
F5.1306818181818175
sg34
F0.0
sg35
F0.30681818181818177
sg36
S'yellow'
p1517
sba(icurlovision
Stone
p1518
(dp1519
g33
F0.28977272727272724
sg34
F1.3636363636363635
sg35
F0.2727272727272727
sg36
S'red'
p1520
sbasba(icurlovision
StoneLayout
p1521
(dp1522
g28
F0.4791666666666667
sg29
(lp1523
(icurlovision
Stone
p1524
(dp1525
g33
F0.75
sg34
F2.4375
sg35
F0.46875
sg36
S'yellow'
p1526
sba(icurlovision
Stone
p1527
(dp1528
g33
F-3.675
sg34
F-1.2375
sg35
F0.35625
sg36
S'yellow'
p1529
sba(icurlovision
Stone
p1530
(dp1531
g33
F-1.875
sg34
F-6.5249999999999995
sg35
F0.44999999999999996
sg36
S'yellow'
p1532
sba(icurlovision
Stone
p1533
(dp1534
g33
F5.3625
sg34
F0.0
sg35
F0.33749999999999997
sg36
S'yellow'
p1535
sba(icurlovision
Stone
p1536
(dp1537
g33
F-1.1624999999999999
sg34
F-0.6
sg35
F0.31875
sg36
S'yellow'
p1538
sba(icurlovision
Stone
p1539
(dp1540
g33
F11.362499999999999
sg34
F-4.725
sg35
F0.44999999999999996
sg36
S'red'
p1541
sba(icurlovision
Stone
p1542
(dp1543
g33
F2.4
sg34
F-3.9749999999999996
sg35
F0.33749999999999997
sg36
S'yellow'
p1544
sbasbasg113
I3
sg114
I1
sba(icurlovision
EndResult
p1545
(dp1546
g2
I8
sg9
(lp1547
(I7
I8
tp1548
a(I7
I7
tp1549
a(I6
I6
tp1550
a(I5
I6
tp1551
a(I5
I5
tp1552
a(I4
I5
tp1553
a(I4
I4
tp1554
a(I3
I4
tp1555
a(I3
I3
tp1556
a(I2
I2
tp1557
a(I1
I2
tp1558
a(I1
I1
tp1559
a(I0
I1
tp1560
asg23
I8
sg24
(lp1561
(icurlovision
StoneLayout
p1562
(dp1563
g28
F0.4791666666666667
sg29
(lp1564
(icurlovision
Stone
p1565
(dp1566
g33
F14.527173913043478
sg34
F0.6358695652173912
sg35
F0.4076086956521739
sg36
S'red'
p1567
sba(icurlovision
Stone
p1568
(dp1569
g33
F10.222826086956522
sg34
F-1.9402173913043477
sg35
F0.4891304347826087
sg36
S'yellow'
p1570
sbasba(icurlovision
StoneLayout
p1571
(dp1572
g28
F0.4791666666666667
sg29
(lp1573
(icurlovision
Stone
p1574
(dp1575
g33
F9.65625
sg34
F-3.39375
sg35
F0.33749999999999997
sg36
S'yellow'
p1576
sba(icurlovision
Stone
p1577
(dp1578
g33
F10.48125
sg34
F4.7437499999999995
sg35
F0.43124999999999997
sg36
S'red'
p1579
sbasba(icurlovision
StoneLayout
p1580
(dp1581
g28
F0.4791666666666667
sg29
(lp1582
(icurlovision
Stone
p1583
(dp1584
g33
F9.35625
sg34
F-3.3562499999999997
sg35
F0.2625
sg36
S'yellow'
p1585
sba(icurlovision
Stone
p1586
(dp1587
g33
F10.18125
sg34
F4.51875
sg35
F0.4125
sg36
S'red'
p1588
sba(icurlovision
Stone
p1589
(dp1590
g33
F7.9312499999999995
sg34
F-2.34375
sg35
F0.4125
sg36
S'yellow'
p1591
sba(icurlovision
Stone
p1592
(dp1593
g33
F1.78125
sg34
F3.7312499999999997
sg35
F0.33749999999999997
sg36
S'red'
p1594
sbasba(icurlovision
StoneLayout
p1595
(dp1596
g28
F0.4791666666666667
sg29
(lp1597
(icurlovision
Stone
p1598
(dp1599
g33
F8.315217391304348
sg34
F-2.3478260869565215
sg35
F0.44021739130434784
sg36
S'yellow'
p1600
sba(icurlovision
Stone
p1601
(dp1602
g33
F8.902173913043478
sg34
F0.6195652173913043
sg35
F0.44021739130434784
sg36
S'red'
p1603
sba(icurlovision
Stone
p1604
(dp1605
g33
F10.630434782608695
sg34
F4.826086956521739
sg35
F0.44021739130434784
sg36
S'red'
p1606
sba(icurlovision
Stone
p1607
(dp1608
g33
F9.782608695652174
sg34
F-3.391304347826087
sg35
F0.45652173913043476
sg36
S'yellow'
p1609
sba(icurlovision
Stone
p1610
(dp1611
g33
F1.858695652173913
sg34
F4.010869565217392
sg35
F0.34239130434782605
sg36
S'red'
p1612
sba(icurlovision
Stone
p1613
(dp1614
g33
F7.695652173913043
sg34
F6.6521739130434785
sg35
F0.44021739130434784
sg36
S'red'
p1615
sbasba(icurlovision
StoneLayout
p1616
(dp1617
g28
F0.4791666666666667
sg29
(lp1618
(icurlovision
Stone
p1619
(dp1620
g33
F9.692307692307693
sg34
F-3.403846153846154
sg35
F0.42307692307692313
sg36
S'yellow'
p1621
sba(icurlovision
Stone
p1622
(dp1623
g33
F8.192307692307693
sg34
F-2.3653846153846154
sg35
F0.44230769230769235
sg36
S'yellow'
p1624
sba(icurlovision
Stone
p1625
(dp1626
g33
F-4.846153846153847
sg34
F-6.134615384615385
sg35
F0.46153846153846156
sg36
S'yellow'
p1627
sba(icurlovision
Stone
p1628
(dp1629
g33
F10.538461538461538
sg34
F4.788461538461538
sg35
F0.2884615384615385
sg36
S'red'
p1630
sba(icurlovision
Stone
p1631
(dp1632
g33
F1.8076923076923077
sg34
F3.9423076923076925
sg35
F0.25
sg36
S'red'
p1633
sba(icurlovision
Stone
p1634
(dp1635
g33
F-1.7307692307692308
sg34
F5.980769230769231
sg35
F0.2692307692307693
sg36
S'red'
p1636
sbasba(icurlovision
StoneLayout
p1637
(dp1638
g28
F0.4791666666666667
sg29
(lp1639
(icurlovision
Stone
p1640
(dp1641
g33
F9.80625
sg34
F-3.46875
sg35
F0.44999999999999996
sg36
S'yellow'
p1642
sba(icurlovision
Stone
p1643
(dp1644
g33
F8.34375
sg34
F-2.38125
sg35
F0.44999999999999996
sg36
S'yellow'
p1645
sba(icurlovision
Stone
p1646
(dp1647
g33
F13.21875
sg34
F0.69375
sg35
F0.43124999999999997
sg36
S'red'
p1648
sba(icurlovision
Stone
p1649
(dp1650
g33
F1.8937499999999998
sg34
F3.95625
sg35
F0.44999999999999996
sg36
S'red'
p1651
sba(icurlovision
Stone
p1652
(dp1653
g33
F10.706249999999999
sg34
F4.81875
sg35
F0.44999999999999996
sg36
S'red'
p1654
sbasba(icurlovision
StoneLayout
p1655
(dp1656
g28
F0.4791666666666667
sg29
(lp1657
(icurlovision
Stone
p1658
(dp1659
g33
F-1.2692307692307694
sg34
F-6.730769230769231
sg35
F0.46153846153846156
sg36
S'yellow'
p1660
sba(icurlovision
Stone
p1661
(dp1662
g33
F9.884615384615385
sg34
F-3.5
sg35
F0.44230769230769235
sg36
S'yellow'
p1663
sba(icurlovision
Stone
p1664
(dp1665
g33
F8.423076923076923
sg34
F-2.4615384615384617
sg35
F0.42307692307692313
sg36
S'yellow'
p1666
sba(icurlovision
Stone
p1667
(dp1668
g33
F-0.6538461538461539
sg34
F0.07692307692307693
sg35
F0.46153846153846156
sg36
S'red'
p1669
sba(icurlovision
Stone
p1670
(dp1671
g33
F10.76923076923077
sg34
F4.846153846153847
sg35
F0.44230769230769235
sg36
S'red'
p1672
sbasba(icurlovision
StoneLayout
p1673
(dp1674
g28
F0.4791666666666667
sg29
(lp1675
(icurlovision
Stone
p1676
(dp1677
g33
F-0.702127659574468
sg34
F0.09574468085106383
sg35
F0.33510638297872336
sg36
S'red'
p1678
sba(icurlovision
Stone
p1679
(dp1680
g33
F8.393617021276595
sg34
F-2.3936170212765955
sg35
F0.4627659574468085
sg36
S'yellow'
p1681
sba(icurlovision
Stone
p1682
(dp1683
g33
F8.329787234042552
sg34
F0.3191489361702127
sg35
F0.44680851063829785
sg36
S'red'
p1684
sba(icurlovision
Stone
p1685
(dp1686
g33
F10.851063829787233
sg34
F4.914893617021276
sg35
F0.28723404255319146
sg36
S'red'
p1687
sba(icurlovision
Stone
p1688
(dp1689
g33
F9.957446808510637
sg34
F-3.5106382978723403
sg35
F0.33510638297872336
sg36
S'yellow'
p1690
sbasba(icurlovision
StoneLayout
p1691
(dp1692
g28
F0.4791666666666667
sg29
(lp1693
(icurlovision
Stone
p1694
(dp1695
g33
F8.607142857142856
sg34
F0.17857142857142855
sg35
F0.4464285714285714
sg36
S'yellow'
p1696
sba(icurlovision
Stone
p1697
(dp1698
g33
F8.071428571428571
sg34
F-2.321428571428571
sg35
F0.26785714285714285
sg36
S'yellow'
p1699
sba(icurlovision
Stone
p1700
(dp1701
g33
F9.5
sg34
F-3.3571428571428568
sg35
F0.25
sg36
S'yellow'
p1702
sba(icurlovision
Stone
p1703
(dp1704
g33
F10.321428571428571
sg34
F4.678571428571428
sg35
F0.2857142857142857
sg36
S'red'
p1705
sba(icurlovision
Stone
p1706
(dp1707
g33
F-6.7142857142857135
sg34
F4.571428571428571
sg35
F0.26785714285714285
sg36
S'red'
p1708
sbasba(icurlovision
StoneLayout
p1709
(dp1710
g28
F0.4791666666666667
sg29
(lp1711
(icurlovision
Stone
p1712
(dp1713
g33
F8.447368421052632
sg34
F-2.289473684210526
sg35
F0.43421052631578944
sg36
S'yellow'
p1714
sba(icurlovision
Stone
p1715
(dp1716
g33
F9.907894736842104
sg34
F-3.3552631578947367
sg35
F0.2763157894736842
sg36
S'yellow'
p1717
sba(icurlovision
Stone
p1718
(dp1719
g33
F7.342105263157895
sg34
F5.013157894736842
sg35
F0.4539473684210526
sg36
S'yellow'
p1720
sba(icurlovision
Stone
p1721
(dp1722
g33
F-0.5526315789473684
sg34
F0.039473684210526314
sg35
F0.47368421052631576
sg36
S'red'
p1723
sba(icurlovision
Stone
p1724
(dp1725
g33
F10.618421052631579
sg34
F5.013157894736842
sg35
F0.2763157894736842
sg36
S'red'
p1726
sbasba(icurlovision
StoneLayout
p1727
(dp1728
g28
F0.4791666666666667
sg29
(lp1729
(icurlovision
Stone
p1730
(dp1731
g33
F-0.6453488372093024
sg34
F0.05232558139534883
sg35
F0.47093023255813954
sg36
S'red'
p1732
sba(icurlovision
Stone
p1733
(dp1734
g33
F9.959302325581396
sg34
F-3.5406976744186047
sg35
F0.45348837209302323
sg36
S'yellow'
p1735
sba(icurlovision
Stone
p1736
(dp1737
g33
F8.424418604651162
sg34
F-2.4593023255813953
sg35
F0.47093023255813954
sg36
S'yellow'
p1738
sba(icurlovision
Stone
p1739
(dp1740
g33
F10.273255813953488
sg34
F-0.36627906976744184
sg35
F0.47093023255813954
sg36
S'red'
p1741
sba(icurlovision
Stone
p1742
(dp1743
g33
F7.447674418604651
sg34
F5.005813953488372
sg35
F0.4883720930232558
sg36
S'yellow'
p1744
sba(icurlovision
Stone
p1745
(dp1746
g33
F10.866279069767442
sg34
F4.936046511627907
sg35
F0.45348837209302323
sg36
S'red'
p1747
sbasba(icurlovision
StoneLayout
p1748
(dp1749
g28
F0.4791666666666667
sg29
(lp1750
(icurlovision
Stone
p1751
(dp1752
g33
F8.475
sg34
F-2.4
sg35
F0.2625
sg36
S'yellow'
p1753
sba(icurlovision
Stone
p1754
(dp1755
g33
F7.4624999999999995
sg34
F4.9875
sg35
F0.44999999999999996
sg36
S'yellow'
p1756
sba(icurlovision
Stone
p1757
(dp1758
g33
F9.9375
sg34
F-3.4875
sg35
F0.22499999999999998
sg36
S'yellow'
p1759
sba(icurlovision
Stone
p1760
(dp1761
g33
F10.275
sg34
F-0.33749999999999997
sg35
F0.44999999999999996
sg36
S'red'
p1762
sba(icurlovision
Stone
p1763
(dp1764
g33
F10.8375
sg34
F4.95
sg35
F0.4125
sg36
S'red'
p1765
sba(icurlovision
Stone
p1766
(dp1767
g33
F0.33749999999999997
sg34
F0.15
sg35
F0.46875
sg36
S'yellow'
p1768
sba(icurlovision
Stone
p1769
(dp1770
g33
F-7.5375
sg34
F-0.375
sg35
F0.3
sg36
S'red'
p1771
sbasba(icurlovision
StoneLayout
p1772
(dp1773
g28
F0.4791666666666667
sg29
(lp1774
(icurlovision
Stone
p1775
(dp1776
g33
F-2.6162790697674416
sg34
F-0.5058139534883721
sg35
F0.3313953488372093
sg36
S'yellow'
p1777
sba(icurlovision
Stone
p1778
(dp1779
g33
F1.255813953488372
sg34
F0.22674418604651161
sg35
F0.45348837209302323
sg36
S'red'
p1780
sba(icurlovision
Stone
p1781
(dp1782
g33
F9.80232558139535
sg34
F-3.4709302325581395
sg35
F0.45348837209302323
sg36
S'yellow'
p1783
sba(icurlovision
Stone
p1784
(dp1785
g33
F8.337209302325581
sg34
F-2.38953488372093
sg35
F0.436046511627907
sg36
S'yellow'
p1786
sba(icurlovision
Stone
p1787
(dp1788
g33
F10.151162790697674
sg34
F-0.36627906976744184
sg35
F0.45348837209302323
sg36
S'red'
p1789
sba(icurlovision
Stone
p1790
(dp1791
g33
F7.395348837209302
sg34
F4.901162790697675
sg35
F0.45348837209302323
sg36
S'yellow'
p1792
sba(icurlovision
Stone
p1793
(dp1794
g33
F10.744186046511627
sg34
F4.8313953488372094
sg35
F0.45348837209302323
sg36
S'red'
p1795
sbasbasg113
I3
sg114
I0
sba(icurlovision
EndResult
p1796
(dp1797
g2
I8
sg9
(lp1798
(I8
I7
tp1799
a(I7
I7
tp1800
a(I6
I5
tp1801
a(I5
I5
tp1802
a(I4
I3
tp1803
a(I3
I2
tp1804
a(I2
I1
tp1805
a(I1
I1
tp1806
a(I1
I0
tp1807
asg23
I9
sg24
(lp1808
(icurlovision
StoneLayout
p1809
(dp1810
g28
F0.4791666666666667
sg29
(lp1811
sba(icurlovision
StoneLayout
p1812
(dp1813
g28
F0.4791666666666667
sg29
(lp1814
(icurlovision
Stone
p1815
(dp1816
g33
F10.619318181818182
sg34
F2.5738636363636362
sg35
F0.4261363636363636
sg36
S'red'
p1817
sba(icurlovision
Stone
p1818
(dp1819
g33
F2.9488636363636362
sg34
F0.39204545454545453
sg35
F0.375
sg36
S'red'
p1820
sbasba(icurlovision
StoneLayout
p1821
(dp1822
g28
F0.4791666666666667
sg29
(lp1823
(icurlovision
Stone
p1824
(dp1825
g33
F9.571428571428571
sg34
F2.8571428571428568
sg35
F0.4464285714285714
sg36
S'red'
p1826
sba(icurlovision
Stone
p1827
(dp1828
g33
F10.214285714285714
sg34
F-3.821428571428571
sg35
F0.46428571428571425
sg36
S'red'
p1829
sbasba(icurlovision
StoneLayout
p1830
(dp1831
g28
F0.4791666666666667
sg29
(lp1832
(icurlovision
Stone
p1833
(dp1834
g33
F10.143749999999999
sg34
F-3.43125
sg35
F0.28125
sg36
S'red'
p1835
sba(icurlovision
Stone
p1836
(dp1837
g33
F-5.3062499999999995
sg34
F5.90625
sg35
F0.46875
sg36
S'yellow'
p1838
sbasba(icurlovision
StoneLayout
p1839
(dp1840
g28
F0.4791666666666667
sg29
(lp1841
(icurlovision
Stone
p1842
(dp1843
g33
F10.09090909090909
sg34
F-3.664772727272727
sg35
F0.4431818181818181
sg36
S'red'
p1844
sbasba(icurlovision
StoneLayout
p1845
(dp1846
g28
F0.4791666666666667
sg29
(lp1847
(icurlovision
Stone
p1848
(dp1849
g33
F10.207317073170731
sg34
F-3.8780487804878048
sg35
F0.45731707317073167
sg36
S'red'
p1850
sba(icurlovision
Stone
p1851
(dp1852
g33
F0.47560975609756095
sg34
F-4.426829268292683
sg35
F0.2926829268292683
sg36
S'red'
p1853
sbasba(icurlovision
StoneLayout
p1854
(dp1855
g28
F0.4791666666666667
sg29
(lp1856
(icurlovision
Stone
p1857
(dp1858
g33
F0.15340909090909088
sg34
F3.2215909090909087
sg35
F0.3579545454545454
sg36
S'red'
p1859
sba(icurlovision
Stone
p1860
(dp1861
g33
F-3.664772727272727
sg34
F2.914772727272727
sg35
F0.32386363636363635
sg36
S'yellow'
p1862
sbasba(icurlovision
StoneLayout
p1863
(dp1864
g28
F0.4791666666666667
sg29
(lp1865
(icurlovision
Stone
p1866
(dp1867
g33
F0.15566037735849056
sg34
F3.1839622641509435
sg35
F0.4669811320754717
sg36
S'red'
p1868
sba(icurlovision
Stone
p1869
(dp1870
g33
F-3.6367924528301887
sg34
F2.9292452830188678
sg35
F0.339622641509434
sg36
S'yellow'
p1871
sba(icurlovision
Stone
p1872
(dp1873
g33
F0.75
sg34
F-4.117924528301887
sg35
F0.4528301886792453
sg36
S'red'
p1874
sbasba(icurlovision
StoneLayout
p1875
(dp1876
g28
F0.4791666666666667
sg29
(lp1877
(icurlovision
Stone
p1878
(dp1879
g33
F0.14361702127659573
sg34
F3.1436170212765955
sg35
F0.33510638297872336
sg36
S'red'
p1880
sba(icurlovision
Stone
p1881
(dp1882
g33
F-3.590425531914893
sg34
F2.8882978723404253
sg35
F0.33510638297872336
sg36
S'yellow'
p1883
sba(icurlovision
Stone
p1884
(dp1885
g33
F1.6117021276595744
sg34
F-4.037234042553191
sg35
F0.44680851063829785
sg36
S'yellow'
p1886
sba(icurlovision
Stone
p1887
(dp1888
g33
F-6.1436170212765955
sg34
F-4.228723404255319
sg35
F0.4308510638297872
sg36
S'red'
p1889
sbasbasg113
I5
sg114
I1
sba(icurlovision
EndResult
p1890
(dp1891
g2
I8
sg9
(lp1892
(I7
I8
tp1893
a(I7
I7
tp1894
a(I6
I7
tp1895
a(I6
I6
tp1896
a(I5
I6
tp1897
a(I5
I5
tp1898
a(I3
I3
tp1899
a(I2
I3
tp1900
a(I2
I2
tp1901
a(I1
I2
tp1902
a(I1
I1
tp1903
a(I0
I1
tp1904
asg23
I10
sg24
(lp1905
(icurlovision
StoneLayout
p1906
(dp1907
g28
F0.4791666666666667
sg29
(lp1908
(icurlovision
Stone
p1909
(dp1910
g33
F14.303571428571427
sg34
F0.19642857142857142
sg35
F0.4107142857142857
sg36
S'red'
p1911
sbasba(icurlovision
StoneLayout
p1912
(dp1913
g28
F0.4791666666666667
sg29
(lp1914
(icurlovision
Stone
p1915
(dp1916
g33
F14.371621621621623
sg34
F0.18243243243243246
sg35
F0.4256756756756757
sg36
S'red'
p1917
sba(icurlovision
Stone
p1918
(dp1919
g33
F-4.804054054054054
sg34
F-4.560810810810811
sg35
F0.4864864864864865
sg36
S'yellow'
p1920
sbasba(icurlovision
StoneLayout
p1921
(dp1922
g28
F0.4791666666666667
sg29
(lp1923
(icurlovision
Stone
p1924
(dp1925
g33
F7.280487804878049
sg34
F0.2926829268292683
sg35
F0.3292682926829268
sg36
S'red'
p1926
sba(icurlovision
Stone
p1927
(dp1928
g33
F14.085365853658535
sg34
F0.1097560975609756
sg35
F0.274390243902439
sg36
S'red'
p1929
sba(icurlovision
Stone
p1930
(dp1931
g33
F9.036585365853657
sg34
F3.146341463414634
sg35
F0.42073170731707316
sg36
S'red'
p1932
sbasba(icurlovision
StoneLayout
p1933
(dp1934
g28
F0.4791666666666667
sg29
(lp1935
(icurlovision
Stone
p1936
(dp1937
g33
F13.882978723404253
sg34
F0.15957446808510636
sg35
F0.39893617021276595
sg36
S'red'
p1938
sbasba(icurlovision
StoneLayout
p1939
(dp1940
g28
F0.4791666666666667
sg29
(lp1941
(icurlovision
Stone
p1942
(dp1943
g33
F7.666666666666666
sg34
F0.3333333333333333
sg35
F0.20833333333333331
sg36
S'red'
p1944
sba(icurlovision
Stone
p1945
(dp1946
g33
F14.791666666666666
sg34
F0.16666666666666666
sg35
F0.4375
sg36
S'red'
p1947
sba(icurlovision
Stone
p1948
(dp1949
g33
F-0.08333333333333333
sg34
F1.1666666666666665
sg35
F0.4583333333333333
sg36
S'red'
p1950
sbasba(icurlovision
StoneLayout
p1951
(dp1952
g28
F0.4791666666666667
sg29
(lp1953
(icurlovision
Stone
p1954
(dp1955
g33
F3.2908163265306123
sg34
F-6.75
sg35
F0.45918367346938777
sg36
S'yellow'
p1956
sba(icurlovision
Stone
p1957
(dp1958
g33
F-0.07653061224489796
sg34
F1.1173469387755102
sg35
F0.336734693877551
sg36
S'red'
p1959
sba(icurlovision
Stone
p1960
(dp1961
g33
F7.392857142857142
sg34
F0.3214285714285714
sg35
F0.44387755102040816
sg36
S'red'
p1962
sba(icurlovision
Stone
p1963
(dp1964
g33
F-6.198979591836735
sg34
F6.2602040816326525
sg35
F0.4897959183673469
sg36
S'red'
p1965
sbasba(icurlovision
StoneLayout
p1966
(dp1967
g28
F0.4791666666666667
sg29
(lp1968
(icurlovision
Stone
p1969
(dp1970
g33
F3.486486486486487
sg34
F-1.0945945945945947
sg35
F0.46621621621621623
sg36
S'red'
p1971
sba(icurlovision
Stone
p1972
(dp1973
g33
F0.6081081081081081
sg34
F1.6621621621621623
sg35
F0.3445945945945946
sg36
S'yellow'
p1974
sba(icurlovision
Stone
p1975
(dp1976
g33
F16.54054054054054
sg34
F-0.6486486486486487
sg35
F0.38513513513513514
sg36
S'red'
p1977
sbasba(icurlovision
StoneLayout
p1978
(dp1979
g28
F0.4791666666666667
sg29
(lp1980
(icurlovision
Stone
p1981
(dp1982
g33
F0.35526315789473684
sg34
F1.3421052631578947
sg35
F0.43421052631578944
sg36
S'yellow'
p1983
sba(icurlovision
Stone
p1984
(dp1985
g33
F3.394736842105263
sg34
F-1.0657894736842104
sg35
F0.43421052631578944
sg36
S'red'
p1986
sba(icurlovision
Stone
p1987
(dp1988
g33
F0.07894736842105263
sg34
F2.881578947368421
sg35
F0.4539473684210526
sg36
S'red'
p1989
sbasba(icurlovision
StoneLayout
p1990
(dp1991
g28
F0.4791666666666667
sg29
(lp1992
(icurlovision
Stone
p1993
(dp1994
g33
F3.4539473684210527
sg34
F-0.9276315789473684
sg35
F0.43421052631578944
sg36
S'red'
p1995
sba(icurlovision
Stone
p1996
(dp1997
g33
F0.29605263157894735
sg34
F1.3223684210526314
sg35
F0.43421052631578944
sg36
S'yellow'
p1998
sba(icurlovision
Stone
p1999
(dp2000
g33
F-4.203947368421052
sg34
F4.006578947368421
sg35
F0.3355263157894737
sg36
S'yellow'
p2001
sba(icurlovision
Stone
p2002
(dp2003
g33
F16.164473684210524
sg34
F0.05921052631578947
sg35
F0.41447368421052627
sg36
S'red'
p2004
sbasba(icurlovision
StoneLayout
p2005
(dp2006
g28
F0.4791666666666667
sg29
(lp2007
(icurlovision
Stone
p2008
(dp2009
g33
F3.4539473684210527
sg34
F-1.0460526315789473
sg35
F0.4539473684210526
sg36
S'red'
p2010
sba(icurlovision
Stone
p2011
(dp2012
g33
F-3.4934210526315788
sg34
F-0.9276315789473684
sg35
F0.23684210526315788
sg36
S'red'
p2013
sba(icurlovision
Stone
p2014
(dp2015
g33
F0.375
sg34
F1.3223684210526314
sg35
F0.4539473684210526
sg36
S'yellow'
p2016
sba(icurlovision
Stone
p2017
(dp2018
g33
F16.164473684210524
sg34
F-0.4539473684210526
sg35
F0.39473684210526316
sg36
S'red'
p2019
sba(icurlovision
Stone
p2020
(dp2021
g33
F11.032894736842104
sg34
F6.019736842105263
sg35
F0.3355263157894737
sg36
S'red'
p2022
sbasba(icurlovision
StoneLayout
p2023
(dp2024
g28
F0.4791666666666667
sg29
(lp2025
(icurlovision
Stone
p2026
(dp2027
g33
F3.475
sg34
F-1.125
sg35
F0.45
sg36
S'red'
p2028
sba(icurlovision
Stone
p2029
(dp2030
g33
F-3.625
sg34
F-0.875
sg35
F0.36250000000000004
sg36
S'red'
p2031
sba(icurlovision
Stone
p2032
(dp2033
g33
F-6.45
sg34
F-1.125
sg35
F0.35000000000000003
sg36
S'red'
p2034
sbasba(icurlovision
StoneLayout
p2035
(dp2036
g28
F0.4791666666666667
sg29
(lp2037
(icurlovision
Stone
p2038
(dp2039
g33
F-3.638888888888889
sg34
F-0.9027777777777777
sg35
F0.4722222222222222
sg36
S'red'
p2040
sba(icurlovision
Stone
p2041
(dp2042
g33
F3.5277777777777777
sg34
F-1.125
sg35
F0.4722222222222222
sg36
S'red'
p2043
sba(icurlovision
Stone
p2044
(dp2045
g33
F0.6944444444444444
sg34
F2.625
sg35
F0.3472222222222222
sg36
S'red'
p2046
sba(icurlovision
Stone
p2047
(dp2048
g33
F-4.388888888888888
sg34
F2.9027777777777777
sg35
F0.4583333333333333
sg36
S'yellow'
p2049
sbasbasg113
I5
sg114
I0
sbasS'version'
p2050
I20180812
sg113
I5
sS'metadata'
p2051
(icurlovision
MatchMetadata
p2052
(dp2053
S'team_name_red'
p2054
S'Unknown'
p2055
sS'event_name'
p2056
g2055
sS'gender'
p2057
g2055
sS'other_info'
p2058
g2055
sS'team_name_yel'
p2059
g2055
sS'date'
p2060
g2055
sbsb.