(icurlovision
MatchResult
p0
(dp1
S'yel_score'
p2
I8
sS'red_score'
p3
I8
sS'name'
p4
S"VideoLibrary/PyeongChang.Olympics.2018.curling.women's.round-robin.Russia.v.Canada.1080p.NBC.WEB-DL-FINFUNGUS.mp4"
p5
sS'end_results'
p6
(lp7
(icurlovision
EndResult
p8
(dp9
g2
I0
sS'stones_left'
p10
(lp11
(I8
I7
tp12
a(I7
I7
tp13
a(I7
I6
tp14
a(I6
I6
tp15
a(I6
I5
tp16
a(I5
I5
tp17
a(I5
I4
tp18
a(I4
I4
tp19
a(I4
I3
tp20
a(I3
I3
tp21
a(I3
I2
tp22
a(I2
I2
tp23
a(I2
I1
tp24
a(I1
I1
tp25
a(I1
I0
tp26
asS'end_num'
p27
I1
sS'stone_layouts'
p28
(lp29
(icurlovision
StoneLayout
p30
(dp31
S'stone_radius'
p32
F0.4791666666666667
sS'stones'
p33
(lp34
(icurlovision
Stone
p35
(dp36
S'y'
p37
F8.651162790697674
sS'x'
p38
F0.27906976744186046
sS'r'
p39
F0.47093023255813954
sS'color'
p40
S'yellow'
p41
sba(icurlovision
Stone
p42
(dp43
g37
F10.186046511627907
sg38
F-12.976744186046512
sg39
F0.313953488372093
sg40
S'yellow'
p44
sba(icurlovision
Stone
p45
(dp46
g37
F11.162790697674419
sg38
F-12.976744186046512
sg39
F0.313953488372093
sg40
S'yellow'
p47
sbasba(icurlovision
StoneLayout
p48
(dp49
g32
F0.4791666666666667
sg33
(lp50
(icurlovision
Stone
p51
(dp52
g37
F8.357142857142858
sg38
F0.2602040816326531
sg39
F0.44387755102040816
sg40
S'yellow'
p53
sba(icurlovision
Stone
p54
(dp55
g37
F-1.5
sg38
F0.07653061224489796
sg39
F0.3214285714285714
sg40
S'red'
p56
sbasba(icurlovision
StoneLayout
p57
(dp58
g32
F0.4791666666666667
sg33
(lp59
(icurlovision
Stone
p60
(dp61
g37
F8.390625
sg38
F1.171875
sg39
F0.4375
sg40
S'yellow'
p62
sba(icurlovision
Stone
p63
(dp64
g37
F-1.546875
sg38
F0.078125
sg39
F0.328125
sg40
S'red'
p65
sba(icurlovision
Stone
p66
(dp67
g37
F8.390625
sg38
F0.265625
sg39
F0.34375
sg40
S'yellow'
p68
sbasba(icurlovision
StoneLayout
p69
(dp70
g32
F0.4791666666666667
sg33
(lp71
(icurlovision
Stone
p72
(dp73
g37
F-1.1785714285714286
sg38
F-0.7806122448979592
sg39
F0.336734693877551
sg40
S'red'
p74
sba(icurlovision
Stone
p75
(dp76
g37
F8.494897959183673
sg38
F0.2602040816326531
sg39
F0.44387755102040816
sg40
S'yellow'
p77
sba(icurlovision
Stone
p78
(dp79
g37
F8.494897959183673
sg38
F1.2091836734693877
sg39
F0.2755102040816326
sg40
S'yellow'
p80
sba(icurlovision
Stone
p81
(dp82
g37
F-1.8520408163265305
sg38
F0.29081632653061223
sg39
F0.29081632653061223
sg40
S'red'
p83
sbasba(icurlovision
StoneLayout
p84
(dp85
g32
F0.4791666666666667
sg33
(lp86
(icurlovision
Stone
p87
(dp88
g37
F-1.1686046511627908
sg38
F1.5872093023255813
sg39
F0.3488372093023256
sg40
S'yellow'
p89
sba(icurlovision
Stone
p90
(dp91
g37
F8.668604651162791
sg38
F1.2034883720930232
sg39
F0.45348837209302323
sg40
S'yellow'
p92
sba(icurlovision
Stone
p93
(dp94
g37
F-5.1104651162790695
sg38
F-2.738372093023256
sg39
F0.3488372093023256
sg40
S'red'
p95
sba(icurlovision
Stone
p96
(dp97
g37
F8.703488372093023
sg38
F0.22674418604651161
sg39
F0.3313953488372093
sg40
S'yellow'
p98
sba(icurlovision
Stone
p99
(dp100
g37
F-1.9360465116279069
sg38
F0.22674418604651161
sg39
F0.45348837209302323
sg40
S'red'
p101
sba(icurlovision
Stone
p102
(dp103
g37
F9.401162790697674
sg38
F-12.994186046511627
sg39
F0.313953488372093
sg40
S'yellow'
p104
sbasba(icurlovision
StoneLayout
p105
(dp106
g32
F0.4791666666666667
sg33
(lp107
(icurlovision
Stone
p108
(dp109
g37
F-1.1686046511627908
sg38
F1.622093023255814
sg39
F0.4883720930232558
sg40
S'yellow'
p110
sba(icurlovision
Stone
p111
(dp112
g37
F8.668604651162791
sg38
F1.2383720930232558
sg39
F0.436046511627907
sg40
S'yellow'
p113
sba(icurlovision
Stone
p114
(dp115
g37
F8.668604651162791
sg38
F0.2616279069767442
sg39
F0.436046511627907
sg40
S'yellow'
p116
sba(icurlovision
Stone
p117
(dp118
g37
F-0.05232558139534883
sg38
F0.6453488372093024
sg39
F0.3488372093023256
sg40
S'red'
p119
sba(icurlovision
Stone
p120
(dp121
g37
F-5.145348837209302
sg38
F-2.738372093023256
sg39
F0.45348837209302323
sg40
S'red'
p122
sba(icurlovision
Stone
p123
(dp124
g37
F-1.9709302325581395
sg38
F0.3313953488372093
sg39
F0.3313953488372093
sg40
S'red'
p125
sba(icurlovision
Stone
p126
(dp127
g37
F9.784883720930232
sg38
F-13.029069767441861
sg39
F0.2616279069767442
sg40
S'yellow'
p128
sbasba(icurlovision
StoneLayout
p129
(dp130
g32
F0.4791666666666667
sg33
(lp131
(icurlovision
Stone
p132
(dp133
g37
F-1.1686046511627908
sg38
F1.5872093023255813
sg39
F0.3313953488372093
sg40
S'yellow'
p134
sba(icurlovision
Stone
p135
(dp136
g37
F8.738372093023255
sg38
F0.2616279069767442
sg39
F0.3488372093023256
sg40
S'yellow'
p137
sba(icurlovision
Stone
p138
(dp139
g37
F-1.9709302325581395
sg38
F0.2616279069767442
sg39
F0.47093023255813954
sg40
S'red'
p140
sba(icurlovision
Stone
p141
(dp142
g37
F-5.180232558139535
sg38
F-2.7732558139534884
sg39
F0.2965116279069767
sg40
S'red'
p143
sba(icurlovision
Stone
p144
(dp145
g37
F8.703488372093023
sg38
F1.2034883720930232
sg39
F0.27906976744186046
sg40
S'yellow'
p146
sba(icurlovision
Stone
p147
(dp148
g37
F-0.05232558139534883
sg38
F0.6104651162790697
sg39
F0.3488372093023256
sg40
S'red'
p149
sba(icurlovision
Stone
p150
(dp151
g37
F9.784883720930232
sg38
F-13.063953488372093
sg39
F0.27906976744186046
sg40
S'yellow'
p152
sbasba(icurlovision
StoneLayout
p153
(dp154
g32
F0.4791666666666667
sg33
(lp155
(icurlovision
Stone
p156
(dp157
g37
F-2.264705882352941
sg38
F0.5
sg39
F0.3529411764705882
sg40
S'red'
p158
sba(icurlovision
Stone
p159
(dp160
g37
F-1.7647058823529411
sg38
F-0.7058823529411764
sg39
F0.3382352941176471
sg40
S'yellow'
p161
sba(icurlovision
Stone
p162
(dp163
g37
F8.558823529411764
sg38
F1.2058823529411764
sg39
F0.4411764705882353
sg40
S'yellow'
p164
sba(icurlovision
Stone
p165
(dp166
g37
F8.558823529411764
sg38
F0.2647058823529412
sg39
F0.27941176470588236
sg40
S'yellow'
p167
sba(icurlovision
Stone
p168
(dp169
g37
F-1.2058823529411764
sg38
F1.5588235294117647
sg39
F0.47058823529411764
sg40
S'yellow'
p170
sba(icurlovision
Stone
p171
(dp172
g37
F-5.147058823529412
sg38
F-2.7058823529411766
sg39
F0.3529411764705882
sg40
S'red'
p173
sba(icurlovision
Stone
p174
(dp175
g37
F0.9411764705882353
sg38
F0.38235294117647056
sg39
F0.3235294117647059
sg40
S'red'
p176
sba(icurlovision
Stone
p177
(dp178
g37
F-0.11764705882352941
sg38
F0.6176470588235294
sg39
F0.45588235294117646
sg40
S'red'
p179
sbasba(icurlovision
StoneLayout
p180
(dp181
g32
F0.4791666666666667
sg33
(lp182
(icurlovision
Stone
p183
(dp184
g37
F8.601063829787233
sg38
F1.2606382978723403
sg39
F0.4627659574468085
sg40
S'yellow'
p185
sba(icurlovision
Stone
p186
(dp187
g37
F-1.1648936170212765
sg38
F1.6117021276595744
sg39
F0.33510638297872336
sg40
S'yellow'
p188
sba(icurlovision
Stone
p189
(dp190
g37
F-1.7393617021276595
sg38
F-0.6861702127659574
sg39
F0.33510638297872336
sg40
S'yellow'
p191
sba(icurlovision
Stone
p192
(dp193
g37
F8.601063829787233
sg38
F0.3031914893617021
sg39
F0.44680851063829785
sg40
S'yellow'
p194
sba(icurlovision
Stone
p195
(dp196
g37
F2.4095744680851063
sg38
F-0.2712765957446808
sg39
F0.4787234042553191
sg40
S'yellow'
p197
sba(icurlovision
Stone
p198
(dp199
g37
F-2.2180851063829787
sg38
F0.49468085106382975
sg39
F0.4627659574468085
sg40
S'red'
p200
sba(icurlovision
Stone
p201
(dp202
g37
F-5.090425531914893
sg38
F-2.6968085106382977
sg39
F0.4787234042553191
sg40
S'red'
p203
sba(icurlovision
Stone
p204
(dp205
g37
F1.0053191489361701
sg38
F0.39893617021276595
sg39
F0.33510638297872336
sg40
S'red'
p206
sba(icurlovision
Stone
p207
(dp208
g37
F-0.07978723404255318
sg38
F0.6542553191489361
sg39
F0.33510638297872336
sg40
S'red'
p209
sbasba(icurlovision
StoneLayout
p210
(dp211
g32
F0.4791666666666667
sg33
(lp212
(icurlovision
Stone
p213
(dp214
g37
F-1.6646341463414633
sg38
F1.5914634146341462
sg39
F0.3475609756097561
sg40
S'yellow'
p215
sba(icurlovision
Stone
p216
(dp217
g37
F8.871951219512194
sg38
F1.2621951219512195
sg39
F0.47560975609756095
sg40
S'yellow'
p218
sba(icurlovision
Stone
p219
(dp220
g37
F-1.7743902439024388
sg38
F-0.7134146341463414
sg39
F0.3292682926829268
sg40
S'yellow'
p221
sba(icurlovision
Stone
p222
(dp223
g37
F-5.286585365853658
sg38
F-2.835365853658536
sg39
F0.25609756097560976
sg40
S'red'
p224
sba(icurlovision
Stone
p225
(dp226
g37
F8.871951219512194
sg38
F0.274390243902439
sg39
F0.47560975609756095
sg40
S'yellow'
p227
sba(icurlovision
Stone
p228
(dp229
g37
F2.469512195121951
sg38
F-0.31097560975609756
sg39
F0.49390243902439024
sg40
S'yellow'
p230
sba(icurlovision
Stone
p231
(dp232
g37
F1.0060975609756098
sg38
F0.3475609756097561
sg39
F0.45731707317073167
sg40
S'red'
p233
sba(icurlovision
Stone
p234
(dp235
g37
F-0.274390243902439
sg38
F1.8109756097560974
sg39
F0.31097560975609756
sg40
S'red'
p236
sba(icurlovision
Stone
p237
(dp238
g37
F-2.2865853658536586
sg38
F0.5304878048780487
sg39
F0.3475609756097561
sg40
S'red'
p239
sba(icurlovision
Stone
p240
(dp241
g37
F10.884146341463413
sg38
F-13.628048780487804
sg39
F0.3292682926829268
sg40
S'yellow'
p242
sbasba(icurlovision
StoneLayout
p243
(dp244
g32
F0.4791666666666667
sg33
(lp245
(icurlovision
Stone
p246
(dp247
g37
F-1.75
sg38
F-0.71875
sg39
F0.328125
sg40
S'yellow'
p248
sba(icurlovision
Stone
p249
(dp250
g37
F0.6875
sg38
F1.71875
sg39
F0.328125
sg40
S'yellow'
p251
sba(icurlovision
Stone
p252
(dp253
g37
F-1.8125
sg38
F1.59375
sg39
F0.4375
sg40
S'yellow'
p254
sba(icurlovision
Stone
p255
(dp256
g37
F-0.6875
sg38
F1.6875
sg39
F0.34375
sg40
S'red'
p257
sba(icurlovision
Stone
p258
(dp259
g37
F2.40625
sg38
F-0.3125
sg39
F0.328125
sg40
S'yellow'
p260
sba(icurlovision
Stone
p261
(dp262
g37
F-2.21875
sg38
F0.5
sg39
F0.34375
sg40
S'red'
p263
sba(icurlovision
Stone
p264
(dp265
g37
F-5.125
sg38
F-2.71875
sg39
F0.34375
sg40
S'red'
p266
sba(icurlovision
Stone
p267
(dp268
g37
F8.59375
sg38
F0.28125
sg39
F0.296875
sg40
S'yellow'
p269
sba(icurlovision
Stone
p270
(dp271
g37
F8.59375
sg38
F1.21875
sg39
F0.453125
sg40
S'yellow'
p272
sba(icurlovision
Stone
p273
(dp274
g37
F0.96875
sg38
F0.40625
sg39
F0.328125
sg40
S'red'
p275
sbasba(icurlovision
StoneLayout
p276
(dp277
g32
F0.4791666666666667
sg33
(lp278
(icurlovision
Stone
p279
(dp280
g37
F0.21634615384615385
sg38
F1.5432692307692308
sg39
F0.3317307692307693
sg40
S'yellow'
p281
sba(icurlovision
Stone
p282
(dp283
g37
F-2.466346153846154
sg38
F-1.5721153846153848
sg39
F0.3317307692307693
sg40
S'yellow'
p284
sba(icurlovision
Stone
p285
(dp286
g37
F-1.8028846153846154
sg38
F1.5432692307692308
sg39
F0.46153846153846156
sg40
S'yellow'
p287
sba(icurlovision
Stone
p288
(dp289
g37
F-2.206730769230769
sg38
F0.5048076923076923
sg39
F0.46153846153846156
sg40
S'red'
p290
sba(icurlovision
Stone
p291
(dp292
g37
F-1.7451923076923077
sg38
F-0.7067307692307693
sg39
F0.31730769230769235
sg40
S'yellow'
p293
sba(icurlovision
Stone
p294
(dp295
g37
F8.58173076923077
sg38
F0.27403846153846156
sg39
F0.31730769230769235
sg40
S'yellow'
p296
sba(icurlovision
Stone
p297
(dp298
g37
F1.4278846153846154
sg38
F2.2355769230769234
sg39
F0.3317307692307693
sg40
S'red'
p299
sba(icurlovision
Stone
p300
(dp301
g37
F8.58173076923077
sg38
F1.2259615384615385
sg39
F0.4326923076923077
sg40
S'yellow'
p302
sba(icurlovision
Stone
p303
(dp304
g37
F-0.764423076923077
sg38
F1.6875
sg39
F0.44711538461538464
sg40
S'red'
p305
sba(icurlovision
Stone
p306
(dp307
g37
F2.3509615384615388
sg38
F-0.3317307692307693
sg39
F0.46153846153846156
sg40
S'yellow'
p308
sba(icurlovision
Stone
p309
(dp310
g37
F-5.091346153846154
sg38
F-2.6971153846153846
sg39
F0.46153846153846156
sg40
S'red'
p311
sba(icurlovision
Stone
p312
(dp313
g37
F0.9375
sg38
F0.3894230769230769
sg39
F0.44711538461538464
sg40
S'red'
p314
sbasba(icurlovision
StoneLayout
p315
(dp316
g32
F0.4791666666666667
sg33
(lp317
(icurlovision
Stone
p318
(dp319
g37
F-2.495192307692308
sg38
F-1.6009615384615385
sg39
F0.34615384615384615
sg40
S'yellow'
p320
sba(icurlovision
Stone
p321
(dp322
g37
F0.21634615384615385
sg38
F1.4855769230769231
sg39
F0.31730769230769235
sg40
S'yellow'
p323
sba(icurlovision
Stone
p324
(dp325
g37
F-1.8028846153846154
sg38
F1.514423076923077
sg39
F0.46153846153846156
sg40
S'yellow'
p326
sba(icurlovision
Stone
p327
(dp328
g37
F-2.2355769230769234
sg38
F0.4759615384615385
sg39
F0.46153846153846156
sg40
S'red'
p329
sba(icurlovision
Stone
p330
(dp331
g37
F-5.0625
sg38
F-2.6971153846153846
sg39
F0.31730769230769235
sg40
S'red'
p332
sba(icurlovision
Stone
p333
(dp334
g37
F8.610576923076923
sg38
F1.1971153846153846
sg39
F0.3605769230769231
sg40
S'yellow'
p335
sba(icurlovision
Stone
p336
(dp337
g37
F1.4278846153846154
sg38
F2.206730769230769
sg39
F0.34615384615384615
sg40
S'red'
p338
sba(icurlovision
Stone
p339
(dp340
g37
F-1.7451923076923077
sg38
F-0.7355769230769231
sg39
F0.46153846153846156
sg40
S'yellow'
p341
sba(icurlovision
Stone
p342
(dp343
g37
F-0.7355769230769231
sg38
F1.6586538461538463
sg39
F0.34615384615384615
sg40
S'red'
p344
sba(icurlovision
Stone
p345
(dp346
g37
F2.3509615384615388
sg38
F-0.3317307692307693
sg39
F0.46153846153846156
sg40
S'yellow'
p347
sba(icurlovision
Stone
p348
(dp349
g37
F8.610576923076923
sg38
F0.2451923076923077
sg39
F0.3028846153846154
sg40
S'yellow'
p350
sba(icurlovision
Stone
p351
(dp352
g37
F0.9375
sg38
F0.3317307692307693
sg39
F0.46153846153846156
sg40
S'red'
p353
sbasba(icurlovision
StoneLayout
p354
(dp355
g32
F0.4791666666666667
sg33
(lp356
(icurlovision
Stone
p357
(dp358
g37
F0.2712765957446808
sg38
F1.547872340425532
sg39
F0.33510638297872336
sg40
S'yellow'
p359
sba(icurlovision
Stone
p360
(dp361
g37
F-1.803191489361702
sg38
F-0.7499999999999999
sg39
F0.33510638297872336
sg40
S'yellow'
p362
sba(icurlovision
Stone
p363
(dp364
g37
F-2.5372340425531914
sg38
F-1.6436170212765957
sg39
F0.4627659574468085
sg40
S'yellow'
p365
sba(icurlovision
Stone
p366
(dp367
g37
F-1.8351063829787233
sg38
F1.5797872340425532
sg39
F0.4787234042553191
sg40
S'yellow'
p368
sba(icurlovision
Stone
p369
(dp370
g37
F-2.2819148936170213
sg38
F0.49468085106382975
sg39
F0.4787234042553191
sg40
S'red'
p371
sba(icurlovision
Stone
p372
(dp373
g37
F8.792553191489361
sg38
F0.23936170212765956
sg39
F0.4787234042553191
sg40
S'yellow'
p374
sba(icurlovision
Stone
p375
(dp376
g37
F1.5159574468085104
sg38
F2.2819148936170213
sg39
F0.3670212765957446
sg40
S'red'
p377
sba(icurlovision
Stone
p378
(dp379
g37
F0.175531914893617
sg38
F-1.547872340425532
sg39
F0.4787234042553191
sg40
S'red'
p380
sba(icurlovision
Stone
p381
(dp382
g37
F1.0053191489361701
sg38
F0.3670212765957446
sg39
F0.3670212765957446
sg40
S'red'
p383
sba(icurlovision
Stone
p384
(dp385
g37
F8.856382978723403
sg38
F1.228723404255319
sg39
F0.33510638297872336
sg40
S'yellow'
p386
sba(icurlovision
Stone
p387
(dp388
g37
F2.4414893617021276
sg38
F-0.33510638297872336
sg39
F0.3191489361702127
sg40
S'yellow'
p389
sbasba(icurlovision
StoneLayout
p390
(dp391
g32
F0.4791666666666667
sg33
(lp392
(icurlovision
Stone
p393
(dp394
g37
F-2.5255102040816326
sg38
F-1.6683673469387754
sg39
F0.336734693877551
sg40
S'yellow'
p395
sba(icurlovision
Stone
p396
(dp397
g37
F0.29081632653061223
sg38
F1.5459183673469388
sg39
F0.336734693877551
sg40
S'yellow'
p398
sba(icurlovision
Stone
p399
(dp400
g37
F-1.8214285714285714
sg38
F1.5765306122448979
sg39
F0.4744897959183673
sg40
S'yellow'
p401
sba(icurlovision
Stone
p402
(dp403
g37
F-3.4132653061224487
sg38
F-0.3826530612244898
sg39
F0.336734693877551
sg40
S'yellow'
p404
sba(icurlovision
Stone
p405
(dp406
g37
F-0.9030612244897959
sg38
F-1.2091836734693877
sg39
F0.336734693877551
sg40
S'red'
p407
sba(icurlovision
Stone
p408
(dp409
g37
F1.5153061224489797
sg38
F2.2806122448979593
sg39
F0.4744897959183673
sg40
S'red'
p410
sba(icurlovision
Stone
p411
(dp412
g37
F0.9948979591836734
sg38
F-2.1581632653061225
sg39
F0.336734693877551
sg40
S'yellow'
p413
sba(icurlovision
Stone
p414
(dp415
g37
F8.923469387755102
sg38
F1.2704081632653061
sg39
F0.4744897959183673
sg40
S'yellow'
p416
sba(icurlovision
Stone
p417
(dp418
g37
F-0.7193877551020408
sg38
F1.7295918367346939
sg39
F0.36734693877551017
sg40
S'red'
p419
sba(icurlovision
Stone
p420
(dp421
g37
F-2.2806122448979593
sg38
F0.5357142857142857
sg39
F0.4897959183673469
sg40
S'red'
p422
sba(icurlovision
Stone
p423
(dp424
g37
F2.4948979591836733
sg38
F-0.3520408163265306
sg39
F0.4744897959183673
sg40
S'yellow'
p425
sba(icurlovision
Stone
p426
(dp427
g37
F8.923469387755102
sg38
F0.3214285714285714
sg39
F0.4897959183673469
sg40
S'yellow'
p428
sba(icurlovision
Stone
p429
(dp430
g37
F1.0255102040816326
sg38
F0.3520408163265306
sg39
F0.4744897959183673
sg40
S'red'
p431
sba(icurlovision
Stone
p432
(dp433
g37
F-5.25
sg38
F-2.8622448979591835
sg39
F0.2755102040816326
sg40
S'red'
p434
sbasbasg3
I4
sS'red_hammer'
p435
I1
sba(icurlovision
EndResult
p436
(dp437
g2
I2
sg10
(lp438
(I7
I7
tp439
a(I6
I7
tp440
a(I6
I6
tp441
a(I5
I6
tp442
a(I4
I4
tp443
a(I3
I4
tp444
a(I3
I3
tp445
a(I2
I3
tp446
a(I2
I2
tp447
a(I1
I2
tp448
a(I1
I1
tp449
a(I0
I1
tp450
asg27
I2
sg28
(lp451
(icurlovision
StoneLayout
p452
(dp453
g32
F0.4791666666666667
sg33
(lp454
(icurlovision
Stone
p455
(dp456
g37
F14.75625
sg38
F-2.26875
sg39
F0.4125
sg40
S'yellow'
p457
sba(icurlovision
Stone
p458
(dp459
g37
F9.35625
sg38
F15.581249999999999
sg39
F0.43124999999999997
sg40
S'red'
p460
sba(icurlovision
Stone
p461
(dp462
g37
F1.74375
sg38
F0.01875
sg39
F0.4125
sg40
S'red'
p463
sba(icurlovision
Stone
p464
(dp465
g37
F14.53125
sg38
F-14.00625
sg39
F0.3
sg40
S'yellow'
p466
sbasba(icurlovision
StoneLayout
p467
(dp468
g32
F0.4791666666666667
sg33
(lp469
(icurlovision
Stone
p470
(dp471
g37
F2.4329268292682924
sg38
F16.298780487804876
sg39
F0.2926829268292683
sg40
S'red'
p472
sba(icurlovision
Stone
p473
(dp474
g37
F14.689024390243901
sg38
F-2.469512195121951
sg39
F0.42073170731707316
sg40
S'yellow'
p475
sba(icurlovision
Stone
p476
(dp477
g37
F9.567073170731707
sg38
F15.493902439024389
sg39
F0.25609756097560976
sg40
S'red'
p478
sba(icurlovision
Stone
p479
(dp480
g37
F5.908536585365853
sg38
F-0.5304878048780487
sg39
F0.31097560975609756
sg40
S'red'
p481
sba(icurlovision
Stone
p482
(dp483
g37
F1.7378048780487805
sg38
F0.018292682926829267
sg39
F0.3292682926829268
sg40
S'red'
p484
sba(icurlovision
Stone
p485
(dp486
g37
F13.152439024390244
sg38
F-13.44512195121951
sg39
F0.2926829268292683
sg40
S'yellow'
p487
sbasba(icurlovision
StoneLayout
p488
(dp489
g32
F0.4791666666666667
sg33
(lp490
(icurlovision
Stone
p491
(dp492
g37
F15.217105263157894
sg38
F-1.7171052631578947
sg39
F0.41447368421052627
sg40
S'yellow'
p493
sba(icurlovision
Stone
p494
(dp495
g37
F9.730263157894736
sg38
F15.493421052631579
sg39
F0.43421052631578944
sg40
S'red'
p496
sba(icurlovision
Stone
p497
(dp498
g37
F14.664473684210526
sg38
F-2.7434210526315788
sg39
F0.43421052631578944
sg40
S'yellow'
p499
sba(icurlovision
Stone
p500
(dp501
g37
F1.7171052631578947
sg38
F-0.019736842105263157
sg39
F0.2763157894736842
sg40
S'red'
p502
sba(icurlovision
Stone
p503
(dp504
g37
F6.059210526315789
sg38
F-0.5328947368421052
sg39
F0.43421052631578944
sg40
S'red'
p505
sba(icurlovision
Stone
p506
(dp507
g37
F11.348684210526315
sg38
F-18.25657894736842
sg39
F0.41447368421052627
sg40
S'yellow'
p508
sba(icurlovision
Stone
p509
(dp510
g37
F2.5460526315789473
sg38
F16.32236842105263
sg39
F0.35526315789473684
sg40
S'red'
p511
sba(icurlovision
Stone
p512
(dp513
g37
F14.269736842105262
sg38
F-14.50657894736842
sg39
F0.23684210526315788
sg40
S'yellow'
p514
sbasba(icurlovision
StoneLayout
p515
(dp516
g32
F0.4791666666666667
sg33
(lp517
(icurlovision
Stone
p518
(dp519
g37
F6.988636363636363
sg38
F14.249999999999998
sg39
F0.32386363636363635
sg40
S'red'
p520
sba(icurlovision
Stone
p521
(dp522
g37
F1.6704545454545454
sg38
F0.03409090909090909
sg39
F0.32386363636363635
sg40
S'red'
p523
sba(icurlovision
Stone
p524
(dp525
g37
F9.886363636363635
sg38
F-12.443181818181817
sg39
F0.2727272727272727
sg40
S'yellow'
p526
sbasba(icurlovision
StoneLayout
p527
(dp528
g32
F0.4791666666666667
sg33
(lp529
(icurlovision
Stone
p530
(dp531
g37
F1.6527777777777777
sg38
F0.013888888888888888
sg39
F0.3055555555555555
sg40
S'red'
p532
sbasba(icurlovision
StoneLayout
p533
(dp534
g32
F0.4791666666666667
sg33
(lp535
(icurlovision
Stone
p536
(dp537
g37
F0.4264705882352941
sg38
F5.5
sg39
F0.3529411764705882
sg40
S'red'
p538
sba(icurlovision
Stone
p539
(dp540
g37
F1.6617647058823528
sg38
F0.029411764705882353
sg39
F0.3676470588235294
sg40
S'red'
p541
sbasba(icurlovision
StoneLayout
p542
(dp543
g32
F0.4791666666666667
sg33
(lp544
(icurlovision
Stone
p545
(dp546
g37
F2.601063829787234
sg38
F0.2074468085106383
sg39
F0.33510638297872336
sg40
S'yellow'
p547
sba(icurlovision
Stone
p548
(dp549
g37
F6.941489361702127
sg38
F14.122340425531913
sg39
F0.3191489361702127
sg40
S'red'
p550
sba(icurlovision
Stone
p551
(dp552
g37
F0.4627659574468085
sg38
F5.441489361702128
sg39
F0.3031914893617021
sg40
S'red'
p553
sba(icurlovision
Stone
p554
(dp555
g37
F1.547872340425532
sg38
F-0.015957446808510637
sg39
F0.4627659574468085
sg40
S'red'
p556
sba(icurlovision
Stone
p557
(dp558
g37
F8.952127659574467
sg38
F-6.2712765957446805
sg39
F0.3031914893617021
sg40
S'yellow'
p559
sbasba(icurlovision
StoneLayout
p560
(dp561
g32
F0.4791666666666667
sg33
(lp562
(icurlovision
Stone
p563
(dp564
g37
F0.75
sg38
F4.56
sg39
F0.315
sg40
S'yellow'
p565
sba(icurlovision
Stone
p566
(dp567
g37
F6.8999999999999995
sg38
F14.219999999999999
sg39
F0.315
sg40
S'red'
p568
sbasba(icurlovision
StoneLayout
p569
(dp570
g32
F0.4791666666666667
sg33
(lp571
(icurlovision
Stone
p572
(dp573
g37
F0.765625
sg38
F4.640625
sg39
F0.328125
sg40
S'yellow'
p574
sba(icurlovision
Stone
p575
(dp576
g37
F7.078125
sg38
F14.390625
sg39
F0.28125
sg40
S'red'
p577
sba(icurlovision
Stone
p578
(dp579
g37
F1.515625
sg38
F-4.265625
sg39
F0.46875
sg40
S'yellow'
p580
sbasba(icurlovision
StoneLayout
p581
(dp582
g32
F0.4791666666666667
sg33
(lp583
(icurlovision
Stone
p584
(dp585
g37
F0.75
sg38
F4.563559322033899
sg39
F0.3305084745762712
sg40
S'yellow'
p586
sba(icurlovision
Stone
p587
(dp588
g37
F2.2245762711864407
sg38
F-3.6228813559322037
sg39
F0.35593220338983056
sg40
S'red'
p589
sba(icurlovision
Stone
p590
(dp591
g37
F-6.3940677966101696
sg38
F-5.65677966101695
sg39
F0.3432203389830509
sg40
S'yellow'
p592
sbasba(icurlovision
StoneLayout
p593
(dp594
g32
F0.4791666666666667
sg33
(lp595
(icurlovision
Stone
p596
(dp597
g37
F0.7216981132075472
sg38
F4.627358490566038
sg39
F0.32547169811320753
sg40
S'yellow'
p598
sba(icurlovision
Stone
p599
(dp600
g37
F3.2122641509433962
sg38
F-3.5235849056603774
sg39
F0.32547169811320753
sg40
S'yellow'
p601
sbasba(icurlovision
StoneLayout
p602
(dp603
g32
F0.4791666666666667
sg33
(lp604
(icurlovision
Stone
p605
(dp606
g37
F0.75
sg38
F4.635
sg39
F0.3
sg40
S'yellow'
p607
sba(icurlovision
Stone
p608
(dp609
g37
F4.05
sg38
F-3.5549999999999997
sg39
F0.36
sg40
S'red'
p610
sbasbasg3
I4
sg435
I0
sba(icurlovision
EndResult
p611
(dp612
g2
I2
sg10
(lp613
(I8
I7
tp614
a(I7
I7
tp615
a(I7
I6
tp616
a(I6
I6
tp617
a(I6
I5
tp618
a(I5
I5
tp619
a(I5
I4
tp620
a(I4
I4
tp621
a(I4
I3
tp622
a(I3
I2
tp623
a(I2
I2
tp624
a(I2
I1
tp625
a(I1
I1
tp626
a(I1
I0
tp627
asg27
I3
sg28
(lp628
(icurlovision
StoneLayout
p629
(dp630
g32
F0.4791666666666667
sg33
(lp631
(icurlovision
Stone
p632
(dp633
g37
F10.8
sg38
F-0.43333333333333335
sg39
F0.43333333333333335
sg40
S'yellow'
p634
sbasba(icurlovision
StoneLayout
p635
(dp636
g32
F0.4791666666666667
sg33
(lp637
(icurlovision
Stone
p638
(dp639
g37
F10.813953488372093
sg38
F-0.41860465116279066
sg39
F0.3313953488372093
sg40
S'yellow'
p640
sba(icurlovision
Stone
p641
(dp642
g37
F0.2441860465116279
sg38
F-0.13953488372093023
sg39
F0.45348837209302323
sg40
S'red'
p643
sba(icurlovision
Stone
p644
(dp645
g37
F10.220930232558139
sg38
F-13.011627906976743
sg39
F0.313953488372093
sg40
S'yellow'
p646
sbasba(icurlovision
StoneLayout
p647
(dp648
g32
F0.4791666666666667
sg33
(lp649
(icurlovision
Stone
p650
(dp651
g37
F0.11931818181818181
sg38
F-0.11931818181818181
sg39
F0.47727272727272724
sg40
S'red'
p652
sba(icurlovision
Stone
p653
(dp654
g37
F11.130681818181817
sg38
F-0.4261363636363636
sg39
F0.4602272727272727
sg40
S'yellow'
p655
sba(icurlovision
Stone
p656
(dp657
g37
F1.1079545454545454
sg38
F0.1875
sg39
F0.4602272727272727
sg40
S'yellow'
p658
sba(icurlovision
Stone
p659
(dp660
g37
F-2.0965909090909087
sg38
F-15.562499999999998
sg39
F0.3579545454545454
sg40
S'yellow'
p661
sba(icurlovision
Stone
p662
(dp663
g37
F11.369318181818182
sg38
F-12.698863636363635
sg39
F0.30681818181818177
sg40
S'yellow'
p664
sbasba(icurlovision
StoneLayout
p665
(dp666
g32
F0.4791666666666667
sg33
(lp667
(icurlovision
Stone
p668
(dp669
g37
F0.11413043478260869
sg38
F-0.11413043478260869
sg39
F0.30978260869565216
sg40
S'red'
p670
sba(icurlovision
Stone
p671
(dp672
g37
F1.9402173913043477
sg38
F0.6358695652173912
sg39
F0.27717391304347827
sg40
S'red'
p673
sba(icurlovision
Stone
p674
(dp675
g37
F0.9945652173913043
sg38
F0.1793478260869565
sg39
F0.32608695652173914
sg40
S'yellow'
p676
sba(icurlovision
Stone
p677
(dp678
g37
F10.744565217391305
sg38
F-0.34239130434782605
sg39
F0.358695652173913
sg40
S'yellow'
p679
sba(icurlovision
Stone
p680
(dp681
g37
F9.701086956521738
sg38
F-12.114130434782608
sg39
F0.30978260869565216
sg40
S'yellow'
p682
sba(icurlovision
Stone
p683
(dp684
g37
F9.668478260869565
sg38
F-4.157608695652174
sg39
F0.2934782608695652
sg40
S'yellow'
p685
sbasba(icurlovision
StoneLayout
p686
(dp687
g32
F0.4791666666666667
sg33
(lp688
(icurlovision
Stone
p689
(dp690
g37
F1.9468085106382977
sg38
F0.6063829787234042
sg39
F0.4627659574468085
sg40
S'red'
p691
sba(icurlovision
Stone
p692
(dp693
g37
F0.9893617021276595
sg38
F0.1276595744680851
sg39
F0.4627659574468085
sg40
S'yellow'
p694
sba(icurlovision
Stone
p695
(dp696
g37
F0.09574468085106383
sg38
F-0.1276595744680851
sg39
F0.33510638297872336
sg40
S'red'
p697
sbasba(icurlovision
StoneLayout
p698
(dp699
g32
F0.4791666666666667
sg33
(lp700
(icurlovision
Stone
p701
(dp702
g37
F0.07211538461538462
sg38
F-0.12980769230769232
sg39
F0.3605769230769231
sg40
S'red'
p703
sba(icurlovision
Stone
p704
(dp705
g37
F0.9951923076923077
sg38
F0.12980769230769232
sg39
F0.34615384615384615
sg40
S'yellow'
p706
sba(icurlovision
Stone
p707
(dp708
g37
F1.9471153846153848
sg38
F0.6201923076923077
sg39
F0.4759615384615385
sg40
S'red'
p709
sba(icurlovision
Stone
p710
(dp711
g37
F0.7067307692307693
sg38
F-1.5432692307692308
sg39
F0.2884615384615385
sg40
S'red'
p712
sbasba(icurlovision
StoneLayout
p713
(dp714
g32
F0.4791666666666667
sg33
(lp715
(icurlovision
Stone
p716
(dp717
g37
F1.95
sg38
F0.63
sg39
F0.285
sg40
S'red'
p718
sba(icurlovision
Stone
p719
(dp720
g37
F0.96
sg38
F0.12
sg39
F0.44999999999999996
sg40
S'yellow'
p721
sba(icurlovision
Stone
p722
(dp723
g37
F3.57
sg38
F-0.21
sg39
F0.44999999999999996
sg40
S'yellow'
p724
sba(icurlovision
Stone
p725
(dp726
g37
F0.69
sg38
F-1.5
sg39
F0.315
sg40
S'red'
p727
sbasba(icurlovision
StoneLayout
p728
(dp729
g32
F0.4791666666666667
sg33
(lp730
(icurlovision
Stone
p731
(dp732
g37
F3.2542372881355934
sg38
F-4.932203389830509
sg39
F0.3305084745762712
sg40
S'yellow'
p733
sba(icurlovision
Stone
p734
(dp735
g37
F-0.9152542372881356
sg38
F4.5
sg39
F0.35593220338983056
sg40
S'yellow'
p736
sba(icurlovision
Stone
p737
(dp738
g37
F1.7796610169491527
sg38
F0.9661016949152543
sg39
F0.3305084745762712
sg40
S'red'
p739
sba(icurlovision
Stone
p740
(dp741
g37
F4.194915254237288
sg38
F0.38135593220338987
sg39
F0.35593220338983056
sg40
S'red'
p742
sbasba(icurlovision
StoneLayout
p743
(dp744
g32
F0.4791666666666667
sg33
(lp745
(icurlovision
Stone
p746
(dp747
g37
F3.296875
sg38
F-5.078125
sg39
F0.328125
sg40
S'yellow'
p748
sba(icurlovision
Stone
p749
(dp750
g37
F-0.921875
sg38
F4.640625
sg39
F0.3125
sg40
S'yellow'
p751
sba(icurlovision
Stone
p752
(dp753
g37
F1.828125
sg38
F0.921875
sg39
F0.359375
sg40
S'red'
p754
sba(icurlovision
Stone
p755
(dp756
g37
F3.203125
sg38
F4.078125
sg39
F0.3125
sg40
S'yellow'
p757
sbasba(icurlovision
StoneLayout
p758
(dp759
g32
F0.4791666666666667
sg33
(lp760
(icurlovision
Stone
p761
(dp762
g37
F3.225
sg38
F-4.95
sg39
F0.3
sg40
S'yellow'
p763
sba(icurlovision
Stone
p764
(dp765
g37
F2.475
sg38
F0.36
sg39
F0.44999999999999996
sg40
S'yellow'
p766
sba(icurlovision
Stone
p767
(dp768
g37
F3.135
sg38
F3.9299999999999997
sg39
F0.315
sg40
S'yellow'
p769
sba(icurlovision
Stone
p770
(dp771
g37
F-0.885
sg38
F4.5
sg39
F0.44999999999999996
sg40
S'yellow'
p772
sba(icurlovision
Stone
p773
(dp774
g37
F3.375
sg38
F-3.33
sg39
F0.36
sg40
S'red'
p775
sba(icurlovision
Stone
p776
(dp777
g37
F-2.715
sg38
F1.3199999999999998
sg39
F0.345
sg40
S'yellow'
p778
sbasba(icurlovision
StoneLayout
p779
(dp780
g32
F0.4791666666666667
sg33
(lp781
(icurlovision
Stone
p782
(dp783
g37
F3.3125
sg38
F-4.984375
sg39
F0.4375
sg40
S'yellow'
p784
sba(icurlovision
Stone
p785
(dp786
g37
F-0.9375
sg38
F4.578125
sg39
F0.34375
sg40
S'yellow'
p787
sba(icurlovision
Stone
p788
(dp789
g37
F3.15625
sg38
F4.015625
sg39
F0.359375
sg40
S'yellow'
p790
sba(icurlovision
Stone
p791
(dp792
g37
F3.4375
sg38
F-3.296875
sg39
F0.34375
sg40
S'red'
p793
sba(icurlovision
Stone
p794
(dp795
g37
F2.75
sg38
F1.765625
sg39
F0.34375
sg40
S'red'
p796
sbasba(icurlovision
StoneLayout
p797
(dp798
g32
F0.4791666666666667
sg33
(lp799
(icurlovision
Stone
p800
(dp801
g37
F3.204545454545454
sg38
F-4.875
sg39
F0.32386363636363635
sg40
S'yellow'
p802
sba(icurlovision
Stone
p803
(dp804
g37
F2.829545454545454
sg38
F0.03409090909090909
sg39
F0.4431818181818181
sg40
S'yellow'
p805
sba(icurlovision
Stone
p806
(dp807
g37
F-0.8522727272727272
sg38
F4.465909090909091
sg39
F0.32386363636363635
sg40
S'yellow'
p808
sba(icurlovision
Stone
p809
(dp810
g37
F3.102272727272727
sg38
F3.920454545454545
sg39
F0.32386363636363635
sg40
S'yellow'
p811
sba(icurlovision
Stone
p812
(dp813
g37
F3.3749999999999996
sg38
F-3.2386363636363633
sg39
F0.32386363636363635
sg40
S'red'
p814
sba(icurlovision
Stone
p815
(dp816
g37
F2.2840909090909087
sg38
F-14.897727272727272
sg39
F0.30681818181818177
sg40
S'red'
p817
sbasba(icurlovision
StoneLayout
p818
(dp819
g32
F0.4791666666666667
sg33
(lp820
(icurlovision
Stone
p821
(dp822
g37
F3.3125
sg38
F-5.03125
sg39
F0.296875
sg40
S'yellow'
p823
sba(icurlovision
Stone
p824
(dp825
g37
F-0.90625
sg38
F4.625
sg39
F0.34375
sg40
S'yellow'
p826
sba(icurlovision
Stone
p827
(dp828
g37
F3.21875
sg38
F4.03125
sg39
F0.296875
sg40
S'yellow'
p829
sba(icurlovision
Stone
p830
(dp831
g37
F3.46875
sg38
F-3.375
sg39
F0.453125
sg40
S'red'
p832
sbasba(icurlovision
StoneLayout
p833
(dp834
g32
F0.4791666666666667
sg33
(lp835
(icurlovision
Stone
p836
(dp837
g37
F2.9870689655172415
sg38
F-0.6594827586206896
sg39
F0.3232758620689655
sg40
S'yellow'
p838
sba(icurlovision
Stone
p839
(dp840
g37
F-0.9439655172413793
sg38
F4.564655172413793
sg39
F0.3232758620689655
sg40
S'yellow'
p841
sba(icurlovision
Stone
p842
(dp843
g37
F3.3491379310344827
sg38
F-5.004310344827586
sg39
F0.33620689655172414
sg40
S'yellow'
p844
sba(icurlovision
Stone
p845
(dp846
g37
F3.1422413793103448
sg38
F4.047413793103448
sg39
F0.3620689655172414
sg40
S'yellow'
p847
sbasbasg3
I5
sg435
I1
sba(icurlovision
EndResult
p848
(dp849
g2
I4
sg10
(lp850
(I7
I8
tp851
a(I7
I7
tp852
a(I6
I6
tp853
a(I5
I6
tp854
a(I4
I5
tp855
a(I4
I4
tp856
a(I3
I4
tp857
a(I3
I3
tp858
a(I2
I3
tp859
a(I2
I2
tp860
a(I1
I2
tp861
a(I1
I1
tp862
a(I0
I1
tp863
asg27
I4
sg28
(lp864
(icurlovision
StoneLayout
p865
(dp866
g32
F0.4791666666666667
sg33
(lp867
(icurlovision
Stone
p868
(dp869
g37
F1.716346153846154
sg38
F-0.014423076923076924
sg39
F0.4759615384615385
sg40
S'red'
p870
sbasba(icurlovision
StoneLayout
p871
(dp872
g32
F0.4791666666666667
sg33
(lp873
(icurlovision
Stone
p874
(dp875
g37
F11.103658536585366
sg38
F-2.9085365853658534
sg39
F0.45731707317073167
sg40
S'yellow'
p876
sba(icurlovision
Stone
p877
(dp878
g37
F1.225609756097561
sg38
F-16.115853658536583
sg39
F0.4390243902439024
sg40
S'red'
p879
sba(icurlovision
Stone
p880
(dp881
g37
F12.091463414634145
sg38
F16.40853658536585
sg39
F0.40243902439024387
sg40
S'red'
p882
sba(icurlovision
Stone
p883
(dp884
g37
F1.6646341463414633
sg38
F0.018292682926829267
sg39
F0.3475609756097561
sg40
S'red'
p885
sba(icurlovision
Stone
p886
(dp887
g37
F11.286585365853657
sg38
F-13.44512195121951
sg39
F0.274390243902439
sg40
S'yellow'
p888
sbasba(icurlovision
StoneLayout
p889
(dp890
g32
F0.4791666666666667
sg33
(lp891
(icurlovision
Stone
p892
(dp893
g37
F2.3048780487804876
sg38
F-0.7682926829268292
sg39
F0.45731707317073167
sg40
S'yellow'
p894
sba(icurlovision
Stone
p895
(dp896
g37
F8.963414634146341
sg38
F-1.097560975609756
sg39
F0.4390243902439024
sg40
S'red'
p897
sba(icurlovision
Stone
p898
(dp899
g37
F7.7560975609756095
sg38
F16.20731707317073
sg39
F0.4390243902439024
sg40
S'red'
p900
sba(icurlovision
Stone
p901
(dp902
g37
F11.378048780487804
sg38
F-2.9634146341463414
sg39
F0.45731707317073167
sg40
S'yellow'
p903
sba(icurlovision
Stone
p904
(dp905
g37
F-5.012195121951219
sg38
F1.1341463414634145
sg39
F0.36585365853658536
sg40
S'red'
p906
sba(icurlovision
Stone
p907
(dp908
g37
F10.792682926829267
sg38
F-3.512195121951219
sg39
F0.3292682926829268
sg40
S'yellow'
p909
sba(icurlovision
Stone
p910
(dp911
g37
F10.865853658536585
sg38
F-13.353658536585366
sg39
F0.2926829268292683
sg40
S'yellow'
p912
sbasba(icurlovision
StoneLayout
p913
(dp914
g32
F0.4791666666666667
sg33
(lp915
(icurlovision
Stone
p916
(dp917
g37
F11.25
sg38
F-2.966666666666667
sg39
F0.45
sg40
S'yellow'
p918
sba(icurlovision
Stone
p919
(dp920
g37
F6.75
sg38
F4.233333333333333
sg39
F0.45
sg40
S'red'
p921
sba(icurlovision
Stone
p922
(dp923
g37
F2.3166666666666664
sg38
F-0.7666666666666666
sg39
F0.3333333333333333
sg40
S'yellow'
p924
sbasba(icurlovision
StoneLayout
p925
(dp926
g32
F0.4791666666666667
sg33
(lp927
(icurlovision
Stone
p928
(dp929
g37
F-2.808139534883721
sg38
F0.5755813953488372
sg39
F0.313953488372093
sg40
S'red'
p930
sba(icurlovision
Stone
p931
(dp932
g37
F11.075581395348838
sg38
F-2.808139534883721
sg39
F0.436046511627907
sg40
S'yellow'
p933
sba(icurlovision
Stone
p934
(dp935
g37
F6.470930232558139
sg38
F4.238372093023256
sg39
F0.436046511627907
sg40
S'red'
p936
sba(icurlovision
Stone
p937
(dp938
g37
F7.447674418604651
sg38
F15.854651162790697
sg39
F0.41860465116279066
sg40
S'red'
p939
sba(icurlovision
Stone
p940
(dp941
g37
F11.284883720930232
sg38
F-12.924418604651162
sg39
F0.2965116279069767
sg40
S'yellow'
p942
sbasba(icurlovision
StoneLayout
p943
(dp944
g32
F0.4791666666666667
sg33
(lp945
(icurlovision
Stone
p946
(dp947
g37
F-2.82
sg38
F0.57
sg39
F0.44999999999999996
sg40
S'red'
p948
sba(icurlovision
Stone
p949
(dp950
g37
F6.39
sg38
F4.14
sg39
F0.435
sg40
S'red'
p951
sba(icurlovision
Stone
p952
(dp953
g37
F10.92
sg38
F-2.85
sg39
F0.345
sg40
S'yellow'
p954
sba(icurlovision
Stone
p955
(dp956
g37
F2.2199999999999998
sg38
F-2.52
sg39
F0.44999999999999996
sg40
S'yellow'
p957
sbasba(icurlovision
StoneLayout
p958
(dp959
g32
F0.4791666666666667
sg33
(lp960
(icurlovision
Stone
p961
(dp962
g37
F-2.9042553191489358
sg38
F0.6063829787234042
sg39
F0.351063829787234
sg40
S'red'
p963
sba(icurlovision
Stone
p964
(dp965
g37
F11.393617021276595
sg38
F-2.7765957446808507
sg39
F0.44680851063829785
sg40
S'yellow'
p966
sba(icurlovision
Stone
p967
(dp968
g37
F6.606382978723404
sg38
F4.404255319148936
sg39
F0.4627659574468085
sg40
S'red'
p969
sba(icurlovision
Stone
p970
(dp971
g37
F1.0851063829787233
sg38
F0.7659574468085106
sg39
F0.33510638297872336
sg40
S'red'
p972
sbasba(icurlovision
StoneLayout
p973
(dp974
g32
F0.4791666666666667
sg33
(lp975
(icurlovision
Stone
p976
(dp977
g37
F-2.890625
sg38
F0.59375
sg39
F0.46875
sg40
S'red'
p978
sba(icurlovision
Stone
p979
(dp980
g37
F1.984375
sg38
F0.5
sg39
F0.34375
sg40
S'yellow'
p981
sba(icurlovision
Stone
p982
(dp983
g37
F11.359375
sg38
F-2.96875
sg39
F0.4375
sg40
S'yellow'
p984
sba(icurlovision
Stone
p985
(dp986
g37
F6.671875
sg38
F4.25
sg39
F0.453125
sg40
S'red'
p987
sba(icurlovision
Stone
p988
(dp989
g37
F0.859375
sg38
F0.71875
sg39
F0.34375
sg40
S'red'
p990
sbasba(icurlovision
StoneLayout
p991
(dp992
g32
F0.4791666666666667
sg33
(lp993
(icurlovision
Stone
p994
(dp995
g37
F-2.8206521739130435
sg38
F0.5706521739130435
sg39
F0.32608695652173914
sg40
S'red'
p996
sba(icurlovision
Stone
p997
(dp998
g37
F6.4728260869565215
sg38
F4.125
sg39
F0.27717391304347827
sg40
S'red'
p999
sba(icurlovision
Stone
p1000
(dp1001
g37
F11.03804347826087
sg38
F-2.918478260869565
sg39
F0.42391304347826086
sg40
S'yellow'
p1002
sba(icurlovision
Stone
p1003
(dp1004
g37
F6.635869565217391
sg38
F0.8641304347826086
sg39
F0.32608695652173914
sg40
S'red'
p1005
sba(icurlovision
Stone
p1006
(dp1007
g37
F1.9076086956521738
sg38
F0.44021739130434784
sg39
F0.44021739130434784
sg40
S'yellow'
p1008
sba(icurlovision
Stone
p1009
(dp1010
g37
F0.8315217391304348
sg38
F0.733695652173913
sg39
F0.44021739130434784
sg40
S'red'
p1011
sba(icurlovision
Stone
p1012
(dp1013
g37
F3.4402173913043477
sg38
F15.63586956521739
sg39
F0.30978260869565216
sg40
S'red'
p1014
sbasba(icurlovision
StoneLayout
p1015
(dp1016
g32
F0.4791666666666667
sg33
(lp1017
(icurlovision
Stone
p1018
(dp1019
g37
F-2.8636363636363633
sg38
F0.6136363636363635
sg39
F0.4602272727272727
sg40
S'red'
p1020
sba(icurlovision
Stone
p1021
(dp1022
g37
F11.181818181818182
sg38
F-2.9318181818181817
sg39
F0.4431818181818181
sg40
S'yellow'
p1023
sba(icurlovision
Stone
p1024
(dp1025
g37
F2.5568181818181817
sg38
F-3.204545454545454
sg39
F0.32386363636363635
sg40
S'yellow'
p1026
sba(icurlovision
Stone
p1027
(dp1028
g37
F1.9431818181818181
sg38
F0.5454545454545454
sg39
F0.3579545454545454
sg40
S'yellow'
p1029
sba(icurlovision
Stone
p1030
(dp1031
g37
F6.545454545454545
sg38
F4.227272727272727
sg39
F0.4602272727272727
sg40
S'red'
p1032
sba(icurlovision
Stone
p1033
(dp1034
g37
F3.6818181818181817
sg38
F3.5113636363636362
sg39
F0.2727272727272727
sg40
S'red'
p1035
sba(icurlovision
Stone
p1036
(dp1037
g37
F4.261363636363636
sg38
F15.613636363636363
sg39
F0.32386363636363635
sg40
S'yellow'
p1038
sba(icurlovision
Stone
p1039
(dp1040
g37
F0.9886363636363635
sg38
F15.920454545454545
sg39
F0.30681818181818177
sg40
S'red'
p1041
sba(icurlovision
Stone
p1042
(dp1043
g37
F3.954545454545454
sg38
F-14.352272727272727
sg39
F0.4602272727272727
sg40
S'red'
p1044
sba(icurlovision
Stone
p1045
(dp1046
g37
F0.8522727272727272
sg38
F0.7840909090909091
sg39
F0.3409090909090909
sg40
S'red'
p1047
sba(icurlovision
Stone
p1048
(dp1049
g37
F10.056818181818182
sg38
F-12.443181818181817
sg39
F0.2727272727272727
sg40
S'yellow'
p1050
sbasba(icurlovision
StoneLayout
p1051
(dp1052
g32
F0.4791666666666667
sg33
(lp1053
(icurlovision
Stone
p1054
(dp1055
g37
F-2.945121951219512
sg38
F0.6219512195121951
sg39
F0.47560975609756095
sg40
S'red'
p1056
sba(icurlovision
Stone
p1057
(dp1058
g37
F3.786585365853658
sg38
F3.695121951219512
sg39
F0.4390243902439024
sg40
S'red'
p1059
sba(icurlovision
Stone
p1060
(dp1061
g37
F11.542682926829267
sg38
F-3.0
sg39
F0.45731707317073167
sg40
S'yellow'
p1062
sba(icurlovision
Stone
p1063
(dp1064
g37
F4.079268292682927
sg38
F-14.743902439024389
sg39
F0.45731707317073167
sg40
S'red'
p1065
sba(icurlovision
Stone
p1066
(dp1067
g37
F6.896341463414633
sg38
F0.18292682926829268
sg39
F0.31097560975609756
sg40
S'red'
p1068
sba(icurlovision
Stone
p1069
(dp1070
g37
F6.786585365853658
sg38
F4.390243902439024
sg39
F0.45731707317073167
sg40
S'red'
p1071
sba(icurlovision
Stone
p1072
(dp1073
g37
F1.0792682926829267
sg38
F16.353658536585364
sg39
F0.4390243902439024
sg40
S'red'
p1074
sba(icurlovision
Stone
p1075
(dp1076
g37
F2.6158536585365852
sg38
F-3.292682926829268
sg39
F0.31097560975609756
sg40
S'yellow'
p1077
sba(icurlovision
Stone
p1078
(dp1079
g37
F1.99390243902439
sg38
F0.548780487804878
sg39
F0.47560975609756095
sg40
S'yellow'
p1080
sba(icurlovision
Stone
p1081
(dp1082
g37
F0.823170731707317
sg38
F0.7682926829268292
sg39
F0.3475609756097561
sg40
S'red'
p1083
sba(icurlovision
Stone
p1084
(dp1085
g37
F4.371951219512195
sg38
F16.024390243902438
sg39
F0.3292682926829268
sg40
S'yellow'
p1086
sba(icurlovision
Stone
p1087
(dp1088
g37
F11.542682926829267
sg38
F-13.646341463414632
sg39
F0.2926829268292683
sg40
S'yellow'
p1089
sbasba(icurlovision
StoneLayout
p1090
(dp1091
g32
F0.4791666666666667
sg33
(lp1092
(icurlovision
Stone
p1093
(dp1094
g37
F7.6875
sg38
F0.50625
sg39
F0.46875
sg40
S'yellow'
p1095
sba(icurlovision
Stone
p1096
(dp1097
g37
F3.8249999999999997
sg38
F3.65625
sg39
F0.2625
sg40
S'red'
p1098
sba(icurlovision
Stone
p1099
(dp1100
g37
F-3.0
sg38
F0.61875
sg39
F0.46875
sg40
S'red'
p1101
sba(icurlovision
Stone
p1102
(dp1103
g37
F11.6625
sg38
F-3.05625
sg39
F0.35625
sg40
S'yellow'
p1104
sba(icurlovision
Stone
p1105
(dp1106
g37
F4.0874999999999995
sg38
F-14.868749999999999
sg39
F0.31875
sg40
S'red'
p1107
sba(icurlovision
Stone
p1108
(dp1109
g37
F1.7999999999999998
sg38
F0.80625
sg39
F0.375
sg40
S'yellow'
p1110
sba(icurlovision
Stone
p1111
(dp1112
g37
F2.625
sg38
F-3.3562499999999997
sg39
F0.33749999999999997
sg40
S'yellow'
p1113
sba(icurlovision
Stone
p1114
(dp1115
g37
F6.7875
sg38
F4.3687499999999995
sg39
F0.3
sg40
S'red'
p1116
sba(icurlovision
Stone
p1117
(dp1118
g37
F1.0125
sg38
F16.443749999999998
sg39
F0.3
sg40
S'red'
p1119
sba(icurlovision
Stone
p1120
(dp1121
g37
F4.425
sg38
F16.068749999999998
sg39
F0.31875
sg40
S'yellow'
p1122
sba(icurlovision
Stone
p1123
(dp1124
g37
F10.799999999999999
sg38
F-13.706249999999999
sg39
F0.3
sg40
S'yellow'
p1125
sbasba(icurlovision
StoneLayout
p1126
(dp1127
g32
F0.4791666666666667
sg33
(lp1128
(icurlovision
Stone
p1129
(dp1130
g37
F-2.846938775510204
sg38
F0.6122448979591837
sg39
F0.45918367346938777
sg40
S'red'
p1131
sba(icurlovision
Stone
p1132
(dp1133
g37
F7.408163265306122
sg38
F0.4897959183673469
sg39
F0.336734693877551
sg40
S'yellow'
p1134
sba(icurlovision
Stone
p1135
(dp1136
g37
F1.7142857142857142
sg38
F0.7959183673469388
sg39
F0.4744897959183673
sg40
S'yellow'
p1137
sba(icurlovision
Stone
p1138
(dp1139
g37
F10.377551020408163
sg38
F-3.36734693877551
sg39
F0.44387755102040816
sg40
S'yellow'
p1140
sba(icurlovision
Stone
p1141
(dp1142
g37
F6.581632653061225
sg38
F4.255102040816326
sg39
F0.44387755102040816
sg40
S'red'
p1143
sba(icurlovision
Stone
p1144
(dp1145
g37
F3.673469387755102
sg38
F3.520408163265306
sg39
F0.44387755102040816
sg40
S'red'
p1146
sba(icurlovision
Stone
p1147
(dp1148
g37
F2.5408163265306123
sg38
F-3.2142857142857144
sg39
F0.3214285714285714
sg40
S'yellow'
p1149
sba(icurlovision
Stone
p1150
(dp1151
g37
F9.061224489795919
sg38
F-0.21428571428571427
sg39
F0.44387755102040816
sg40
S'red'
p1152
sba(icurlovision
Stone
p1153
(dp1154
g37
F3.9795918367346936
sg38
F-14.540816326530612
sg39
F0.42857142857142855
sg40
S'red'
p1155
sbasbasg3
I5
sg435
I0
sba(icurlovision
EndResult
p1156
(dp1157
g2
I5
sg10
(lp1158
(I8
I7
tp1159
a(I7
I7
tp1160
a(I7
I6
tp1161
a(I6
I6
tp1162
a(I6
I5
tp1163
a(I5
I5
tp1164
a(I5
I4
tp1165
a(I4
I4
tp1166
a(I4
I3
tp1167
a(I3
I3
tp1168
a(I3
I2
tp1169
a(I2
I2
tp1170
a(I2
I1
tp1171
a(I1
I1
tp1172
a(I1
I0
tp1173
asg27
I5
sg28
(lp1174
(icurlovision
StoneLayout
p1175
(dp1176
g32
F0.4791666666666667
sg33
(lp1177
(icurlovision
Stone
p1178
(dp1179
g37
F10.806818181818182
sg38
F0.7159090909090908
sg39
F0.4431818181818181
sg40
S'yellow'
p1180
sba(icurlovision
Stone
p1181
(dp1182
g37
F10.261363636363635
sg38
F15.34090909090909
sg39
F0.30681818181818177
sg40
S'yellow'
p1183
sba(icurlovision
Stone
p1184
(dp1185
g37
F10.397727272727272
sg38
F-12.71590909090909
sg39
F0.2727272727272727
sg40
S'yellow'
p1186
sbasba(icurlovision
StoneLayout
p1187
(dp1188
g32
F0.4791666666666667
sg33
(lp1189
(icurlovision
Stone
p1190
(dp1191
g37
F11.05813953488372
sg38
F0.6976744186046512
sg39
F0.436046511627907
sg40
S'yellow'
p1192
sba(icurlovision
Stone
p1193
(dp1194
g37
F10.465116279069766
sg38
F15.69767441860465
sg39
F0.41860465116279066
sg40
S'yellow'
p1195
sba(icurlovision
Stone
p1196
(dp1197
g37
F11.511627906976743
sg38
F-13.186046511627907
sg39
F0.2965116279069767
sg40
S'yellow'
p1198
sbasba(icurlovision
StoneLayout
p1199
(dp1200
g32
F0.4791666666666667
sg33
(lp1201
(icurlovision
Stone
p1202
(dp1203
g37
F11.02659574468085
sg38
F0.7340425531914893
sg39
F0.44680851063829785
sg40
S'yellow'
p1204
sba(icurlovision
Stone
p1205
(dp1206
g37
F3.8457446808510634
sg38
F1.1170212765957446
sg39
F0.351063829787234
sg40
S'red'
p1207
sba(icurlovision
Stone
p1208
(dp1209
g37
F4.51595744680851
sg38
F0.2553191489361702
sg39
F0.28723404255319146
sg40
S'yellow'
p1210
sba(icurlovision
Stone
p1211
(dp1212
g37
F-4.164893617021276
sg38
F-1.4361702127659572
sg39
F0.28723404255319146
sg40
S'yellow'
p1213
sbasba(icurlovision
StoneLayout
p1214
(dp1215
g32
F0.4791666666666667
sg33
(lp1216
(icurlovision
Stone
p1217
(dp1218
g37
F-3.3662790697674416
sg38
F0.2965116279069767
sg39
F0.47093023255813954
sg40
S'red'
p1219
sba(icurlovision
Stone
p1220
(dp1221
g37
F10.970930232558139
sg38
F0.7151162790697674
sg39
F0.436046511627907
sg40
S'yellow'
p1222
sba(icurlovision
Stone
p1223
(dp1224
g37
F3.8546511627906974
sg38
F1.0988372093023255
sg39
F0.3488372093023256
sg40
S'red'
p1225
sba(icurlovision
Stone
p1226
(dp1227
g37
F4.5523255813953485
sg38
F0.19186046511627908
sg39
F0.313953488372093
sg40
S'yellow'
p1228
sba(icurlovision
Stone
p1229
(dp1230
g37
F10.238372093023255
sg38
F-12.994186046511627
sg39
F0.313953488372093
sg40
S'yellow'
p1231
sba(icurlovision
Stone
p1232
(dp1233
g37
F11.215116279069766
sg38
F-12.994186046511627
sg39
F0.313953488372093
sg40
S'yellow'
p1234
sbasba(icurlovision
StoneLayout
p1235
(dp1236
g32
F0.4791666666666667
sg33
(lp1237
(icurlovision
Stone
p1238
(dp1239
g37
F-3.433333333333333
sg38
F0.3
sg39
F0.4666666666666667
sg40
S'red'
p1240
sba(icurlovision
Stone
p1241
(dp1242
g37
F11.066666666666666
sg38
F0.7333333333333333
sg39
F0.3
sg40
S'yellow'
p1243
sba(icurlovision
Stone
p1244
(dp1245
g37
F-1.6
sg38
F-0.16666666666666666
sg39
F0.3333333333333333
sg40
S'yellow'
p1246
sba(icurlovision
Stone
p1247
(dp1248
g37
F3.8333333333333335
sg38
F1.1
sg39
F0.3333333333333333
sg40
S'red'
p1249
sba(icurlovision
Stone
p1250
(dp1251
g37
F4.5
sg38
F0.2
sg39
F0.4666666666666667
sg40
S'yellow'
p1252
sba(icurlovision
Stone
p1253
(dp1254
g37
F10.033333333333333
sg38
F-12.4
sg39
F0.3
sg40
S'yellow'
p1255
sbasba(icurlovision
StoneLayout
p1256
(dp1257
g32
F0.4791666666666667
sg33
(lp1258
(icurlovision
Stone
p1259
(dp1260
g37
F-3.4261363636363633
sg38
F0.28977272727272724
sg39
F0.47727272727272724
sg40
S'red'
p1261
sba(icurlovision
Stone
p1262
(dp1263
g37
F-1.9261363636363635
sg38
F-0.11931818181818181
sg39
F0.3409090909090909
sg40
S'yellow'
p1264
sba(icurlovision
Stone
p1265
(dp1266
g37
F11.130681818181817
sg38
F0.6988636363636364
sg39
F0.4431818181818181
sg40
S'yellow'
p1267
sba(icurlovision
Stone
p1268
(dp1269
g37
F-0.6306818181818181
sg38
F-0.3579545454545454
sg39
F0.3579545454545454
sg40
S'red'
p1270
sba(icurlovision
Stone
p1271
(dp1272
g37
F3.903409090909091
sg38
F1.0738636363636362
sg39
F0.3579545454545454
sg40
S'red'
p1273
sba(icurlovision
Stone
p1274
(dp1275
g37
F4.5852272727272725
sg38
F0.1875
sg39
F0.32386363636363635
sg40
S'yellow'
p1276
sba(icurlovision
Stone
p1277
(dp1278
g37
F11.130681818181817
sg38
F-12.664772727272727
sg39
F0.3579545454545454
sg40
S'yellow'
p1279
sbasba(icurlovision
StoneLayout
p1280
(dp1281
g32
F0.4791666666666667
sg33
(lp1282
(icurlovision
Stone
p1283
(dp1284
g37
F-3.5384615384615388
sg38
F0.23076923076923078
sg39
F0.5
sg40
S'red'
p1285
sba(icurlovision
Stone
p1286
(dp1287
g37
F11.538461538461538
sg38
F0.6923076923076923
sg39
F0.46153846153846156
sg40
S'yellow'
p1288
sba(icurlovision
Stone
p1289
(dp1290
g37
F-2.0
sg38
F-0.19230769230769232
sg39
F0.34615384615384615
sg40
S'yellow'
p1291
sba(icurlovision
Stone
p1292
(dp1293
g37
F0.34615384615384615
sg38
F-0.46153846153846156
sg39
F0.34615384615384615
sg40
S'yellow'
p1294
sba(icurlovision
Stone
p1295
(dp1296
g37
F4.038461538461538
sg38
F1.076923076923077
sg39
F0.46153846153846156
sg40
S'red'
p1297
sba(icurlovision
Stone
p1298
(dp1299
g37
F-0.7307692307692308
sg38
F-0.38461538461538464
sg39
F0.4807692307692308
sg40
S'red'
p1300
sba(icurlovision
Stone
p1301
(dp1302
g37
F4.730769230769231
sg38
F0.19230769230769232
sg39
F0.3653846153846154
sg40
S'yellow'
p1303
sba(icurlovision
Stone
p1304
(dp1305
g37
F11.461538461538462
sg38
F-14.461538461538462
sg39
F0.23076923076923078
sg40
S'yellow'
p1306
sbasba(icurlovision
StoneLayout
p1307
(dp1308
g32
F0.4791666666666667
sg33
(lp1309
(icurlovision
Stone
p1310
(dp1311
g37
F-1.8879310344827587
sg38
F-0.10344827586206896
sg39
F0.46551724137931033
sg40
S'yellow'
p1312
sba(icurlovision
Stone
p1313
(dp1314
g37
F-3.336206896551724
sg38
F0.28448275862068967
sg39
F0.46551724137931033
sg40
S'red'
p1315
sba(icurlovision
Stone
p1316
(dp1317
g37
F3.7758620689655173
sg38
F1.0862068965517242
sg39
F0.3620689655172414
sg40
S'red'
p1318
sba(icurlovision
Stone
p1319
(dp1320
g37
F0.28448275862068967
sg38
F-0.41379310344827586
sg39
F0.33620689655172414
sg40
S'yellow'
p1321
sba(icurlovision
Stone
p1322
(dp1323
g37
F-0.6982758620689655
sg38
F-0.28448275862068967
sg39
F0.34913793103448276
sg40
S'red'
p1324
sba(icurlovision
Stone
p1325
(dp1326
g37
F4.448275862068965
sg38
F0.20689655172413793
sg39
F0.34913793103448276
sg40
S'yellow'
p1327
sbasba(icurlovision
StoneLayout
p1328
(dp1329
g32
F0.4791666666666667
sg33
(lp1330
(icurlovision
Stone
p1331
(dp1332
g37
F-1.9615384615384617
sg38
F-0.11538461538461539
sg39
F0.46153846153846156
sg40
S'yellow'
p1333
sba(icurlovision
Stone
p1334
(dp1335
g37
F-3.4615384615384617
sg38
F0.3076923076923077
sg39
F0.3269230769230769
sg40
S'red'
p1336
sba(icurlovision
Stone
p1337
(dp1338
g37
F13.53846153846154
sg38
F0.2692307692307693
sg39
F0.25
sg40
S'yellow'
p1339
sba(icurlovision
Stone
p1340
(dp1341
g37
F0.3076923076923077
sg38
F-0.42307692307692313
sg39
F0.3269230769230769
sg40
S'yellow'
p1342
sba(icurlovision
Stone
p1343
(dp1344
g37
F-0.6923076923076923
sg38
F-0.34615384615384615
sg39
F0.3269230769230769
sg40
S'red'
p1345
sba(icurlovision
Stone
p1346
(dp1347
g37
F3.9230769230769234
sg38
F1.076923076923077
sg39
F0.46153846153846156
sg40
S'red'
p1348
sba(icurlovision
Stone
p1349
(dp1350
g37
F6.653846153846154
sg38
F-18.230769230769234
sg39
F0.42307692307692313
sg40
S'yellow'
p1351
sba(icurlovision
Stone
p1352
(dp1353
g37
F4.615384615384616
sg38
F0.19230769230769232
sg39
F0.34615384615384615
sg40
S'yellow'
p1354
sba(icurlovision
Stone
p1355
(dp1356
g37
F13.230769230769232
sg38
F16.26923076923077
sg39
F0.46153846153846156
sg40
S'yellow'
p1357
sba(icurlovision
Stone
p1358
(dp1359
g37
F13.26923076923077
sg38
F-14.653846153846155
sg39
F0.25
sg40
S'yellow'
p1360
sbasba(icurlovision
StoneLayout
p1361
(dp1362
g32
F0.4791666666666667
sg33
(lp1363
(icurlovision
Stone
p1364
(dp1365
g37
F-3.3461538461538463
sg38
F0.3076923076923077
sg39
F0.46153846153846156
sg40
S'red'
p1366
sba(icurlovision
Stone
p1367
(dp1368
g37
F-1.8846153846153848
sg38
F-0.11538461538461539
sg39
F0.46153846153846156
sg40
S'yellow'
p1369
sba(icurlovision
Stone
p1370
(dp1371
g37
F13.730769230769232
sg38
F0.34615384615384615
sg39
F0.40384615384615385
sg40
S'red'
p1372
sba(icurlovision
Stone
p1373
(dp1374
g37
F0.3076923076923077
sg38
F-0.38461538461538464
sg39
F0.3269230769230769
sg40
S'yellow'
p1375
sba(icurlovision
Stone
p1376
(dp1377
g37
F-4.653846153846154
sg38
F15.307692307692308
sg39
F0.46153846153846156
sg40
S'red'
p1378
sba(icurlovision
Stone
p1379
(dp1380
g37
F6.5
sg38
F-17.461538461538463
sg39
F0.40384615384615385
sg40
S'yellow'
p1381
sba(icurlovision
Stone
p1382
(dp1383
g37
F4.615384615384616
sg38
F-1.5
sg39
F0.3269230769230769
sg40
S'yellow'
p1384
sba(icurlovision
Stone
p1385
(dp1386
g37
F9.384615384615385
sg38
F18.115384615384617
sg39
F0.40384615384615385
sg40
S'yellow'
p1387
sbasba(icurlovision
StoneLayout
p1388
(dp1389
g32
F0.4791666666666667
sg33
(lp1390
(icurlovision
Stone
p1391
(dp1392
g37
F9.786585365853657
sg38
F-0.75
sg39
F0.42073170731707316
sg40
S'yellow'
p1393
sba(icurlovision
Stone
p1394
(dp1395
g37
F-3.274390243902439
sg38
F0.274390243902439
sg39
F0.45731707317073167
sg40
S'red'
p1396
sba(icurlovision
Stone
p1397
(dp1398
g37
F-1.8841463414634145
sg38
F-0.09146341463414634
sg39
F0.3292682926829268
sg40
S'yellow'
p1399
sba(icurlovision
Stone
p1400
(dp1401
g37
F13.262195121951219
sg38
F0.3475609756097561
sg39
F0.2926829268292683
sg40
S'red'
p1402
sba(icurlovision
Stone
p1403
(dp1404
g37
F0.274390243902439
sg38
F-14.50609756097561
sg39
F0.31097560975609756
sg40
S'yellow'
p1405
sba(icurlovision
Stone
p1406
(dp1407
g37
F-4.628048780487805
sg38
F14.871951219512194
sg39
F0.4390243902439024
sg40
S'red'
p1408
sba(icurlovision
Stone
p1409
(dp1410
g37
F4.445121951219512
sg38
F-1.4451219512195121
sg39
F0.31097560975609756
sg40
S'yellow'
p1411
sba(icurlovision
Stone
p1412
(dp1413
g37
F-0.7134146341463414
sg38
F-0.274390243902439
sg39
F0.3292682926829268
sg40
S'red'
p1414
sba(icurlovision
Stone
p1415
(dp1416
g37
F0.274390243902439
sg38
F-0.3841463414634146
sg39
F0.31097560975609756
sg40
S'yellow'
p1417
sba(icurlovision
Stone
p1418
(dp1419
g37
F12.054878048780488
sg38
F-13.701219512195122
sg39
F0.274390243902439
sg40
S'yellow'
p1420
sba(icurlovision
Stone
p1421
(dp1422
g37
F13.079268292682926
sg38
F-13.701219512195122
sg39
F0.274390243902439
sg40
S'yellow'
p1423
sbasba(icurlovision
StoneLayout
p1424
(dp1425
g32
F0.4791666666666667
sg33
(lp1426
(icurlovision
Stone
p1427
(dp1428
g37
F-1.909090909090909
sg38
F-0.10227272727272727
sg39
F0.4431818181818181
sg40
S'yellow'
p1429
sba(icurlovision
Stone
p1430
(dp1431
g37
F-3.340909090909091
sg38
F0.2727272727272727
sg39
F0.47727272727272724
sg40
S'red'
p1432
sba(icurlovision
Stone
p1433
(dp1434
g37
F10.09090909090909
sg38
F-0.8181818181818181
sg39
F0.4602272727272727
sg40
S'yellow'
p1435
sba(icurlovision
Stone
p1436
(dp1437
g37
F0.2727272727272727
sg38
F-0.375
sg39
F0.32386363636363635
sg40
S'yellow'
p1438
sba(icurlovision
Stone
p1439
(dp1440
g37
F4.534090909090909
sg38
F-1.4659090909090908
sg39
F0.30681818181818177
sg40
S'yellow'
p1441
sba(icurlovision
Stone
p1442
(dp1443
g37
F-4.840909090909091
sg38
F15.511363636363635
sg39
F0.32386363636363635
sg40
S'red'
p1444
sba(icurlovision
Stone
p1445
(dp1446
g37
F-0.7159090909090908
sg38
F-0.30681818181818177
sg39
F0.3409090909090909
sg40
S'red'
p1447
sba(icurlovision
Stone
p1448
(dp1449
g37
F9.818181818181817
sg38
F-12.681818181818182
sg39
F0.2727272727272727
sg40
S'yellow'
p1450
sbasba(icurlovision
StoneLayout
p1451
(dp1452
g32
F0.4791666666666667
sg33
(lp1453
(icurlovision
Stone
p1454
(dp1455
g37
F10.551136363636363
sg38
F-0.9034090909090908
sg39
F0.4602272727272727
sg40
S'yellow'
p1456
sba(icurlovision
Stone
p1457
(dp1458
g37
F-3.4943181818181817
sg38
F0.22159090909090906
sg39
F0.3409090909090909
sg40
S'red'
p1459
sba(icurlovision
Stone
p1460
(dp1461
g37
F6.937499999999999
sg38
F-0.6647727272727272
sg39
F0.3579545454545454
sg40
S'yellow'
p1462
sba(icurlovision
Stone
p1463
(dp1464
g37
F0.28977272727272724
sg38
F-0.4602272727272727
sg39
F0.3409090909090909
sg40
S'yellow'
p1465
sba(icurlovision
Stone
p1466
(dp1467
g37
F-1.9602272727272725
sg38
F-0.15340909090909088
sg39
F0.47727272727272724
sg40
S'yellow'
p1468
sba(icurlovision
Stone
p1469
(dp1470
g37
F4.7556818181818175
sg38
F-1.5852272727272727
sg39
F0.3409090909090909
sg40
S'yellow'
p1471
sba(icurlovision
Stone
p1472
(dp1473
g37
F1.7556818181818181
sg38
F-14.710227272727272
sg39
F0.4602272727272727
sg40
S'yellow'
p1474
sba(icurlovision
Stone
p1475
(dp1476
g37
F11.369318181818182
sg38
F-12.732954545454545
sg39
F0.30681818181818177
sg40
S'yellow'
p1477
sba(icurlovision
Stone
p1478
(dp1479
g37
F10.414772727272727
sg38
F-12.732954545454545
sg39
F0.32386363636363635
sg40
S'yellow'
p1480
sbasba(icurlovision
StoneLayout
p1481
(dp1482
g32
F0.4791666666666667
sg33
(lp1483
(icurlovision
Stone
p1484
(dp1485
g37
F-3.435
sg38
F0.285
sg39
F0.46499999999999997
sg40
S'red'
p1486
sba(icurlovision
Stone
p1487
(dp1488
g37
F-1.905
sg38
F-0.105
sg39
F0.46499999999999997
sg40
S'yellow'
p1489
sba(icurlovision
Stone
p1490
(dp1491
g37
F6.795
sg38
F-0.585
sg39
F0.46499999999999997
sg40
S'yellow'
p1492
sba(icurlovision
Stone
p1493
(dp1494
g37
F0.285
sg38
F-0.40499999999999997
sg39
F0.46499999999999997
sg40
S'yellow'
p1495
sba(icurlovision
Stone
p1496
(dp1497
g37
F-0.705
sg38
F-0.315
sg39
F0.32999999999999996
sg40
S'red'
p1498
sba(icurlovision
Stone
p1499
(dp1500
g37
F4.665
sg38
F-1.515
sg39
F0.36
sg40
S'yellow'
p1501
sbasba(icurlovision
StoneLayout
p1502
(dp1503
g32
F0.4791666666666667
sg33
(lp1504
(icurlovision
Stone
p1505
(dp1506
g37
F7.159090909090908
sg38
F-0.75
sg39
F0.375
sg40
S'yellow'
p1507
sba(icurlovision
Stone
p1508
(dp1509
g37
F-2.0795454545454546
sg38
F-0.20454545454545453
sg39
F0.47727272727272724
sg40
S'yellow'
p1510
sba(icurlovision
Stone
p1511
(dp1512
g37
F0.2727272727272727
sg38
F-0.5113636363636364
sg39
F0.3579545454545454
sg40
S'yellow'
p1513
sba(icurlovision
Stone
p1514
(dp1515
g37
F6.681818181818182
sg38
F0.3409090909090909
sg39
F0.375
sg40
S'yellow'
p1516
sba(icurlovision
Stone
p1517
(dp1518
g37
F-3.6477272727272725
sg38
F0.2727272727272727
sg39
F0.5113636363636364
sg40
S'red'
p1519
sba(icurlovision
Stone
p1520
(dp1521
g37
F4.875
sg38
F-1.7045454545454544
sg39
F0.32386363636363635
sg40
S'yellow'
p1522
sba(icurlovision
Stone
p1523
(dp1524
g37
F-0.7840909090909091
sg38
F-0.40909090909090906
sg39
F0.3409090909090909
sg40
S'red'
p1525
sba(icurlovision
Stone
p1526
(dp1527
g37
F1.7386363636363635
sg38
F-15.477272727272727
sg39
F0.49431818181818177
sg40
S'yellow'
p1528
sbasbasg3
I5
sg435
I1
sba(icurlovision
EndResult
p1529
(dp1530
g2
I6
sg10
(lp1531
(I8
I7
tp1532
a(I7
I6
tp1533
a(I6
I6
tp1534
a(I6
I5
tp1535
a(I5
I5
tp1536
a(I5
I4
tp1537
a(I4
I4
tp1538
a(I4
I3
tp1539
a(I3
I3
tp1540
a(I3
I2
tp1541
a(I2
I2
tp1542
a(I2
I1
tp1543
a(I1
I1
tp1544
a(I1
I0
tp1545
asg27
I6
sg28
(lp1546
(icurlovision
StoneLayout
p1547
(dp1548
g32
F0.4791666666666667
sg33
(lp1549
(icurlovision
Stone
p1550
(dp1551
g37
F9.813829787234042
sg38
F0.175531914893617
sg39
F0.351063829787234
sg40
S'yellow'
p1552
sba(icurlovision
Stone
p1553
(dp1554
g37
F-4.898936170212766
sg38
F-5.6010638297872335
sg39
F0.4627659574468085
sg40
S'yellow'
p1555
sbasba(icurlovision
StoneLayout
p1556
(dp1557
g32
F0.4791666666666667
sg33
(lp1558
(icurlovision
Stone
p1559
(dp1560
g37
F2.559782608695652
sg38
F0.42391304347826086
sg39
F0.32608695652173914
sg40
S'yellow'
p1561
sba(icurlovision
Stone
p1562
(dp1563
g37
F9.53804347826087
sg38
F0.16304347826086957
sg39
F0.32608695652173914
sg40
S'yellow'
p1564
sba(icurlovision
Stone
p1565
(dp1566
g37
F0.5380434782608695
sg38
F0.358695652173913
sg39
F0.44021739130434784
sg40
S'red'
p1567
sba(icurlovision
Stone
p1568
(dp1569
g37
F9.081521739130434
sg38
F-11.934782608695652
sg39
F0.2934782608695652
sg40
S'yellow'
p1570
sbasba(icurlovision
StoneLayout
p1571
(dp1572
g32
F0.4791666666666667
sg33
(lp1573
(icurlovision
Stone
p1574
(dp1575
g37
F2.451923076923077
sg38
F0.4903846153846154
sg39
F0.4326923076923077
sg40
S'yellow'
p1576
sba(icurlovision
Stone
p1577
(dp1578
g37
F9.375
sg38
F0.17307692307692307
sg39
F0.4326923076923077
sg40
S'yellow'
p1579
sba(icurlovision
Stone
p1580
(dp1581
g37
F1.6730769230769231
sg38
F-0.4326923076923077
sg39
F0.44711538461538464
sg40
S'red'
p1582
sba(icurlovision
Stone
p1583
(dp1584
g37
F0.4903846153846154
sg38
F0.375
sg39
F0.4326923076923077
sg40
S'red'
p1585
sbasba(icurlovision
StoneLayout
p1586
(dp1587
g32
F0.4791666666666667
sg33
(lp1588
(icurlovision
Stone
p1589
(dp1590
g37
F-5.281914893617021
sg38
F5.425531914893616
sg39
F0.4787234042553191
sg40
S'red'
p1591
sba(icurlovision
Stone
p1592
(dp1593
g37
F2.5691489361702127
sg38
F0.4787234042553191
sg39
F0.4627659574468085
sg40
S'yellow'
p1594
sba(icurlovision
Stone
p1595
(dp1596
g37
F2.632978723404255
sg38
F-0.6382978723404255
sg39
F0.4627659574468085
sg40
S'yellow'
p1597
sba(icurlovision
Stone
p1598
(dp1599
g37
F9.718085106382977
sg38
F0.15957446808510636
sg39
F0.28723404255319146
sg40
S'yellow'
p1600
sba(icurlovision
Stone
p1601
(dp1602
g37
F-2.824468085106383
sg38
F-2.457446808510638
sg39
F0.28723404255319146
sg40
S'red'
p1603
sbasba(icurlovision
StoneLayout
p1604
(dp1605
g32
F0.4791666666666667
sg33
(lp1606
(icurlovision
Stone
p1607
(dp1608
g37
F-5.4
sg38
F5.416666666666667
sg39
F0.4666666666666667
sg40
S'red'
p1609
sba(icurlovision
Stone
p1610
(dp1611
g37
F-3.1666666666666665
sg38
F-1.3166666666666667
sg39
F0.4666666666666667
sg40
S'yellow'
p1612
sba(icurlovision
Stone
p1613
(dp1614
g37
F9.766666666666666
sg38
F0.2833333333333333
sg39
F0.4666666666666667
sg40
S'yellow'
p1615
sba(icurlovision
Stone
p1616
(dp1617
g37
F2.5
sg38
F0.5833333333333334
sg39
F0.4666666666666667
sg40
S'yellow'
p1618
sba(icurlovision
Stone
p1619
(dp1620
g37
F-3.3
sg38
F-3.05
sg39
F0.35
sg40
S'red'
p1621
sba(icurlovision
Stone
p1622
(dp1623
g37
F3.433333333333333
sg38
F0.15
sg39
F0.4666666666666667
sg40
S'red'
p1624
sba(icurlovision
Stone
p1625
(dp1626
g37
F9.2
sg38
F-12.183333333333334
sg39
F0.3
sg40
S'yellow'
p1627
sba(icurlovision
Stone
p1628
(dp1629
g37
F10.133333333333333
sg38
F-12.183333333333334
sg39
F0.26666666666666666
sg40
S'yellow'
p1630
sbasba(icurlovision
StoneLayout
p1631
(dp1632
g32
F0.4791666666666667
sg33
(lp1633
(icurlovision
Stone
p1634
(dp1635
g37
F9.5
sg38
F0.1875
sg39
F0.34375
sg40
S'yellow'
p1636
sba(icurlovision
Stone
p1637
(dp1638
g37
F-3.09375
sg38
F-1.21875
sg39
F0.4375
sg40
S'yellow'
p1639
sba(icurlovision
Stone
p1640
(dp1641
g37
F-3.21875
sg38
F-0.125
sg39
F0.296875
sg40
S'yellow'
p1642
sba(icurlovision
Stone
p1643
(dp1644
g37
F-5.1875
sg38
F5.28125
sg39
F0.46875
sg40
S'red'
p1645
sba(icurlovision
Stone
p1646
(dp1647
g37
F-3.1875
sg38
F-2.90625
sg39
F0.328125
sg40
S'red'
p1648
sba(icurlovision
Stone
p1649
(dp1650
g37
F3.3125
sg38
F0.09375
sg39
F0.328125
sg40
S'red'
p1651
sba(icurlovision
Stone
p1652
(dp1653
g37
F2.4375
sg38
F0.5625
sg39
F0.40625
sg40
S'yellow'
p1654
sbasba(icurlovision
StoneLayout
p1655
(dp1656
g32
F0.4791666666666667
sg33
(lp1657
(icurlovision
Stone
p1658
(dp1659
g37
F-5.301136363636363
sg38
F5.403409090909091
sg39
F0.4602272727272727
sg40
S'red'
p1660
sba(icurlovision
Stone
p1661
(dp1662
g37
F-3.289772727272727
sg38
F-0.11931818181818181
sg39
F0.4602272727272727
sg40
S'yellow'
p1663
sba(icurlovision
Stone
p1664
(dp1665
g37
F-3.153409090909091
sg38
F-1.2784090909090908
sg39
F0.4602272727272727
sg40
S'yellow'
p1666
sba(icurlovision
Stone
p1667
(dp1668
g37
F10.448863636363635
sg38
F-0.05113636363636363
sg39
F0.4431818181818181
sg40
S'red'
p1669
sba(icurlovision
Stone
p1670
(dp1671
g37
F-3.3238636363636362
sg38
F-2.9829545454545454
sg39
F0.3409090909090909
sg40
S'red'
p1672
sba(icurlovision
Stone
p1673
(dp1674
g37
F7.551136363636363
sg38
F15.937499999999998
sg39
F0.4261363636363636
sg40
S'yellow'
p1675
sba(icurlovision
Stone
p1676
(dp1677
g37
F9.323863636363635
sg38
F-12.460227272727272
sg39
F0.30681818181818177
sg40
S'yellow'
p1678
sbasba(icurlovision
StoneLayout
p1679
(dp1680
g32
F0.4791666666666667
sg33
(lp1681
(icurlovision
Stone
p1682
(dp1683
g37
F-5.337209302325581
sg38
F5.406976744186046
sg39
F0.47093023255813954
sg40
S'red'
p1684
sba(icurlovision
Stone
p1685
(dp1686
g37
F-3.2790697674418605
sg38
F-0.13953488372093023
sg39
F0.2965116279069767
sg40
S'yellow'
p1687
sba(icurlovision
Stone
p1688
(dp1689
g37
F-3.1744186046511627
sg38
F-1.255813953488372
sg39
F0.47093023255813954
sg40
S'yellow'
p1690
sba(icurlovision
Stone
p1691
(dp1692
g37
F7.534883720930233
sg38
F16.046511627906977
sg39
F0.2965116279069767
sg40
S'yellow'
p1693
sba(icurlovision
Stone
p1694
(dp1695
g37
F1.5
sg38
F-0.13953488372093023
sg39
F0.3488372093023256
sg40
S'yellow'
p1696
sba(icurlovision
Stone
p1697
(dp1698
g37
F-3.313953488372093
sg38
F-3.0
sg39
F0.3488372093023256
sg40
S'red'
p1699
sba(icurlovision
Stone
p1700
(dp1701
g37
F10.430232558139535
sg38
F0.0
sg39
F0.436046511627907
sg40
S'red'
p1702
sba(icurlovision
Stone
p1703
(dp1704
g37
F-6.27906976744186
sg38
F-14.093023255813954
sg39
F0.2441860465116279
sg40
S'red'
p1705
sba(icurlovision
Stone
p1706
(dp1707
g37
F9.976744186046512
sg38
F-12.732558139534884
sg39
F0.313953488372093
sg40
S'yellow'
p1708
sbasba(icurlovision
StoneLayout
p1709
(dp1710
g32
F0.4791666666666667
sg33
(lp1711
(icurlovision
Stone
p1712
(dp1713
g37
F-3.102272727272727
sg38
F-1.227272727272727
sg39
F0.4431818181818181
sg40
S'yellow'
p1714
sba(icurlovision
Stone
p1715
(dp1716
g37
F-3.2386363636363633
sg38
F-0.10227272727272727
sg39
F0.4602272727272727
sg40
S'yellow'
p1717
sba(icurlovision
Stone
p1718
(dp1719
g37
F-5.215909090909091
sg38
F5.3181818181818175
sg39
F0.47727272727272724
sg40
S'red'
p1720
sba(icurlovision
Stone
p1721
(dp1722
g37
F10.5
sg38
F-1.3295454545454544
sg39
F0.4431818181818181
sg40
S'red'
p1723
sba(icurlovision
Stone
p1724
(dp1725
g37
F1.5
sg38
F-0.17045454545454544
sg39
F0.3409090909090909
sg40
S'yellow'
p1726
sba(icurlovision
Stone
p1727
(dp1728
g37
F-3.2386363636363633
sg38
F-2.965909090909091
sg39
F0.2727272727272727
sg40
S'red'
p1729
sba(icurlovision
Stone
p1730
(dp1731
g37
F7.431818181818182
sg38
F15.886363636363635
sg39
F0.30681818181818177
sg40
S'yellow'
p1732
sba(icurlovision
Stone
p1733
(dp1734
g37
F9.306818181818182
sg38
F-12.443181818181817
sg39
F0.2727272727272727
sg40
S'yellow'
p1735
sbasba(icurlovision
StoneLayout
p1736
(dp1737
g32
F0.4791666666666667
sg33
(lp1738
(icurlovision
Stone
p1739
(dp1740
g37
F-5.25
sg38
F5.359756097560975
sg39
F0.45731707317073167
sg40
S'red'
p1741
sba(icurlovision
Stone
p1742
(dp1743
g37
F-3.2378048780487805
sg38
F-0.12804878048780488
sg39
F0.45731707317073167
sg40
S'yellow'
p1744
sba(icurlovision
Stone
p1745
(dp1746
g37
F-3.1280487804878048
sg38
F-1.2621951219512195
sg39
F0.47560975609756095
sg40
S'yellow'
p1747
sba(icurlovision
Stone
p1748
(dp1749
g37
F10.591463414634145
sg38
F-1.3353658536585364
sg39
F0.45731707317073167
sg40
S'red'
p1750
sba(icurlovision
Stone
p1751
(dp1752
g37
F7.4451219512195115
sg38
F15.640243902439023
sg39
F0.25609756097560976
sg40
S'yellow'
p1753
sba(icurlovision
Stone
p1754
(dp1755
g37
F11.908536585365853
sg38
F0.1646341463414634
sg39
F0.4390243902439024
sg40
S'yellow'
p1756
sba(icurlovision
Stone
p1757
(dp1758
g37
F1.5182926829268293
sg38
F-0.1646341463414634
sg39
F0.3475609756097561
sg40
S'yellow'
p1759
sba(icurlovision
Stone
p1760
(dp1761
g37
F-3.2378048780487805
sg38
F-2.9085365853658534
sg39
F0.31097560975609756
sg40
S'red'
p1762
sba(icurlovision
Stone
p1763
(dp1764
g37
F12.420731707317072
sg38
F-17.067073170731707
sg39
F0.40243902439024387
sg40
S'yellow'
p1765
sba(icurlovision
Stone
p1766
(dp1767
g37
F10.701219512195122
sg38
F-13.371951219512194
sg39
F0.3292682926829268
sg40
S'yellow'
p1768
sbasba(icurlovision
StoneLayout
p1769
(dp1770
g32
F0.4791666666666667
sg33
(lp1771
(icurlovision
Stone
p1772
(dp1773
g37
F-3.310975609756097
sg38
F-0.12804878048780488
sg39
F0.3292682926829268
sg40
S'yellow'
p1774
sba(icurlovision
Stone
p1775
(dp1776
g37
F-3.1646341463414633
sg38
F-1.2621951219512195
sg39
F0.47560975609756095
sg40
S'yellow'
p1777
sba(icurlovision
Stone
p1778
(dp1779
g37
F1.5182926829268293
sg38
F-0.1646341463414634
sg39
F0.274390243902439
sg40
S'yellow'
p1780
sba(icurlovision
Stone
p1781
(dp1782
g37
F10.73780487804878
sg38
F-1.371951219512195
sg39
F0.45731707317073167
sg40
S'red'
p1783
sba(icurlovision
Stone
p1784
(dp1785
g37
F-3.310975609756097
sg38
F-3.018292682926829
sg39
F0.3475609756097561
sg40
S'red'
p1786
sba(icurlovision
Stone
p1787
(dp1788
g37
F7.628048780487805
sg38
F15.896341463414632
sg39
F0.274390243902439
sg40
S'yellow'
p1789
sba(icurlovision
Stone
p1790
(dp1791
g37
F12.603658536585366
sg38
F-17.432926829268293
sg39
F0.42073170731707316
sg40
S'yellow'
p1792
sbasba(icurlovision
StoneLayout
p1793
(dp1794
g32
F0.4791666666666667
sg33
(lp1795
(icurlovision
Stone
p1796
(dp1797
g37
F-3.196428571428571
sg38
F-1.3035714285714286
sg39
F0.46428571428571425
sg40
S'yellow'
p1798
sba(icurlovision
Stone
p1799
(dp1800
g37
F-5.410714285714286
sg38
F5.410714285714286
sg39
F0.3214285714285714
sg40
S'red'
p1801
sba(icurlovision
Stone
p1802
(dp1803
g37
F6.5892857142857135
sg38
F0.4464285714285714
sg39
F0.46428571428571425
sg40
S'yellow'
p1804
sba(icurlovision
Stone
p1805
(dp1806
g37
F-3.339285714285714
sg38
F-0.125
sg39
F0.33928571428571425
sg40
S'yellow'
p1807
sba(icurlovision
Stone
p1808
(dp1809
g37
F10.732142857142856
sg38
F-1.3035714285714286
sg39
F0.4464285714285714
sg40
S'red'
p1810
sba(icurlovision
Stone
p1811
(dp1812
g37
F0.5178571428571428
sg38
F16.33928571428571
sg39
F0.4464285714285714
sg40
S'red'
p1813
sba(icurlovision
Stone
p1814
(dp1815
g37
F1.5178571428571428
sg38
F-0.1607142857142857
sg39
F0.33928571428571425
sg40
S'yellow'
p1816
sba(icurlovision
Stone
p1817
(dp1818
g37
F-4.303571428571428
sg38
F16.660714285714285
sg39
F0.3571428571428571
sg40
S'yellow'
p1819
sba(icurlovision
Stone
p1820
(dp1821
g37
F-3.3035714285714284
sg38
F-3.089285714285714
sg39
F0.33928571428571425
sg40
S'red'
p1822
sba(icurlovision
Stone
p1823
(dp1824
g37
F7.482142857142857
sg38
F16.053571428571427
sg39
F0.42857142857142855
sg40
S'yellow'
p1825
sba(icurlovision
Stone
p1826
(dp1827
g37
F10.446428571428571
sg38
F-13.053571428571427
sg39
F0.3214285714285714
sg40
S'yellow'
p1828
sbasba(icurlovision
StoneLayout
p1829
(dp1830
g32
F0.4791666666666667
sg33
(lp1831
(icurlovision
Stone
p1832
(dp1833
g37
F-3.102272727272727
sg38
F-1.227272727272727
sg39
F0.3409090909090909
sg40
S'yellow'
p1834
sba(icurlovision
Stone
p1835
(dp1836
g37
F6.374999999999999
sg38
F0.375
sg39
F0.4261363636363636
sg40
S'yellow'
p1837
sba(icurlovision
Stone
p1838
(dp1839
g37
F-3.204545454545454
sg38
F-0.10227272727272727
sg39
F0.30681818181818177
sg40
S'yellow'
p1840
sba(icurlovision
Stone
p1841
(dp1842
g37
F7.363636363636363
sg38
F15.511363636363635
sg39
F0.3409090909090909
sg40
S'yellow'
p1843
sba(icurlovision
Stone
p1844
(dp1845
g37
F11.011363636363635
sg38
F-1.909090909090909
sg39
F0.4261363636363636
sg40
S'red'
p1846
sba(icurlovision
Stone
p1847
(dp1848
g37
F2.1477272727272725
sg38
F-0.6136363636363635
sg39
F0.30681818181818177
sg40
S'red'
p1849
sba(icurlovision
Stone
p1850
(dp1851
g37
F-3.204545454545454
sg38
F-2.9318181818181817
sg39
F0.2727272727272727
sg40
S'red'
p1852
sba(icurlovision
Stone
p1853
(dp1854
g37
F-4.056818181818182
sg38
F16.125
sg39
F0.32386363636363635
sg40
S'yellow'
p1855
sba(icurlovision
Stone
p1856
(dp1857
g37
F9.579545454545453
sg38
F-12.443181818181817
sg39
F0.2727272727272727
sg40
S'yellow'
p1858
sbasba(icurlovision
StoneLayout
p1859
(dp1860
g32
F0.4791666666666667
sg33
(lp1861
(icurlovision
Stone
p1862
(dp1863
g37
F-3.1071428571428568
sg38
F-1.25
sg39
F0.4464285714285714
sg40
S'yellow'
p1864
sba(icurlovision
Stone
p1865
(dp1866
g37
F6.5
sg38
F0.5
sg39
F0.46428571428571425
sg40
S'yellow'
p1867
sba(icurlovision
Stone
p1868
(dp1869
g37
F-5.285714285714286
sg38
F5.321428571428571
sg39
F0.46428571428571425
sg40
S'red'
p1870
sba(icurlovision
Stone
p1871
(dp1872
g37
F11.214285714285714
sg38
F-1.75
sg39
F0.4464285714285714
sg40
S'red'
p1873
sba(icurlovision
Stone
p1874
(dp1875
g37
F-3.1785714285714284
sg38
F-2.964285714285714
sg39
F0.3214285714285714
sg40
S'red'
p1876
sba(icurlovision
Stone
p1877
(dp1878
g37
F-3.25
sg38
F-0.14285714285714285
sg39
F0.3214285714285714
sg40
S'yellow'
p1879
sba(icurlovision
Stone
p1880
(dp1881
g37
F0.9642857142857142
sg38
F0.3571428571428571
sg39
F0.39285714285714285
sg40
S'yellow'
p1882
sba(icurlovision
Stone
p1883
(dp1884
g37
F2.214285714285714
sg38
F-0.6071428571428571
sg39
F0.33928571428571425
sg40
S'red'
p1885
sbasbasg3
I5
sg435
I1
sba(icurlovision
EndResult
p1886
(dp1887
g2
I6
sg10
(lp1888
(I7
I7
tp1889
a(I7
I6
tp1890
a(I6
I6
tp1891
a(I6
I5
tp1892
a(I5
I5
tp1893
a(I5
I4
tp1894
a(I4
I4
tp1895
a(I3
I2
tp1896
a(I2
I2
tp1897
a(I1
I1
tp1898
a(I1
I0
tp1899
asg27
I7
sg28
(lp1900
(icurlovision
StoneLayout
p1901
(dp1902
g32
F0.4791666666666667
sg33
(lp1903
(icurlovision
Stone
p1904
(dp1905
g37
F9.668478260869565
sg38
F0.27717391304347827
sg39
F0.44021739130434784
sg40
S'yellow'
p1906
sba(icurlovision
Stone
p1907
(dp1908
g37
F-1.0271739130434783
sg38
F0.8641304347826086
sg39
F0.358695652173913
sg40
S'red'
p1909
sbasba(icurlovision
StoneLayout
p1910
(dp1911
g32
F0.4791666666666667
sg33
(lp1912
(icurlovision
Stone
p1913
(dp1914
g37
F9.783333333333333
sg38
F0.2833333333333333
sg39
F0.45
sg40
S'yellow'
p1915
sba(icurlovision
Stone
p1916
(dp1917
g37
F-0.45
sg38
F0.18333333333333332
sg39
F0.35
sg40
S'yellow'
p1918
sba(icurlovision
Stone
p1919
(dp1920
g37
F-1.1166666666666667
sg38
F0.95
sg39
F0.4666666666666667
sg40
S'red'
p1921
sba(icurlovision
Stone
p1922
(dp1923
g37
F-3.9833333333333334
sg38
F-2.35
sg39
F0.3333333333333333
sg40
S'yellow'
p1924
sbasba(icurlovision
StoneLayout
p1925
(dp1926
g32
F0.4791666666666667
sg33
(lp1927
(icurlovision
Stone
p1928
(dp1929
g37
F-1.375
sg38
F1.140625
sg39
F0.46875
sg40
S'red'
p1930
sba(icurlovision
Stone
p1931
(dp1932
g37
F-0.78125
sg38
F-0.015625
sg39
F0.46875
sg40
S'yellow'
p1933
sba(icurlovision
Stone
p1934
(dp1935
g37
F9.53125
sg38
F0.296875
sg39
F0.4375
sg40
S'yellow'
p1936
sba(icurlovision
Stone
p1937
(dp1938
g37
F0.5
sg38
F0.078125
sg39
F0.34375
sg40
S'red'
p1939
sbasba(icurlovision
StoneLayout
p1940
(dp1941
g32
F0.4791666666666667
sg33
(lp1942
(icurlovision
Stone
p1943
(dp1944
g37
F0.15625
sg38
F0.1875
sg39
F0.34375
sg40
S'red'
p1945
sba(icurlovision
Stone
p1946
(dp1947
g37
F-0.8125
sg38
F-0.03125
sg39
F0.46875
sg40
S'yellow'
p1948
sba(icurlovision
Stone
p1949
(dp1950
g37
F1.40625
sg38
F-0.09375
sg39
F0.453125
sg40
S'yellow'
p1951
sba(icurlovision
Stone
p1952
(dp1953
g37
F9.375
sg38
F0.3125
sg39
F0.4375
sg40
S'yellow'
p1954
sba(icurlovision
Stone
p1955
(dp1956
g37
F-1.34375
sg38
F1.15625
sg39
F0.265625
sg40
S'red'
p1957
sba(icurlovision
Stone
p1958
(dp1959
g37
F-4.25
sg38
F-4.6875
sg39
F0.28125
sg40
S'yellow'
p1960
sbasba(icurlovision
StoneLayout
p1961
(dp1962
g32
F0.4791666666666667
sg33
(lp1963
(icurlovision
Stone
p1964
(dp1965
g37
F1.227272727272727
sg38
F-0.10227272727272727
sg39
F0.4602272727272727
sg40
S'yellow'
p1966
sba(icurlovision
Stone
p1967
(dp1968
g37
F0.17045454545454544
sg38
F0.23863636363636362
sg39
F0.30681818181818177
sg40
S'red'
p1969
sba(icurlovision
Stone
p1970
(dp1971
g37
F9.579545454545453
sg38
F0.30681818181818177
sg39
F0.3579545454545454
sg40
S'yellow'
p1972
sba(icurlovision
Stone
p1973
(dp1974
g37
F-0.8522727272727272
sg38
F0.0
sg39
F0.4602272727272727
sg40
S'yellow'
p1975
sba(icurlovision
Stone
p1976
(dp1977
g37
F-1.3636363636363635
sg38
F1.159090909090909
sg39
F0.47727272727272724
sg40
S'red'
p1978
sba(icurlovision
Stone
p1979
(dp1980
g37
F2.352272727272727
sg38
F0.03409090909090909
sg39
F0.28977272727272724
sg40
S'red'
p1981
sba(icurlovision
Stone
p1982
(dp1983
g37
F10.159090909090908
sg38
F16.193181818181817
sg39
F0.32386363636363635
sg40
S'yellow'
p1984
sbasba(icurlovision
StoneLayout
p1985
(dp1986
g32
F0.4791666666666667
sg33
(lp1987
(icurlovision
Stone
p1988
(dp1989
g37
F2.5357142857142856
sg38
F-1.107142857142857
sg39
F0.46428571428571425
sg40
S'yellow'
p1990
sba(icurlovision
Stone
p1991
(dp1992
g37
F1.2142857142857142
sg38
F-0.07142857142857142
sg39
F0.33928571428571425
sg40
S'yellow'
p1993
sba(icurlovision
Stone
p1994
(dp1995
g37
F-0.8928571428571428
sg38
F0.0
sg39
F0.4821428571428571
sg40
S'yellow'
p1996
sba(icurlovision
Stone
p1997
(dp1998
g37
F9.785714285714285
sg38
F0.3214285714285714
sg39
F0.3571428571428571
sg40
S'yellow'
p1999
sba(icurlovision
Stone
p2000
(dp2001
g37
F2.142857142857143
sg38
F0.21428571428571427
sg39
F0.2857142857142857
sg40
S'red'
p2002
sba(icurlovision
Stone
p2003
(dp2004
g37
F-1.4285714285714284
sg38
F1.2142857142857142
sg39
F0.25
sg40
S'red'
p2005
sba(icurlovision
Stone
p2006
(dp2007
g37
F0.17857142857142855
sg38
F0.21428571428571427
sg39
F0.3214285714285714
sg40
S'red'
p2008
sba(icurlovision
Stone
p2009
(dp2010
g37
F10.285714285714285
sg38
F16.428571428571427
sg39
F0.3214285714285714
sg40
S'yellow'
p2011
sba(icurlovision
Stone
p2012
(dp2013
g37
F-0.03571428571428571
sg38
F15.214285714285714
sg39
F0.26785714285714285
sg40
S'red'
p2014
sba(icurlovision
Stone
p2015
(dp2016
g37
F10.178571428571429
sg38
F-13.357142857142856
sg39
F0.26785714285714285
sg40
S'yellow'
p2017
sba(icurlovision
Stone
p2018
(dp2019
g37
F-4.678571428571428
sg38
F-2.107142857142857
sg39
F0.3214285714285714
sg40
S'yellow'
p2020
sbasba(icurlovision
StoneLayout
p2021
(dp2022
g32
F0.4791666666666667
sg33
(lp2023
(icurlovision
Stone
p2024
(dp2025
g37
F-1.024390243902439
sg38
F2.542682926829268
sg39
F0.45731707317073167
sg40
S'red'
p2026
sba(icurlovision
Stone
p2027
(dp2028
g37
F-0.6219512195121951
sg38
F-2.176829268292683
sg39
F0.45731707317073167
sg40
S'yellow'
p2029
sba(icurlovision
Stone
p2030
(dp2031
g37
F-4.7195121951219505
sg38
F-6.567073170731707
sg39
F0.47560975609756095
sg40
S'red'
p2032
sba(icurlovision
Stone
p2033
(dp2034
g37
F9.585365853658535
sg38
F0.274390243902439
sg39
F0.4390243902439024
sg40
S'yellow'
p2035
sba(icurlovision
Stone
p2036
(dp2037
g37
F2.121951219512195
sg38
F0.20121951219512194
sg39
F0.47560975609756095
sg40
S'red'
p2038
sba(icurlovision
Stone
p2039
(dp2040
g37
F1.0609756097560974
sg38
F4.408536585365853
sg39
F0.3292682926829268
sg40
S'yellow'
p2041
sba(icurlovision
Stone
p2042
(dp2043
g37
F10.060975609756097
sg38
F15.859756097560975
sg39
F0.31097560975609756
sg40
S'yellow'
p2044
sba(icurlovision
Stone
p2045
(dp2046
g37
F-2.7073170731707314
sg38
F-13.810975609756097
sg39
F0.4390243902439024
sg40
S'yellow'
p2047
sba(icurlovision
Stone
p2048
(dp2049
g37
F-1.3536585365853657
sg38
F1.1890243902439024
sg39
F0.36585365853658536
sg40
S'red'
p2050
sba(icurlovision
Stone
p2051
(dp2052
g37
F0.07317073170731707
sg38
F14.908536585365853
sg39
F0.3475609756097561
sg40
S'red'
p2053
sba(icurlovision
Stone
p2054
(dp2055
g37
F10.536585365853657
sg38
F-13.701219512195122
sg39
F0.274390243902439
sg40
S'yellow'
p2056
sbasba(icurlovision
StoneLayout
p2057
(dp2058
g32
F0.4791666666666667
sg33
(lp2059
(icurlovision
Stone
p2060
(dp2061
g37
F-0.5625
sg38
F1.71875
sg39
F0.328125
sg40
S'yellow'
p2062
sba(icurlovision
Stone
p2063
(dp2064
g37
F-1.125
sg38
F2.71875
sg39
F0.328125
sg40
S'red'
p2065
sba(icurlovision
Stone
p2066
(dp2067
g37
F-2.8125
sg38
F-14.3125
sg39
F0.453125
sg40
S'yellow'
p2068
sba(icurlovision
Stone
p2069
(dp2070
g37
F2.125
sg38
F0.1875
sg39
F0.328125
sg40
S'red'
p2071
sba(icurlovision
Stone
p2072
(dp2073
g37
F0.3125
sg38
F-2.25
sg39
F0.46875
sg40
S'red'
p2074
sba(icurlovision
Stone
p2075
(dp2076
g37
F-5.65625
sg38
F3.375
sg39
F0.34375
sg40
S'yellow'
p2077
sbasba(icurlovision
StoneLayout
p2078
(dp2079
g32
F0.4791666666666667
sg33
(lp2080
(icurlovision
Stone
p2081
(dp2082
g37
F-1.0982142857142856
sg38
F2.625
sg39
F0.46875
sg40
S'red'
p2083
sba(icurlovision
Stone
p2084
(dp2085
g37
F-1.4464285714285714
sg38
F5.142857142857142
sg39
F0.3214285714285714
sg40
S'red'
p2086
sba(icurlovision
Stone
p2087
(dp2088
g37
F2.1160714285714284
sg38
F0.21428571428571427
sg39
F0.45535714285714285
sg40
S'red'
p2089
sbasba(icurlovision
StoneLayout
p2090
(dp2091
g32
F0.4791666666666667
sg33
(lp2092
(icurlovision
Stone
p2093
(dp2094
g37
F-1.1833333333333333
sg38
F2.75
sg39
F0.45
sg40
S'red'
p2095
sba(icurlovision
Stone
p2096
(dp2097
g37
F2.0833333333333335
sg38
F0.18333333333333332
sg39
F0.43333333333333335
sg40
S'red'
p2098
sba(icurlovision
Stone
p2099
(dp2100
g37
F-1.4833333333333334
sg38
F5.05
sg39
F0.43333333333333335
sg40
S'red'
p2101
sba(icurlovision
Stone
p2102
(dp2103
g37
F-0.15
sg38
F2.6166666666666667
sg39
F0.45
sg40
S'red'
p2104
sba(icurlovision
Stone
p2105
(dp2106
g37
F-5.383333333333333
sg38
F-15.883333333333333
sg39
F0.31666666666666665
sg40
S'yellow'
p2107
sba(icurlovision
Stone
p2108
(dp2109
g37
F10.85
sg38
F-12.416666666666666
sg39
F0.31666666666666665
sg40
S'yellow'
p2110
sbasba(icurlovision
StoneLayout
p2111
(dp2112
g32
F0.4791666666666667
sg33
(lp2113
(icurlovision
Stone
p2114
(dp2115
g37
F-1.3333333333333333
sg38
F4.527777777777778
sg39
F0.3472222222222222
sg40
S'yellow'
p2116
sba(icurlovision
Stone
p2117
(dp2118
g37
F2.111111111111111
sg38
F0.2222222222222222
sg39
F0.3194444444444444
sg40
S'red'
p2119
sbasbasg3
I7
sg435
I1
sba(icurlovision
EndResult
p2120
(dp2121
g2
I8
sg10
(lp2122
(I6
I7
tp2123
a(I5
I6
tp2124
a(I5
I5
tp2125
a(I4
I5
tp2126
a(I4
I4
tp2127
a(I3
I4
tp2128
a(I2
I3
tp2129
a(I2
I2
tp2130
a(I1
I2
tp2131
a(I1
I1
tp2132
a(I0
I1
tp2133
asg27
I8
sg28
(lp2134
(icurlovision
StoneLayout
p2135
(dp2136
g32
F0.4791666666666667
sg33
(lp2137
(icurlovision
Stone
p2138
(dp2139
g37
F0.234375
sg38
F-0.453125
sg39
F0.453125
sg40
S'red'
p2140
sba(icurlovision
Stone
p2141
(dp2142
g37
F7.609375
sg38
F0.078125
sg39
F0.4375
sg40
S'red'
p2143
sba(icurlovision
Stone
p2144
(dp2145
g37
F14.921875
sg38
F-2.328125
sg39
F0.421875
sg40
S'yellow'
p2146
sbasba(icurlovision
StoneLayout
p2147
(dp2148
g32
F0.4791666666666667
sg33
(lp2149
(icurlovision
Stone
p2150
(dp2151
g37
F8.546052631578947
sg38
F-0.09868421052631579
sg39
F0.43421052631578944
sg40
S'yellow'
p2152
sba(icurlovision
Stone
p2153
(dp2154
g37
F0.21710526315789472
sg38
F-0.4934210526315789
sg39
F0.3355263157894737
sg40
S'red'
p2155
sba(icurlovision
Stone
p2156
(dp2157
g37
F15.25657894736842
sg38
F-2.427631578947368
sg39
F0.43421052631578944
sg40
S'yellow'
p2158
sba(icurlovision
Stone
p2159
(dp2160
g37
F7.796052631578947
sg38
F-16.638157894736842
sg39
F0.43421052631578944
sg40
S'yellow'
p2161
sba(icurlovision
Stone
p2162
(dp2163
g37
F2.151315789473684
sg38
F-18.335526315789473
sg39
F0.4539473684210526
sg40
S'yellow'
p2164
sba(icurlovision
Stone
p2165
(dp2166
g37
F5.901315789473684
sg38
F0.375
sg39
F0.4539473684210526
sg40
S'red'
p2167
sba(icurlovision
Stone
p2168
(dp2169
g37
F14.703947368421051
sg38
F-14.50657894736842
sg39
F0.23684210526315788
sg40
S'yellow'
p2170
sbasba(icurlovision
StoneLayout
p2171
(dp2172
g32
F0.4791666666666667
sg33
(lp2173
(icurlovision
Stone
p2174
(dp2175
g37
F5.351351351351352
sg38
F4.013513513513514
sg39
F0.44594594594594594
sg40
S'yellow'
p2176
sba(icurlovision
Stone
p2177
(dp2178
g37
F6.972972972972974
sg38
F-4.783783783783784
sg39
F0.44594594594594594
sg40
S'yellow'
p2179
sba(icurlovision
Stone
p2180
(dp2181
g37
F9.324324324324325
sg38
F0.16216216216216217
sg39
F0.44594594594594594
sg40
S'red'
p2182
sba(icurlovision
Stone
p2183
(dp2184
g37
F15.283783783783784
sg38
F-2.3513513513513513
sg39
F0.4256756756756757
sg40
S'yellow'
p2185
sba(icurlovision
Stone
p2186
(dp2187
g37
F2.7972972972972974
sg38
F-18.77027027027027
sg39
F0.44594594594594594
sg40
S'red'
p2188
sba(icurlovision
Stone
p2189
(dp2190
g37
F7.905405405405406
sg38
F-16.58108108108108
sg39
F0.44594594594594594
sg40
S'yellow'
p2191
sba(icurlovision
Stone
p2192
(dp2193
g37
F11.91891891891892
sg38
F-18.77027027027027
sg39
F0.40540540540540543
sg40
S'yellow'
p2194
sbasba(icurlovision
StoneLayout
p2195
(dp2196
g32
F0.4791666666666667
sg33
(lp2197
(icurlovision
Stone
p2198
(dp2199
g37
F5.351351351351352
sg38
F3.9729729729729732
sg39
F0.44594594594594594
sg40
S'yellow'
p2200
sba(icurlovision
Stone
p2201
(dp2202
g37
F6.9324324324324325
sg38
F-4.824324324324325
sg39
F0.44594594594594594
sg40
S'yellow'
p2203
sba(icurlovision
Stone
p2204
(dp2205
g37
F9.283783783783784
sg38
F0.12162162162162163
sg39
F0.30405405405405406
sg40
S'red'
p2206
sba(icurlovision
Stone
p2207
(dp2208
g37
F7.824324324324325
sg38
F-16.54054054054054
sg39
F0.4256756756756757
sg40
S'yellow'
p2209
sba(icurlovision
Stone
p2210
(dp2211
g37
F15.243243243243244
sg38
F-2.391891891891892
sg39
F0.40540540540540543
sg40
S'yellow'
p2212
sba(icurlovision
Stone
p2213
(dp2214
g37
F3.527027027027027
sg38
F-18.85135135135135
sg39
F0.4256756756756757
sg40
S'yellow'
p2215
sba(icurlovision
Stone
p2216
(dp2217
g37
F11.837837837837839
sg38
F-18.77027027027027
sg39
F0.40540540540540543
sg40
S'yellow'
p2218
sba(icurlovision
Stone
p2219
(dp2220
g37
F-5.513513513513514
sg38
F0.6486486486486487
sg39
F0.30405405405405406
sg40
S'red'
p2221
sba(icurlovision
Stone
p2222
(dp2223
g37
F13.013513513513514
sg38
F-14.91891891891892
sg39
F0.22297297297297297
sg40
S'yellow'
p2224
sbasba(icurlovision
StoneLayout
p2225
(dp2226
g32
F0.4791666666666667
sg33
(lp2227
(icurlovision
Stone
p2228
(dp2229
g37
F7.0625
sg38
F-4.979166666666666
sg39
F0.4583333333333333
sg40
S'yellow'
p2230
sba(icurlovision
Stone
p2231
(dp2232
g37
F-1.8541666666666665
sg38
F6.0625
sg39
F0.35416666666666663
sg40
S'yellow'
p2233
sba(icurlovision
Stone
p2234
(dp2235
g37
F0.22916666666666666
sg38
F7.3125
sg39
F0.4583333333333333
sg40
S'yellow'
p2236
sba(icurlovision
Stone
p2237
(dp2238
g37
F-3.520833333333333
sg38
F-6.229166666666666
sg39
F0.47916666666666663
sg40
S'red'
p2239
sba(icurlovision
Stone
p2240
(dp2241
g37
F15.604166666666666
sg38
F-2.4791666666666665
sg39
F0.41666666666666663
sg40
S'yellow'
p2242
sba(icurlovision
Stone
p2243
(dp2244
g37
F7.9375
sg38
F-17.020833333333332
sg39
F0.4375
sg40
S'yellow'
p2245
sba(icurlovision
Stone
p2246
(dp2247
g37
F3.520833333333333
sg38
F-19.395833333333332
sg39
F0.4375
sg40
S'yellow'
p2248
sba(icurlovision
Stone
p2249
(dp2250
g37
F12.104166666666666
sg38
F-19.395833333333332
sg39
F0.3125
sg40
S'yellow'
p2251
sba(icurlovision
Stone
p2252
(dp2253
g37
F-5.770833333333333
sg38
F0.6875
sg39
F0.25
sg40
S'red'
p2254
sba(icurlovision
Stone
p2255
(dp2256
g37
F14.645833333333332
sg38
F-15.229166666666666
sg39
F0.375
sg40
S'yellow'
p2257
sbasba(icurlovision
StoneLayout
p2258
(dp2259
g32
F0.4791666666666667
sg33
(lp2260
(icurlovision
Stone
p2261
(dp2262
g37
F6.7105263157894735
sg38
F-4.697368421052631
sg39
F0.43421052631578944
sg40
S'yellow'
p2263
sba(icurlovision
Stone
p2264
(dp2265
g37
F14.842105263157894
sg38
F-2.3289473684210527
sg39
F0.41447368421052627
sg40
S'yellow'
p2266
sba(icurlovision
Stone
p2267
(dp2268
g37
F7.539473684210526
sg38
F-16.105263157894736
sg39
F0.41447368421052627
sg40
S'yellow'
p2269
sba(icurlovision
Stone
p2270
(dp2271
g37
F11.44736842105263
sg38
F-18.31578947368421
sg39
F0.39473684210526316
sg40
S'yellow'
p2272
sba(icurlovision
Stone
p2273
(dp2274
g37
F-5.447368421052631
sg38
F0.6710526315789473
sg39
F0.23684210526315788
sg40
S'red'
p2275
sba(icurlovision
Stone
p2276
(dp2277
g37
F13.69736842105263
sg38
F-14.723684210526315
sg39
F0.3157894736842105
sg40
S'yellow'
p2278
sba(icurlovision
Stone
p2279
(dp2280
g37
F4.144736842105263
sg38
F-18.31578947368421
sg39
F0.23684210526315788
sg40
S'red'
p2281
sbasba(icurlovision
StoneLayout
p2282
(dp2283
g32
F0.4791666666666667
sg33
(lp2284
(icurlovision
Stone
p2285
(dp2286
g37
F6.75
sg38
F-4.697368421052631
sg39
F0.43421052631578944
sg40
S'yellow'
p2287
sba(icurlovision
Stone
p2288
(dp2289
g37
F14.842105263157894
sg38
F-2.3289473684210527
sg39
F0.39473684210526316
sg40
S'yellow'
p2290
sba(icurlovision
Stone
p2291
(dp2292
g37
F8.526315789473683
sg38
F-2.131578947368421
sg39
F0.2763157894736842
sg40
S'yellow'
p2293
sba(icurlovision
Stone
p2294
(dp2295
g37
F7.618421052631579
sg38
F-16.105263157894736
sg39
F0.39473684210526316
sg40
S'yellow'
p2296
sba(icurlovision
Stone
p2297
(dp2298
g37
F1.7368421052631577
sg38
F-2.2105263157894735
sg39
F0.43421052631578944
sg40
S'red'
p2299
sba(icurlovision
Stone
p2300
(dp2301
g37
F11.526315789473683
sg38
F-18.276315789473685
sg39
F0.39473684210526316
sg40
S'yellow'
p2302
sba(icurlovision
Stone
p2303
(dp2304
g37
F-5.407894736842105
sg38
F0.631578947368421
sg39
F0.23684210526315788
sg40
S'red'
p2305
sba(icurlovision
Stone
p2306
(dp2307
g37
F4.263157894736842
sg38
F-18.355263157894736
sg39
F0.23684210526315788
sg40
S'red'
p2308
sbasba(icurlovision
StoneLayout
p2309
(dp2310
g32
F0.4791666666666667
sg33
(lp2311
(icurlovision
Stone
p2312
(dp2313
g37
F6.9324324324324325
sg38
F-4.783783783783784
sg39
F0.44594594594594594
sg40
S'yellow'
p2314
sba(icurlovision
Stone
p2315
(dp2316
g37
F8.675675675675675
sg38
F-2.310810810810811
sg39
F0.44594594594594594
sg40
S'yellow'
p2317
sba(icurlovision
Stone
p2318
(dp2319
g37
F15.243243243243244
sg38
F-2.3513513513513513
sg39
F0.4256756756756757
sg40
S'yellow'
p2320
sba(icurlovision
Stone
p2321
(dp2322
g37
F1.7837837837837838
sg38
F-2.1891891891891895
sg39
F0.28378378378378377
sg40
S'red'
p2323
sba(icurlovision
Stone
p2324
(dp2325
g37
F4.013513513513514
sg38
F-0.44594594594594594
sg39
F0.32432432432432434
sg40
S'yellow'
p2326
sba(icurlovision
Stone
p2327
(dp2328
g37
F-5.554054054054054
sg38
F0.6486486486486487
sg39
F0.3445945945945946
sg40
S'red'
p2329
sbasba(icurlovision
StoneLayout
p2330
(dp2331
g32
F0.4791666666666667
sg33
(lp2332
(icurlovision
Stone
p2333
(dp2334
g37
F6.980769230769231
sg38
F-4.865384615384616
sg39
F0.46153846153846156
sg40
S'yellow'
p2335
sba(icurlovision
Stone
p2336
(dp2337
g37
F1.7884615384615385
sg38
F-2.25
sg39
F0.46153846153846156
sg40
S'red'
p2338
sba(icurlovision
Stone
p2339
(dp2340
g37
F7.903846153846154
sg38
F-1.0576923076923077
sg39
F0.44230769230769235
sg40
S'yellow'
p2341
sba(icurlovision
Stone
p2342
(dp2343
g37
F8.596153846153847
sg38
F-2.4423076923076925
sg39
F0.42307692307692313
sg40
S'yellow'
p2344
sba(icurlovision
Stone
p2345
(dp2346
g37
F15.403846153846155
sg38
F-2.4423076923076925
sg39
F0.42307692307692313
sg40
S'yellow'
p2347
sbasba(icurlovision
StoneLayout
p2348
(dp2349
g32
F0.4791666666666667
sg33
(lp2350
(icurlovision
Stone
p2351
(dp2352
g37
F8.0
sg38
F-1.0416666666666665
sg39
F0.4583333333333333
sg40
S'yellow'
p2353
sba(icurlovision
Stone
p2354
(dp2355
g37
F7.083333333333333
sg38
F-4.958333333333333
sg39
F0.4583333333333333
sg40
S'yellow'
p2356
sba(icurlovision
Stone
p2357
(dp2358
g37
F8.708333333333332
sg38
F-2.5
sg39
F0.4583333333333333
sg40
S'yellow'
p2359
sba(icurlovision
Stone
p2360
(dp2361
g37
F1.8333333333333333
sg38
F-2.2916666666666665
sg39
F0.3333333333333333
sg40
S'red'
p2362
sba(icurlovision
Stone
p2363
(dp2364
g37
F15.625
sg38
F-2.458333333333333
sg39
F0.41666666666666663
sg40
S'yellow'
p2365
sba(icurlovision
Stone
p2366
(dp2367
g37
F-5.75
sg38
F0.7083333333333333
sg39
F0.25
sg40
S'red'
p2368
sba(icurlovision
Stone
p2369
(dp2370
g37
F14.625
sg38
F-15.291666666666666
sg39
F0.22916666666666666
sg40
S'yellow'
p2371
sbasba(icurlovision
StoneLayout
p2372
(dp2373
g32
F0.4791666666666667
sg33
(lp2374
(icurlovision
Stone
p2375
(dp2376
g37
F6.75
sg38
F-4.697368421052631
sg39
F0.43421052631578944
sg40
S'yellow'
p2377
sba(icurlovision
Stone
p2378
(dp2379
g37
F7.578947368421052
sg38
F-0.9868421052631579
sg39
F0.43421052631578944
sg40
S'yellow'
p2380
sba(icurlovision
Stone
p2381
(dp2382
g37
F8.25
sg38
F-2.3684210526315788
sg39
F0.43421052631578944
sg40
S'yellow'
p2383
sba(icurlovision
Stone
p2384
(dp2385
g37
F14.842105263157894
sg38
F-2.3289473684210527
sg39
F0.39473684210526316
sg40
S'yellow'
p2386
sba(icurlovision
Stone
p2387
(dp2388
g37
F1.7368421052631577
sg38
F-2.1710526315789473
sg39
F0.43421052631578944
sg40
S'red'
p2389
sba(icurlovision
Stone
p2390
(dp2391
g37
F5.842105263157895
sg38
F1.026315789473684
sg39
F0.3157894736842105
sg40
S'red'
p2392
sba(icurlovision
Stone
p2393
(dp2394
g37
F-5.407894736842105
sg38
F0.6710526315789473
sg39
F0.23684210526315788
sg40
S'red'
p2395
sba(icurlovision
Stone
p2396
(dp2397
g37
F12.828947368421051
sg38
F-14.486842105263158
sg39
F0.23684210526315788
sg40
S'yellow'
p2398
sbasbasg3
I8
sg435
I0
sba(icurlovision
EndResult
p2399
(dp2400
g2
I8
sg10
(lp2401
(I6
I5
tp2402
a(I5
I5
tp2403
a(I1
I0
tp2404
asg27
I10
sg28
(lp2405
(icurlovision
StoneLayout
p2406
(dp2407
g32
F0.4791666666666667
sg33
(lp2408
(icurlovision
Stone
p2409
(dp2410
g37
F8.634615384615385
sg38
F0.13461538461538464
sg39
F0.44230769230769235
sg40
S'yellow'
p2411
sba(icurlovision
Stone
p2412
(dp2413
g37
F2.903846153846154
sg38
F-0.8653846153846154
sg39
F0.2692307692307693
sg40
S'red'
p2414
sba(icurlovision
Stone
p2415
(dp2416
g37
F2.403846153846154
sg38
F0.019230769230769232
sg39
F0.46153846153846156
sg40
S'red'
p2417
sba(icurlovision
Stone
p2418
(dp2419
g37
F-4.019230769230769
sg38
F-0.21153846153846156
sg39
F0.2884615384615385
sg40
S'yellow'
p2420
sbasba(icurlovision
StoneLayout
p2421
(dp2422
g32
F0.4791666666666667
sg33
(lp2423
(icurlovision
Stone
p2424
(dp2425
g37
F8.833333333333334
sg38
F0.16666666666666666
sg39
F0.3333333333333333
sg40
S'yellow'
p2426
sba(icurlovision
Stone
p2427
(dp2428
g37
F2.9
sg38
F-0.9
sg39
F0.4666666666666667
sg40
S'red'
p2429
sba(icurlovision
Stone
p2430
(dp2431
g37
F2.433333333333333
sg38
F0.0
sg39
F0.4666666666666667
sg40
S'red'
p2432
sba(icurlovision
Stone
p2433
(dp2434
g37
F-4.133333333333333
sg38
F-0.23333333333333334
sg39
F0.35
sg40
S'yellow'
p2435
sbasba(icurlovision
StoneLayout
p2436
(dp2437
g32
F0.4791666666666667
sg33
(lp2438
(icurlovision
Stone
p2439
(dp2440
g37
F7.125
sg38
F2.875
sg39
F0.4318181818181818
sg40
S'red'
p2441
sba(icurlovision
Stone
p2442
(dp2443
g37
F3.0113636363636362
sg38
F-1.2613636363636365
sg39
F0.34090909090909094
sg40
S'yellow'
p2444
sba(icurlovision
Stone
p2445
(dp2446
g37
F1.625
sg38
F1.9886363636363638
sg39
F0.4431818181818182
sg40
S'yellow'
p2447
sba(icurlovision
Stone
p2448
(dp2449
g37
F1.5113636363636365
sg38
F0.3522727272727273
sg39
F0.34090909090909094
sg40
S'yellow'
p2450
sba(icurlovision
Stone
p2451
(dp2452
g37
F4.8522727272727275
sg38
F0.8295454545454546
sg39
F0.34090909090909094
sg40
S'red'
p2453
sbasbasg3
I8
sg435
I1
sbasb.