(icurlovision
MatchResult
p0
(dp1
S'yel_score'
p2
I7
sS'name'
p3
S"VideoLibrary/PyeongChang.Olympics.2018.curling.men's.round-robin.Japan.v.Canada.1080p.NBC.WEB-DL-FINFUNGUS.mp4"
p4
sS'end_results'
p5
(lp6
(icurlovision
EndResult
p7
(dp8
g2
I1
sS'stones_left'
p9
(lp10
(I7
I8
tp11
a(I7
I7
tp12
a(I6
I7
tp13
a(I6
I6
tp14
a(I5
I6
tp15
a(I4
I5
tp16
a(I4
I4
tp17
a(I3
I4
tp18
a(I3
I3
tp19
a(I2
I3
tp20
a(I2
I2
tp21
a(I1
I2
tp22
a(I1
I1
tp23
a(I0
I1
tp24
asS'end_num'
p25
I1
sS'stone_layouts'
p26
(lp27
(icurlovision
StoneLayout
p28
(dp29
S'stone_radius'
p30
F0.4791666666666667
sS'stones'
p31
(lp32
(icurlovision
Stone
p33
(dp34
S'y'
p35
F9.535714285714285
sS'x'
p36
F0.7767857142857142
sS'r'
p37
F0.42857142857142855
sS'color'
p38
S'red'
p39
sbasba(icurlovision
StoneLayout
p40
(dp41
g30
F0.4791666666666667
sg31
(lp42
(icurlovision
Stone
p43
(dp44
g35
F2.375
sg36
F0.6527777777777778
sg37
F0.4583333333333333
sg38
S'yellow'
p45
sba(icurlovision
Stone
p46
(dp47
g35
F9.597222222222221
sg36
F0.7916666666666666
sg37
F0.4444444444444444
sg38
S'red'
p48
sbasba(icurlovision
StoneLayout
p49
(dp50
g30
F0.4791666666666667
sg31
(lp51
(icurlovision
Stone
p52
(dp53
g35
F1.2894736842105263
sg36
F1.026315789473684
sg37
F0.3421052631578947
sg38
S'yellow'
p54
sba(icurlovision
Stone
p55
(dp56
g35
F3.263157894736842
sg36
F0.39473684210526316
sg37
F0.4473684210526315
sg38
S'red'
p57
sba(icurlovision
Stone
p58
(dp59
g35
F9.5
sg36
F0.763157894736842
sg37
F0.3157894736842105
sg38
S'red'
p60
sbasba(icurlovision
StoneLayout
p61
(dp62
g30
F0.4791666666666667
sg31
(lp63
(icurlovision
Stone
p64
(dp65
g35
F1.2818181818181817
sg36
F0.9818181818181818
sg37
F0.44999999999999996
sg38
S'yellow'
p66
sba(icurlovision
Stone
p67
(dp68
g35
F9.545454545454545
sg36
F0.7636363636363636
sg37
F0.4636363636363636
sg38
S'red'
p69
sba(icurlovision
Stone
p70
(dp71
g35
F3.245454545454545
sg36
F0.35454545454545455
sg37
F0.4636363636363636
sg38
S'red'
p72
sba(icurlovision
Stone
p73
(dp74
g35
F4.1454545454545455
sg36
F0.6545454545454545
sg37
F0.3136363636363636
sg38
S'yellow'
p75
sbasba(icurlovision
StoneLayout
p76
(dp77
g30
F0.4791666666666667
sg31
(lp78
(icurlovision
Stone
p79
(dp80
g35
F0.7363636363636363
sg36
F0.7909090909090909
sg37
F0.43636363636363634
sg38
S'yellow'
p81
sba(icurlovision
Stone
p82
(dp83
g35
F2.1545454545454543
sg36
F1.1181818181818182
sg37
F0.3409090909090909
sg38
S'red'
p84
sba(icurlovision
Stone
p85
(dp86
g35
F9.218181818181817
sg36
F0.7090909090909091
sg37
F0.43636363636363634
sg38
S'red'
p87
sba(icurlovision
Stone
p88
(dp89
g35
F3.1363636363636362
sg36
F0.3
sg37
F0.42272727272727273
sg38
S'red'
p90
sba(icurlovision
Stone
p91
(dp92
g35
F4.036363636363636
sg36
F0.5727272727272728
sg37
F0.32727272727272727
sg38
S'yellow'
p93
sbasba(icurlovision
StoneLayout
p94
(dp95
g30
F0.4791666666666667
sg31
(lp96
(icurlovision
Stone
p97
(dp98
g35
F0.75
sg36
F0.8888888888888888
sg37
F0.3472222222222222
sg38
S'yellow'
p99
sba(icurlovision
Stone
p100
(dp101
g35
F3.2777777777777777
sg36
F0.38888888888888884
sg37
F0.3333333333333333
sg38
S'red'
p102
sba(icurlovision
Stone
p103
(dp104
g35
F2.194444444444444
sg36
F1.1944444444444444
sg37
F0.4722222222222222
sg38
S'red'
p105
sba(icurlovision
Stone
p106
(dp107
g35
F9.333333333333332
sg36
F0.6388888888888888
sg37
F0.4444444444444444
sg38
S'red'
p108
sba(icurlovision
Stone
p109
(dp110
g35
F4.138888888888888
sg36
F0.6388888888888888
sg37
F0.4583333333333333
sg38
S'yellow'
p111
sbasba(icurlovision
StoneLayout
p112
(dp113
g30
F0.4791666666666667
sg31
(lp114
(icurlovision
Stone
p115
(dp116
g35
F0.7745901639344263
sg36
F0.8729508196721312
sg37
F0.45491803278688525
sg38
S'yellow'
p117
sba(icurlovision
Stone
p118
(dp119
g35
F2.2254098360655736
sg36
F1.2172131147540983
sg37
F0.3442622950819672
sg38
S'red'
p120
sba(icurlovision
Stone
p121
(dp122
g35
F3.2827868852459017
sg36
F0.38114754098360654
sg37
F0.3442622950819672
sg38
S'red'
p123
sba(icurlovision
Stone
p124
(dp125
g35
F4.192622950819672
sg36
F0.6270491803278688
sg37
F0.319672131147541
sg38
S'yellow'
p126
sbasba(icurlovision
StoneLayout
p127
(dp128
g30
F0.4791666666666667
sg31
(lp129
(icurlovision
Stone
p130
(dp131
g35
F0.75
sg36
F0.8771186440677967
sg37
F0.3305084745762712
sg38
S'yellow'
p132
sba(icurlovision
Stone
p133
(dp134
g35
F3.0889830508474576
sg36
F0.3940677966101695
sg37
F0.35593220338983056
sg38
S'red'
p135
sba(icurlovision
Stone
p136
(dp137
g35
F4.1059322033898304
sg36
F0.7245762711864407
sg37
F0.31779661016949157
sg38
S'yellow'
p138
sba(icurlovision
Stone
p139
(dp140
g35
F4.741525423728814
sg36
F-0.012711864406779662
sg37
F0.31779661016949157
sg38
S'red'
p141
sba(icurlovision
Stone
p142
(dp143
g35
F2.1737288135593222
sg36
F1.207627118644068
sg37
F0.3432203389830509
sg38
S'red'
p144
sbasba(icurlovision
StoneLayout
p145
(dp146
g30
F0.4791666666666667
sg31
(lp147
(icurlovision
Stone
p148
(dp149
g35
F0.788135593220339
sg36
F0.8771186440677967
sg37
F0.35593220338983056
sg38
S'yellow'
p150
sba(icurlovision
Stone
p151
(dp152
g35
F4.016949152542373
sg36
F0.902542372881356
sg37
F0.3432203389830509
sg38
S'yellow'
p153
sba(icurlovision
Stone
p154
(dp155
g35
F2.2118644067796613
sg36
F1.1822033898305087
sg37
F0.3686440677966102
sg38
S'red'
p156
sba(icurlovision
Stone
p157
(dp158
g35
F3.1271186440677967
sg36
F0.3940677966101695
sg37
F0.3432203389830509
sg38
S'red'
p159
sba(icurlovision
Stone
p160
(dp161
g35
F5.4406779661016955
sg36
F0.75
sg37
F0.3305084745762712
sg38
S'yellow'
p162
sbasba(icurlovision
StoneLayout
p163
(dp164
g30
F0.4791666666666667
sg31
(lp165
(icurlovision
Stone
p166
(dp167
g35
F6.313432835820895
sg36
F0.7164179104477612
sg37
F0.42537313432835816
sg38
S'red'
p168
sba(icurlovision
Stone
p169
(dp170
g35
F2.0373134328358207
sg36
F1.1417910447761193
sg37
F0.42537313432835816
sg38
S'red'
p171
sba(icurlovision
Stone
p172
(dp173
g35
F0.6716417910447761
sg36
F0.8731343283582089
sg37
F0.33582089552238803
sg38
S'yellow'
p174
sba(icurlovision
Stone
p175
(dp176
g35
F2.9104477611940296
sg36
F0.3805970149253731
sg37
F0.33582089552238803
sg38
S'red'
p177
sba(icurlovision
Stone
p178
(dp179
g35
F3.716417910447761
sg36
F0.8283582089552238
sg37
F0.43656716417910446
sg38
S'yellow'
p180
sba(icurlovision
Stone
p181
(dp182
g35
F4.992537313432836
sg36
F0.6940298507462687
sg37
F0.43656716417910446
sg38
S'yellow'
p183
sbasba(icurlovision
StoneLayout
p184
(dp185
g30
F0.4791666666666667
sg31
(lp186
(icurlovision
Stone
p187
(dp188
g35
F0.7613636363636364
sg36
F0.875
sg37
F0.4318181818181818
sg38
S'yellow'
p189
sba(icurlovision
Stone
p190
(dp191
g35
F6.3977272727272725
sg36
F0.7159090909090909
sg37
F0.4318181818181818
sg38
S'red'
p192
sba(icurlovision
Stone
p193
(dp194
g35
F-0.2159090909090909
sg36
F-0.8295454545454546
sg37
F0.4318181818181818
sg38
S'red'
p195
sba(icurlovision
Stone
p196
(dp197
g35
F5.1022727272727275
sg36
F0.7386363636363636
sg37
F0.42045454545454547
sg38
S'yellow'
p198
sbasba(icurlovision
StoneLayout
p199
(dp200
g30
F0.4791666666666667
sg31
(lp201
(icurlovision
Stone
p202
(dp203
g35
F7.5905172413793105
sg36
F0.7887931034482758
sg37
F0.4525862068965517
sg38
S'red'
p204
sba(icurlovision
Stone
p205
(dp206
g35
F4.693965517241379
sg36
F0.34913793103448276
sg37
F0.3232758620689655
sg38
S'yellow'
p207
sba(icurlovision
Stone
p208
(dp209
g35
F-0.21982758620689655
sg36
F-0.9181034482758621
sg37
F0.3232758620689655
sg38
S'red'
p210
sba(icurlovision
Stone
p211
(dp212
g35
F6.193965517241379
sg36
F0.6594827586206896
sg37
F0.3620689655172414
sg38
S'red'
p213
sba(icurlovision
Stone
p214
(dp215
g35
F-4.900862068965517
sg36
F5.3405172413793105
sg37
F0.3232758620689655
sg38
S'yellow'
p216
sbasba(icurlovision
StoneLayout
p217
(dp218
g30
F0.4791666666666667
sg31
(lp219
(icurlovision
Stone
p220
(dp221
g35
F0.4722222222222222
sg36
F-1.472222222222222
sg37
F0.4583333333333333
sg38
S'yellow'
p222
sba(icurlovision
Stone
p223
(dp224
g35
F7.555555555555555
sg36
F0.8055555555555555
sg37
F0.4583333333333333
sg38
S'red'
p225
sba(icurlovision
Stone
p226
(dp227
g35
F6.222222222222221
sg36
F0.7222222222222222
sg37
F0.4305555555555555
sg38
S'red'
p228
sba(icurlovision
Stone
p229
(dp230
g35
F4.666666666666666
sg36
F0.3333333333333333
sg37
F0.4583333333333333
sg38
S'yellow'
p231
sbasba(icurlovision
StoneLayout
p232
(dp233
g30
F0.4791666666666667
sg31
(lp234
(icurlovision
Stone
p235
(dp236
g35
F6.8375
sg36
F1.3125
sg37
F0.45
sg38
S'red'
p237
sba(icurlovision
Stone
p238
(dp239
g35
F4.7625
sg36
F1.8125
sg37
F0.325
sg38
S'red'
p240
sba(icurlovision
Stone
p241
(dp242
g35
F8.3125
sg36
F0.7125
sg37
F0.35000000000000003
sg38
S'red'
p243
sbasbasS'red_score'
p244
I0
sS'red_hammer'
p245
I0
sba(icurlovision
EndResult
p246
(dp247
g2
I1
sg9
(lp248
(I8
I7
tp249
a(I7
I7
tp250
a(I7
I6
tp251
a(I5
I5
tp252
a(I5
I4
tp253
a(I4
I4
tp254
a(I4
I3
tp255
a(I3
I3
tp256
a(I3
I2
tp257
a(I2
I2
tp258
a(I2
I1
tp259
a(I1
I1
tp260
a(I1
I0
tp261
asg25
I2
sg26
(lp262
(icurlovision
StoneLayout
p263
(dp264
g30
F0.4791666666666667
sg31
(lp265
(icurlovision
Stone
p266
(dp267
g35
F1.5127118644067798
sg36
F0.6737288135593221
sg37
F0.3432203389830509
sg38
S'yellow'
p268
sbasba(icurlovision
StoneLayout
p269
(dp270
g30
F0.4791666666666667
sg31
(lp271
(icurlovision
Stone
p272
(dp273
g35
F1.56
sg36
F0.6599999999999999
sg37
F0.345
sg38
S'yellow'
p274
sba(icurlovision
Stone
p275
(dp276
g35
F9.06
sg36
F-2.4299999999999997
sg37
F0.285
sg38
S'red'
p277
sbasba(icurlovision
StoneLayout
p278
(dp279
g30
F0.4791666666666667
sg31
(lp280
(icurlovision
Stone
p281
(dp282
g35
F7.03125
sg36
F0.3125
sg37
F0.4375
sg38
S'yellow'
p283
sba(icurlovision
Stone
p284
(dp285
g35
F9.0
sg36
F-2.4375
sg37
F0.453125
sg38
S'red'
p286
sba(icurlovision
Stone
p287
(dp288
g35
F1.5
sg36
F0.65625
sg37
F0.34375
sg38
S'yellow'
p289
sbasba(icurlovision
StoneLayout
p290
(dp291
g30
F0.4791666666666667
sg31
(lp292
(icurlovision
Stone
p293
(dp294
g35
F2.6527777777777777
sg36
F0.986111111111111
sg37
F0.4583333333333333
sg38
S'yellow'
p295
sba(icurlovision
Stone
p296
(dp297
g35
F6.819444444444444
sg36
F0.2638888888888889
sg37
F0.4305555555555555
sg38
S'yellow'
p298
sba(icurlovision
Stone
p299
(dp300
g35
F8.791666666666666
sg36
F-2.4027777777777777
sg37
F0.4444444444444444
sg38
S'red'
p301
sba(icurlovision
Stone
p302
(dp303
g35
F1.347222222222222
sg36
F0.2638888888888889
sg37
F0.4583333333333333
sg38
S'red'
p304
sba(icurlovision
Stone
p305
(dp306
g35
F-0.7638888888888888
sg36
F0.4583333333333333
sg37
F0.4722222222222222
sg38
S'yellow'
p307
sba(icurlovision
Stone
p308
(dp309
g35
F3.9861111111111107
sg36
F1.375
sg37
F0.4444444444444444
sg38
S'red'
p310
sbasba(icurlovision
StoneLayout
p311
(dp312
g30
F0.4791666666666667
sg31
(lp313
(icurlovision
Stone
p314
(dp315
g35
F0.3088235294117647
sg36
F2.6029411764705883
sg37
F0.3529411764705882
sg38
S'yellow'
p316
sba(icurlovision
Stone
p317
(dp318
g35
F6.838235294117647
sg36
F0.3088235294117647
sg37
F0.4411764705882353
sg38
S'yellow'
p319
sba(icurlovision
Stone
p320
(dp321
g35
F8.838235294117647
sg36
F-2.3970588235294117
sg37
F0.4411764705882353
sg38
S'red'
p322
sba(icurlovision
Stone
p323
(dp324
g35
F-0.7205882352941176
sg36
F0.45588235294117646
sg37
F0.29411764705882354
sg38
S'yellow'
p325
sba(icurlovision
Stone
p326
(dp327
g35
F4.838235294117647
sg36
F1.5441176470588236
sg37
F0.3382352941176471
sg38
S'yellow'
p328
sbasba(icurlovision
StoneLayout
p329
(dp330
g30
F0.4791666666666667
sg31
(lp331
(icurlovision
Stone
p332
(dp333
g35
F5.974576271186441
sg36
F0.8771186440677967
sg37
F0.4067796610169492
sg38
S'yellow'
p334
sba(icurlovision
Stone
p335
(dp336
g35
F7.805084745762712
sg36
F-1.5889830508474578
sg37
F0.4067796610169492
sg38
S'red'
p337
sba(icurlovision
Stone
p338
(dp339
g35
F4.703389830508475
sg36
F1.538135593220339
sg37
F0.31779661016949157
sg38
S'red'
p340
sbasba(icurlovision
StoneLayout
p341
(dp342
g30
F0.4791666666666667
sg31
(lp343
(icurlovision
Stone
p344
(dp345
g35
F7.0673076923076925
sg36
F-1.6442307692307694
sg37
F0.46153846153846156
sg38
S'yellow'
p346
sba(icurlovision
Stone
p347
(dp348
g35
F9.14423076923077
sg36
F-2.480769230769231
sg37
F0.44711538461538464
sg38
S'red'
p349
sba(icurlovision
Stone
p350
(dp351
g35
F4.8173076923076925
sg36
F-0.8942307692307693
sg37
F0.46153846153846156
sg38
S'yellow'
p352
sbasba(icurlovision
StoneLayout
p353
(dp354
g30
F0.4791666666666667
sg31
(lp355
(icurlovision
Stone
p356
(dp357
g35
F9.107142857142858
sg36
F-2.4642857142857144
sg37
F0.44387755102040816
sg38
S'red'
p358
sba(icurlovision
Stone
p359
(dp360
g35
F7.0561224489795915
sg36
F-1.6683673469387754
sg37
F0.29081632653061223
sg38
S'yellow'
p361
sba(icurlovision
Stone
p362
(dp363
g35
F-0.10714285714285714
sg36
F5.678571428571429
sg37
F0.3214285714285714
sg38
S'red'
p364
sbasba(icurlovision
StoneLayout
p365
(dp366
g30
F0.4791666666666667
sg31
(lp367
(icurlovision
Stone
p368
(dp369
g35
F-0.546875
sg36
F2.859375
sg37
F0.46875
sg38
S'yellow'
p370
sba(icurlovision
Stone
p371
(dp372
g35
F6.953125
sg36
F-1.609375
sg37
F0.296875
sg38
S'yellow'
p373
sba(icurlovision
Stone
p374
(dp375
g35
F9.015625
sg36
F-2.453125
sg37
F0.4375
sg38
S'red'
p376
sbasba(icurlovision
StoneLayout
p377
(dp378
g30
F0.4791666666666667
sg31
(lp379
(icurlovision
Stone
p380
(dp381
g35
F-0.5336538461538461
sg36
F2.8125
sg37
F0.44711538461538464
sg38
S'yellow'
p382
sba(icurlovision
Stone
p383
(dp384
g35
F8.8125
sg36
F-2.3798076923076925
sg37
F0.4326923076923077
sg38
S'red'
p385
sba(icurlovision
Stone
p386
(dp387
g35
F6.793269230769231
sg36
F-1.5721153846153848
sg37
F0.4326923076923077
sg38
S'yellow'
p388
sba(icurlovision
Stone
p389
(dp390
g35
F3.6490384615384617
sg36
F-1.6009615384615385
sg37
F0.34615384615384615
sg38
S'red'
p391
sbasba(icurlovision
StoneLayout
p392
(dp393
g30
F0.4791666666666667
sg31
(lp394
(icurlovision
Stone
p395
(dp396
g35
F-0.5294117647058824
sg36
F2.8529411764705883
sg37
F0.45588235294117646
sg38
S'yellow'
p397
sba(icurlovision
Stone
p398
(dp399
g35
F0.9705882352941176
sg36
F-0.8529411764705882
sg37
F0.45588235294117646
sg38
S'yellow'
p400
sba(icurlovision
Stone
p401
(dp402
g35
F7.0
sg36
F-1.6470588235294117
sg37
F0.3382352941176471
sg38
S'yellow'
p403
sba(icurlovision
Stone
p404
(dp405
g35
F9.058823529411764
sg36
F-2.4705882352941178
sg37
F0.3235294117647059
sg38
S'red'
p406
sba(icurlovision
Stone
p407
(dp408
g35
F3.735294117647059
sg36
F-1.6470588235294117
sg37
F0.45588235294117646
sg38
S'red'
p409
sbasba(icurlovision
StoneLayout
p410
(dp411
g30
F0.4791666666666667
sg31
(lp412
(icurlovision
Stone
p413
(dp414
g35
F-0.5480769230769231
sg36
F2.9134615384615388
sg37
F0.4759615384615385
sg38
S'yellow'
p415
sba(icurlovision
Stone
p416
(dp417
g35
F9.057692307692308
sg36
F-2.451923076923077
sg37
F0.46153846153846156
sg38
S'red'
p418
sba(icurlovision
Stone
p419
(dp420
g35
F3.75
sg36
F-1.6153846153846154
sg37
F0.46153846153846156
sg38
S'red'
p421
sba(icurlovision
Stone
p422
(dp423
g35
F7.038461538461539
sg36
F-1.6442307692307694
sg37
F0.31730769230769235
sg38
S'yellow'
p424
sba(icurlovision
Stone
p425
(dp426
g35
F1.2403846153846154
sg36
F0.34615384615384615
sg37
F0.46153846153846156
sg38
S'red'
p427
sbasba(icurlovision
StoneLayout
p428
(dp429
g30
F0.4791666666666667
sg31
(lp430
(icurlovision
Stone
p431
(dp432
g35
F-0.4811320754716981
sg36
F2.716981132075472
sg37
F0.3113207547169811
sg38
S'yellow'
p433
sba(icurlovision
Stone
p434
(dp435
g35
F8.518867924528301
sg36
F-2.3207547169811322
sg37
F0.42452830188679247
sg38
S'red'
p436
sba(icurlovision
Stone
p437
(dp438
g35
F6.59433962264151
sg36
F-1.5566037735849056
sg37
F0.41037735849056606
sg38
S'yellow'
p439
sba(icurlovision
Stone
p440
(dp441
g35
F-0.7641509433962265
sg36
F6.877358490566038
sg37
F0.4528301886792453
sg38
S'red'
p442
sba(icurlovision
Stone
p443
(dp444
g35
F1.7547169811320755
sg36
F-0.5377358490566038
sg37
F0.3113207547169811
sg38
S'yellow'
p445
sba(icurlovision
Stone
p446
(dp447
g35
F3.5660377358490565
sg36
F-1.528301886792453
sg37
F0.3113207547169811
sg38
S'red'
p448
sbasbasg244
I2
sg245
I1
sba(icurlovision
EndResult
p449
(dp450
g2
I3
sg9
(lp451
(I7
I7
tp452
a(I6
I6
tp453
a(I5
I6
tp454
a(I5
I5
tp455
a(I4
I5
tp456
a(I4
I4
tp457
a(I3
I4
tp458
a(I3
I3
tp459
a(I2
I3
tp460
a(I2
I2
tp461
a(I1
I2
tp462
a(I1
I1
tp463
a(I0
I1
tp464
asg25
I3
sg26
(lp465
(icurlovision
StoneLayout
p466
(dp467
g30
F0.4791666666666667
sg31
(lp468
(icurlovision
Stone
p469
(dp470
g35
F8.935344827586206
sg36
F3.3232758620689653
sg37
F0.4396551724137931
sg38
S'yellow'
p471
sba(icurlovision
Stone
p472
(dp473
g35
F6.6594827586206895
sg36
F-0.03879310344827586
sg37
F0.4396551724137931
sg38
S'red'
p474
sbasba(icurlovision
StoneLayout
p475
(dp476
g30
F0.4791666666666667
sg31
(lp477
(icurlovision
Stone
p478
(dp479
g35
F1.0848214285714286
sg36
F0.20089285714285712
sg37
F0.46875
sg38
S'red'
p480
sba(icurlovision
Stone
p481
(dp482
g35
F9.28125
sg36
F3.46875
sg37
F0.45535714285714285
sg38
S'yellow'
p483
sba(icurlovision
Stone
p484
(dp485
g35
F6.8705357142857135
sg36
F-0.06696428571428571
sg37
F0.45535714285714285
sg38
S'red'
p486
sba(icurlovision
Stone
p487
(dp488
g35
F6.334821428571428
sg36
F0.9508928571428571
sg37
F0.3214285714285714
sg38
S'yellow'
p489
sbasba(icurlovision
StoneLayout
p490
(dp491
g30
F0.4791666666666667
sg31
(lp492
(icurlovision
Stone
p493
(dp494
g35
F1.0833333333333333
sg36
F0.19444444444444442
sg37
F0.4444444444444444
sg38
S'red'
p495
sba(icurlovision
Stone
p496
(dp497
g35
F6.111111111111111
sg36
F0.8888888888888888
sg37
F0.4305555555555555
sg38
S'yellow'
p498
sbasba(icurlovision
StoneLayout
p499
(dp500
g30
F0.4791666666666667
sg31
(lp501
(icurlovision
Stone
p502
(dp503
g35
F-4.622727272727272
sg36
F0.47727272727272724
sg37
F0.35454545454545455
sg38
S'yellow'
p504
sba(icurlovision
Stone
p505
(dp506
g35
F6.2318181818181815
sg36
F0.9409090909090909
sg37
F0.35454545454545455
sg38
S'yellow'
p507
sba(icurlovision
Stone
p508
(dp509
g35
F1.0772727272727272
sg36
F0.20454545454545453
sg37
F0.3409090909090909
sg38
S'red'
p510
sbasba(icurlovision
StoneLayout
p511
(dp512
g30
F0.4791666666666667
sg31
(lp513
(icurlovision
Stone
p514
(dp515
g35
F-4.75
sg36
F0.41666666666666663
sg37
F0.3194444444444444
sg38
S'yellow'
p516
sba(icurlovision
Stone
p517
(dp518
g35
F1.0833333333333333
sg36
F0.19444444444444442
sg37
F0.4722222222222222
sg38
S'red'
p519
sba(icurlovision
Stone
p520
(dp521
g35
F4.777777777777778
sg36
F-2.444444444444444
sg37
F0.3611111111111111
sg38
S'red'
p522
sbasba(icurlovision
StoneLayout
p523
(dp524
g30
F0.4791666666666667
sg31
(lp525
(icurlovision
Stone
p526
(dp527
g35
F4.111607142857142
sg36
F0.24107142857142855
sg37
F0.33482142857142855
sg38
S'yellow'
p528
sba(icurlovision
Stone
p529
(dp530
g35
F1.03125
sg36
F0.21428571428571427
sg37
F0.33482142857142855
sg38
S'red'
p531
sba(icurlovision
Stone
p532
(dp533
g35
F-4.59375
sg36
F0.4821428571428571
sg37
F0.33482142857142855
sg38
S'yellow'
p534
sbasba(icurlovision
StoneLayout
p535
(dp536
g30
F0.4791666666666667
sg31
(lp537
(icurlovision
Stone
p538
(dp539
g35
F0.3
sg36
F-4.704545454545454
sg37
F0.36818181818181817
sg38
S'red'
p540
sba(icurlovision
Stone
p541
(dp542
g35
F-4.7727272727272725
sg36
F0.44999999999999996
sg37
F0.3136363636363636
sg38
S'yellow'
p543
sba(icurlovision
Stone
p544
(dp545
g35
F1.0909090909090908
sg36
F0.20454545454545453
sg37
F0.3409090909090909
sg38
S'red'
p546
sbasba(icurlovision
StoneLayout
p547
(dp548
g30
F0.4791666666666667
sg31
(lp549
(icurlovision
Stone
p550
(dp551
g35
F-3.8035714285714284
sg36
F-4.607142857142857
sg37
F0.46875
sg38
S'yellow'
p552
sba(icurlovision
Stone
p553
(dp554
g35
F-5.357142857142857
sg36
F4.901785714285714
sg37
F0.46875
sg38
S'red'
p555
sba(icurlovision
Stone
p556
(dp557
g35
F-4.794642857142857
sg36
F0.45535714285714285
sg37
F0.33482142857142855
sg38
S'yellow'
p558
sba(icurlovision
Stone
p559
(dp560
g35
F0.29464285714285715
sg36
F-4.714285714285714
sg37
F0.3482142857142857
sg38
S'red'
p561
sbasba(icurlovision
StoneLayout
p562
(dp563
g30
F0.4791666666666667
sg31
(lp564
(icurlovision
Stone
p565
(dp566
g35
F-5.1
sg36
F4.677272727272727
sg37
F0.4636363636363636
sg38
S'red'
p567
sba(icurlovision
Stone
p568
(dp569
g35
F-3.6545454545454543
sg36
F-4.459090909090909
sg37
F0.35454545454545455
sg38
S'yellow'
p570
sba(icurlovision
Stone
p571
(dp572
g35
F-3.7636363636363637
sg36
F0.7227272727272727
sg37
F0.44999999999999996
sg38
S'red'
p573
sba(icurlovision
Stone
p574
(dp575
g35
F0.2727272727272727
sg36
F-4.568181818181818
sg37
F0.4636363636363636
sg38
S'red'
p576
sbasba(icurlovision
StoneLayout
p577
(dp578
g30
F0.4791666666666667
sg31
(lp579
(icurlovision
Stone
p580
(dp581
g35
F-3.7245762711864407
sg36
F-4.5
sg37
F0.3432203389830509
sg38
S'yellow'
p582
sba(icurlovision
Stone
p583
(dp584
g35
F-5.1991525423728815
sg36
F4.779661016949153
sg37
F0.3305084745762712
sg38
S'red'
p585
sba(icurlovision
Stone
p586
(dp587
g35
F-2.9618644067796613
sg36
F0.5084745762711864
sg37
F0.3305084745762712
sg38
S'yellow'
p588
sba(icurlovision
Stone
p589
(dp590
g35
F-4.13135593220339
sg36
F0.8898305084745763
sg37
F0.3305084745762712
sg38
S'red'
p591
sbasba(icurlovision
StoneLayout
p592
(dp593
g30
F0.4791666666666667
sg31
(lp594
(icurlovision
Stone
p595
(dp596
g35
F-5.223214285714286
sg36
F4.794642857142857
sg37
F0.46875
sg38
S'red'
p597
sba(icurlovision
Stone
p598
(dp599
g35
F-2.142857142857143
sg36
F0.40178571428571425
sg37
F0.45535714285714285
sg38
S'red'
p600
sba(icurlovision
Stone
p601
(dp602
g35
F-3.75
sg36
F-4.526785714285714
sg37
F0.33482142857142855
sg38
S'yellow'
p603
sbasba(icurlovision
StoneLayout
p604
(dp605
g30
F0.4791666666666667
sg31
(lp606
(icurlovision
Stone
p607
(dp608
g35
F-5.2105263157894735
sg36
F4.75
sg37
F0.47368421052631576
sg38
S'red'
p609
sba(icurlovision
Stone
p610
(dp611
g35
F-4.315789473684211
sg36
F4.9868421052631575
sg37
F0.3421052631578947
sg38
S'yellow'
p612
sba(icurlovision
Stone
p613
(dp614
g35
F-3.7368421052631575
sg36
F-4.539473684210526
sg37
F0.4473684210526315
sg38
S'yellow'
p615
sbasba(icurlovision
StoneLayout
p616
(dp617
g30
F0.4791666666666667
sg31
(lp618
(icurlovision
Stone
p619
(dp620
g35
F-3.1088709677419355
sg36
F-5.310483870967742
sg37
F0.4838709677419355
sg38
S'red'
p621
sba(icurlovision
Stone
p622
(dp623
g35
F-5.237903225806451
sg36
F4.80241935483871
sg37
F0.3387096774193548
sg38
S'red'
p624
sba(icurlovision
Stone
p625
(dp626
g35
F-4.294354838709677
sg36
F4.971774193548387
sg37
F0.47177419354838707
sg38
S'yellow'
p627
sbasbasg244
I2
sg245
I0
sba(icurlovision
EndResult
p628
(dp629
g2
I4
sg9
(lp630
(I7
I7
tp631
a(I7
I6
tp632
a(I6
I6
tp633
a(I6
I5
tp634
a(I5
I5
tp635
a(I5
I4
tp636
a(I4
I4
tp637
a(I3
I3
tp638
a(I3
I2
tp639
a(I2
I2
tp640
a(I2
I1
tp641
a(I1
I1
tp642
a(I1
I0
tp643
asg25
I4
sg26
(lp644
(icurlovision
StoneLayout
p645
(dp646
g30
F0.4791666666666667
sg31
(lp647
(icurlovision
Stone
p648
(dp649
g35
F7.794642857142857
sg36
F-3.1071428571428568
sg37
F0.4419642857142857
sg38
S'red'
p650
sba(icurlovision
Stone
p651
(dp652
g35
F1.982142857142857
sg36
F0.45535714285714285
sg37
F0.45535714285714285
sg38
S'yellow'
p653
sbasba(icurlovision
StoneLayout
p654
(dp655
g30
F0.4791666666666667
sg31
(lp656
(icurlovision
Stone
p657
(dp658
g35
F8.055555555555555
sg36
F-3.222222222222222
sg37
F0.3055555555555555
sg38
S'red'
p659
sba(icurlovision
Stone
p660
(dp661
g35
F2.0277777777777777
sg36
F0.4444444444444444
sg37
F0.3055555555555555
sg38
S'yellow'
p662
sba(icurlovision
Stone
p663
(dp664
g35
F8.833333333333332
sg36
F0.3333333333333333
sg37
F0.375
sg38
S'yellow'
p665
sbasba(icurlovision
StoneLayout
p666
(dp667
g30
F0.4791666666666667
sg31
(lp668
(icurlovision
Stone
p669
(dp670
g35
F7.8080357142857135
sg36
F-3.09375
sg37
F0.29464285714285715
sg38
S'red'
p671
sba(icurlovision
Stone
p672
(dp673
g35
F2.90625
sg36
F0.5223214285714285
sg37
F0.33482142857142855
sg38
S'red'
p674
sba(icurlovision
Stone
p675
(dp676
g35
F1.8616071428571428
sg36
F0.46875
sg37
F0.4419642857142857
sg38
S'yellow'
p677
sba(icurlovision
Stone
p678
(dp679
g35
F8.558035714285714
sg36
F0.36160714285714285
sg37
F0.4419642857142857
sg38
S'yellow'
p680
sbasba(icurlovision
StoneLayout
p681
(dp682
g30
F0.4791666666666667
sg31
(lp683
(icurlovision
Stone
p684
(dp685
g35
F7.952830188679245
sg36
F-3.2264150943396226
sg37
F0.4528301886792453
sg38
S'red'
p686
sba(icurlovision
Stone
p687
(dp688
g35
F2.8301886792452833
sg36
F0.4811320754716981
sg37
F0.4528301886792453
sg38
S'red'
p689
sba(icurlovision
Stone
p690
(dp691
g35
F3.8773584905660377
sg36
F0.5660377358490566
sg37
F0.339622641509434
sg38
S'yellow'
p692
sba(icurlovision
Stone
p693
(dp694
g35
F1.839622641509434
sg36
F0.4811320754716981
sg37
F0.32547169811320753
sg38
S'yellow'
p695
sba(icurlovision
Stone
p696
(dp697
g35
F8.80188679245283
sg36
F0.3679245283018868
sg37
F0.32547169811320753
sg38
S'yellow'
p698
sbasba(icurlovision
StoneLayout
p699
(dp700
g30
F0.4791666666666667
sg31
(lp701
(icurlovision
Stone
p702
(dp703
g35
F8.01388888888889
sg36
F-3.2361111111111107
sg37
F0.4722222222222222
sg38
S'red'
p704
sba(icurlovision
Stone
p705
(dp706
g35
F8.847222222222221
sg36
F0.3472222222222222
sg37
F0.3333333333333333
sg38
S'yellow'
p707
sba(icurlovision
Stone
p708
(dp709
g35
F1.875
sg36
F0.4583333333333333
sg37
F0.3194444444444444
sg38
S'yellow'
p710
sba(icurlovision
Stone
p711
(dp712
g35
F2.819444444444444
sg36
F0.4305555555555555
sg37
F0.3194444444444444
sg38
S'red'
p713
sba(icurlovision
Stone
p714
(dp715
g35
F3.708333333333333
sg36
F0.7083333333333333
sg37
F0.4583333333333333
sg38
S'yellow'
p716
sba(icurlovision
Stone
p717
(dp718
g35
F4.458333333333333
sg36
F-0.125
sg37
F0.3055555555555555
sg38
S'red'
p719
sbasba(icurlovision
StoneLayout
p720
(dp721
g30
F0.4791666666666667
sg31
(lp722
(icurlovision
Stone
p723
(dp724
g35
F7.7923728813559325
sg36
F-3.1398305084745766
sg37
F0.44491525423728817
sg38
S'red'
p725
sba(icurlovision
Stone
p726
(dp727
g35
F6.4957627118644075
sg36
F-1.1059322033898307
sg37
F0.31779661016949157
sg38
S'yellow'
p728
sba(icurlovision
Stone
p729
(dp730
g35
F1.8177966101694916
sg36
F0.44491525423728817
sg37
F0.3305084745762712
sg38
S'yellow'
p731
sba(icurlovision
Stone
p732
(dp733
g35
F8.25
sg36
F0.6737288135593221
sg37
F0.4576271186440678
sg38
S'yellow'
p734
sba(icurlovision
Stone
p735
(dp736
g35
F2.783898305084746
sg36
F0.44491525423728817
sg37
F0.41949152542372886
sg38
S'red'
p737
sba(icurlovision
Stone
p738
(dp739
g35
F3.6737288135593222
sg36
F0.6991525423728814
sg37
F0.31779661016949157
sg38
S'yellow'
p740
sba(icurlovision
Stone
p741
(dp742
g35
F4.360169491525424
sg36
F-0.1398305084745763
sg37
F0.3305084745762712
sg38
S'red'
p743
sbasba(icurlovision
StoneLayout
p744
(dp745
g30
F0.4791666666666667
sg31
(lp746
(icurlovision
Stone
p747
(dp748
g35
F7.934210526315789
sg36
F-3.1973684210526314
sg37
F0.4473684210526315
sg38
S'red'
p749
sba(icurlovision
Stone
p750
(dp751
g35
F8.43421052631579
sg36
F0.6710526315789473
sg37
F0.3421052631578947
sg38
S'yellow'
p752
sba(icurlovision
Stone
p753
(dp754
g35
F7.38157894736842
sg36
F-1.013157894736842
sg37
F0.4473684210526315
sg38
S'red'
p755
sba(icurlovision
Stone
p756
(dp757
g35
F2.8289473684210527
sg36
F0.4605263157894737
sg37
F0.3421052631578947
sg38
S'red'
p758
sba(icurlovision
Stone
p759
(dp760
g35
F1.8552631578947367
sg36
F0.4605263157894737
sg37
F0.4605263157894737
sg38
S'yellow'
p761
sba(icurlovision
Stone
p762
(dp763
g35
F3.75
sg36
F0.7236842105263157
sg37
F0.3421052631578947
sg38
S'yellow'
p764
sba(icurlovision
Stone
p765
(dp766
g35
F4.434210526315789
sg36
F-0.14473684210526316
sg37
F0.3289473684210526
sg38
S'red'
p767
sbasba(icurlovision
StoneLayout
p768
(dp769
g30
F0.4791666666666667
sg31
(lp770
(icurlovision
Stone
p771
(dp772
g35
F8.186170212765957
sg36
F-3.2712765957446805
sg37
F0.4787234042553191
sg38
S'red'
p773
sba(icurlovision
Stone
p774
(dp775
g35
F2.824468085106383
sg36
F0.49468085106382975
sg37
F0.3670212765957446
sg38
S'red'
p776
sba(icurlovision
Stone
p777
(dp778
g35
F8.76063829787234
sg36
F-2.50531914893617
sg37
F0.4787234042553191
sg38
S'red'
p779
sba(icurlovision
Stone
p780
(dp781
g35
F-1.5797872340425532
sg36
F0.23936170212765956
sg37
F0.4627659574468085
sg38
S'yellow'
p782
sba(icurlovision
Stone
p783
(dp784
g35
F8.696808510638297
sg36
F0.7180851063829786
sg37
F0.351063829787234
sg38
S'yellow'
p785
sbasba(icurlovision
StoneLayout
p786
(dp787
g30
F0.4791666666666667
sg31
(lp788
(icurlovision
Stone
p789
(dp790
g35
F2.4899999999999998
sg36
F0.75
sg37
F0.44999999999999996
sg38
S'red'
p791
sba(icurlovision
Stone
p792
(dp793
g35
F8.49
sg36
F-2.4899999999999998
sg37
F0.44999999999999996
sg38
S'red'
p794
sba(icurlovision
Stone
p795
(dp796
g35
F8.43
sg36
F0.6599999999999999
sg37
F0.44999999999999996
sg38
S'yellow'
p797
sba(icurlovision
Stone
p798
(dp799
g35
F-1.56
sg36
F0.24
sg37
F0.44999999999999996
sg38
S'yellow'
p800
sba(icurlovision
Stone
p801
(dp802
g35
F7.89
sg36
F-3.2399999999999998
sg37
F0.44999999999999996
sg38
S'red'
p803
sba(icurlovision
Stone
p804
(dp805
g35
F1.6199999999999999
sg36
F-0.8999999999999999
sg37
F0.435
sg38
S'yellow'
p806
sbasba(icurlovision
StoneLayout
p807
(dp808
g30
F0.4791666666666667
sg31
(lp809
(icurlovision
Stone
p810
(dp811
g35
F2.2216981132075473
sg36
F-1.330188679245283
sg37
F0.3113207547169811
sg38
S'red'
p812
sba(icurlovision
Stone
p813
(dp814
g35
F-4.485849056603774
sg36
F4.584905660377359
sg37
F0.4811320754716981
sg38
S'yellow'
p815
sba(icurlovision
Stone
p816
(dp817
g35
F7.85377358490566
sg36
F-3.2547169811320757
sg37
F0.3113207547169811
sg38
S'red'
p818
sba(icurlovision
Stone
p819
(dp820
g35
F2.44811320754717
sg36
F0.7075471698113208
sg37
F0.3113207547169811
sg38
S'red'
p821
sba(icurlovision
Stone
p822
(dp823
g35
F8.36320754716981
sg36
F0.5943396226415094
sg37
F0.339622641509434
sg38
S'yellow'
p824
sba(icurlovision
Stone
p825
(dp826
g35
F8.419811320754718
sg36
F-2.547169811320755
sg37
F0.4386792452830189
sg38
S'red'
p827
sbasba(icurlovision
StoneLayout
p828
(dp829
g30
F0.4791666666666667
sg31
(lp830
(icurlovision
Stone
p831
(dp832
g35
F2.755434782608696
sg36
F-0.1467391304347826
sg37
F0.47282608695652173
sg38
S'yellow'
p833
sba(icurlovision
Stone
p834
(dp835
g35
F2.3967391304347827
sg36
F1.0923913043478262
sg37
F0.45652173913043476
sg38
S'red'
p836
sba(icurlovision
Stone
p837
(dp838
g35
F-4.646739130434782
sg36
F4.744565217391305
sg37
F0.47282608695652173
sg38
S'yellow'
p839
sba(icurlovision
Stone
p840
(dp841
g35
F8.559782608695652
sg36
F0.6684782608695652
sg37
F0.45652173913043476
sg38
S'yellow'
p842
sba(icurlovision
Stone
p843
(dp844
g35
F8.03804347826087
sg36
F-3.309782608695652
sg37
F0.45652173913043476
sg38
S'red'
p845
sba(icurlovision
Stone
p846
(dp847
g35
F8.657608695652174
sg36
F-2.559782608695652
sg37
F0.44021739130434784
sg38
S'red'
p848
sbasba(icurlovision
StoneLayout
p849
(dp850
g30
F0.4791666666666667
sg31
(lp851
(icurlovision
Stone
p852
(dp853
g35
F-1.3833333333333333
sg36
F0.9166666666666666
sg37
F0.45
sg38
S'yellow'
p854
sba(icurlovision
Stone
p855
(dp856
g35
F8.216666666666667
sg36
F0.65
sg37
F0.3333333333333333
sg38
S'yellow'
p857
sba(icurlovision
Stone
p858
(dp859
g35
F2.283333333333333
sg36
F2.1166666666666667
sg37
F0.43333333333333335
sg38
S'red'
p860
sba(icurlovision
Stone
p861
(dp862
g35
F7.716666666666667
sg36
F-3.15
sg37
F0.45
sg38
S'red'
p863
sba(icurlovision
Stone
p864
(dp865
g35
F-4.383333333333333
sg36
F4.516666666666667
sg37
F0.45
sg38
S'yellow'
p866
sba(icurlovision
Stone
p867
(dp868
g35
F8.283333333333333
sg36
F-2.4166666666666665
sg37
F0.2833333333333333
sg38
S'red'
p869
sbasba(icurlovision
StoneLayout
p870
(dp871
g30
F0.4791666666666667
sg31
(lp872
(icurlovision
Stone
p873
(dp874
g35
F0.03125
sg36
F0.90625
sg37
F0.328125
sg38
S'yellow'
p875
sba(icurlovision
Stone
p876
(dp877
g35
F-1.40625
sg36
F0.9375
sg37
F0.328125
sg38
S'yellow'
p878
sba(icurlovision
Stone
p879
(dp880
g35
F-4.5
sg36
F4.625
sg37
F0.328125
sg38
S'yellow'
p881
sba(icurlovision
Stone
p882
(dp883
g35
F7.875
sg36
F-3.25
sg37
F0.453125
sg38
S'red'
p884
sba(icurlovision
Stone
p885
(dp886
g35
F8.40625
sg36
F0.625
sg37
F0.34375
sg38
S'yellow'
p887
sba(icurlovision
Stone
p888
(dp889
g35
F2.375
sg36
F2.125
sg37
F0.453125
sg38
S'red'
p890
sba(icurlovision
Stone
p891
(dp892
g35
F8.46875
sg36
F-2.5
sg37
F0.453125
sg38
S'red'
p893
sbasbasg244
I2
sg245
I1
sba(icurlovision
EndResult
p894
(dp895
g2
I4
sg9
(lp896
(I7
I6
tp897
a(I6
I6
tp898
a(I6
I5
tp899
a(I5
I5
tp900
a(I5
I4
tp901
a(I4
I4
tp902
a(I4
I3
tp903
a(I3
I3
tp904
a(I3
I2
tp905
a(I2
I2
tp906
a(I2
I1
tp907
a(I1
I1
tp908
a(I1
I0
tp909
asg25
I5
sg26
(lp910
(icurlovision
StoneLayout
p911
(dp912
g30
F0.4791666666666667
sg31
(lp913
(icurlovision
Stone
p914
(dp915
g35
F1.3032786885245902
sg36
F0.319672131147541
sg37
F0.3442622950819672
sg38
S'yellow'
p916
sba(icurlovision
Stone
p917
(dp918
g35
F6.959016393442623
sg36
F-3.319672131147541
sg37
F0.45491803278688525
sg38
S'red'
p919
sba(icurlovision
Stone
p920
(dp921
g35
F4.622950819672131
sg36
F0.07377049180327869
sg37
F0.3442622950819672
sg38
S'yellow'
p922
sbasba(icurlovision
StoneLayout
p923
(dp924
g30
F0.4791666666666667
sg31
(lp925
(icurlovision
Stone
p926
(dp927
g35
F6.777777777777778
sg36
F-3.638888888888889
sg37
F0.4583333333333333
sg38
S'red'
p928
sba(icurlovision
Stone
p929
(dp930
g35
F1.3055555555555556
sg36
F0.3055555555555555
sg37
F0.4444444444444444
sg38
S'yellow'
p931
sba(icurlovision
Stone
p932
(dp933
g35
F4.638888888888888
sg36
F0.05555555555555555
sg37
F0.3194444444444444
sg38
S'yellow'
p934
sba(icurlovision
Stone
p935
(dp936
g35
F5.166666666666666
sg36
F-2.0
sg37
F0.4444444444444444
sg38
S'red'
p937
sbasba(icurlovision
StoneLayout
p938
(dp939
g30
F0.4791666666666667
sg31
(lp940
(icurlovision
Stone
p941
(dp942
g35
F6.9409090909090905
sg36
F-3.7227272727272727
sg37
F0.4636363636363636
sg38
S'red'
p943
sba(icurlovision
Stone
p944
(dp945
g35
F1.3499999999999999
sg36
F0.2863636363636364
sg37
F0.4636363636363636
sg38
S'yellow'
p946
sba(icurlovision
Stone
p947
(dp948
g35
F4.759090909090909
sg36
F0.04090909090909091
sg37
F0.3136363636363636
sg38
S'yellow'
p949
sba(icurlovision
Stone
p950
(dp951
g35
F5.904545454545454
sg36
F-1.1863636363636363
sg37
F0.32727272727272727
sg38
S'yellow'
p952
sbasba(icurlovision
StoneLayout
p953
(dp954
g30
F0.4791666666666667
sg31
(lp955
(icurlovision
Stone
p956
(dp957
g35
F7.737500000000001
sg36
F-3.125
sg37
F0.4375
sg38
S'red'
p958
sba(icurlovision
Stone
p959
(dp960
g35
F2.3875
sg36
F0.7250000000000001
sg37
F0.325
sg38
S'yellow'
p961
sba(icurlovision
Stone
p962
(dp963
g35
F6.737500000000001
sg36
F-0.675
sg37
F0.3125
sg38
S'yellow'
p964
sba(icurlovision
Stone
p965
(dp966
g35
F6.237500000000001
sg36
F1.2750000000000001
sg37
F0.41250000000000003
sg38
S'red'
p967
sbasba(icurlovision
StoneLayout
p968
(dp969
g30
F0.4791666666666667
sg31
(lp970
(icurlovision
Stone
p971
(dp972
g35
F6.736607142857142
sg36
F-3.602678571428571
sg37
F0.45535714285714285
sg38
S'red'
p973
sba(icurlovision
Stone
p974
(dp975
g35
F1.2991071428571428
sg36
F0.30803571428571425
sg37
F0.3214285714285714
sg38
S'yellow'
p976
sba(icurlovision
Stone
p977
(dp978
g35
F5.504464285714286
sg36
F-1.8348214285714284
sg37
F0.33482142857142855
sg38
S'yellow'
p979
sba(icurlovision
Stone
p980
(dp981
g35
F5.504464285714286
sg36
F-0.2544642857142857
sg37
F0.33482142857142855
sg38
S'yellow'
p982
sbasba(icurlovision
StoneLayout
p983
(dp984
g30
F0.4791666666666667
sg31
(lp985
(icurlovision
Stone
p986
(dp987
g35
F6.918103448275862
sg36
F-3.711206896551724
sg37
F0.47844827586206895
sg38
S'red'
p988
sba(icurlovision
Stone
p989
(dp990
g35
F1.3060344827586208
sg36
F0.3232758620689655
sg37
F0.3620689655172414
sg38
S'yellow'
p991
sba(icurlovision
Stone
p992
(dp993
g35
F5.650862068965517
sg36
F-0.9956896551724138
sg37
F0.3232758620689655
sg38
S'red'
p994
sbasba(icurlovision
StoneLayout
p995
(dp996
g30
F0.4791666666666667
sg31
(lp997
(icurlovision
Stone
p998
(dp999
g35
F6.947368421052631
sg36
F-3.75
sg37
F0.47368421052631576
sg38
S'red'
p1000
sba(icurlovision
Stone
p1001
(dp1002
g35
F2.8421052631578947
sg36
F3.56578947368421
sg37
F0.4605263157894737
sg38
S'yellow'
p1003
sba(icurlovision
Stone
p1004
(dp1005
g35
F1.3421052631578947
sg36
F0.3026315789473684
sg37
F0.35526315789473684
sg38
S'yellow'
p1006
sbasba(icurlovision
StoneLayout
p1007
(dp1008
g30
F0.4791666666666667
sg31
(lp1009
(icurlovision
Stone
p1010
(dp1011
g35
F1.2875
sg36
F0.23750000000000002
sg37
F0.42500000000000004
sg38
S'yellow'
p1012
sba(icurlovision
Stone
p1013
(dp1014
g35
F2.7375000000000003
sg36
F3.2875
sg37
F0.3375
sg38
S'yellow'
p1015
sba(icurlovision
Stone
p1016
(dp1017
g35
F6.5375000000000005
sg36
F-3.5375
sg37
F0.42500000000000004
sg38
S'red'
p1018
sbasba(icurlovision
StoneLayout
p1019
(dp1020
g30
F0.4791666666666667
sg31
(lp1021
(icurlovision
Stone
p1022
(dp1023
g35
F2.8474576271186445
sg36
F3.610169491525424
sg37
F0.31779661016949157
sg38
S'yellow'
p1024
sba(icurlovision
Stone
p1025
(dp1026
g35
F-0.7118644067796611
sg36
F3.8135593220338984
sg37
F0.4703389830508475
sg38
S'yellow'
p1027
sba(icurlovision
Stone
p1028
(dp1029
g35
F1.2966101694915255
sg36
F0.2796610169491526
sg37
F0.3305084745762712
sg38
S'yellow'
p1030
sbasba(icurlovision
StoneLayout
p1031
(dp1032
g30
F0.4791666666666667
sg31
(lp1033
(icurlovision
Stone
p1034
(dp1035
g35
F-0.6991525423728814
sg36
F3.8771186440677967
sg37
F0.4703389830508475
sg38
S'yellow'
p1036
sba(icurlovision
Stone
p1037
(dp1038
g35
F2.885593220338983
sg36
F3.6991525423728815
sg37
F0.3432203389830509
sg38
S'yellow'
p1039
sba(icurlovision
Stone
p1040
(dp1041
g35
F1.9703389830508475
sg36
F-0.3940677966101695
sg37
F0.3432203389830509
sg38
S'red'
p1042
sbasba(icurlovision
StoneLayout
p1043
(dp1044
g30
F0.4791666666666667
sg31
(lp1045
(icurlovision
Stone
p1046
(dp1047
g35
F2.6508620689655173
sg36
F0.27155172413793105
sg37
F0.33620689655172414
sg38
S'yellow'
p1048
sba(icurlovision
Stone
p1049
(dp1050
g35
F2.9094827586206895
sg36
F3.711206896551724
sg37
F0.46551724137931033
sg38
S'yellow'
p1051
sba(icurlovision
Stone
p1052
(dp1053
g35
F-0.7112068965517241
sg36
F3.9439655172413794
sg37
F0.33620689655172414
sg38
S'yellow'
p1054
sbasba(icurlovision
StoneLayout
p1055
(dp1056
g30
F0.4791666666666667
sg31
(lp1057
(icurlovision
Stone
p1058
(dp1059
g35
F1.5646551724137931
sg36
F2.9870689655172415
sg37
F0.34913793103448276
sg38
S'red'
p1060
sba(icurlovision
Stone
p1061
(dp1062
g35
F-0.7112068965517241
sg36
F3.9698275862068964
sg37
F0.3232758620689655
sg38
S'yellow'
p1063
sba(icurlovision
Stone
p1064
(dp1065
g35
F2.9094827586206895
sg36
F3.7629310344827585
sg37
F0.3620689655172414
sg38
S'yellow'
p1066
sbasba(icurlovision
StoneLayout
p1067
(dp1068
g30
F0.4791666666666667
sg31
(lp1069
(icurlovision
Stone
p1070
(dp1071
g35
F-0.6000000000000001
sg36
F5.792307692307693
sg37
F0.43846153846153846
sg38
S'yellow'
p1072
sba(icurlovision
Stone
p1073
(dp1074
g35
F2.5846153846153848
sg36
F5.861538461538462
sg37
F0.45
sg38
S'yellow'
p1075
sba(icurlovision
Stone
p1076
(dp1077
g35
F-0.6692307692307693
sg36
F3.784615384615385
sg37
F0.33461538461538465
sg38
S'yellow'
p1078
sbasbasg244
I3
sg245
I1
sba(icurlovision
EndResult
p1079
(dp1080
g2
I6
sg9
(lp1081
(I7
I8
tp1082
a(I7
I7
tp1083
a(I6
I7
tp1084
a(I6
I6
tp1085
a(I5
I6
tp1086
a(I5
I5
tp1087
a(I4
I5
tp1088
a(I4
I4
tp1089
a(I3
I4
tp1090
a(I3
I3
tp1091
a(I2
I3
tp1092
a(I2
I2
tp1093
a(I1
I2
tp1094
a(I1
I1
tp1095
a(I0
I1
tp1096
asg25
I6
sg26
(lp1097
(icurlovision
StoneLayout
p1098
(dp1099
g30
F0.4791666666666667
sg31
(lp1100
(icurlovision
Stone
p1101
(dp1102
g35
F5.05327868852459
sg36
F1.4385245901639343
sg37
F0.319672131147541
sg38
S'red'
p1103
sbasba(icurlovision
StoneLayout
p1104
(dp1105
g30
F0.4791666666666667
sg31
(lp1106
(icurlovision
Stone
p1107
(dp1108
g35
F6.828947368421052
sg36
F0.9868421052631579
sg37
F0.4473684210526315
sg38
S'yellow'
p1109
sbasba(icurlovision
StoneLayout
p1110
(dp1111
g30
F0.4791666666666667
sg31
(lp1112
(icurlovision
Stone
p1113
(dp1114
g35
F6.345
sg36
F0.825
sg37
F0.42
sg38
S'yellow'
p1115
sba(icurlovision
Stone
p1116
(dp1117
g35
F14.055
sg36
F0.945
sg37
F0.375
sg38
S'red'
p1118
sbasba(icurlovision
StoneLayout
p1119
(dp1120
g30
F0.4791666666666667
sg31
(lp1121
(icurlovision
Stone
p1122
(dp1123
g35
F6.916666666666666
sg36
F0.9583333333333333
sg37
F0.3333333333333333
sg38
S'yellow'
p1124
sba(icurlovision
Stone
p1125
(dp1126
g35
F15.416666666666666
sg36
F1.0416666666666665
sg37
F0.3958333333333333
sg38
S'red'
p1127
sba(icurlovision
Stone
p1128
(dp1129
g35
F-6.583333333333333
sg36
F2.125
sg37
F0.4583333333333333
sg38
S'yellow'
p1130
sbasba(icurlovision
StoneLayout
p1131
(dp1132
g30
F0.4791666666666667
sg31
(lp1133
(icurlovision
Stone
p1134
(dp1135
g35
F-2.770833333333333
sg36
F0.7291666666666666
sg37
F0.4583333333333333
sg38
S'red'
p1136
sba(icurlovision
Stone
p1137
(dp1138
g35
F6.895833333333333
sg36
F0.9791666666666666
sg37
F0.3125
sg38
S'yellow'
p1139
sba(icurlovision
Stone
p1140
(dp1141
g35
F15.395833333333332
sg36
F1.1041666666666665
sg37
F0.41666666666666663
sg38
S'red'
p1142
sbasba(icurlovision
StoneLayout
p1143
(dp1144
g30
F0.4791666666666667
sg31
(lp1145
(icurlovision
Stone
p1146
(dp1147
g35
F-2.870192307692308
sg36
F0.7932692307692308
sg37
F0.46153846153846156
sg38
S'red'
p1148
sba(icurlovision
Stone
p1149
(dp1150
g35
F6.850961538461539
sg36
F0.9951923076923077
sg37
F0.3028846153846154
sg38
S'yellow'
p1151
sbasba(icurlovision
StoneLayout
p1152
(dp1153
g30
F0.4791666666666667
sg31
(lp1154
(icurlovision
Stone
p1155
(dp1156
g35
F6.781914893617021
sg36
F0.9574468085106382
sg37
F0.351063829787234
sg38
S'yellow'
p1157
sba(icurlovision
Stone
p1158
(dp1159
g35
F10.484042553191488
sg36
F0.7659574468085106
sg37
F0.44680851063829785
sg38
S'red'
p1160
sba(icurlovision
Stone
p1161
(dp1162
g35
F-2.9202127659574466
sg36
F0.7978723404255319
sg37
F0.4627659574468085
sg38
S'red'
p1163
sbasba(icurlovision
StoneLayout
p1164
(dp1165
g30
F0.4791666666666667
sg31
(lp1166
(icurlovision
Stone
p1167
(dp1168
g35
F-2.7205882352941178
sg36
F0.8088235294117647
sg37
F0.4411764705882353
sg38
S'red'
p1169
sba(icurlovision
Stone
p1170
(dp1171
g35
F6.661764705882353
sg36
F-0.3676470588235294
sg37
F0.3235294117647059
sg38
S'red'
p1172
sba(icurlovision
Stone
p1173
(dp1174
g35
F-4.426470588235294
sg36
F2.573529411764706
sg37
F0.3235294117647059
sg38
S'yellow'
p1175
sba(icurlovision
Stone
p1176
(dp1177
g35
F10.661764705882353
sg36
F0.75
sg37
F0.4117647058823529
sg38
S'yellow'
p1178
sbasba(icurlovision
StoneLayout
p1179
(dp1180
g30
F0.4791666666666667
sg31
(lp1181
(icurlovision
Stone
p1182
(dp1183
g35
F-2.880681818181818
sg36
F0.8011363636363635
sg37
F0.4602272727272727
sg38
S'red'
p1184
sba(icurlovision
Stone
p1185
(dp1186
g35
F11.164772727272727
sg36
F0.7329545454545454
sg37
F0.4431818181818181
sg38
S'yellow'
p1187
sba(icurlovision
Stone
p1188
(dp1189
g35
F6.801136363636363
sg36
F-0.7670454545454545
sg37
F0.4261363636363636
sg38
S'red'
p1190
sba(icurlovision
Stone
p1191
(dp1192
g35
F1.5511363636363635
sg36
F0.5625
sg37
F0.3409090909090909
sg38
S'red'
p1193
sbasba(icurlovision
StoneLayout
p1194
(dp1195
g30
F0.4791666666666667
sg31
(lp1196
(icurlovision
Stone
p1197
(dp1198
g35
F-2.8465909090909087
sg36
F0.7670454545454545
sg37
F0.4602272727272727
sg38
S'red'
p1199
sba(icurlovision
Stone
p1200
(dp1201
g35
F6.801136363636363
sg36
F-0.7670454545454545
sg37
F0.32386363636363635
sg38
S'red'
p1202
sba(icurlovision
Stone
p1203
(dp1204
g35
F1.5852272727272727
sg36
F0.5625
sg37
F0.30681818181818177
sg38
S'red'
p1205
sba(icurlovision
Stone
p1206
(dp1207
g35
F10.65340909090909
sg36
F-1.9261363636363635
sg37
F0.4261363636363636
sg38
S'yellow'
p1208
sbasba(icurlovision
StoneLayout
p1209
(dp1210
g30
F0.4791666666666667
sg31
(lp1211
(icurlovision
Stone
p1212
(dp1213
g35
F6.73125
sg36
F-0.7687499999999999
sg37
F0.44999999999999996
sg38
S'red'
p1214
sba(icurlovision
Stone
p1215
(dp1216
g35
F10.518749999999999
sg36
F-1.8937499999999998
sg37
F0.4125
sg38
S'yellow'
p1217
sba(icurlovision
Stone
p1218
(dp1219
g35
F13.96875
sg36
F1.29375
sg37
F0.43124999999999997
sg38
S'red'
p1220
sba(icurlovision
Stone
p1221
(dp1222
g35
F1.55625
sg36
F0.54375
sg37
F0.44999999999999996
sg38
S'red'
p1223
sba(icurlovision
Stone
p1224
(dp1225
g35
F-2.86875
sg36
F0.7687499999999999
sg37
F0.31875
sg38
S'red'
p1226
sbasba(icurlovision
StoneLayout
p1227
(dp1228
g30
F0.4791666666666667
sg31
(lp1229
(icurlovision
Stone
p1230
(dp1231
g35
F0.8166666666666667
sg36
F-2.433333333333333
sg37
F0.4666666666666667
sg38
S'yellow'
p1232
sba(icurlovision
Stone
p1233
(dp1234
g35
F13.816666666666666
sg36
F1.2666666666666666
sg37
F0.4166666666666667
sg38
S'red'
p1235
sba(icurlovision
Stone
p1236
(dp1237
g35
F10.45
sg36
F-1.8333333333333333
sg37
F0.31666666666666665
sg38
S'yellow'
p1238
sba(icurlovision
Stone
p1239
(dp1240
g35
F6.683333333333334
sg36
F-0.7333333333333333
sg37
F0.43333333333333335
sg38
S'red'
p1241
sbasba(icurlovision
StoneLayout
p1242
(dp1243
g30
F0.4791666666666667
sg31
(lp1244
(icurlovision
Stone
p1245
(dp1246
g35
F10.290697674418604
sg36
F-1.7790697674418605
sg37
F0.436046511627907
sg38
S'yellow'
p1247
sba(icurlovision
Stone
p1248
(dp1249
g35
F0.8023255813953488
sg36
F-2.3720930232558137
sg37
F0.45348837209302323
sg38
S'yellow'
p1250
sba(icurlovision
Stone
p1251
(dp1252
g35
F13.63953488372093
sg36
F1.2906976744186047
sg37
F0.4011627906976744
sg38
S'red'
p1253
sbasba(icurlovision
StoneLayout
p1254
(dp1255
g30
F0.4791666666666667
sg31
(lp1256
(icurlovision
Stone
p1257
(dp1258
g35
F0.8138297872340425
sg36
F-2.377659574468085
sg37
F0.4627659574468085
sg38
S'yellow'
p1259
sba(icurlovision
Stone
p1260
(dp1261
g35
F4.707446808510638
sg36
F-1.8989361702127658
sg37
F0.3191489361702127
sg38
S'yellow'
p1262
sba(icurlovision
Stone
p1263
(dp1264
g35
F10.292553191489361
sg36
F-1.7712765957446808
sg37
F0.4148936170212766
sg38
S'yellow'
p1265
sba(icurlovision
Stone
p1266
(dp1267
g35
F13.675531914893616
sg36
F1.3244680851063828
sg37
F0.4148936170212766
sg38
S'red'
p1268
sbasba(icurlovision
StoneLayout
p1269
(dp1270
g30
F0.4791666666666667
sg31
(lp1271
(icurlovision
Stone
p1272
(dp1273
g35
F0.8048780487804877
sg36
F-2.4146341463414633
sg37
F0.31097560975609756
sg38
S'yellow'
p1274
sba(icurlovision
Stone
p1275
(dp1276
g35
F10.317073170731707
sg36
F-3.402439024390244
sg37
F0.4390243902439024
sg38
S'red'
p1277
sba(icurlovision
Stone
p1278
(dp1279
g35
F13.682926829268292
sg36
F1.2804878048780488
sg37
F0.42073170731707316
sg38
S'red'
p1280
sbasbasg244
I3
sg245
I0
sba(icurlovision
EndResult
p1281
(dp1282
g2
I6
sg9
(lp1283
(I7
I6
tp1284
a(I6
I6
tp1285
a(I6
I5
tp1286
a(I5
I4
tp1287
a(I4
I4
tp1288
a(I4
I3
tp1289
a(I3
I3
tp1290
a(I3
I2
tp1291
a(I2
I2
tp1292
a(I2
I1
tp1293
a(I1
I1
tp1294
a(I1
I0
tp1295
asg25
I7
sg26
(lp1296
(icurlovision
StoneLayout
p1297
(dp1298
g30
F0.4791666666666667
sg31
(lp1299
(icurlovision
Stone
p1300
(dp1301
g35
F2.914772727272727
sg36
F0.8011363636363635
sg37
F0.4602272727272727
sg38
S'yellow'
p1302
sba(icurlovision
Stone
p1303
(dp1304
g35
F0.28977272727272724
sg36
F1.0397727272727273
sg37
F0.4602272727272727
sg38
S'yellow'
p1305
sba(icurlovision
Stone
p1306
(dp1307
g35
F10.6875
sg36
F-3.2215909090909087
sg37
F0.4431818181818181
sg38
S'red'
p1308
sbasba(icurlovision
StoneLayout
p1309
(dp1310
g30
F0.4791666666666667
sg31
(lp1311
(icurlovision
Stone
p1312
(dp1313
g35
F2.8049999999999997
sg36
F0.765
sg37
F0.44999999999999996
sg38
S'yellow'
p1314
sba(icurlovision
Stone
p1315
(dp1316
g35
F10.305
sg36
F-3.105
sg37
F0.3
sg38
S'red'
p1317
sba(icurlovision
Stone
p1318
(dp1319
g35
F0.285
sg36
F1.005
sg37
F0.435
sg38
S'yellow'
p1320
sba(icurlovision
Stone
p1321
(dp1322
g35
F10.215
sg36
F2.955
sg37
F0.435
sg38
S'red'
p1323
sbasba(icurlovision
StoneLayout
p1324
(dp1325
g30
F0.4791666666666667
sg31
(lp1326
(icurlovision
Stone
p1327
(dp1328
g35
F2.90625
sg36
F0.78125
sg37
F0.328125
sg38
S'yellow'
p1329
sba(icurlovision
Stone
p1330
(dp1331
g35
F10.65625
sg36
F-3.21875
sg37
F0.4375
sg38
S'red'
p1332
sba(icurlovision
Stone
p1333
(dp1334
g35
F0.21875
sg36
F1.0
sg37
F0.328125
sg38
S'yellow'
p1335
sbasba(icurlovision
StoneLayout
p1336
(dp1337
g30
F0.4791666666666667
sg31
(lp1338
(icurlovision
Stone
p1339
(dp1340
g35
F2.895
sg36
F0.7949999999999999
sg37
F0.46499999999999997
sg38
S'yellow'
p1341
sba(icurlovision
Stone
p1342
(dp1343
g35
F9.165
sg36
F2.5349999999999997
sg37
F0.44999999999999996
sg38
S'red'
p1344
sba(icurlovision
Stone
p1345
(dp1346
g35
F0.255
sg36
F1.035
sg37
F0.46499999999999997
sg38
S'yellow'
p1347
sbasba(icurlovision
StoneLayout
p1348
(dp1349
g30
F0.4791666666666667
sg31
(lp1350
(icurlovision
Stone
p1351
(dp1352
g35
F-1.5
sg36
F3.176470588235294
sg37
F0.47058823529411764
sg38
S'red'
p1353
sba(icurlovision
Stone
p1354
(dp1355
g35
F2.8529411764705883
sg36
F0.7647058823529411
sg37
F0.3382352941176471
sg38
S'yellow'
p1356
sba(icurlovision
Stone
p1357
(dp1358
g35
F9.147058823529411
sg36
F2.5294117647058822
sg37
F0.45588235294117646
sg38
S'red'
p1359
sba(icurlovision
Stone
p1360
(dp1361
g35
F0.2647058823529412
sg36
F1.0
sg37
F0.45588235294117646
sg38
S'yellow'
p1362
sbasba(icurlovision
StoneLayout
p1363
(dp1364
g30
F0.4791666666666667
sg31
(lp1365
(icurlovision
Stone
p1366
(dp1367
g35
F2.82421875
sg36
F0.76171875
sg37
F0.45703125
sg38
S'yellow'
p1368
sba(icurlovision
Stone
p1369
(dp1370
g35
F0.26953125
sg36
F1.01953125
sg37
F0.33984375
sg38
S'yellow'
p1371
sba(icurlovision
Stone
p1372
(dp1373
g35
F-1.51171875
sg36
F3.15234375
sg37
F0.328125
sg38
S'red'
p1374
sbasba(icurlovision
StoneLayout
p1375
(dp1376
g30
F0.4791666666666667
sg31
(lp1377
(icurlovision
Stone
p1378
(dp1379
g35
F2.7966101694915255
sg36
F0.7372881355932204
sg37
F0.4703389830508475
sg38
S'yellow'
p1380
sba(icurlovision
Stone
p1381
(dp1382
g35
F-1.5
sg36
F3.152542372881356
sg37
F0.4703389830508475
sg38
S'red'
p1383
sba(icurlovision
Stone
p1384
(dp1385
g35
F0.2542372881355932
sg36
F0.9915254237288136
sg37
F0.31779661016949157
sg38
S'yellow'
p1386
sba(icurlovision
Stone
p1387
(dp1388
g35
F6.101694915254238
sg36
F2.3389830508474576
sg37
F0.3305084745762712
sg38
S'red'
p1389
sbasba(icurlovision
StoneLayout
p1390
(dp1391
g30
F0.4791666666666667
sg31
(lp1392
(icurlovision
Stone
p1393
(dp1394
g35
F-2.0043103448275863
sg36
F6.788793103448276
sg37
F0.3232758620689655
sg38
S'red'
p1395
sba(icurlovision
Stone
p1396
(dp1397
g35
F2.8060344827586206
sg36
F0.7629310344827586
sg37
F0.4525862068965517
sg38
S'yellow'
p1398
sba(icurlovision
Stone
p1399
(dp1400
g35
F0.24568965517241378
sg36
F1.021551724137931
sg37
F0.33620689655172414
sg38
S'yellow'
p1401
sba(icurlovision
Stone
p1402
(dp1403
g35
F5.521551724137931
sg36
F-0.3232758620689655
sg37
F0.46551724137931033
sg38
S'yellow'
p1404
sbasba(icurlovision
StoneLayout
p1405
(dp1406
g30
F0.4791666666666667
sg31
(lp1407
(icurlovision
Stone
p1408
(dp1409
g35
F-2.013157894736842
sg36
F6.75
sg37
F0.3421052631578947
sg38
S'red'
p1410
sba(icurlovision
Stone
p1411
(dp1412
g35
F2.776315789473684
sg36
F0.75
sg37
F0.4473684210526315
sg38
S'yellow'
p1413
sba(icurlovision
Stone
p1414
(dp1415
g35
F0.22368421052631576
sg36
F0.9868421052631579
sg37
F0.3421052631578947
sg38
S'yellow'
p1416
sba(icurlovision
Stone
p1417
(dp1418
g35
F4.644736842105263
sg36
F-1.9605263157894737
sg37
F0.4605263157894737
sg38
S'red'
p1419
sba(icurlovision
Stone
p1420
(dp1421
g35
F4.592105263157895
sg36
F0.5921052631578947
sg37
F0.3157894736842105
sg38
S'yellow'
p1422
sbasba(icurlovision
StoneLayout
p1423
(dp1424
g30
F0.4791666666666667
sg31
(lp1425
(icurlovision
Stone
p1426
(dp1427
g35
F-1.9868421052631577
sg36
F6.644736842105263
sg37
F0.3157894736842105
sg38
S'red'
p1428
sba(icurlovision
Stone
p1429
(dp1430
g35
F5.4868421052631575
sg36
F-2.039473684210526
sg37
F0.3421052631578947
sg38
S'yellow'
p1431
sba(icurlovision
Stone
p1432
(dp1433
g35
F4.539473684210526
sg36
F0.5657894736842105
sg37
F0.3289473684210526
sg38
S'yellow'
p1434
sba(icurlovision
Stone
p1435
(dp1436
g35
F2.776315789473684
sg36
F0.7236842105263157
sg37
F0.3157894736842105
sg38
S'yellow'
p1437
sbasba(icurlovision
StoneLayout
p1438
(dp1439
g30
F0.4791666666666667
sg31
(lp1440
(icurlovision
Stone
p1441
(dp1442
g35
F-0.4722222222222222
sg36
F5.333333333333333
sg37
F0.4722222222222222
sg38
S'yellow'
p1443
sba(icurlovision
Stone
p1444
(dp1445
g35
F5.694444444444444
sg36
F-2.083333333333333
sg37
F0.3333333333333333
sg38
S'yellow'
p1446
sba(icurlovision
Stone
p1447
(dp1448
g35
F-2.0555555555555554
sg36
F6.833333333333333
sg37
F0.3055555555555555
sg38
S'red'
p1449
sbasba(icurlovision
StoneLayout
p1450
(dp1451
g30
F0.4791666666666667
sg31
(lp1452
(icurlovision
Stone
p1453
(dp1454
g35
F-1.675
sg36
F-1.7000000000000002
sg37
F0.45
sg38
S'yellow'
p1455
sba(icurlovision
Stone
p1456
(dp1457
g35
F-1.975
sg36
F6.7
sg37
F0.35000000000000003
sg38
S'red'
p1458
sba(icurlovision
Stone
p1459
(dp1460
g35
F5.525
sg36
F-1.975
sg37
F0.4375
sg38
S'yellow'
p1461
sba(icurlovision
Stone
p1462
(dp1463
g35
F-0.45
sg36
F5.2250000000000005
sg37
F0.325
sg38
S'yellow'
p1464
sbasbasg244
I4
sg245
I1
sba(icurlovision
EndResult
p1465
(dp1466
g2
I7
sg9
(lp1467
(I7
I8
tp1468
a(I6
I7
tp1469
a(I6
I6
tp1470
a(I5
I6
tp1471
a(I5
I5
tp1472
a(I4
I5
tp1473
a(I4
I4
tp1474
a(I3
I4
tp1475
a(I3
I3
tp1476
a(I2
I3
tp1477
a(I2
I2
tp1478
a(I1
I2
tp1479
a(I1
I1
tp1480
a(I0
I1
tp1481
asg25
I8
sg26
(lp1482
(icurlovision
StoneLayout
p1483
(dp1484
g30
F0.4791666666666667
sg31
(lp1485
(icurlovision
Stone
p1486
(dp1487
g35
F14.265625
sg36
F1.203125
sg37
F0.421875
sg38
S'red'
p1488
sbasba(icurlovision
StoneLayout
p1489
(dp1490
g30
F0.4791666666666667
sg31
(lp1491
(icurlovision
Stone
p1492
(dp1493
g35
F0.49431818181818177
sg36
F1.227272727272727
sg37
F0.32386363636363635
sg38
S'yellow'
p1494
sba(icurlovision
Stone
p1495
(dp1496
g35
F1.6874999999999998
sg36
F1.0909090909090908
sg37
F0.30681818181818177
sg38
S'red'
p1497
sba(icurlovision
Stone
p1498
(dp1499
g35
F14.130681818181817
sg36
F1.227272727272727
sg37
F0.4261363636363636
sg38
S'red'
p1500
sbasba(icurlovision
StoneLayout
p1501
(dp1502
g30
F0.4791666666666667
sg31
(lp1503
(icurlovision
Stone
p1504
(dp1505
g35
F0.46875
sg36
F1.2562499999999999
sg37
F0.33749999999999997
sg38
S'yellow'
p1506
sba(icurlovision
Stone
p1507
(dp1508
g35
F1.8937499999999998
sg36
F0.09375
sg37
F0.33749999999999997
sg38
S'yellow'
p1509
sba(icurlovision
Stone
p1510
(dp1511
g35
F1.40625
sg36
F1.4437499999999999
sg37
F0.35625
sg38
S'red'
p1512
sba(icurlovision
Stone
p1513
(dp1514
g35
F14.643749999999999
sg36
F1.29375
sg37
F0.4125
sg38
S'red'
p1515
sbasba(icurlovision
StoneLayout
p1516
(dp1517
g30
F0.4791666666666667
sg31
(lp1518
(icurlovision
Stone
p1519
(dp1520
g35
F2.35
sg36
F0.7833333333333333
sg37
F0.31666666666666665
sg38
S'red'
p1521
sba(icurlovision
Stone
p1522
(dp1523
g35
F0.4166666666666667
sg36
F1.1166666666666667
sg37
F0.45
sg38
S'yellow'
p1524
sba(icurlovision
Stone
p1525
(dp1526
g35
F1.65
sg36
F-0.016666666666666666
sg37
F0.31666666666666665
sg38
S'yellow'
p1527
sba(icurlovision
Stone
p1528
(dp1529
g35
F13.75
sg36
F1.15
sg37
F0.4
sg38
S'red'
p1530
sba(icurlovision
Stone
p1531
(dp1532
g35
F1.3833333333333333
sg36
F1.3166666666666667
sg37
F0.31666666666666665
sg38
S'red'
p1533
sbasba(icurlovision
StoneLayout
p1534
(dp1535
g30
F0.4791666666666667
sg31
(lp1536
(icurlovision
Stone
p1537
(dp1538
g35
F-1.625
sg36
F6.517857142857142
sg37
F0.2857142857142857
sg38
S'red'
p1539
sba(icurlovision
Stone
p1540
(dp1541
g35
F-1.8392857142857142
sg36
F-5.982142857142857
sg37
F0.46428571428571425
sg38
S'yellow'
p1542
sba(icurlovision
Stone
p1543
(dp1544
g35
F1.625
sg36
F-0.017857142857142856
sg37
F0.33928571428571425
sg38
S'yellow'
p1545
sba(icurlovision
Stone
p1546
(dp1547
g35
F14.125
sg36
F1.1964285714285714
sg37
F0.4107142857142857
sg38
S'red'
p1548
sba(icurlovision
Stone
p1549
(dp1550
g35
F1.982142857142857
sg36
F0.8392857142857142
sg37
F0.30357142857142855
sg38
S'red'
p1551
sbasba(icurlovision
StoneLayout
p1552
(dp1553
g30
F0.4791666666666667
sg31
(lp1554
(icurlovision
Stone
p1555
(dp1556
g35
F1.6046511627906976
sg36
F0.03488372093023256
sg37
F0.3313953488372093
sg38
S'yellow'
p1557
sba(icurlovision
Stone
p1558
(dp1559
g35
F1.9534883720930232
sg36
F0.872093023255814
sg37
F0.3488372093023256
sg38
S'red'
p1560
sba(icurlovision
Stone
p1561
(dp1562
g35
F13.848837209302326
sg36
F1.2209302325581395
sg37
F0.4011627906976744
sg38
S'red'
p1563
sba(icurlovision
Stone
p1564
(dp1565
g35
F13.220930232558139
sg36
F-5.093023255813954
sg37
F0.313953488372093
sg38
S'yellow'
p1566
sbasba(icurlovision
StoneLayout
p1567
(dp1568
g30
F0.4791666666666667
sg31
(lp1569
(icurlovision
Stone
p1570
(dp1571
g35
F13.0
sg36
F6.1
sg37
F0.4166666666666667
sg38
S'yellow'
p1572
sba(icurlovision
Stone
p1573
(dp1574
g35
F2.033333333333333
sg36
F0.8333333333333334
sg37
F0.3
sg38
S'red'
p1575
sba(icurlovision
Stone
p1576
(dp1577
g35
F1.6666666666666667
sg36
F-0.03333333333333333
sg37
F0.35
sg38
S'yellow'
p1578
sbasba(icurlovision
StoneLayout
p1579
(dp1580
g30
F0.4791666666666667
sg31
(lp1581
(icurlovision
Stone
p1582
(dp1583
g35
F1.6153846153846154
sg36
F0.028846153846153848
sg37
F0.44711538461538464
sg38
S'yellow'
p1584
sba(icurlovision
Stone
p1585
(dp1586
g35
F1.9903846153846154
sg36
F0.8653846153846154
sg37
F0.3317307692307693
sg38
S'red'
p1587
sba(icurlovision
Stone
p1588
(dp1589
g35
F8.105769230769232
sg36
F0.9230769230769231
sg37
F0.4326923076923077
sg38
S'red'
p1590
sba(icurlovision
Stone
p1591
(dp1592
g35
F12.375
sg36
F5.8269230769230775
sg37
F0.40384615384615385
sg38
S'yellow'
p1593
sbasba(icurlovision
StoneLayout
p1594
(dp1595
g30
F0.4791666666666667
sg31
(lp1596
(icurlovision
Stone
p1597
(dp1598
g35
F12.764999999999999
sg36
F6.015
sg37
F0.42
sg38
S'yellow'
p1599
sba(icurlovision
Stone
p1600
(dp1601
g35
F2.025
sg36
F0.825
sg37
F0.46499999999999997
sg38
S'red'
p1602
sba(icurlovision
Stone
p1603
(dp1604
g35
F1.665
sg36
F-0.015
sg37
F0.44999999999999996
sg38
S'yellow'
p1605
sbasba(icurlovision
StoneLayout
p1606
(dp1607
g30
F0.4791666666666667
sg31
(lp1608
(icurlovision
Stone
p1609
(dp1610
g35
F12.627551020408163
sg36
F5.877551020408163
sg37
F0.42857142857142855
sg38
S'yellow'
p1611
sba(icurlovision
Stone
p1612
(dp1613
g35
F12.01530612244898
sg36
F0.7959183673469388
sg37
F0.42857142857142855
sg38
S'red'
p1614
sba(icurlovision
Stone
p1615
(dp1616
g35
F2.0357142857142856
sg36
F0.826530612244898
sg37
F0.45918367346938777
sg38
S'red'
p1617
sba(icurlovision
Stone
p1618
(dp1619
g35
F1.6683673469387754
sg36
F-0.030612244897959183
sg37
F0.336734693877551
sg38
S'yellow'
p1620
sbasba(icurlovision
StoneLayout
p1621
(dp1622
g30
F0.4791666666666667
sg31
(lp1623
(icurlovision
Stone
p1624
(dp1625
g35
F12.137755102040815
sg36
F5.785714285714286
sg37
F0.413265306122449
sg38
S'yellow'
p1626
sba(icurlovision
Stone
p1627
(dp1628
g35
F1.5765306122448979
sg36
F0.030612244897959183
sg37
F0.3214285714285714
sg38
S'yellow'
p1629
sba(icurlovision
Stone
p1630
(dp1631
g35
F1.943877551020408
sg36
F0.8571428571428571
sg37
F0.336734693877551
sg38
S'red'
p1632
sbasba(icurlovision
StoneLayout
p1633
(dp1634
g30
F0.4791666666666667
sg31
(lp1635
(icurlovision
Stone
p1636
(dp1637
g35
F13.073863636363635
sg36
F6.221590909090908
sg37
F0.4602272727272727
sg38
S'yellow'
p1638
sba(icurlovision
Stone
p1639
(dp1640
g35
F1.6534090909090908
sg36
F0.017045454545454544
sg37
F0.3409090909090909
sg38
S'yellow'
p1641
sba(icurlovision
Stone
p1642
(dp1643
g35
F0.9715909090909091
sg36
F1.6193181818181817
sg37
F0.47727272727272724
sg38
S'red'
p1644
sba(icurlovision
Stone
p1645
(dp1646
g35
F2.6079545454545454
sg36
F-0.017045454545454544
sg37
F0.32386363636363635
sg38
S'red'
p1647
sbasba(icurlovision
StoneLayout
p1648
(dp1649
g30
F0.4791666666666667
sg31
(lp1650
(icurlovision
Stone
p1651
(dp1652
g35
F12.801136363636363
sg36
F5.948863636363636
sg37
F0.4431818181818181
sg38
S'yellow'
p1653
sba(icurlovision
Stone
p1654
(dp1655
g35
F1.6534090909090908
sg36
F0.9374999999999999
sg37
F0.32386363636363635
sg38
S'yellow'
p1656
sba(icurlovision
Stone
p1657
(dp1658
g35
F1.4829545454545454
sg36
F-0.32386363636363635
sg37
F0.4602272727272727
sg38
S'yellow'
p1659
sba(icurlovision
Stone
p1660
(dp1661
g35
F2.539772727272727
sg36
F0.017045454545454544
sg37
F0.4261363636363636
sg38
S'red'
p1662
sbasba(icurlovision
StoneLayout
p1663
(dp1664
g30
F0.4791666666666667
sg31
(lp1665
(icurlovision
Stone
p1666
(dp1667
g35
F-0.6290322580645161
sg36
F3.3629032258064515
sg37
F0.3508064516129032
sg38
S'yellow'
p1668
sba(icurlovision
Stone
p1669
(dp1670
g35
F2.6129032258064515
sg36
F0.6774193548387096
sg37
F0.47177419354838707
sg38
S'red'
p1671
sba(icurlovision
Stone
p1672
(dp1673
g35
F3.4596774193548385
sg36
F-0.07258064516129031
sg37
F0.4838709677419355
sg38
S'red'
p1674
sbasbasg244
I4
sg245
I0
sba(icurlovision
EndResult
p1675
(dp1676
g2
I7
sg9
(lp1677
(I8
I7
tp1678
a(I7
I7
tp1679
a(I6
I5
tp1680
a(I5
I5
tp1681
a(I5
I4
tp1682
a(I4
I4
tp1683
a(I4
I3
tp1684
a(I3
I3
tp1685
a(I3
I2
tp1686
a(I2
I2
tp1687
a(I2
I1
tp1688
a(I1
I1
tp1689
a(I1
I0
tp1690
asg25
I9
sg26
(lp1691
(icurlovision
StoneLayout
p1692
(dp1693
g30
F0.4791666666666667
sg31
(lp1694
(icurlovision
Stone
p1695
(dp1696
g35
F3.5500000000000003
sg36
F-0.6125
sg37
F0.3375
sg38
S'yellow'
p1697
sbasba(icurlovision
StoneLayout
p1698
(dp1699
g30
F0.4791666666666667
sg31
(lp1700
(icurlovision
Stone
p1701
(dp1702
g35
F14.433333333333334
sg36
F2.4
sg37
F0.4
sg38
S'red'
p1703
sba(icurlovision
Stone
p1704
(dp1705
g35
F3.5
sg36
F-0.6
sg37
F0.3333333333333333
sg38
S'yellow'
p1706
sbasba(icurlovision
StoneLayout
p1707
(dp1708
g30
F0.4791666666666667
sg31
(lp1709
(icurlovision
Stone
p1710
(dp1711
g35
F3.5625
sg36
F0.6201923076923077
sg37
F0.31730769230769235
sg38
S'yellow'
p1712
sba(icurlovision
Stone
p1713
(dp1714
g35
F2.5528846153846154
sg36
F-1.0528846153846154
sg37
F0.3317307692307693
sg38
S'yellow'
p1715
sba(icurlovision
Stone
p1716
(dp1717
g35
F10.629807692307693
sg36
F-2.495192307692308
sg37
F0.4182692307692308
sg38
S'red'
p1718
sbasba(icurlovision
StoneLayout
p1719
(dp1720
g30
F0.4791666666666667
sg31
(lp1721
(icurlovision
Stone
p1722
(dp1723
g35
F3.625
sg36
F0.625
sg37
F0.3194444444444444
sg38
S'yellow'
p1724
sba(icurlovision
Stone
p1725
(dp1726
g35
F3.2361111111111107
sg36
F-1.875
sg37
F0.3472222222222222
sg38
S'red'
p1727
sba(icurlovision
Stone
p1728
(dp1729
g35
F0.9583333333333333
sg36
F-0.625
sg37
F0.4583333333333333
sg38
S'yellow'
p1730
sba(icurlovision
Stone
p1731
(dp1732
g35
F11.013888888888888
sg36
F-2.597222222222222
sg37
F0.4444444444444444
sg38
S'red'
p1733
sbasba(icurlovision
StoneLayout
p1734
(dp1735
g30
F0.4791666666666667
sg31
(lp1736
(icurlovision
Stone
p1737
(dp1738
g35
F10.933333333333334
sg36
F-2.6
sg37
F0.45
sg38
S'red'
p1739
sba(icurlovision
Stone
p1740
(dp1741
g35
F3.5666666666666664
sg36
F0.6333333333333333
sg37
F0.45
sg38
S'yellow'
p1742
sba(icurlovision
Stone
p1743
(dp1744
g35
F0.9
sg36
F-0.6
sg37
F0.35
sg38
S'yellow'
p1745
sba(icurlovision
Stone
p1746
(dp1747
g35
F4.066666666666666
sg36
F-1.9666666666666666
sg37
F0.3333333333333333
sg38
S'yellow'
p1748
sbasba(icurlovision
StoneLayout
p1749
(dp1750
g30
F0.4791666666666667
sg31
(lp1751
(icurlovision
Stone
p1752
(dp1753
g35
F-2.7765957446808507
sg36
F1.4999999999999998
sg37
F0.44680851063829785
sg38
S'red'
p1754
sba(icurlovision
Stone
p1755
(dp1756
g35
F3.5106382978723403
sg36
F0.6702127659574467
sg37
F0.39893617021276595
sg38
S'yellow'
p1757
sba(icurlovision
Stone
p1758
(dp1759
g35
F1.3723404255319147
sg36
F-4.627659574468085
sg37
F0.3191489361702127
sg38
S'yellow'
p1760
sba(icurlovision
Stone
p1761
(dp1762
g35
F0.8936170212765957
sg36
F-0.5425531914893617
sg37
F0.4308510638297872
sg38
S'yellow'
p1763
sba(icurlovision
Stone
p1764
(dp1765
g35
F10.595744680851062
sg36
F-2.457446808510638
sg37
F0.4308510638297872
sg38
S'red'
p1766
sba(icurlovision
Stone
p1767
(dp1768
g35
F10.180851063829786
sg36
F-5.329787234042553
sg37
F0.28723404255319146
sg38
S'yellow'
p1769
sbasba(icurlovision
StoneLayout
p1770
(dp1771
g30
F0.4791666666666667
sg31
(lp1772
(icurlovision
Stone
p1773
(dp1774
g35
F0.9715909090909091
sg36
F-0.6306818181818181
sg37
F0.3409090909090909
sg38
S'yellow'
p1775
sba(icurlovision
Stone
p1776
(dp1777
g35
F3.664772727272727
sg36
F0.6647727272727272
sg37
F0.4602272727272727
sg38
S'yellow'
p1778
sba(icurlovision
Stone
p1779
(dp1780
g35
F11.130681818181817
sg36
F-2.6079545454545454
sg37
F0.4431818181818181
sg38
S'red'
p1781
sba(icurlovision
Stone
p1782
(dp1783
g35
F1.4829545454545454
sg36
F-4.892045454545454
sg37
F0.3409090909090909
sg38
S'yellow'
p1784
sbasba(icurlovision
StoneLayout
p1785
(dp1786
g30
F0.4791666666666667
sg31
(lp1787
(icurlovision
Stone
p1788
(dp1789
g35
F3.5543478260869565
sg36
F0.6195652173913043
sg37
F0.30978260869565216
sg38
S'yellow'
p1790
sba(icurlovision
Stone
p1791
(dp1792
g35
F0.717391304347826
sg36
F-0.4891304347826087
sg37
F0.45652173913043476
sg38
S'yellow'
p1793
sba(icurlovision
Stone
p1794
(dp1795
g35
F10.793478260869565
sg36
F-2.543478260869565
sg37
F0.44021739130434784
sg38
S'red'
p1796
sba(icurlovision
Stone
p1797
(dp1798
g35
F-2.6739130434782608
sg36
F-3.0
sg37
F0.32608695652173914
sg38
S'red'
p1799
sba(icurlovision
Stone
p1800
(dp1801
g35
F1.4021739130434783
sg36
F-4.760869565217392
sg37
F0.34239130434782605
sg38
S'yellow'
p1802
sbasba(icurlovision
StoneLayout
p1803
(dp1804
g30
F0.4791666666666667
sg31
(lp1805
(icurlovision
Stone
p1806
(dp1807
g35
F-1.8035714285714284
sg36
F-2.9821428571428568
sg37
F0.4821428571428571
sg38
S'yellow'
p1808
sba(icurlovision
Stone
p1809
(dp1810
g35
F0.8035714285714285
sg36
F-0.5178571428571428
sg37
F0.33928571428571425
sg38
S'yellow'
p1811
sba(icurlovision
Stone
p1812
(dp1813
g35
F1.5178571428571428
sg36
F-4.946428571428571
sg37
F0.3571428571428571
sg38
S'yellow'
p1814
sba(icurlovision
Stone
p1815
(dp1816
g35
F3.767857142857143
sg36
F0.6964285714285714
sg37
F0.4821428571428571
sg38
S'yellow'
p1817
sba(icurlovision
Stone
p1818
(dp1819
g35
F11.375
sg36
F-2.6607142857142856
sg37
F0.4464285714285714
sg38
S'red'
p1820
sbasba(icurlovision
StoneLayout
p1821
(dp1822
g30
F0.4791666666666667
sg31
(lp1823
(icurlovision
Stone
p1824
(dp1825
g35
F-1.7678571428571428
sg36
F-2.9107142857142856
sg37
F0.46428571428571425
sg38
S'yellow'
p1826
sba(icurlovision
Stone
p1827
(dp1828
g35
F1.482142857142857
sg36
F-5.482142857142857
sg37
F0.3214285714285714
sg38
S'yellow'
p1829
sba(icurlovision
Stone
p1830
(dp1831
g35
F11.017857142857142
sg36
F-2.589285714285714
sg37
F0.26785714285714285
sg38
S'red'
p1832
sba(icurlovision
Stone
p1833
(dp1834
g35
F0.7678571428571428
sg36
F-0.4821428571428571
sg37
F0.4464285714285714
sg38
S'yellow'
p1835
sba(icurlovision
Stone
p1836
(dp1837
g35
F-2.732142857142857
sg36
F-4.946428571428571
sg37
F0.33928571428571425
sg38
S'red'
p1838
sbasba(icurlovision
StoneLayout
p1839
(dp1840
g30
F0.4791666666666667
sg31
(lp1841
(icurlovision
Stone
p1842
(dp1843
g35
F-1.7556818181818181
sg36
F-2.965909090909091
sg37
F0.3409090909090909
sg38
S'yellow'
p1844
sba(icurlovision
Stone
p1845
(dp1846
g35
F1.5170454545454544
sg36
F-5.556818181818182
sg37
F0.32386363636363635
sg38
S'yellow'
p1847
sba(icurlovision
Stone
p1848
(dp1849
g35
F0.7670454545454545
sg36
F-0.47727272727272724
sg37
F0.3409090909090909
sg38
S'yellow'
p1850
sba(icurlovision
Stone
p1851
(dp1852
g35
F11.164772727272727
sg36
F-2.5568181818181817
sg37
F0.28977272727272724
sg38
S'red'
p1853
sbasba(icurlovision
StoneLayout
p1854
(dp1855
g30
F0.4791666666666667
sg31
(lp1856
(icurlovision
Stone
p1857
(dp1858
g35
F-1.7999999999999998
sg36
F-3.0375
sg37
F0.35625
sg38
S'yellow'
p1859
sba(icurlovision
Stone
p1860
(dp1861
g35
F11.2125
sg36
F-2.6999999999999997
sg37
F0.3
sg38
S'red'
p1862
sba(icurlovision
Stone
p1863
(dp1864
g35
F0.825
sg36
F-0.525
sg37
F0.3
sg38
S'yellow'
p1865
sba(icurlovision
Stone
p1866
(dp1867
g35
F1.5374999999999999
sg36
F-5.6625
sg37
F0.33749999999999997
sg38
S'yellow'
p1868
sba(icurlovision
Stone
p1869
(dp1870
g35
F12.15
sg36
F-2.3625
sg37
F0.44999999999999996
sg38
S'red'
p1871
sbasba(icurlovision
StoneLayout
p1872
(dp1873
g30
F0.4791666666666667
sg31
(lp1874
(icurlovision
Stone
p1875
(dp1876
g35
F-1.7965116279069768
sg36
F-2.947674418604651
sg37
F0.47093023255813954
sg38
S'yellow'
p1877
sba(icurlovision
Stone
p1878
(dp1879
g35
F0.7848837209302325
sg36
F-0.5058139534883721
sg37
F0.47093023255813954
sg38
S'yellow'
p1880
sba(icurlovision
Stone
p1881
(dp1882
g35
F11.075581395348838
sg36
F-2.633720930232558
sg37
F0.45348837209302323
sg38
S'red'
p1883
sba(icurlovision
Stone
p1884
(dp1885
g35
F1.5174418604651163
sg36
F-5.563953488372093
sg37
F0.45348837209302323
sg38
S'yellow'
p1886
sba(icurlovision
Stone
p1887
(dp1888
g35
F11.982558139534884
sg36
F-2.3197674418604652
sg37
F0.45348837209302323
sg38
S'red'
p1889
sba(icurlovision
Stone
p1890
(dp1891
g35
F5.25
sg36
F-0.36627906976744184
sg37
F0.436046511627907
sg38
S'yellow'
p1892
sbasbasg244
I4
sg245
I1
sbasS'version'
p1893
I20180812
sg244
I4
sS'metadata'
p1894
(icurlovision
MatchMetadata
p1895
(dp1896
S'team_name_red'
p1897
S'Unknown'
p1898
sS'event_name'
p1899
g1898
sS'gender'
p1900
g1898
sS'other_info'
p1901
g1898
sS'team_name_yel'
p1902
g1898
sS'date'
p1903
g1898
sbsb.