(icurlovision
MatchResult
p0
(dp1
S'yel_score'
p2
I5
sS'name'
p3
S"VideoLibrary/PyeongChang.Olympics.2018.curling.men's.bronze.medal.match.Switzerland.v.Canada.1080p.NBC.WEB-DL-FINFUNGUS.mp4"
p4
sS'end_results'
p5
(lp6
(icurlovision
EndResult
p7
(dp8
g2
I0
sS'stones_left'
p9
(lp10
(I7
I8
tp11
a(I7
I7
tp12
a(I6
I7
tp13
a(I6
I6
tp14
a(I5
I5
tp15
a(I4
I5
tp16
a(I4
I4
tp17
a(I3
I4
tp18
a(I2
I3
tp19
a(I2
I2
tp20
a(I1
I2
tp21
a(I1
I1
tp22
a(I0
I1
tp23
asS'end_num'
p24
I1
sS'stone_layouts'
p25
(lp26
(icurlovision
StoneLayout
p27
(dp28
S'stone_radius'
p29
F0.4791666666666667
sS'stones'
p30
(lp31
(icurlovision
Stone
p32
(dp33
S'y'
p34
F3.1144067796610173
sS'x'
p35
F0.11440677966101695
sS'r'
p36
F0.44491525423728817
sS'color'
p37
S'red'
p38
sbasba(icurlovision
StoneLayout
p39
(dp40
g29
F0.4791666666666667
sg30
(lp41
(icurlovision
Stone
p42
(dp43
g34
F10.322727272727272
sg35
F2.9863636363636363
sg36
F0.3136363636363636
sg37
S'yellow'
p44
sba(icurlovision
Stone
p45
(dp46
g34
F3.2318181818181815
sg35
F0.09545454545454544
sg36
F0.4636363636363636
sg37
S'red'
p47
sbasba(icurlovision
StoneLayout
p48
(dp49
g29
F0.4791666666666667
sg30
(lp50
(icurlovision
Stone
p51
(dp52
g34
F10.984375
sg35
F3.140625
sg36
F0.296875
sg37
S'yellow'
p53
sba(icurlovision
Stone
p54
(dp55
g34
F3.453125
sg35
F0.046875
sg36
F0.46875
sg37
S'red'
p56
sba(icurlovision
Stone
p57
(dp58
g34
F4.890625
sg35
F0.046875
sg36
F0.375
sg37
S'red'
p59
sbasba(icurlovision
StoneLayout
p60
(dp61
g29
F0.4791666666666667
sg30
(lp62
(icurlovision
Stone
p63
(dp64
g34
F10.532608695652174
sg35
F3.0652173913043477
sg36
F0.27717391304347827
sg37
S'yellow'
p65
sba(icurlovision
Stone
p66
(dp67
g34
F4.108695652173913
sg35
F0.5543478260869565
sg36
F0.45652173913043476
sg37
S'red'
p68
sba(icurlovision
Stone
p69
(dp70
g34
F5.641304347826087
sg35
F-0.09782608695652173
sg36
F0.30978260869565216
sg37
S'yellow'
p71
sbasba(icurlovision
StoneLayout
p72
(dp73
g29
F0.4791666666666667
sg30
(lp74
(icurlovision
Stone
p75
(dp76
g34
F5.972222222222222
sg35
F0.4444444444444444
sg36
F0.3333333333333333
sg37
S'yellow'
p77
sba(icurlovision
Stone
p78
(dp79
g34
F10.083333333333332
sg35
F2.9166666666666665
sg36
F0.4444444444444444
sg37
S'yellow'
p80
sba(icurlovision
Stone
p81
(dp82
g34
F4.0
sg35
F0.5277777777777778
sg36
F0.3472222222222222
sg37
S'red'
p83
sbasba(icurlovision
StoneLayout
p84
(dp85
g29
F0.4791666666666667
sg30
(lp86
(icurlovision
Stone
p87
(dp88
g34
F10.01470588235294
sg35
F2.838235294117647
sg36
F0.4264705882352941
sg37
S'yellow'
p89
sba(icurlovision
Stone
p90
(dp91
g34
F11.955882352941176
sg35
F0.3676470588235294
sg36
F0.4264705882352941
sg37
S'red'
p92
sba(icurlovision
Stone
p93
(dp94
g34
F3.985294117647059
sg35
F0.4852941176470588
sg36
F0.3382352941176471
sg37
S'red'
p95
sba(icurlovision
Stone
p96
(dp97
g34
F5.926470588235294
sg35
F0.4264705882352941
sg36
F0.27941176470588236
sg37
S'yellow'
p98
sbasba(icurlovision
StoneLayout
p99
(dp100
g29
F0.4791666666666667
sg30
(lp101
(icurlovision
Stone
p102
(dp103
g34
F10.216981132075471
sg35
F2.900943396226415
sg36
F0.42452830188679247
sg37
S'yellow'
p104
sba(icurlovision
Stone
p105
(dp106
g34
F6.7924528301886795
sg35
F0.8349056603773585
sg36
F0.32547169811320753
sg37
S'red'
p107
sba(icurlovision
Stone
p108
(dp109
g34
F12.849056603773585
sg35
F0.21226415094339623
sg36
F0.39622641509433965
sg37
S'yellow'
p110
sba(icurlovision
Stone
p111
(dp112
g34
F4.726415094339623
sg35
F-0.4386792452830189
sg36
F0.3113207547169811
sg37
S'yellow'
p113
sbasba(icurlovision
StoneLayout
p114
(dp115
g29
F0.4791666666666667
sg30
(lp116
(icurlovision
Stone
p117
(dp118
g34
F6.71875
sg35
F0.84375
sg36
F0.4375
sg37
S'red'
p119
sba(icurlovision
Stone
p120
(dp121
g34
F10.21875
sg35
F2.90625
sg36
F0.3125
sg37
S'yellow'
p122
sba(icurlovision
Stone
p123
(dp124
g34
F12.84375
sg35
F0.1875
sg36
F0.421875
sg37
S'yellow'
p125
sba(icurlovision
Stone
p126
(dp127
g34
F-2.25
sg35
F0.0
sg36
F0.3125
sg37
S'yellow'
p128
sba(icurlovision
Stone
p129
(dp130
g34
F5.53125
sg35
F-0.46875
sg36
F0.3125
sg37
S'red'
p131
sbasba(icurlovision
StoneLayout
p132
(dp133
g29
F0.4791666666666667
sg30
(lp134
(icurlovision
Stone
p135
(dp136
g34
F12.51
sg35
F0.24
sg36
F0.42
sg37
S'yellow'
p137
sba(icurlovision
Stone
p138
(dp139
g34
F6.54
sg35
F0.84
sg36
F0.27
sg37
S'red'
p140
sba(icurlovision
Stone
p141
(dp142
g34
F9.959999999999999
sg35
F2.88
sg36
F0.42
sg37
S'yellow'
p143
sba(icurlovision
Stone
p144
(dp145
g34
F6.6
sg35
F-1.53
sg36
F0.42
sg37
S'red'
p146
sbasba(icurlovision
StoneLayout
p147
(dp148
g29
F0.4791666666666667
sg30
(lp149
(icurlovision
Stone
p150
(dp151
g34
F4.816666666666666
sg35
F6.916666666666667
sg36
F0.3333333333333333
sg37
S'red'
p152
sba(icurlovision
Stone
p153
(dp154
g34
F12.683333333333334
sg35
F0.21666666666666667
sg36
F0.2833333333333333
sg37
S'yellow'
p155
sba(icurlovision
Stone
p156
(dp157
g34
F10.083333333333334
sg35
F2.9166666666666665
sg36
F0.4166666666666667
sg37
S'yellow'
p158
sba(icurlovision
Stone
p159
(dp160
g34
F-0.48333333333333334
sg35
F0.5166666666666666
sg36
F0.35
sg37
S'yellow'
p161
sbasba(icurlovision
StoneLayout
p162
(dp163
g29
F0.4791666666666667
sg30
(lp164
(icurlovision
Stone
p165
(dp166
g34
F10.151162790697674
sg35
F2.9302325581395348
sg36
F0.436046511627907
sg37
S'yellow'
p167
sba(icurlovision
Stone
p168
(dp169
g34
F12.837209302325581
sg35
F0.2441860465116279
sg36
F0.313953488372093
sg37
S'yellow'
p170
sba(icurlovision
Stone
p171
(dp172
g34
F0.38372093023255816
sg35
F0.2441860465116279
sg36
F0.3488372093023256
sg37
S'red'
p173
sbasba(icurlovision
StoneLayout
p174
(dp175
g29
F0.4791666666666667
sg30
(lp176
(icurlovision
Stone
p177
(dp178
g34
F1.2391304347826086
sg35
F0.0
sg36
F0.32608695652173914
sg37
S'yellow'
p179
sba(icurlovision
Stone
p180
(dp181
g34
F9.880434782608695
sg35
F2.869565217391304
sg36
F0.4076086956521739
sg37
S'yellow'
p182
sba(icurlovision
Stone
p183
(dp184
g34
F12.456521739130434
sg35
F0.22826086956521738
sg36
F0.4076086956521739
sg37
S'yellow'
p185
sbasba(icurlovision
StoneLayout
p186
(dp187
g29
F0.4791666666666667
sg30
(lp188
(icurlovision
Stone
p189
(dp190
g34
F10.285714285714285
sg35
F2.964285714285714
sg36
F0.42857142857142855
sg37
S'yellow'
p191
sba(icurlovision
Stone
p192
(dp193
g34
F13.035714285714285
sg35
F0.21428571428571427
sg36
F0.4464285714285714
sg37
S'yellow'
p194
sba(icurlovision
Stone
p195
(dp196
g34
F-5.071428571428571
sg35
F5.892857142857142
sg36
F0.46428571428571425
sg37
S'yellow'
p197
sbasbasS'red_score'
p198
I0
sS'red_hammer'
p199
I0
sba(icurlovision
EndResult
p200
(dp201
g2
I0
sg9
(lp202
(I7
I8
tp203
a(I6
I7
tp204
a(I6
I6
tp205
a(I5
I6
tp206
a(I5
I5
tp207
a(I4
I5
tp208
a(I4
I4
tp209
a(I3
I4
tp210
a(I3
I3
tp211
a(I2
I3
tp212
a(I2
I2
tp213
a(I1
I2
tp214
a(I1
I1
tp215
a(I0
I1
tp216
asg24
I2
sg25
(lp217
(icurlovision
StoneLayout
p218
(dp219
g29
F0.4791666666666667
sg30
(lp220
(icurlovision
Stone
p221
(dp222
g34
F2.782258064516129
sg35
F0.2661290322580645
sg36
F0.3387096774193548
sg37
S'red'
p223
sbasba(icurlovision
StoneLayout
p224
(dp225
g29
F0.4791666666666667
sg30
(lp226
(icurlovision
Stone
p227
(dp228
g34
F7.335
sg35
F3.5549999999999997
sg36
F0.285
sg37
S'yellow'
p229
sba(icurlovision
Stone
p230
(dp231
g34
F2.925
sg35
F0.22499999999999998
sg36
F0.435
sg37
S'red'
p232
sba(icurlovision
Stone
p233
(dp234
g34
F11.504999999999999
sg35
F0.525
sg36
F0.435
sg37
S'red'
p235
sbasba(icurlovision
StoneLayout
p236
(dp237
g29
F0.4791666666666667
sg30
(lp238
(icurlovision
Stone
p239
(dp240
g34
F7.59375
sg35
F3.76875
sg36
F0.44999999999999996
sg37
S'yellow'
p241
sba(icurlovision
Stone
p242
(dp243
g34
F-5.75625
sg35
F2.30625
sg36
F0.33749999999999997
sg37
S'red'
p244
sba(icurlovision
Stone
p245
(dp246
g34
F3.8812499999999996
sg35
F-0.056249999999999994
sg36
F0.35625
sg37
S'yellow'
p247
sba(icurlovision
Stone
p248
(dp249
g34
F11.98125
sg35
F0.5812499999999999
sg36
F0.44999999999999996
sg37
S'red'
p250
sbasba(icurlovision
StoneLayout
p251
(dp252
g29
F0.4791666666666667
sg30
(lp253
(icurlovision
Stone
p254
(dp255
g34
F7.392857142857142
sg35
F3.6696428571428568
sg36
F0.42857142857142855
sg37
S'yellow'
p256
sba(icurlovision
Stone
p257
(dp258
g34
F11.651785714285714
sg35
F0.5892857142857143
sg36
F0.4419642857142857
sg37
S'red'
p259
sba(icurlovision
Stone
p260
(dp261
g34
F4.580357142857142
sg35
F-0.40178571428571425
sg36
F0.33482142857142855
sg37
S'red'
p262
sbasba(icurlovision
StoneLayout
p263
(dp264
g29
F0.4791666666666667
sg30
(lp265
(icurlovision
Stone
p266
(dp267
g34
F7.186363636363636
sg35
F3.5318181818181817
sg36
F0.43636363636363634
sg37
S'yellow'
p268
sba(icurlovision
Stone
p269
(dp270
g34
F11.35909090909091
sg35
F0.5318181818181817
sg36
F0.42272727272727273
sg37
S'red'
p271
sba(icurlovision
Stone
p272
(dp273
g34
F4.6499999999999995
sg35
F1.0227272727272727
sg36
F0.3136363636363636
sg37
S'yellow'
p274
sbasba(icurlovision
StoneLayout
p275
(dp276
g29
F0.4791666666666667
sg30
(lp277
(icurlovision
Stone
p278
(dp279
g34
F7.3085106382978715
sg35
F3.606382978723404
sg36
F0.4308510638297872
sg37
S'yellow'
p280
sba(icurlovision
Stone
p281
(dp282
g34
F11.553191489361701
sg35
F0.5744680851063829
sg36
F0.3031914893617021
sg37
S'red'
p283
sba(icurlovision
Stone
p284
(dp285
g34
F3.6382978723404253
sg35
F3.5425531914893615
sg36
F0.3829787234042553
sg37
S'red'
p286
sbasba(icurlovision
StoneLayout
p287
(dp288
g29
F0.4791666666666667
sg30
(lp289
(icurlovision
Stone
p290
(dp291
g34
F3.7346938775510203
sg35
F3.704081632653061
sg36
F0.30612244897959184
sg37
S'red'
p292
sba(icurlovision
Stone
p293
(dp294
g34
F11.785714285714285
sg35
F0.5816326530612245
sg36
F0.42857142857142855
sg37
S'red'
p295
sbasba(icurlovision
StoneLayout
p296
(dp297
g29
F0.4791666666666667
sg30
(lp298
(icurlovision
Stone
p299
(dp300
g34
F11.984375
sg35
F0.609375
sg36
F0.4375
sg37
S'red'
p301
sba(icurlovision
Stone
p302
(dp303
g34
F3.765625
sg35
F3.734375
sg36
F0.296875
sg37
S'red'
p304
sba(icurlovision
Stone
p305
(dp306
g34
F0.640625
sg35
F0.171875
sg36
F0.328125
sg37
S'red'
p307
sbasba(icurlovision
StoneLayout
p308
(dp309
g29
F0.4791666666666667
sg30
(lp310
(icurlovision
Stone
p311
(dp312
g34
F11.589285714285714
sg35
F1.5178571428571428
sg36
F0.46428571428571425
sg37
S'red'
p313
sba(icurlovision
Stone
p314
(dp315
g34
F3.8035714285714284
sg35
F3.8035714285714284
sg36
F0.3571428571428571
sg37
S'red'
p316
sba(icurlovision
Stone
p317
(dp318
g34
F0.6607142857142857
sg35
F0.125
sg36
F0.46428571428571425
sg37
S'red'
p319
sbasba(icurlovision
StoneLayout
p320
(dp321
g29
F0.4791666666666667
sg30
(lp322
(icurlovision
Stone
p323
(dp324
g34
F11.080188679245284
sg35
F1.4575471698113207
sg36
F0.42452830188679247
sg37
S'red'
p325
sba(icurlovision
Stone
p326
(dp327
g34
F7.570754716981132
sg35
F0.07075471698113207
sg36
F0.3113207547169811
sg37
S'red'
p328
sba(icurlovision
Stone
p329
(dp330
g34
F0.6367924528301887
sg35
F0.09905660377358491
sg36
F0.4528301886792453
sg37
S'red'
p331
sba(icurlovision
Stone
p332
(dp333
g34
F3.7216981132075473
sg35
F3.6650943396226414
sg36
F0.2830188679245283
sg37
S'red'
p334
sbasba(icurlovision
StoneLayout
p335
(dp336
g29
F0.4791666666666667
sg30
(lp337
(icurlovision
Stone
p338
(dp339
g34
F7.0
sg35
F3.625
sg36
F0.4375
sg37
S'yellow'
p340
sba(icurlovision
Stone
p341
(dp342
g34
F11.375
sg35
F1.5
sg36
F0.4375
sg37
S'red'
p343
sba(icurlovision
Stone
p344
(dp345
g34
F0.65625
sg35
F0.125
sg36
F0.296875
sg37
S'red'
p346
sba(icurlovision
Stone
p347
(dp348
g34
F3.8125
sg35
F3.75
sg36
F0.4375
sg37
S'red'
p349
sbasba(icurlovision
StoneLayout
p350
(dp351
g29
F0.4791666666666667
sg30
(lp352
(icurlovision
Stone
p353
(dp354
g34
F6.675
sg35
F3.5549999999999997
sg36
F0.44999999999999996
sg37
S'yellow'
p355
sba(icurlovision
Stone
p356
(dp357
g34
F3.645
sg35
F3.6149999999999998
sg36
F0.3
sg37
S'red'
p358
sba(icurlovision
Stone
p359
(dp360
g34
F0.615
sg35
F0.075
sg36
F0.46499999999999997
sg37
S'red'
p361
sba(icurlovision
Stone
p362
(dp363
g34
F10.965
sg35
F1.425
sg36
F0.435
sg37
S'red'
p364
sba(icurlovision
Stone
p365
(dp366
g34
F8.325
sg35
F0.045
sg36
F0.44999999999999996
sg37
S'red'
p367
sbasba(icurlovision
StoneLayout
p368
(dp369
g29
F0.4791666666666667
sg30
(lp370
(icurlovision
Stone
p371
(dp372
g34
F9.195652173913043
sg35
F0.42391304347826086
sg36
F0.34239130434782605
sg37
S'yellow'
p373
sba(icurlovision
Stone
p374
(dp375
g34
F6.815217391304348
sg35
F3.717391304347826
sg36
F0.44021739130434784
sg37
S'yellow'
p376
sba(icurlovision
Stone
p377
(dp378
g34
F11.25
sg35
F1.5
sg36
F0.44021739130434784
sg37
S'red'
p379
sba(icurlovision
Stone
p380
(dp381
g34
F3.717391304347826
sg35
F3.684782608695652
sg36
F0.30978260869565216
sg37
S'red'
p382
sbasba(icurlovision
StoneLayout
p383
(dp384
g29
F0.4791666666666667
sg30
(lp385
(icurlovision
Stone
p386
(dp387
g34
F6.925531914893616
sg35
F3.7659574468085104
sg36
F0.33510638297872336
sg37
S'yellow'
p388
sba(icurlovision
Stone
p389
(dp390
g34
F9.319148936170212
sg35
F0.4148936170212766
sg36
F0.44680851063829785
sg37
S'yellow'
p391
sba(icurlovision
Stone
p392
(dp393
g34
F3.7659574468085104
sg35
F3.7659574468085104
sg36
F0.351063829787234
sg37
S'red'
p394
sba(icurlovision
Stone
p395
(dp396
g34
F0.702127659574468
sg35
F0.5425531914893617
sg36
F0.4627659574468085
sg37
S'red'
p397
sba(icurlovision
Stone
p398
(dp399
g34
F11.425531914893616
sg35
F1.5319148936170213
sg36
F0.4627659574468085
sg37
S'red'
p400
sbasbasg198
I1
sg199
I0
sba(icurlovision
EndResult
p401
(dp402
g2
I0
sg9
(lp403
(I7
I7
tp404
a(I6
I7
tp405
a(I6
I6
tp406
a(I5
I6
tp407
a(I5
I5
tp408
a(I4
I5
tp409
a(I4
I4
tp410
a(I3
I4
tp411
a(I3
I3
tp412
a(I2
I3
tp413
a(I2
I2
tp414
a(I1
I2
tp415
a(I1
I1
tp416
a(I0
I1
tp417
asg24
I3
sg25
(lp418
(icurlovision
StoneLayout
p419
(dp420
g29
F0.4791666666666667
sg30
(lp421
(icurlovision
Stone
p422
(dp423
g34
F9.607758620689655
sg35
F3.4267241379310343
sg36
F0.4267241379310345
sg37
S'yellow'
p424
sba(icurlovision
Stone
p425
(dp426
g34
F1.7974137931034482
sg35
F0.27155172413793105
sg36
F0.4525862068965517
sg37
S'red'
p427
sbasba(icurlovision
StoneLayout
p428
(dp429
g29
F0.4791666666666667
sg30
(lp430
(icurlovision
Stone
p431
(dp432
g34
F1.794642857142857
sg35
F0.26785714285714285
sg36
F0.4419642857142857
sg37
S'red'
p433
sba(icurlovision
Stone
p434
(dp435
g34
F9.696428571428571
sg35
F3.4821428571428568
sg36
F0.4419642857142857
sg37
S'yellow'
p436
sba(icurlovision
Stone
p437
(dp438
g34
F3.75
sg35
F0.40178571428571425
sg36
F0.3482142857142857
sg37
S'red'
p439
sbasba(icurlovision
StoneLayout
p440
(dp441
g29
F0.4791666666666667
sg30
(lp442
(icurlovision
Stone
p443
(dp444
g34
F9.504310344827585
sg35
F3.413793103448276
sg36
F0.4396551724137931
sg37
S'yellow'
p445
sba(icurlovision
Stone
p446
(dp447
g34
F2.625
sg35
F0.33620689655172414
sg36
F0.4525862068965517
sg37
S'red'
p448
sba(icurlovision
Stone
p449
(dp450
g34
F4.435344827586206
sg35
F0.75
sg36
F0.3103448275862069
sg37
S'yellow'
p451
sbasba(icurlovision
StoneLayout
p452
(dp453
g29
F0.4791666666666667
sg30
(lp454
(icurlovision
Stone
p455
(dp456
g34
F2.66015625
sg35
F0.36328125
sg36
F0.33984375
sg37
S'red'
p457
sba(icurlovision
Stone
p458
(dp459
g34
F2.26171875
sg35
F-6.24609375
sg36
F0.4453125
sg37
S'red'
p460
sba(icurlovision
Stone
p461
(dp462
g34
F4.51171875
sg35
F0.80859375
sg36
F0.31640625
sg37
S'yellow'
p463
sba(icurlovision
Stone
p464
(dp465
g34
F-4.41796875
sg35
F6.97265625
sg36
F0.3515625
sg37
S'yellow'
p466
sbasba(icurlovision
StoneLayout
p467
(dp468
g29
F0.4791666666666667
sg30
(lp469
(icurlovision
Stone
p470
(dp471
g34
F2.725
sg35
F0.35000000000000003
sg36
F0.45
sg37
S'red'
p472
sba(icurlovision
Stone
p473
(dp474
g34
F-4.825
sg35
F0.5
sg36
F0.325
sg37
S'yellow'
p475
sba(icurlovision
Stone
p476
(dp477
g34
F4.575
sg35
F0.8
sg36
F0.3375
sg37
S'yellow'
p478
sbasba(icurlovision
StoneLayout
p479
(dp480
g29
F0.4791666666666667
sg30
(lp481
(icurlovision
Stone
p482
(dp483
g34
F-4.862903225806451
sg35
F0.5080645161290323
sg36
F0.3387096774193548
sg37
S'yellow'
p484
sba(icurlovision
Stone
p485
(dp486
g34
F2.685483870967742
sg35
F0.3870967741935484
sg36
F0.4475806451612903
sg37
S'red'
p487
sbasba(icurlovision
StoneLayout
p488
(dp489
g29
F0.4791666666666667
sg30
(lp490
(icurlovision
Stone
p491
(dp492
g34
F-4.983050847457627
sg35
F0.6355932203389831
sg36
F0.3305084745762712
sg37
S'yellow'
p493
sba(icurlovision
Stone
p494
(dp495
g34
F2.6949152542372885
sg35
F0.3305084745762712
sg36
F0.4703389830508475
sg37
S'red'
p496
sba(icurlovision
Stone
p497
(dp498
g34
F-5.516949152542373
sg35
F-0.7372881355932204
sg36
F0.3305084745762712
sg37
S'yellow'
p499
sbasba(icurlovision
StoneLayout
p500
(dp501
g29
F0.4791666666666667
sg30
(lp502
(icurlovision
Stone
p503
(dp504
g34
F-5.431034482758621
sg35
F0.9827586206896551
sg36
F0.34913793103448276
sg37
S'yellow'
p505
sba(icurlovision
Stone
p506
(dp507
g34
F2.7155172413793105
sg35
F0.3620689655172414
sg36
F0.46551724137931033
sg37
S'red'
p508
sba(icurlovision
Stone
p509
(dp510
g34
F-4.681034482758621
sg35
F-0.3103448275862069
sg36
F0.46551724137931033
sg37
S'red'
p511
sba(icurlovision
Stone
p512
(dp513
g34
F-5.612068965517241
sg35
F-0.7241379310344828
sg36
F0.33620689655172414
sg37
S'yellow'
p514
sbasba(icurlovision
StoneLayout
p515
(dp516
g29
F0.4791666666666667
sg30
(lp517
(icurlovision
Stone
p518
(dp519
g34
F-5.552631578947368
sg35
F1.2368421052631577
sg36
F0.3421052631578947
sg37
S'yellow'
p520
sba(icurlovision
Stone
p521
(dp522
g34
F2.6842105263157894
sg35
F0.39473684210526316
sg36
F0.4473684210526315
sg37
S'red'
p523
sba(icurlovision
Stone
p524
(dp525
g34
F-6.315789473684211
sg35
F-0.763157894736842
sg36
F0.4473684210526315
sg37
S'yellow'
p526
sba(icurlovision
Stone
p527
(dp528
g34
F-5.0
sg35
F0.15789473684210525
sg36
F0.3289473684210526
sg37
S'red'
p529
sba(icurlovision
Stone
p530
(dp531
g34
F-4.815789473684211
sg35
F-1.8157894736842104
sg36
F0.35526315789473684
sg37
S'yellow'
p532
sbasba(icurlovision
StoneLayout
p533
(dp534
g29
F0.4791666666666667
sg30
(lp535
(icurlovision
Stone
p536
(dp537
g34
F-6.333333333333333
sg35
F-0.8055555555555555
sg36
F0.4444444444444444
sg37
S'yellow'
p538
sba(icurlovision
Stone
p539
(dp540
g34
F-5.583333333333333
sg35
F0.2222222222222222
sg36
F0.3333333333333333
sg37
S'red'
p541
sba(icurlovision
Stone
p542
(dp543
g34
F-4.694444444444444
sg35
F-0.75
sg36
F0.3055555555555555
sg37
S'red'
p544
sba(icurlovision
Stone
p545
(dp546
g34
F2.75
sg35
F0.3611111111111111
sg36
F0.4722222222222222
sg37
S'red'
p547
sbasba(icurlovision
StoneLayout
p548
(dp549
g29
F0.4791666666666667
sg30
(lp550
(icurlovision
Stone
p551
(dp552
g34
F3.2410714285714284
sg35
F1.0714285714285714
sg36
F0.33482142857142855
sg37
S'yellow'
p553
sba(icurlovision
Stone
p554
(dp555
g34
F-5.625
sg35
F0.1875
sg36
F0.36160714285714285
sg37
S'red'
p556
sbasba(icurlovision
StoneLayout
p557
(dp558
g29
F0.4791666666666667
sg30
(lp559
(icurlovision
Stone
p560
(dp561
g34
F0.47368421052631576
sg35
F-4.289473684210526
sg36
F0.3421052631578947
sg37
S'red'
p562
sba(icurlovision
Stone
p563
(dp564
g34
F-5.684210526315789
sg35
F0.21052631578947367
sg36
F0.47368421052631576
sg37
S'red'
p565
sbasba(icurlovision
StoneLayout
p566
(dp567
g29
F0.4791666666666667
sg30
(lp568
(icurlovision
Stone
p569
(dp570
g34
F-5.472222222222222
sg35
F0.20833333333333331
sg36
F0.3055555555555555
sg37
S'red'
p571
sbasba(icurlovision
StoneLayout
p572
(dp573
g29
F0.4791666666666667
sg30
(lp574
(icurlovision
Stone
p575
(dp576
g34
F1.4872881355932204
sg35
F4.461864406779661
sg36
F0.3432203389830509
sg37
S'red'
p577
sba(icurlovision
Stone
p578
(dp579
g34
F-5.580508474576272
sg35
F0.24152542372881358
sg36
F0.35593220338983056
sg37
S'red'
p580
sbasbasg198
I2
sg199
I0
sba(icurlovision
EndResult
p581
(dp582
g2
I2
sg9
(lp583
(I7
I8
tp584
a(I7
I7
tp585
a(I6
I7
tp586
a(I5
I6
tp587
a(I5
I5
tp588
a(I4
I5
tp589
a(I4
I4
tp590
a(I3
I4
tp591
a(I3
I3
tp592
a(I2
I3
tp593
a(I2
I2
tp594
a(I1
I2
tp595
a(I1
I1
tp596
a(I0
I1
tp597
asg24
I4
sg25
(lp598
(icurlovision
StoneLayout
p599
(dp600
g29
F0.4791666666666667
sg30
(lp601
(icurlovision
Stone
p602
(dp603
g34
F2.6956521739130435
sg35
F0.0
sg36
F0.43478260869565216
sg37
S'red'
p604
sbasba(icurlovision
StoneLayout
p605
(dp606
g29
F0.4791666666666667
sg30
(lp607
(icurlovision
Stone
p608
(dp609
g34
F2.855769230769231
sg35
F-0.04326923076923077
sg36
F0.44711538461538464
sg37
S'red'
p610
sba(icurlovision
Stone
p611
(dp612
g34
F11.509615384615385
sg35
F3.014423076923077
sg36
F0.4326923076923077
sg37
S'yellow'
p613
sbasba(icurlovision
StoneLayout
p614
(dp615
g29
F0.4791666666666667
sg30
(lp616
(icurlovision
Stone
p617
(dp618
g34
F11.553191489361701
sg35
F2.9999999999999996
sg36
F0.4308510638297872
sg37
S'yellow'
p619
sba(icurlovision
Stone
p620
(dp621
g34
F2.8723404255319145
sg35
F-0.06382978723404255
sg36
F0.3191489361702127
sg37
S'red'
p622
sba(icurlovision
Stone
p623
(dp624
g34
F12.223404255319148
sg35
F0.3829787234042553
sg36
F0.3031914893617021
sg37
S'red'
p625
sbasba(icurlovision
StoneLayout
p626
(dp627
g29
F0.4791666666666667
sg30
(lp628
(icurlovision
Stone
p629
(dp630
g34
F2.877551020408163
sg35
F-0.061224489795918366
sg36
F0.45918367346938777
sg37
S'red'
p631
sba(icurlovision
Stone
p632
(dp633
g34
F4.561224489795919
sg35
F-0.6122448979591837
sg36
F0.44387755102040816
sg37
S'red'
p634
sba(icurlovision
Stone
p635
(dp636
g34
F11.63265306122449
sg35
F3.0306122448979593
sg36
F0.336734693877551
sg37
S'yellow'
p637
sba(icurlovision
Stone
p638
(dp639
g34
F4.040816326530612
sg35
F0.30612244897959184
sg36
F0.44387755102040816
sg37
S'yellow'
p640
sba(icurlovision
Stone
p641
(dp642
g34
F12.244897959183673
sg35
F0.36734693877551017
sg36
F0.42857142857142855
sg37
S'red'
p643
sbasba(icurlovision
StoneLayout
p644
(dp645
g29
F0.4791666666666667
sg30
(lp646
(icurlovision
Stone
p647
(dp648
g34
F2.79
sg35
F-0.03
sg36
F0.315
sg37
S'red'
p649
sba(icurlovision
Stone
p650
(dp651
g34
F11.219999999999999
sg35
F2.9699999999999998
sg36
F0.42
sg37
S'yellow'
p652
sba(icurlovision
Stone
p653
(dp654
g34
F9.42
sg35
F-0.99
sg36
F0.32999999999999996
sg37
S'yellow'
p655
sba(icurlovision
Stone
p656
(dp657
g34
F4.4399999999999995
sg35
F-0.51
sg36
F0.42
sg37
S'red'
p658
sba(icurlovision
Stone
p659
(dp660
g34
F3.9299999999999997
sg35
F0.39
sg36
F0.315
sg37
S'yellow'
p661
sba(icurlovision
Stone
p662
(dp663
g34
F11.67
sg35
F0.6599999999999999
sg36
F0.42
sg37
S'red'
p664
sbasba(icurlovision
StoneLayout
p665
(dp666
g29
F0.4791666666666667
sg30
(lp667
(icurlovision
Stone
p668
(dp669
g34
F11.295918367346939
sg35
F2.9387755102040813
sg36
F0.42857142857142855
sg37
S'yellow'
p670
sba(icurlovision
Stone
p671
(dp672
g34
F2.816326530612245
sg35
F-0.061224489795918366
sg36
F0.336734693877551
sg37
S'red'
p673
sba(icurlovision
Stone
p674
(dp675
g34
F9.459183673469388
sg35
F-1.0408163265306123
sg36
F0.44387755102040816
sg37
S'yellow'
p676
sba(icurlovision
Stone
p677
(dp678
g34
F3.9183673469387754
sg35
F0.30612244897959184
sg36
F0.42857142857142855
sg37
S'yellow'
p679
sba(icurlovision
Stone
p680
(dp681
g34
F11.755102040816325
sg35
F0.6122448979591837
sg36
F0.413265306122449
sg37
S'red'
p682
sba(icurlovision
Stone
p683
(dp684
g34
F4.469387755102041
sg35
F-0.5510204081632653
sg36
F0.336734693877551
sg37
S'red'
p685
sba(icurlovision
Stone
p686
(dp687
g34
F0.36734693877551017
sg35
F-0.30612244897959184
sg36
F0.3520408163265306
sg37
S'red'
p688
sbasba(icurlovision
StoneLayout
p689
(dp690
g29
F0.4791666666666667
sg30
(lp691
(icurlovision
Stone
p692
(dp693
g34
F9.525
sg35
F-1.05
sg36
F0.43124999999999997
sg37
S'yellow'
p694
sba(icurlovision
Stone
p695
(dp696
g34
F11.362499999999999
sg35
F3.0
sg36
F0.4125
sg37
S'yellow'
p697
sba(icurlovision
Stone
p698
(dp699
g34
F-3.225
sg35
F0.3
sg36
F0.46875
sg37
S'red'
p700
sba(icurlovision
Stone
p701
(dp702
g34
F3.0749999999999997
sg35
F1.2
sg36
F0.44999999999999996
sg37
S'yellow'
p703
sba(icurlovision
Stone
p704
(dp705
g34
F12.3375
sg35
F0.975
sg36
F0.33749999999999997
sg37
S'yellow'
p706
sba(icurlovision
Stone
p707
(dp708
g34
F0.975
sg35
F-1.0875
sg36
F0.33749999999999997
sg37
S'red'
p709
sbasba(icurlovision
StoneLayout
p710
(dp711
g29
F0.4791666666666667
sg30
(lp712
(icurlovision
Stone
p713
(dp714
g34
F12.69078947368421
sg35
F0.9671052631578947
sg36
F0.41447368421052627
sg37
S'yellow'
p715
sba(icurlovision
Stone
p716
(dp717
g34
F3.2171052631578947
sg35
F1.2039473684210527
sg36
F0.3355263157894737
sg37
S'yellow'
p718
sba(icurlovision
Stone
p719
(dp720
g34
F1.0460526315789473
sg35
F-1.1644736842105263
sg36
F0.4539473684210526
sg37
S'red'
p721
sba(icurlovision
Stone
p722
(dp723
g34
F-3.2960526315789473
sg35
F0.29605263157894735
sg36
F0.47368421052631576
sg37
S'red'
p724
sba(icurlovision
Stone
p725
(dp726
g34
F11.743421052631579
sg35
F3.0592105263157894
sg36
F0.43421052631578944
sg37
S'yellow'
p727
sba(icurlovision
Stone
p728
(dp729
g34
F14.19078947368421
sg35
F-0.9671052631578947
sg36
F0.43421052631578944
sg37
S'red'
p730
sbasba(icurlovision
StoneLayout
p731
(dp732
g29
F0.4791666666666667
sg30
(lp733
(icurlovision
Stone
p734
(dp735
g34
F1.0384615384615385
sg35
F-1.1923076923076923
sg36
F0.46153846153846156
sg37
S'red'
p736
sba(icurlovision
Stone
p737
(dp738
g34
F12.692307692307693
sg35
F0.9615384615384616
sg36
F0.42307692307692313
sg37
S'yellow'
p739
sba(icurlovision
Stone
p740
(dp741
g34
F-3.307692307692308
sg35
F0.2692307692307693
sg36
F0.4807692307692308
sg37
S'red'
p742
sba(icurlovision
Stone
p743
(dp744
g34
F11.692307692307693
sg35
F3.0384615384615388
sg36
F0.42307692307692313
sg37
S'yellow'
p745
sba(icurlovision
Stone
p746
(dp747
g34
F3.1923076923076925
sg35
F1.1923076923076923
sg36
F0.46153846153846156
sg37
S'yellow'
p748
sba(icurlovision
Stone
p749
(dp750
g34
F13.846153846153847
sg35
F-3.4230769230769234
sg36
F0.3269230769230769
sg37
S'yellow'
p751
sbasba(icurlovision
StoneLayout
p752
(dp753
g29
F0.4791666666666667
sg30
(lp754
(icurlovision
Stone
p755
(dp756
g34
F12.486486486486488
sg35
F1.0135135135135136
sg36
F0.4256756756756757
sg37
S'yellow'
p757
sba(icurlovision
Stone
p758
(dp759
g34
F3.121621621621622
sg35
F1.2162162162162162
sg36
F0.46621621621621623
sg37
S'yellow'
p760
sba(icurlovision
Stone
p761
(dp762
g34
F-3.2432432432432434
sg35
F0.28378378378378377
sg36
F0.32432432432432434
sg37
S'red'
p763
sba(icurlovision
Stone
p764
(dp765
g34
F13.621621621621623
sg35
F-3.3243243243243246
sg36
F0.22297297297297297
sg37
S'yellow'
p766
sba(icurlovision
Stone
p767
(dp768
g34
F11.513513513513514
sg35
F3.040540540540541
sg36
F0.4256756756756757
sg37
S'yellow'
p769
sba(icurlovision
Stone
p770
(dp771
g34
F7.135135135135135
sg35
F-0.8918918918918919
sg36
F0.44594594594594594
sg37
S'red'
p772
sba(icurlovision
Stone
p773
(dp774
g34
F0.9324324324324325
sg35
F-1.0945945945945947
sg36
F0.4256756756756757
sg37
S'red'
p775
sbasba(icurlovision
StoneLayout
p776
(dp777
g29
F0.4791666666666667
sg30
(lp778
(icurlovision
Stone
p779
(dp780
g34
F13.621621621621623
sg35
F-3.364864864864865
sg36
F0.40540540540540543
sg37
S'yellow'
p781
sba(icurlovision
Stone
p782
(dp783
g34
F3.1621621621621623
sg35
F1.1756756756756757
sg36
F0.46621621621621623
sg37
S'yellow'
p784
sba(icurlovision
Stone
p785
(dp786
g34
F12.567567567567568
sg35
F0.972972972972973
sg36
F0.26351351351351354
sg37
S'yellow'
p787
sba(icurlovision
Stone
p788
(dp789
g34
F11.554054054054054
sg35
F3.0
sg36
F0.4256756756756757
sg37
S'yellow'
p790
sba(icurlovision
Stone
p791
(dp792
g34
F7.013513513513514
sg35
F1.0540540540540542
sg36
F0.3445945945945946
sg37
S'yellow'
p793
sba(icurlovision
Stone
p794
(dp795
g34
F-3.8513513513513518
sg35
F-1.2567567567567568
sg36
F0.44594594594594594
sg37
S'red'
p796
sbasba(icurlovision
StoneLayout
p797
(dp798
g29
F0.4791666666666667
sg30
(lp799
(icurlovision
Stone
p800
(dp801
g34
F7.094594594594595
sg35
F1.0945945945945947
sg36
F0.32432432432432434
sg37
S'yellow'
p802
sba(icurlovision
Stone
p803
(dp804
g34
F3.202702702702703
sg35
F1.1756756756756757
sg36
F0.44594594594594594
sg37
S'yellow'
p805
sba(icurlovision
Stone
p806
(dp807
g34
F12.64864864864865
sg35
F0.972972972972973
sg36
F0.4256756756756757
sg37
S'yellow'
p808
sba(icurlovision
Stone
p809
(dp810
g34
F13.743243243243244
sg35
F-3.4054054054054057
sg36
F0.44594594594594594
sg37
S'yellow'
p811
sba(icurlovision
Stone
p812
(dp813
g34
F11.675675675675677
sg35
F3.040540540540541
sg36
F0.3445945945945946
sg37
S'yellow'
p814
sba(icurlovision
Stone
p815
(dp816
g34
F-3.891891891891892
sg35
F-1.2567567567567568
sg36
F0.3648648648648649
sg37
S'red'
p817
sba(icurlovision
Stone
p818
(dp819
g34
F0.12162162162162163
sg35
F1.0540540540540542
sg36
F0.44594594594594594
sg37
S'red'
p820
sbasba(icurlovision
StoneLayout
p821
(dp822
g29
F0.4791666666666667
sg30
(lp823
(icurlovision
Stone
p824
(dp825
g34
F3.1578947368421053
sg35
F1.1842105263157894
sg36
F0.43421052631578944
sg37
S'yellow'
p826
sba(icurlovision
Stone
p827
(dp828
g34
F12.592105263157894
sg35
F0.9473684210526315
sg36
F0.43421052631578944
sg37
S'yellow'
p829
sba(icurlovision
Stone
p830
(dp831
g34
F-3.8684210526315788
sg35
F-1.2236842105263157
sg36
F0.4539473684210526
sg37
S'red'
p832
sba(icurlovision
Stone
p833
(dp834
g34
F11.644736842105262
sg35
F3.039473684210526
sg36
F0.2763157894736842
sg37
S'yellow'
p835
sba(icurlovision
Stone
p836
(dp837
g34
F13.69736842105263
sg35
F-3.394736842105263
sg36
F0.43421052631578944
sg37
S'yellow'
p838
sba(icurlovision
Stone
p839
(dp840
g34
F1.381578947368421
sg35
F0.75
sg36
F0.4539473684210526
sg37
S'yellow'
p841
sba(icurlovision
Stone
p842
(dp843
g34
F7.026315789473684
sg35
F1.1052631578947367
sg36
F0.41447368421052627
sg37
S'yellow'
p844
sba(icurlovision
Stone
p845
(dp846
g34
F0.11842105263157894
sg35
F1.1052631578947367
sg36
F0.3355263157894737
sg37
S'red'
p847
sbasba(icurlovision
StoneLayout
p848
(dp849
g29
F0.4791666666666667
sg30
(lp850
(icurlovision
Stone
p851
(dp852
g34
F12.466216216216218
sg35
F0.9932432432432433
sg36
F0.4256756756756757
sg37
S'yellow'
p853
sba(icurlovision
Stone
p854
(dp855
g34
F11.493243243243244
sg35
F3.0202702702702706
sg36
F0.4256756756756757
sg37
S'yellow'
p856
sba(icurlovision
Stone
p857
(dp858
g34
F3.1824324324324325
sg35
F1.195945945945946
sg36
F0.32432432432432434
sg37
S'yellow'
p859
sba(icurlovision
Stone
p860
(dp861
g34
F13.601351351351353
sg35
F-3.3445945945945947
sg36
F0.22297297297297297
sg37
S'yellow'
p862
sba(icurlovision
Stone
p863
(dp864
g34
F7.033783783783784
sg35
F1.0743243243243243
sg36
F0.24324324324324326
sg37
S'yellow'
p865
sba(icurlovision
Stone
p866
(dp867
g34
F0.10135135135135136
sg35
F1.0743243243243243
sg36
F0.32432432432432434
sg37
S'red'
p868
sba(icurlovision
Stone
p869
(dp870
g34
F11.736486486486488
sg35
F-0.26351351351351354
sg36
F0.40540540540540543
sg37
S'red'
p871
sba(icurlovision
Stone
p872
(dp873
g34
F1.3581081081081081
sg35
F0.7905405405405406
sg36
F0.32432432432432434
sg37
S'yellow'
p874
sba(icurlovision
Stone
p875
(dp876
g34
F-3.790540540540541
sg35
F-1.2364864864864866
sg36
F0.30405405405405406
sg37
S'red'
p877
sbasbasg198
I2
sg199
I0
sba(icurlovision
EndResult
p878
(dp879
g2
I2
sg9
(lp880
(I8
I7
tp881
a(I7
I6
tp882
a(I6
I6
tp883
a(I6
I5
tp884
a(I5
I5
tp885
a(I5
I4
tp886
a(I4
I4
tp887
a(I4
I3
tp888
a(I3
I3
tp889
a(I3
I2
tp890
a(I2
I2
tp891
a(I2
I1
tp892
a(I1
I1
tp893
a(I1
I0
tp894
asg24
I5
sg25
(lp895
(icurlovision
StoneLayout
p896
(dp897
g29
F0.4791666666666667
sg30
(lp898
(icurlovision
Stone
p899
(dp900
g34
F6.700819672131147
sg35
F0.6270491803278688
sg36
F0.4180327868852459
sg37
S'yellow'
p901
sbasba(icurlovision
StoneLayout
p902
(dp903
g29
F0.4791666666666667
sg30
(lp904
(icurlovision
Stone
p905
(dp906
g34
F7.125
sg35
F0.6057692307692308
sg36
F0.3605769230769231
sg37
S'yellow'
p907
sba(icurlovision
Stone
p908
(dp909
g34
F3.1153846153846154
sg35
F0.028846153846153848
sg36
F0.46153846153846156
sg37
S'yellow'
p910
sba(icurlovision
Stone
p911
(dp912
g34
F0.6923076923076923
sg35
F0.2884615384615385
sg36
F0.46153846153846156
sg37
S'red'
p913
sba(icurlovision
Stone
p914
(dp915
g34
F-3.201923076923077
sg35
F-1.6442307692307694
sg36
F0.4182692307692308
sg37
S'red'
p916
sbasba(icurlovision
StoneLayout
p917
(dp918
g29
F0.4791666666666667
sg30
(lp919
(icurlovision
Stone
p920
(dp921
g34
F7.038461538461539
sg35
F0.6057692307692308
sg36
F0.44711538461538464
sg37
S'yellow'
p922
sba(icurlovision
Stone
p923
(dp924
g34
F0.6923076923076923
sg35
F0.2884615384615385
sg36
F0.3317307692307693
sg37
S'red'
p925
sba(icurlovision
Stone
p926
(dp927
g34
F3.1442307692307696
sg35
F0.057692307692307696
sg36
F0.3317307692307693
sg37
S'yellow'
p928
sba(icurlovision
Stone
p929
(dp930
g34
F10.413461538461538
sg35
F-0.20192307692307693
sg36
F0.3028846153846154
sg37
S'red'
p931
sbasba(icurlovision
StoneLayout
p932
(dp933
g29
F0.4791666666666667
sg30
(lp934
(icurlovision
Stone
p935
(dp936
g34
F6.96875
sg35
F0.5625
sg36
F0.3125
sg37
S'yellow'
p937
sba(icurlovision
Stone
p938
(dp939
g34
F0.71875
sg35
F0.3125
sg36
F0.4375
sg37
S'red'
p940
sba(icurlovision
Stone
p941
(dp942
g34
F10.25
sg35
F-0.21875
sg36
F0.34375
sg37
S'red'
p943
sba(icurlovision
Stone
p944
(dp945
g34
F2.90625
sg35
F0.0625
sg36
F0.28125
sg37
S'yellow'
p946
sba(icurlovision
Stone
p947
(dp948
g34
F3.96875
sg35
F-0.25
sg36
F0.328125
sg37
S'yellow'
p949
sba(icurlovision
Stone
p950
(dp951
g34
F10.25
sg35
F-4.46875
sg36
F0.28125
sg37
S'yellow'
p952
sbasba(icurlovision
StoneLayout
p953
(dp954
g29
F0.4791666666666667
sg30
(lp955
(icurlovision
Stone
p956
(dp957
g34
F2.869565217391304
sg35
F0.06521739130434782
sg36
F0.44021739130434784
sg37
S'yellow'
p958
sba(icurlovision
Stone
p959
(dp960
g34
F9.880434782608695
sg35
F-2.7391304347826084
sg36
F0.45652173913043476
sg37
S'red'
p961
sba(icurlovision
Stone
p962
(dp963
g34
F0.6847826086956521
sg35
F0.2934782608695652
sg36
F0.44021739130434784
sg37
S'red'
p964
sba(icurlovision
Stone
p965
(dp966
g34
F3.9782608695652173
sg35
F-0.13043478260869565
sg36
F0.30978260869565216
sg37
S'yellow'
p967
sbasba(icurlovision
StoneLayout
p968
(dp969
g29
F0.4791666666666667
sg30
(lp970
(icurlovision
Stone
p971
(dp972
g34
F7.13235294117647
sg35
F3.3676470588235294
sg36
F0.3382352941176471
sg37
S'yellow'
p973
sba(icurlovision
Stone
p974
(dp975
g34
F2.8970588235294117
sg35
F0.1323529411764706
sg36
F0.29411764705882354
sg37
S'yellow'
p976
sba(icurlovision
Stone
p977
(dp978
g34
F-0.8676470588235294
sg35
F2.1029411764705883
sg36
F0.3676470588235294
sg37
S'red'
p979
sba(icurlovision
Stone
p980
(dp981
g34
F3.985294117647059
sg35
F-0.16176470588235295
sg36
F0.45588235294117646
sg37
S'yellow'
p982
sba(icurlovision
Stone
p983
(dp984
g34
F1.161764705882353
sg35
F-0.4264705882352941
sg36
F0.3529411764705882
sg37
S'red'
p985
sba(icurlovision
Stone
p986
(dp987
g34
F-2.3970588235294117
sg35
F-1.338235294117647
sg36
F0.45588235294117646
sg37
S'red'
p988
sbasba(icurlovision
StoneLayout
p989
(dp990
g29
F0.4791666666666667
sg30
(lp991
(icurlovision
Stone
p992
(dp993
g34
F-1.3055555555555556
sg35
F0.75
sg36
F0.3472222222222222
sg37
S'yellow'
p994
sba(icurlovision
Stone
p995
(dp996
g34
F7.0
sg35
F3.3055555555555554
sg36
F0.3333333333333333
sg37
S'yellow'
p997
sba(icurlovision
Stone
p998
(dp999
g34
F3.638888888888889
sg35
F-0.2222222222222222
sg36
F0.3333333333333333
sg37
S'yellow'
p1000
sba(icurlovision
Stone
p1001
(dp1002
g34
F0.7222222222222222
sg35
F-0.8888888888888888
sg36
F0.4722222222222222
sg37
S'red'
p1003
sba(icurlovision
Stone
p1004
(dp1005
g34
F4.666666666666666
sg35
F-0.4722222222222222
sg36
F0.3472222222222222
sg37
S'red'
p1006
sbasba(icurlovision
StoneLayout
p1007
(dp1008
g29
F0.4791666666666667
sg30
(lp1009
(icurlovision
Stone
p1010
(dp1011
g34
F-1.3026315789473684
sg35
F0.75
sg36
F0.4605263157894737
sg37
S'yellow'
p1012
sba(icurlovision
Stone
p1013
(dp1014
g34
F7.197368421052631
sg35
F3.381578947368421
sg36
F0.47368421052631576
sg37
S'yellow'
p1015
sba(icurlovision
Stone
p1016
(dp1017
g34
F-0.17105263157894735
sg35
F0.6710526315789473
sg36
F0.3421052631578947
sg37
S'yellow'
p1018
sba(icurlovision
Stone
p1019
(dp1020
g34
F0.8026315789473684
sg35
F-0.9078947368421052
sg36
F0.3289473684210526
sg37
S'red'
p1021
sba(icurlovision
Stone
p1022
(dp1023
g34
F4.644736842105263
sg35
F-0.48684210526315785
sg36
F0.3289473684210526
sg37
S'red'
p1024
sba(icurlovision
Stone
p1025
(dp1026
g34
F5.776315789473684
sg35
F-0.5657894736842105
sg36
F0.3421052631578947
sg37
S'yellow'
p1027
sbasba(icurlovision
StoneLayout
p1028
(dp1029
g29
F0.4791666666666667
sg30
(lp1030
(icurlovision
Stone
p1031
(dp1032
g34
F7.453125
sg35
F3.546875
sg36
F0.46875
sg37
S'yellow'
p1033
sba(icurlovision
Stone
p1034
(dp1035
g34
F-0.390625
sg35
F0.703125
sg36
F0.484375
sg37
S'yellow'
p1036
sba(icurlovision
Stone
p1037
(dp1038
g34
F0.828125
sg35
F-0.953125
sg36
F0.359375
sg37
S'red'
p1039
sba(icurlovision
Stone
p1040
(dp1041
g34
F0.640625
sg35
F0.171875
sg36
F0.484375
sg37
S'red'
p1042
sba(icurlovision
Stone
p1043
(dp1044
g34
F4.828125
sg35
F-0.453125
sg36
F0.484375
sg37
S'red'
p1045
sba(icurlovision
Stone
p1046
(dp1047
g34
F5.953125
sg35
F-0.578125
sg36
F0.375
sg37
S'yellow'
p1048
sbasba(icurlovision
StoneLayout
p1049
(dp1050
g29
F0.4791666666666667
sg30
(lp1051
(icurlovision
Stone
p1052
(dp1053
g34
F-0.3088235294117647
sg35
F-1.7794117647058822
sg36
F0.47058823529411764
sg37
S'red'
p1054
sba(icurlovision
Stone
p1055
(dp1056
g34
F7.102941176470588
sg35
F3.3676470588235294
sg36
F0.45588235294117646
sg37
S'yellow'
p1057
sba(icurlovision
Stone
p1058
(dp1059
g34
F4.75
sg35
F-2.25
sg36
F0.3529411764705882
sg37
S'yellow'
p1060
sba(icurlovision
Stone
p1061
(dp1062
g34
F6.044117647058823
sg35
F0.39705882352941174
sg36
F0.3235294117647059
sg37
S'yellow'
p1063
sba(icurlovision
Stone
p1064
(dp1065
g34
F-0.044117647058823525
sg35
F-0.3382352941176471
sg36
F0.3088235294117647
sg37
S'red'
p1066
sba(icurlovision
Stone
p1067
(dp1068
g34
F1.7794117647058822
sg35
F-0.6911764705882353
sg36
F0.3676470588235294
sg37
S'red'
p1069
sbasba(icurlovision
StoneLayout
p1070
(dp1071
g29
F0.4791666666666667
sg30
(lp1072
(icurlovision
Stone
p1073
(dp1074
g34
F6.5625
sg35
F3.1607142857142856
sg36
F0.30803571428571425
sg37
S'yellow'
p1075
sba(icurlovision
Stone
p1076
(dp1077
g34
F-0.05357142857142857
sg35
F-1.3928571428571428
sg36
F0.42857142857142855
sg37
S'red'
p1078
sba(icurlovision
Stone
p1079
(dp1080
g34
F5.625
sg35
F0.5625
sg36
F0.3214285714285714
sg37
S'yellow'
p1081
sba(icurlovision
Stone
p1082
(dp1083
g34
F4.526785714285714
sg35
F-0.375
sg36
F0.30803571428571425
sg37
S'red'
p1084
sba(icurlovision
Stone
p1085
(dp1086
g34
F1.8482142857142856
sg35
F-0.42857142857142855
sg36
F0.3883928571428571
sg37
S'red'
p1087
sbasba(icurlovision
StoneLayout
p1088
(dp1089
g29
F0.4791666666666667
sg30
(lp1090
(icurlovision
Stone
p1091
(dp1092
g34
F7.110576923076923
sg35
F3.3605769230769234
sg36
F0.3605769230769231
sg37
S'yellow'
p1093
sba(icurlovision
Stone
p1094
(dp1095
g34
F0.7355769230769231
sg35
F-2.120192307692308
sg36
F0.46153846153846156
sg37
S'red'
p1096
sba(icurlovision
Stone
p1097
(dp1098
g34
F5.408653846153847
sg35
F-1.1971153846153846
sg36
F0.31730769230769235
sg37
S'yellow'
p1099
sba(icurlovision
Stone
p1100
(dp1101
g34
F6.0144230769230775
sg35
F0.3894230769230769
sg36
F0.34615384615384615
sg37
S'yellow'
p1102
sbasba(icurlovision
StoneLayout
p1103
(dp1104
g29
F0.4791666666666667
sg30
(lp1105
(icurlovision
Stone
p1106
(dp1107
g34
F6.958333333333333
sg35
F3.263888888888889
sg36
F0.4444444444444444
sg37
S'yellow'
p1108
sba(icurlovision
Stone
p1109
(dp1110
g34
F-3.5416666666666665
sg35
F-1.2638888888888888
sg36
F0.3472222222222222
sg37
S'red'
p1111
sba(icurlovision
Stone
p1112
(dp1113
g34
F5.291666666666666
sg35
F-1.2083333333333333
sg36
F0.3055555555555555
sg37
S'yellow'
p1114
sba(icurlovision
Stone
p1115
(dp1116
g34
F0.6805555555555555
sg35
F-2.069444444444444
sg36
F0.3194444444444444
sg37
S'red'
p1117
sba(icurlovision
Stone
p1118
(dp1119
g34
F5.875
sg35
F0.3472222222222222
sg36
F0.3333333333333333
sg37
S'yellow'
p1120
sba(icurlovision
Stone
p1121
(dp1122
g34
F-5.847222222222222
sg35
F-3.263888888888889
sg36
F0.4444444444444444
sg37
S'red'
p1123
sbasba(icurlovision
StoneLayout
p1124
(dp1125
g29
F0.4791666666666667
sg30
(lp1126
(icurlovision
Stone
p1127
(dp1128
g34
F7.14
sg35
F3.3899999999999997
sg36
F0.345
sg37
S'yellow'
p1129
sba(icurlovision
Stone
p1130
(dp1131
g34
F-3.5999999999999996
sg35
F-1.23
sg36
F0.32999999999999996
sg37
S'red'
p1132
sba(icurlovision
Stone
p1133
(dp1134
g34
F6.06
sg35
F0.39
sg36
F0.32999999999999996
sg37
S'yellow'
p1135
sba(icurlovision
Stone
p1136
(dp1137
g34
F5.46
sg35
F-1.17
sg36
F0.315
sg37
S'yellow'
p1138
sbasbasg198
I4
sg199
I1
sba(icurlovision
EndResult
p1139
(dp1140
g2
I3
sg9
(lp1141
(I7
I8
tp1142
a(I7
I7
tp1143
a(I6
I7
tp1144
a(I6
I6
tp1145
a(I5
I6
tp1146
a(I5
I5
tp1147
a(I4
I5
tp1148
a(I4
I4
tp1149
a(I3
I4
tp1150
a(I3
I3
tp1151
a(I2
I3
tp1152
a(I2
I2
tp1153
a(I1
I2
tp1154
a(I1
I1
tp1155
a(I0
I1
tp1156
asg24
I6
sg25
(lp1157
(icurlovision
StoneLayout
p1158
(dp1159
g29
F0.4791666666666667
sg30
(lp1160
(icurlovision
Stone
p1161
(dp1162
g34
F4.273809523809524
sg35
F0.7976190476190476
sg36
F0.34523809523809523
sg37
S'red'
p1163
sbasba(icurlovision
StoneLayout
p1164
(dp1165
g29
F0.4791666666666667
sg30
(lp1166
(icurlovision
Stone
p1167
(dp1168
g34
F11.691176470588236
sg35
F3.161764705882353
sg36
F0.4264705882352941
sg37
S'yellow'
p1169
sba(icurlovision
Stone
p1170
(dp1171
g34
F4.25
sg35
F0.7794117647058824
sg36
F0.45588235294117646
sg37
S'red'
p1172
sbasba(icurlovision
StoneLayout
p1173
(dp1174
g29
F0.4791666666666667
sg30
(lp1175
(icurlovision
Stone
p1176
(dp1177
g34
F11.429347826086957
sg35
F3.1141304347826084
sg36
F0.44021739130434784
sg37
S'yellow'
p1178
sba(icurlovision
Stone
p1179
(dp1180
g34
F-0.5054347826086957
sg35
F-0.048913043478260865
sg36
F0.34239130434782605
sg37
S'red'
p1181
sba(icurlovision
Stone
p1182
(dp1183
g34
F4.157608695652174
sg35
F0.7663043478260869
sg36
F0.34239130434782605
sg37
S'red'
p1184
sbasba(icurlovision
StoneLayout
p1185
(dp1186
g29
F0.4791666666666667
sg30
(lp1187
(icurlovision
Stone
p1188
(dp1189
g34
F0.43124999999999997
sg35
F-0.31875
sg36
F0.33749999999999997
sg37
S'yellow'
p1190
sba(icurlovision
Stone
p1191
(dp1192
g34
F12.24375
sg35
F3.28125
sg36
F0.46875
sg37
S'yellow'
p1193
sba(icurlovision
Stone
p1194
(dp1195
g34
F4.44375
sg35
F0.7687499999999999
sg36
F0.35625
sg37
S'red'
p1196
sba(icurlovision
Stone
p1197
(dp1198
g34
F-0.65625
sg35
F-0.056249999999999994
sg36
F0.33749999999999997
sg37
S'red'
p1199
sbasba(icurlovision
StoneLayout
p1200
(dp1201
g29
F0.4791666666666667
sg30
(lp1202
(icurlovision
Stone
p1203
(dp1204
g34
F1.2804878048780488
sg35
F-0.18292682926829268
sg36
F0.4390243902439024
sg37
S'red'
p1205
sba(icurlovision
Stone
p1206
(dp1207
g34
F11.378048780487804
sg35
F3.1097560975609753
sg36
F0.4390243902439024
sg37
S'yellow'
p1208
sba(icurlovision
Stone
p1209
(dp1210
g34
F4.097560975609756
sg35
F0.7682926829268292
sg36
F0.40243902439024387
sg37
S'red'
p1211
sba(icurlovision
Stone
p1212
(dp1213
g34
F0.25609756097560976
sg35
F-0.3292682926829268
sg36
F0.31097560975609756
sg37
S'yellow'
p1214
sbasba(icurlovision
StoneLayout
p1215
(dp1216
g29
F0.4791666666666667
sg30
(lp1217
(icurlovision
Stone
p1218
(dp1219
g34
F0.2553191489361702
sg35
F3.6702127659574466
sg36
F0.3191489361702127
sg37
S'yellow'
p1220
sba(icurlovision
Stone
p1221
(dp1222
g34
F11.393617021276595
sg35
F3.127659574468085
sg36
F0.4308510638297872
sg37
S'yellow'
p1223
sba(icurlovision
Stone
p1224
(dp1225
g34
F1.3404255319148934
sg35
F-0.19148936170212766
sg36
F0.33510638297872336
sg37
S'red'
p1226
sba(icurlovision
Stone
p1227
(dp1228
g34
F0.2553191489361702
sg35
F-0.351063829787234
sg36
F0.3191489361702127
sg37
S'yellow'
p1229
sba(icurlovision
Stone
p1230
(dp1231
g34
F4.148936170212766
sg35
F0.7659574468085106
sg36
F0.351063829787234
sg37
S'red'
p1232
sbasba(icurlovision
StoneLayout
p1233
(dp1234
g29
F0.4791666666666667
sg30
(lp1235
(icurlovision
Stone
p1236
(dp1237
g34
F0.23750000000000002
sg35
F3.6375
sg36
F0.4375
sg37
S'yellow'
p1238
sba(icurlovision
Stone
p1239
(dp1240
g34
F1.3125
sg35
F-0.21250000000000002
sg36
F0.3125
sg37
S'red'
p1241
sba(icurlovision
Stone
p1242
(dp1243
g34
F4.0875
sg35
F0.7875000000000001
sg36
F0.4375
sg37
S'red'
p1244
sba(icurlovision
Stone
p1245
(dp1246
g34
F0.2625
sg35
F-0.3125
sg36
F0.325
sg37
S'yellow'
p1247
sbasba(icurlovision
StoneLayout
p1248
(dp1249
g29
F0.4791666666666667
sg30
(lp1250
(icurlovision
Stone
p1251
(dp1252
g34
F-2.53125
sg35
F-0.6294642857142857
sg36
F0.46875
sg37
S'yellow'
p1253
sba(icurlovision
Stone
p1254
(dp1255
g34
F0.2544642857142857
sg35
F3.736607142857143
sg36
F0.46875
sg37
S'yellow'
p1256
sba(icurlovision
Stone
p1257
(dp1258
g34
F4.299107142857142
sg35
F0.7901785714285714
sg36
F0.3482142857142857
sg37
S'red'
p1259
sba(icurlovision
Stone
p1260
(dp1261
g34
F2.290178571428571
sg35
F-0.3883928571428571
sg36
F0.4419642857142857
sg37
S'yellow'
p1262
sba(icurlovision
Stone
p1263
(dp1264
g34
F1.138392857142857
sg35
F-0.12053571428571427
sg36
F0.45535714285714285
sg37
S'red'
p1265
sbasba(icurlovision
StoneLayout
p1266
(dp1267
g29
F0.4791666666666667
sg30
(lp1268
(icurlovision
Stone
p1269
(dp1270
g34
F-2.5078125
sg35
F-0.5390625
sg36
F0.4453125
sg37
S'yellow'
p1271
sba(icurlovision
Stone
p1272
(dp1273
g34
F-1.1953125
sg35
F-0.140625
sg36
F0.4453125
sg37
S'red'
p1274
sba(icurlovision
Stone
p1275
(dp1276
g34
F2.203125
sg35
F-0.3515625
sg36
F0.328125
sg37
S'yellow'
p1277
sba(icurlovision
Stone
p1278
(dp1279
g34
F1.1015625
sg35
F-0.09375
sg36
F0.4453125
sg37
S'red'
p1280
sba(icurlovision
Stone
p1281
(dp1282
g34
F4.171875
sg35
F0.796875
sg36
F0.33984375
sg37
S'red'
p1283
sbasba(icurlovision
StoneLayout
p1284
(dp1285
g29
F0.4791666666666667
sg30
(lp1286
(icurlovision
Stone
p1287
(dp1288
g34
F-2.510204081632653
sg35
F-0.5663265306122449
sg36
F0.45918367346938777
sg37
S'yellow'
p1289
sba(icurlovision
Stone
p1290
(dp1291
g34
F2.2346938775510203
sg35
F-0.3520408163265306
sg36
F0.3214285714285714
sg37
S'yellow'
p1292
sba(icurlovision
Stone
p1293
(dp1294
g34
F1.1326530612244898
sg35
F-0.07653061224489796
sg36
F0.336734693877551
sg37
S'red'
p1295
sba(icurlovision
Stone
p1296
(dp1297
g34
F-1.193877551020408
sg35
F-0.1683673469387755
sg36
F0.45918367346938777
sg37
S'red'
p1298
sba(icurlovision
Stone
p1299
(dp1300
g34
F4.8979591836734695
sg35
F0.413265306122449
sg36
F0.336734693877551
sg37
S'yellow'
p1301
sbasba(icurlovision
StoneLayout
p1302
(dp1303
g29
F0.4791666666666667
sg30
(lp1304
(icurlovision
Stone
p1305
(dp1306
g34
F-2.458333333333333
sg35
F-0.5972222222222222
sg36
F0.38888888888888884
sg37
S'yellow'
p1307
sba(icurlovision
Stone
p1308
(dp1309
g34
F-1.1805555555555556
sg35
F-0.15277777777777776
sg36
F0.3333333333333333
sg37
S'red'
p1310
sba(icurlovision
Stone
p1311
(dp1312
g34
F6.625
sg35
F-1.097222222222222
sg36
F0.3333333333333333
sg37
S'red'
p1313
sba(icurlovision
Stone
p1314
(dp1315
g34
F1.1527777777777777
sg35
F-0.06944444444444445
sg36
F0.3333333333333333
sg37
S'red'
p1316
sba(icurlovision
Stone
p1317
(dp1318
g34
F2.236111111111111
sg35
F-0.375
sg36
F0.3333333333333333
sg37
S'yellow'
p1319
sba(icurlovision
Stone
p1320
(dp1321
g34
F4.902777777777778
sg35
F0.4305555555555555
sg36
F0.3055555555555555
sg37
S'yellow'
p1322
sbasba(icurlovision
StoneLayout
p1323
(dp1324
g29
F0.4791666666666667
sg30
(lp1325
(icurlovision
Stone
p1326
(dp1327
g34
F-2.5949999999999998
sg35
F-0.615
sg36
F0.46499999999999997
sg37
S'yellow'
p1328
sba(icurlovision
Stone
p1329
(dp1330
g34
F7.6049999999999995
sg35
F-1.275
sg36
F0.32999999999999996
sg37
S'yellow'
p1331
sba(icurlovision
Stone
p1332
(dp1333
g34
F-1.2449999999999999
sg35
F-0.195
sg36
F0.32999999999999996
sg37
S'red'
p1334
sba(icurlovision
Stone
p1335
(dp1336
g34
F1.9949999999999999
sg35
F-0.015
sg36
F0.44999999999999996
sg37
S'yellow'
p1337
sba(icurlovision
Stone
p1338
(dp1339
g34
F5.0249999999999995
sg35
F0.40499999999999997
sg36
F0.32999999999999996
sg37
S'yellow'
p1340
sbasba(icurlovision
StoneLayout
p1341
(dp1342
g29
F0.4791666666666667
sg30
(lp1343
(icurlovision
Stone
p1344
(dp1345
g34
F-2.6158536585365852
sg35
F-0.5853658536585366
sg36
F0.47560975609756095
sg37
S'yellow'
p1346
sba(icurlovision
Stone
p1347
(dp1348
g34
F7.664634146341463
sg35
F-1.2073170731707317
sg36
F0.3475609756097561
sg37
S'yellow'
p1349
sba(icurlovision
Stone
p1350
(dp1351
g34
F-1.2621951219512195
sg35
F-0.18292682926829268
sg36
F0.47560975609756095
sg37
S'red'
p1352
sba(icurlovision
Stone
p1353
(dp1354
g34
F2.067073170731707
sg35
F0.0
sg36
F0.3475609756097561
sg37
S'yellow'
p1355
sba(icurlovision
Stone
p1356
(dp1357
g34
F12.713414634146341
sg35
F0.5121951219512195
sg36
F0.4390243902439024
sg37
S'red'
p1358
sba(icurlovision
Stone
p1359
(dp1360
g34
F5.103658536585366
sg35
F0.4390243902439024
sg36
F0.3475609756097561
sg37
S'yellow'
p1361
sbasba(icurlovision
StoneLayout
p1362
(dp1363
g29
F0.4791666666666667
sg30
(lp1364
(icurlovision
Stone
p1365
(dp1366
g34
F-0.46428571428571425
sg35
F-0.7142857142857142
sg36
F0.3214285714285714
sg37
S'yellow'
p1367
sba(icurlovision
Stone
p1368
(dp1369
g34
F-2.571428571428571
sg35
F-0.5714285714285714
sg36
F0.46428571428571425
sg37
S'yellow'
p1370
sba(icurlovision
Stone
p1371
(dp1372
g34
F7.357142857142857
sg35
F-1.1785714285714286
sg36
F0.4464285714285714
sg37
S'yellow'
p1373
sba(icurlovision
Stone
p1374
(dp1375
g34
F12.25
sg35
F0.5
sg36
F0.42857142857142855
sg37
S'red'
p1376
sba(icurlovision
Stone
p1377
(dp1378
g34
F2.0
sg35
F0.03571428571428571
sg36
F0.3214285714285714
sg37
S'yellow'
p1379
sba(icurlovision
Stone
p1380
(dp1381
g34
F-1.25
sg35
F-0.17857142857142855
sg36
F0.4464285714285714
sg37
S'red'
p1382
sba(icurlovision
Stone
p1383
(dp1384
g34
F4.892857142857142
sg35
F0.42857142857142855
sg36
F0.3214285714285714
sg37
S'yellow'
p1385
sbasba(icurlovision
StoneLayout
p1386
(dp1387
g29
F0.4791666666666667
sg30
(lp1388
(icurlovision
Stone
p1389
(dp1390
g34
F-2.563953488372093
sg35
F-0.6104651162790697
sg36
F0.47093023255813954
sg37
S'yellow'
p1391
sba(icurlovision
Stone
p1392
(dp1393
g34
F8.005813953488373
sg35
F-1.8662790697674418
sg36
F0.436046511627907
sg37
S'red'
p1394
sba(icurlovision
Stone
p1395
(dp1396
g34
F-0.436046511627907
sg35
F-0.75
sg36
F0.3313953488372093
sg37
S'yellow'
p1397
sba(icurlovision
Stone
p1398
(dp1399
g34
F6.645348837209302
sg35
F-0.6802325581395349
sg36
F0.436046511627907
sg37
S'yellow'
p1400
sba(icurlovision
Stone
p1401
(dp1402
g34
F12.331395348837209
sg35
F0.47093023255813954
sg36
F0.436046511627907
sg37
S'red'
p1403
sba(icurlovision
Stone
p1404
(dp1405
g34
F-1.2383720930232558
sg35
F-0.1569767441860465
sg36
F0.3488372093023256
sg37
S'red'
p1406
sba(icurlovision
Stone
p1407
(dp1408
g34
F2.005813953488372
sg35
F0.01744186046511628
sg36
F0.3313953488372093
sg37
S'yellow'
p1409
sba(icurlovision
Stone
p1410
(dp1411
g34
F4.970930232558139
sg35
F0.436046511627907
sg36
F0.3488372093023256
sg37
S'yellow'
p1412
sbasbasg198
I4
sg199
I0
sba(icurlovision
EndResult
p1413
(dp1414
g2
I3
sg9
(lp1415
(I8
I7
tp1416
a(I7
I6
tp1417
a(I6
I6
tp1418
a(I6
I5
tp1419
a(I5
I5
tp1420
a(I5
I4
tp1421
a(I4
I4
tp1422
a(I4
I3
tp1423
a(I3
I3
tp1424
a(I3
I2
tp1425
a(I2
I2
tp1426
a(I2
I1
tp1427
a(I1
I1
tp1428
a(I1
I0
tp1429
asg24
I7
sg25
(lp1430
(icurlovision
StoneLayout
p1431
(dp1432
g29
F0.4791666666666667
sg30
(lp1433
(icurlovision
Stone
p1434
(dp1435
g34
F9.375
sg35
F0.4267241379310345
sg36
F0.34913793103448276
sg37
S'yellow'
p1436
sbasba(icurlovision
StoneLayout
p1437
(dp1438
g29
F0.4791666666666667
sg30
(lp1439
(icurlovision
Stone
p1440
(dp1441
g34
F9.511363636363635
sg35
F0.4431818181818181
sg36
F0.4261363636363636
sg37
S'yellow'
p1442
sba(icurlovision
Stone
p1443
(dp1444
g34
F1.602272727272727
sg35
F0.13636363636363635
sg36
F0.32386363636363635
sg37
S'red'
p1445
sba(icurlovision
Stone
p1446
(dp1447
g34
F14.045454545454545
sg35
F-0.03409090909090909
sg36
F0.40909090909090906
sg37
S'yellow'
p1448
sbasba(icurlovision
StoneLayout
p1449
(dp1450
g29
F0.4791666666666667
sg30
(lp1451
(icurlovision
Stone
p1452
(dp1453
g34
F9.540697674418604
sg35
F0.47093023255813954
sg36
F0.436046511627907
sg37
S'yellow'
p1454
sba(icurlovision
Stone
p1455
(dp1456
g34
F2.8430232558139537
sg35
F-0.19186046511627908
sg36
F0.3488372093023256
sg37
S'red'
p1457
sba(icurlovision
Stone
p1458
(dp1459
g34
F1.622093023255814
sg35
F0.12209302325581395
sg36
F0.3488372093023256
sg37
S'red'
p1460
sba(icurlovision
Stone
p1461
(dp1462
g34
F14.145348837209301
sg35
F-0.01744186046511628
sg36
F0.41860465116279066
sg37
S'yellow'
p1463
sbasba(icurlovision
StoneLayout
p1464
(dp1465
g29
F0.4791666666666667
sg30
(lp1466
(icurlovision
Stone
p1467
(dp1468
g34
F9.443181818181818
sg35
F0.4431818181818181
sg36
F0.4431818181818181
sg37
S'yellow'
p1469
sba(icurlovision
Stone
p1470
(dp1471
g34
F-0.23863636363636362
sg35
F-1.227272727272727
sg36
F0.3409090909090909
sg37
S'yellow'
p1472
sba(icurlovision
Stone
p1473
(dp1474
g34
F2.727272727272727
sg35
F-0.17045454545454544
sg36
F0.4602272727272727
sg37
S'red'
p1475
sba(icurlovision
Stone
p1476
(dp1477
g34
F13.977272727272727
sg35
F-0.06818181818181818
sg36
F0.4431818181818181
sg37
S'yellow'
p1478
sba(icurlovision
Stone
p1479
(dp1480
g34
F1.602272727272727
sg35
F0.06818181818181818
sg36
F0.4602272727272727
sg37
S'red'
p1481
sba(icurlovision
Stone
p1482
(dp1483
g34
F12.443181818181817
sg35
F-4.909090909090908
sg36
F0.30681818181818177
sg37
S'yellow'
p1484
sbasba(icurlovision
StoneLayout
p1485
(dp1486
g29
F0.4791666666666667
sg30
(lp1487
(icurlovision
Stone
p1488
(dp1489
g34
F-2.151315789473684
sg35
F0.29605263157894735
sg36
F0.3355263157894737
sg37
S'yellow'
p1490
sba(icurlovision
Stone
p1491
(dp1492
g34
F9.532894736842104
sg35
F0.4539473684210526
sg36
F0.4539473684210526
sg37
S'yellow'
p1493
sba(icurlovision
Stone
p1494
(dp1495
g34
F14.111842105263158
sg35
F0.019736842105263157
sg36
F0.23684210526315788
sg37
S'yellow'
p1496
sba(icurlovision
Stone
p1497
(dp1498
g34
F2.506578947368421
sg35
F0.4539473684210526
sg36
F0.4539473684210526
sg37
S'red'
p1499
sba(icurlovision
Stone
p1500
(dp1501
g34
F1.125
sg35
F0.256578947368421
sg36
F0.4539473684210526
sg37
S'red'
p1502
sba(icurlovision
Stone
p1503
(dp1504
g34
F12.967105263157894
sg35
F-5.625
sg36
F0.35526315789473684
sg37
S'yellow'
p1505
sbasba(icurlovision
StoneLayout
p1506
(dp1507
g29
F0.4791666666666667
sg30
(lp1508
(icurlovision
Stone
p1509
(dp1510
g34
F-2.25
sg35
F0.3333333333333333
sg36
F0.35416666666666663
sg37
S'yellow'
p1511
sba(icurlovision
Stone
p1512
(dp1513
g34
F1.875
sg35
F-0.7083333333333333
sg36
F0.25
sg37
S'yellow'
p1514
sba(icurlovision
Stone
p1515
(dp1516
g34
F14.583333333333332
sg35
F0.0
sg36
F0.41666666666666663
sg37
S'yellow'
p1517
sba(icurlovision
Stone
p1518
(dp1519
g34
F9.916666666666666
sg35
F0.5
sg36
F0.35416666666666663
sg37
S'yellow'
p1520
sba(icurlovision
Stone
p1521
(dp1522
g34
F2.625
sg35
F0.5
sg36
F0.47916666666666663
sg37
S'red'
p1523
sba(icurlovision
Stone
p1524
(dp1525
g34
F1.1666666666666665
sg35
F0.29166666666666663
sg36
F0.2708333333333333
sg37
S'red'
p1526
sbasba(icurlovision
StoneLayout
p1527
(dp1528
g29
F0.4791666666666667
sg30
(lp1529
(icurlovision
Stone
p1530
(dp1531
g34
F-2.1702127659574466
sg35
F0.28723404255319146
sg36
F0.33510638297872336
sg37
S'yellow'
p1532
sba(icurlovision
Stone
p1533
(dp1534
g34
F2.5212765957446805
sg35
F0.4787234042553191
sg36
F0.4627659574468085
sg37
S'red'
p1535
sba(icurlovision
Stone
p1536
(dp1537
g34
F9.638297872340425
sg35
F0.5106382978723404
sg36
F0.44680851063829785
sg37
S'yellow'
p1538
sba(icurlovision
Stone
p1539
(dp1540
g34
F1.1489361702127658
sg35
F0.2553191489361702
sg36
F0.28723404255319146
sg37
S'red'
p1541
sba(icurlovision
Stone
p1542
(dp1543
g34
F1.8191489361702127
sg35
F-0.6702127659574467
sg36
F0.3031914893617021
sg37
S'yellow'
p1544
sba(icurlovision
Stone
p1545
(dp1546
g34
F9.638297872340425
sg35
F-5.329787234042553
sg36
F0.28723404255319146
sg37
S'yellow'
p1547
sbasba(icurlovision
StoneLayout
p1548
(dp1549
g29
F0.4791666666666667
sg30
(lp1550
(icurlovision
Stone
p1551
(dp1552
g34
F-2.2
sg35
F0.26666666666666666
sg36
F0.4666666666666667
sg37
S'yellow'
p1553
sba(icurlovision
Stone
p1554
(dp1555
g34
F3.3
sg35
F-0.13333333333333333
sg36
F0.3333333333333333
sg37
S'yellow'
p1556
sba(icurlovision
Stone
p1557
(dp1558
g34
F9.833333333333334
sg35
F0.4666666666666667
sg36
F0.4666666666666667
sg37
S'yellow'
p1559
sba(icurlovision
Stone
p1560
(dp1561
g34
F1.8333333333333333
sg35
F-0.7333333333333333
sg36
F0.35
sg37
S'yellow'
p1562
sba(icurlovision
Stone
p1563
(dp1564
g34
F2.0
sg35
F0.7666666666666666
sg36
F0.26666666666666666
sg37
S'red'
p1565
sba(icurlovision
Stone
p1566
(dp1567
g34
F1.1666666666666667
sg35
F0.23333333333333334
sg36
F0.31666666666666665
sg37
S'red'
p1568
sba(icurlovision
Stone
p1569
(dp1570
g34
F10.1
sg35
F-6.433333333333334
sg36
F0.3
sg37
S'yellow'
p1571
sbasba(icurlovision
StoneLayout
p1572
(dp1573
g29
F0.4791666666666667
sg30
(lp1574
(icurlovision
Stone
p1575
(dp1576
g34
F-2.1724137931034484
sg35
F0.24568965517241378
sg36
F0.33620689655172414
sg37
S'yellow'
p1577
sba(icurlovision
Stone
p1578
(dp1579
g34
F3.2327586206896552
sg35
F-0.14224137931034483
sg36
F0.4525862068965517
sg37
S'yellow'
p1580
sba(icurlovision
Stone
p1581
(dp1582
g34
F1.9655172413793103
sg35
F0.7629310344827586
sg36
F0.34913793103448276
sg37
S'red'
p1583
sba(icurlovision
Stone
p1584
(dp1585
g34
F1.1379310344827587
sg35
F0.21982758620689655
sg36
F0.3620689655172414
sg37
S'red'
p1586
sba(icurlovision
Stone
p1587
(dp1588
g34
F1.8103448275862069
sg35
F-0.7112068965517241
sg36
F0.34913793103448276
sg37
S'yellow'
p1589
sba(icurlovision
Stone
p1590
(dp1591
g34
F2.5086206896551726
sg35
F-1.8491379310344827
sg36
F0.5043103448275862
sg37
S'red'
p1592
sbasba(icurlovision
StoneLayout
p1593
(dp1594
g29
F0.4791666666666667
sg30
(lp1595
(icurlovision
Stone
p1596
(dp1597
g34
F-2.196428571428571
sg35
F0.26785714285714285
sg36
F0.4821428571428571
sg37
S'yellow'
p1598
sba(icurlovision
Stone
p1599
(dp1600
g34
F3.267857142857143
sg35
F-0.125
sg36
F0.33928571428571425
sg37
S'yellow'
p1601
sba(icurlovision
Stone
p1602
(dp1603
g34
F1.8035714285714284
sg35
F-0.6964285714285714
sg36
F0.33928571428571425
sg37
S'yellow'
p1604
sba(icurlovision
Stone
p1605
(dp1606
g34
F11.017857142857142
sg35
F0.23214285714285712
sg36
F0.46428571428571425
sg37
S'yellow'
p1607
sba(icurlovision
Stone
p1608
(dp1609
g34
F2.017857142857143
sg35
F0.8035714285714285
sg36
F0.33928571428571425
sg37
S'red'
p1610
sba(icurlovision
Stone
p1611
(dp1612
g34
F1.1607142857142856
sg35
F0.23214285714285712
sg36
F0.33928571428571425
sg37
S'red'
p1613
sbasba(icurlovision
StoneLayout
p1614
(dp1615
g29
F0.4791666666666667
sg30
(lp1616
(icurlovision
Stone
p1617
(dp1618
g34
F-2.1710526315789473
sg35
F0.2763157894736842
sg36
F0.3421052631578947
sg37
S'yellow'
p1619
sba(icurlovision
Stone
p1620
(dp1621
g34
F3.2236842105263155
sg35
F-0.11842105263157894
sg36
F0.47368421052631576
sg37
S'yellow'
p1622
sba(icurlovision
Stone
p1623
(dp1624
g34
F1.9605263157894737
sg35
F0.7763157894736842
sg36
F0.4605263157894737
sg37
S'red'
p1625
sba(icurlovision
Stone
p1626
(dp1627
g34
F1.776315789473684
sg35
F-0.7236842105263157
sg36
F0.3289473684210526
sg37
S'yellow'
p1628
sba(icurlovision
Stone
p1629
(dp1630
g34
F1.118421052631579
sg35
F0.25
sg36
F0.35526315789473684
sg37
S'red'
p1631
sbasba(icurlovision
StoneLayout
p1632
(dp1633
g29
F0.4791666666666667
sg30
(lp1634
(icurlovision
Stone
p1635
(dp1636
g34
F1.1186440677966103
sg35
F0.2542372881355932
sg36
F0.3432203389830509
sg37
S'red'
p1637
sba(icurlovision
Stone
p1638
(dp1639
g34
F2.669491525423729
sg35
F-0.5593220338983051
sg36
F0.3305084745762712
sg37
S'yellow'
p1640
sba(icurlovision
Stone
p1641
(dp1642
g34
F-4.983050847457627
sg35
F-3.2796610169491527
sg36
F0.3305084745762712
sg37
S'yellow'
p1643
sba(icurlovision
Stone
p1644
(dp1645
g34
F1.957627118644068
sg35
F0.7627118644067797
sg36
F0.35593220338983056
sg37
S'red'
p1646
sba(icurlovision
Stone
p1647
(dp1648
g34
F-2.1610169491525424
sg35
F0.2542372881355932
sg36
F0.3432203389830509
sg37
S'yellow'
p1649
sba(icurlovision
Stone
p1650
(dp1651
g34
F-3.838983050847458
sg35
F6.203389830508475
sg36
F0.4703389830508475
sg37
S'yellow'
p1652
sba(icurlovision
Stone
p1653
(dp1654
g34
F-2.9491525423728815
sg35
F-1.4237288135593222
sg36
F0.48305084745762716
sg37
S'red'
p1655
sbasba(icurlovision
StoneLayout
p1656
(dp1657
g29
F0.4791666666666667
sg30
(lp1658
(icurlovision
Stone
p1659
(dp1660
g34
F-2.153225806451613
sg35
F0.2540322580645161
sg36
F0.3508064516129032
sg37
S'yellow'
p1661
sba(icurlovision
Stone
p1662
(dp1663
g34
F2.2741935483870965
sg35
F6.157258064516129
sg36
F0.32661290322580644
sg37
S'red'
p1664
sba(icurlovision
Stone
p1665
(dp1666
g34
F-3.82258064516129
sg35
F6.157258064516129
sg36
F0.4596774193548387
sg37
S'yellow'
p1667
sba(icurlovision
Stone
p1668
(dp1669
g34
F1.6451612903225805
sg35
F1.0282258064516128
sg36
F0.43548387096774194
sg37
S'red'
p1670
sba(icurlovision
Stone
p1671
(dp1672
g34
F0.4596774193548387
sg35
F0.012096774193548387
sg36
F0.4596774193548387
sg37
S'red'
p1673
sbasba(icurlovision
StoneLayout
p1674
(dp1675
g29
F0.4791666666666667
sg30
(lp1676
(icurlovision
Stone
p1677
(dp1678
g34
F2.3017241379310343
sg35
F6.232758620689655
sg36
F0.33620689655172414
sg37
S'red'
p1679
sba(icurlovision
Stone
p1680
(dp1681
g34
F2.560344827586207
sg35
F1.1896551724137931
sg36
F0.3232758620689655
sg37
S'yellow'
p1682
sba(icurlovision
Stone
p1683
(dp1684
g34
F-2.456896551724138
sg35
F-0.20689655172413793
sg36
F0.46551724137931033
sg37
S'yellow'
p1685
sba(icurlovision
Stone
p1686
(dp1687
g34
F-3.8275862068965516
sg35
F6.206896551724138
sg36
F0.4525862068965517
sg37
S'yellow'
p1688
sba(icurlovision
Stone
p1689
(dp1690
g34
F0.3879310344827586
sg35
F-0.3103448275862069
sg36
F0.33620689655172414
sg37
S'red'
p1691
sbasbasg198
I6
sg199
I1
sba(icurlovision
EndResult
p1692
(dp1693
g2
I5
sg9
(lp1694
(I7
I7
tp1695
a(I6
I7
tp1696
a(I6
I6
tp1697
a(I5
I6
tp1698
a(I5
I5
tp1699
a(I4
I5
tp1700
a(I4
I4
tp1701
a(I3
I4
tp1702
a(I3
I3
tp1703
a(I2
I3
tp1704
a(I2
I2
tp1705
a(I1
I2
tp1706
a(I1
I1
tp1707
a(I0
I1
tp1708
asg24
I8
sg25
(lp1709
(icurlovision
StoneLayout
p1710
(dp1711
g29
F0.4791666666666667
sg30
(lp1712
(icurlovision
Stone
p1713
(dp1714
g34
F1.580769230769231
sg35
F0.25384615384615383
sg36
F0.43846153846153846
sg37
S'red'
p1715
sbasba(icurlovision
StoneLayout
p1716
(dp1717
g29
F0.4791666666666667
sg30
(lp1718
(icurlovision
Stone
p1719
(dp1720
g34
F12.515625
sg35
F3.171875
sg36
F0.453125
sg37
S'yellow'
p1721
sba(icurlovision
Stone
p1722
(dp1723
g34
F4.171875
sg35
F0.265625
sg36
F0.4375
sg37
S'red'
p1724
sba(icurlovision
Stone
p1725
(dp1726
g34
F1.640625
sg35
F0.234375
sg36
F0.28125
sg37
S'red'
p1727
sbasba(icurlovision
StoneLayout
p1728
(dp1729
g29
F0.4791666666666667
sg30
(lp1730
(icurlovision
Stone
p1731
(dp1732
g34
F10.85204081632653
sg35
F-2.6479591836734695
sg36
F0.42857142857142855
sg37
S'yellow'
p1733
sba(icurlovision
Stone
p1734
(dp1735
g34
F12.566326530612244
sg35
F3.137755102040816
sg36
F0.45918367346938777
sg37
S'yellow'
p1736
sba(icurlovision
Stone
p1737
(dp1738
g34
F1.6683673469387754
sg35
F0.1989795918367347
sg36
F0.336734693877551
sg37
S'red'
p1739
sba(icurlovision
Stone
p1740
(dp1741
g34
F4.209183673469387
sg35
F0.2602040816326531
sg36
F0.3520408163265306
sg37
S'red'
p1742
sbasba(icurlovision
StoneLayout
p1743
(dp1744
g29
F0.4791666666666667
sg30
(lp1745
(icurlovision
Stone
p1746
(dp1747
g34
F12.319148936170212
sg35
F3.095744680851064
sg36
F0.4308510638297872
sg37
S'yellow'
p1748
sba(icurlovision
Stone
p1749
(dp1750
g34
F4.148936170212766
sg35
F0.2553191489361702
sg36
F0.33510638297872336
sg37
S'red'
p1751
sba(icurlovision
Stone
p1752
(dp1753
g34
F1.627659574468085
sg35
F0.19148936170212766
sg36
F0.3191489361702127
sg37
S'red'
p1754
sba(icurlovision
Stone
p1755
(dp1756
g34
F11.712765957446807
sg35
F-3.8936170212765955
sg36
F0.28723404255319146
sg37
S'yellow'
p1757
sbasba(icurlovision
StoneLayout
p1758
(dp1759
g29
F0.4791666666666667
sg30
(lp1760
(icurlovision
Stone
p1761
(dp1762
g34
F-0.7865853658536585
sg35
F0.5304878048780487
sg36
F0.3475609756097561
sg37
S'red'
p1763
sba(icurlovision
Stone
p1764
(dp1765
g34
F12.786585365853657
sg35
F3.2378048780487805
sg36
F0.4390243902439024
sg37
S'yellow'
p1766
sba(icurlovision
Stone
p1767
(dp1768
g34
F5.030487804878049
sg35
F0.7865853658536585
sg36
F0.31097560975609756
sg37
S'yellow'
p1769
sba(icurlovision
Stone
p1770
(dp1771
g34
F2.542682926829268
sg35
F-0.09146341463414634
sg36
F0.3292682926829268
sg37
S'red'
p1772
sbasba(icurlovision
StoneLayout
p1773
(dp1774
g29
F0.4791666666666667
sg30
(lp1775
(icurlovision
Stone
p1776
(dp1777
g34
F2.453389830508475
sg35
F-0.1398305084745763
sg36
F0.44491525423728817
sg37
S'red'
p1778
sba(icurlovision
Stone
p1779
(dp1780
g34
F4.868644067796611
sg35
F0.75
sg36
F0.3305084745762712
sg37
S'yellow'
p1781
sba(icurlovision
Stone
p1782
(dp1783
g34
F-0.75
sg35
F0.4703389830508475
sg36
F0.4576271186440678
sg37
S'red'
p1784
sba(icurlovision
Stone
p1785
(dp1786
g34
F-3.8516949152542375
sg35
F-6.75
sg36
F0.4576271186440678
sg37
S'red'
p1787
sbasba(icurlovision
StoneLayout
p1788
(dp1789
g29
F0.4791666666666667
sg30
(lp1790
(icurlovision
Stone
p1791
(dp1792
g34
F-0.7758620689655172
sg35
F0.5172413793103449
sg36
F0.4525862068965517
sg37
S'red'
p1793
sba(icurlovision
Stone
p1794
(dp1795
g34
F2.5086206896551726
sg35
F-0.12931034482758622
sg36
F0.46551724137931033
sg37
S'red'
p1796
sba(icurlovision
Stone
p1797
(dp1798
g34
F-3.206896551724138
sg35
F-0.1810344827586207
sg36
F0.3232758620689655
sg37
S'yellow'
p1799
sba(icurlovision
Stone
p1800
(dp1801
g34
F4.991379310344827
sg35
F0.8275862068965517
sg36
F0.34913793103448276
sg37
S'yellow'
p1802
sbasba(icurlovision
StoneLayout
p1803
(dp1804
g29
F0.4791666666666667
sg30
(lp1805
(icurlovision
Stone
p1806
(dp1807
g34
F-3.1422413793103448
sg35
F-0.16810344827586207
sg36
F0.4525862068965517
sg37
S'yellow'
p1808
sba(icurlovision
Stone
p1809
(dp1810
g34
F-0.7370689655172413
sg35
F0.5043103448275862
sg36
F0.4525862068965517
sg37
S'red'
p1811
sba(icurlovision
Stone
p1812
(dp1813
g34
F2.4956896551724137
sg35
F-0.09051724137931035
sg36
F0.3232758620689655
sg37
S'red'
p1814
sbasba(icurlovision
StoneLayout
p1815
(dp1816
g29
F0.4791666666666667
sg30
(lp1817
(icurlovision
Stone
p1818
(dp1819
g34
F-3.1473214285714284
sg35
F-0.17410714285714285
sg36
F0.45535714285714285
sg37
S'yellow'
p1820
sba(icurlovision
Stone
p1821
(dp1822
g34
F2.5044642857142856
sg35
F-0.09375
sg36
F0.46875
sg37
S'red'
p1823
sba(icurlovision
Stone
p1824
(dp1825
g34
F-0.7098214285714285
sg35
F0.5223214285714285
sg36
F0.33482142857142855
sg37
S'red'
p1826
sba(icurlovision
Stone
p1827
(dp1828
g34
F4.21875
sg35
F-0.09375
sg36
F0.3482142857142857
sg37
S'yellow'
p1829
sbasba(icurlovision
StoneLayout
p1830
(dp1831
g29
F0.4791666666666667
sg30
(lp1832
(icurlovision
Stone
p1833
(dp1834
g34
F-3.2236842105263155
sg35
F-0.14473684210526316
sg36
F0.47368421052631576
sg37
S'yellow'
p1835
sba(icurlovision
Stone
p1836
(dp1837
g34
F-0.8026315789473684
sg35
F0.513157894736842
sg36
F0.47368421052631576
sg37
S'red'
p1838
sba(icurlovision
Stone
p1839
(dp1840
g34
F2.56578947368421
sg35
F-0.11842105263157894
sg36
F0.47368421052631576
sg37
S'red'
p1841
sbasba(icurlovision
StoneLayout
p1842
(dp1843
g29
F0.4791666666666667
sg30
(lp1844
(icurlovision
Stone
p1845
(dp1846
g34
F-3.1375
sg35
F-0.1625
sg36
F0.45
sg37
S'yellow'
p1847
sba(icurlovision
Stone
p1848
(dp1849
g34
F1.3125
sg35
F3.0625
sg36
F0.3375
sg37
S'yellow'
p1850
sba(icurlovision
Stone
p1851
(dp1852
g34
F-0.7375
sg35
F0.5125000000000001
sg36
F0.45
sg37
S'red'
p1853
sbasba(icurlovision
StoneLayout
p1854
(dp1855
g29
F0.4791666666666667
sg30
(lp1856
(icurlovision
Stone
p1857
(dp1858
g34
F-3.2375000000000003
sg35
F-0.1625
sg36
F0.3375
sg37
S'yellow'
p1859
sba(icurlovision
Stone
p1860
(dp1861
g34
F-0.7625000000000001
sg35
F0.5375
sg36
F0.36250000000000004
sg37
S'red'
p1862
sbasba(icurlovision
StoneLayout
p1863
(dp1864
g29
F0.4791666666666667
sg30
(lp1865
(icurlovision
Stone
p1866
(dp1867
g34
F-3.2008928571428568
sg35
F-0.1875
sg36
F0.45535714285714285
sg37
S'yellow'
p1868
sba(icurlovision
Stone
p1869
(dp1870
g34
F3.5223214285714284
sg35
F2.8660714285714284
sg36
F0.33482142857142855
sg37
S'yellow'
p1871
sba(icurlovision
Stone
p1872
(dp1873
g34
F-0.8169642857142857
sg35
F0.4821428571428571
sg36
F0.4419642857142857
sg37
S'red'
p1874
sbasba(icurlovision
StoneLayout
p1875
(dp1876
g29
F0.4791666666666667
sg30
(lp1877
(icurlovision
Stone
p1878
(dp1879
g34
F-3.2327586206896552
sg35
F-0.15517241379310345
sg36
F0.33620689655172414
sg37
S'yellow'
p1880
sba(icurlovision
Stone
p1881
(dp1882
g34
F1.0086206896551724
sg35
F-2.0948275862068964
sg36
F0.47844827586206895
sg37
S'red'
p1883
sba(icurlovision
Stone
p1884
(dp1885
g34
F-0.7758620689655172
sg35
F0.5172413793103449
sg36
F0.46551724137931033
sg37
S'red'
p1886
sbasbasg198
I6
sg199
I0
sba(icurlovision
EndResult
p1887
(dp1888
g2
I5
sg9
(lp1889
(I8
I7
tp1890
a(I7
I7
tp1891
a(I6
I6
tp1892
a(I5
I5
tp1893
a(I4
I4
tp1894
a(I4
I3
tp1895
a(I3
I3
tp1896
a(I2
I2
tp1897
a(I2
I1
tp1898
a(I1
I1
tp1899
a(I1
I0
tp1900
asg24
I9
sg25
(lp1901
(icurlovision
StoneLayout
p1902
(dp1903
g29
F0.4791666666666667
sg30
(lp1904
(icurlovision
Stone
p1905
(dp1906
g34
F15.069767441860465
sg35
F0.2441860465116279
sg36
F0.3313953488372093
sg37
S'yellow'
p1907
sbasba(icurlovision
StoneLayout
p1908
(dp1909
g29
F0.4791666666666667
sg30
(lp1910
(icurlovision
Stone
p1911
(dp1912
g34
F0.61875
sg35
F-0.91875
sg36
F0.44999999999999996
sg37
S'red'
p1913
sba(icurlovision
Stone
p1914
(dp1915
g34
F8.75625
sg35
F0.46875
sg36
F0.43124999999999997
sg37
S'yellow'
p1916
sba(icurlovision
Stone
p1917
(dp1918
g34
F15.393749999999999
sg35
F0.28125
sg36
F0.375
sg37
S'yellow'
p1919
sbasba(icurlovision
StoneLayout
p1920
(dp1921
g29
F0.4791666666666667
sg30
(lp1922
(icurlovision
Stone
p1923
(dp1924
g34
F2.945121951219512
sg35
F0.12804878048780488
sg36
F0.31097560975609756
sg37
S'red'
p1925
sba(icurlovision
Stone
p1926
(dp1927
g34
F8.72560975609756
sg35
F0.45731707317073167
sg36
F0.3292682926829268
sg37
S'yellow'
p1928
sba(icurlovision
Stone
p1929
(dp1930
g34
F0.6036585365853658
sg35
F-0.9329268292682926
sg36
F0.3475609756097561
sg37
S'red'
p1931
sba(icurlovision
Stone
p1932
(dp1933
g34
F15.310975609756097
sg35
F0.274390243902439
sg36
F0.42073170731707316
sg37
S'yellow'
p1934
sbasba(icurlovision
StoneLayout
p1935
(dp1936
g29
F0.4791666666666667
sg30
(lp1937
(icurlovision
Stone
p1938
(dp1939
g34
F8.783653846153847
sg35
F0.5048076923076923
sg36
F0.44711538461538464
sg37
S'yellow'
p1940
sba(icurlovision
Stone
p1941
(dp1942
g34
F-3.620192307692308
sg35
F2.0913461538461537
sg36
F0.34615384615384615
sg37
S'red'
p1943
sba(icurlovision
Stone
p1944
(dp1945
g34
F3.793269230769231
sg35
F-0.12980769230769232
sg36
F0.31730769230769235
sg37
S'yellow'
p1946
sba(icurlovision
Stone
p1947
(dp1948
g34
F0.6201923076923077
sg35
F-0.9375
sg36
F0.4759615384615385
sg37
S'red'
p1949
sbasba(icurlovision
StoneLayout
p1950
(dp1951
g29
F0.4791666666666667
sg30
(lp1952
(icurlovision
Stone
p1953
(dp1954
g34
F8.610576923076923
sg35
F0.5048076923076923
sg36
F0.4326923076923077
sg37
S'yellow'
p1955
sba(icurlovision
Stone
p1956
(dp1957
g34
F-3.5625
sg35
F2.0913461538461537
sg36
F0.4759615384615385
sg37
S'red'
p1958
sba(icurlovision
Stone
p1959
(dp1960
g34
F3.7355769230769234
sg35
F-0.10096153846153846
sg36
F0.34615384615384615
sg37
S'yellow'
p1961
sba(icurlovision
Stone
p1962
(dp1963
g34
F0.5625
sg35
F-0.9086538461538463
sg36
F0.34615384615384615
sg37
S'red'
p1964
sbasba(icurlovision
StoneLayout
p1965
(dp1966
g29
F0.4791666666666667
sg30
(lp1967
(icurlovision
Stone
p1968
(dp1969
g34
F0.8382352941176471
sg35
F0.3529411764705882
sg36
F0.3382352941176471
sg37
S'yellow'
p1970
sba(icurlovision
Stone
p1971
(dp1972
g34
F3.8088235294117645
sg35
F-0.14705882352941177
sg36
F0.3529411764705882
sg37
S'yellow'
p1973
sba(icurlovision
Stone
p1974
(dp1975
g34
F8.867647058823529
sg35
F0.5294117647058824
sg36
F0.45588235294117646
sg37
S'yellow'
p1976
sba(icurlovision
Stone
p1977
(dp1978
g34
F-3.691176470588235
sg35
F2.1470588235294117
sg36
F0.3382352941176471
sg37
S'red'
p1979
sba(icurlovision
Stone
p1980
(dp1981
g34
F0.5735294117647058
sg35
F-0.9117647058823529
sg36
F0.47058823529411764
sg37
S'red'
p1982
sbasba(icurlovision
StoneLayout
p1983
(dp1984
g29
F0.4791666666666667
sg30
(lp1985
(icurlovision
Stone
p1986
(dp1987
g34
F0.8360655737704918
sg35
F0.319672131147541
sg36
F0.35655737704918034
sg37
S'yellow'
p1988
sba(icurlovision
Stone
p1989
(dp1990
g34
F3.860655737704918
sg35
F-0.14754098360655737
sg36
F0.35655737704918034
sg37
S'yellow'
p1991
sba(icurlovision
Stone
p1992
(dp1993
g34
F-3.663934426229508
sg35
F2.1147540983606556
sg36
F0.3442622950819672
sg37
S'red'
p1994
sba(icurlovision
Stone
p1995
(dp1996
g34
F0.5901639344262295
sg35
F-0.9590163934426229
sg36
F0.35655737704918034
sg37
S'red'
p1997
sbasba(icurlovision
StoneLayout
p1998
(dp1999
g29
F0.4791666666666667
sg30
(lp2000
(icurlovision
Stone
p2001
(dp2002
g34
F7.975961538461539
sg35
F1.0528846153846154
sg36
F0.34615384615384615
sg37
S'yellow'
p2003
sba(icurlovision
Stone
p2004
(dp2005
g34
F0.8221153846153847
sg35
F0.3605769230769231
sg36
F0.31730769230769235
sg37
S'yellow'
p2006
sba(icurlovision
Stone
p2007
(dp2008
g34
F-3.5625
sg35
F2.0913461538461537
sg36
F0.34615384615384615
sg37
S'red'
p2009
sba(icurlovision
Stone
p2010
(dp2011
g34
F3.7067307692307696
sg35
F-0.12980769230769232
sg36
F0.44711538461538464
sg37
S'yellow'
p2012
sba(icurlovision
Stone
p2013
(dp2014
g34
F0.5625
sg35
F-0.8798076923076924
sg36
F0.46153846153846156
sg37
S'red'
p2015
sbasba(icurlovision
StoneLayout
p2016
(dp2017
g29
F0.4791666666666667
sg30
(lp2018
(icurlovision
Stone
p2019
(dp2020
g34
F7.990384615384616
sg35
F1.0096153846153846
sg36
F0.2884615384615385
sg37
S'yellow'
p2021
sba(icurlovision
Stone
p2022
(dp2023
g34
F0.6346153846153847
sg35
F1.4134615384615385
sg36
F0.46153846153846156
sg37
S'yellow'
p2024
sba(icurlovision
Stone
p2025
(dp2026
g34
F0.576923076923077
sg35
F-0.8942307692307693
sg36
F0.3317307692307693
sg37
S'red'
p2027
sba(icurlovision
Stone
p2028
(dp2029
g34
F-3.5192307692307696
sg35
F2.076923076923077
sg36
F0.3605769230769231
sg37
S'red'
p2030
sbasba(icurlovision
StoneLayout
p2031
(dp2032
g29
F0.4791666666666667
sg30
(lp2033
(icurlovision
Stone
p2034
(dp2035
g34
F0.639344262295082
sg35
F1.401639344262295
sg36
F0.45491803278688525
sg37
S'yellow'
p2036
sba(icurlovision
Stone
p2037
(dp2038
g34
F-3.3934426229508197
sg35
F2.040983606557377
sg36
F0.4426229508196721
sg37
S'red'
p2039
sba(icurlovision
Stone
p2040
(dp2041
g34
F0.5901639344262295
sg35
F-0.8360655737704918
sg36
F0.3319672131147541
sg37
S'red'
p2042
sbasba(icurlovision
StoneLayout
p2043
(dp2044
g29
F0.4791666666666667
sg30
(lp2045
(icurlovision
Stone
p2046
(dp2047
g34
F0.6428571428571428
sg35
F1.419642857142857
sg36
F0.45535714285714285
sg37
S'yellow'
p2048
sba(icurlovision
Stone
p2049
(dp2050
g34
F0.9910714285714285
sg35
F-2.0357142857142856
sg36
F0.33482142857142855
sg37
S'yellow'
p2051
sba(icurlovision
Stone
p2052
(dp2053
g34
F-3.5625
sg35
F2.089285714285714
sg36
F0.33482142857142855
sg37
S'red'
p2054
sbasbasg198
I7
sg199
I1
sba(icurlovision
EndResult
p2055
(dp2056
g2
I5
sg9
(lp2057
(I7
I8
tp2058
a(I7
I7
tp2059
a(I6
I7
tp2060
a(I6
I6
tp2061
a(I5
I5
tp2062
a(I4
I5
tp2063
a(I4
I4
tp2064
a(I3
I4
tp2065
a(I3
I3
tp2066
a(I2
I3
tp2067
a(I2
I2
tp2068
a(I1
I2
tp2069
a(I1
I1
tp2070
a(I0
I1
tp2071
asg24
I10
sg25
(lp2072
(icurlovision
StoneLayout
p2073
(dp2074
g29
F0.4791666666666667
sg30
(lp2075
(icurlovision
Stone
p2076
(dp2077
g34
F-0.0
sg35
F0.24193548387096775
sg36
F0.32661290322580644
sg37
S'red'
p2078
sbasba(icurlovision
StoneLayout
p2079
(dp2080
g29
F0.4791666666666667
sg30
(lp2081
(icurlovision
Stone
p2082
(dp2083
g34
F-0.03
sg35
F0.24
sg36
F0.36
sg37
S'red'
p2084
sba(icurlovision
Stone
p2085
(dp2086
g34
F12.03
sg35
F2.9099999999999997
sg36
F0.435
sg37
S'yellow'
p2087
sbasba(icurlovision
StoneLayout
p2088
(dp2089
g29
F0.4791666666666667
sg30
(lp2090
(icurlovision
Stone
p2091
(dp2092
g34
F-0.03125
sg35
F0.265625
sg36
F0.453125
sg37
S'red'
p2093
sba(icurlovision
Stone
p2094
(dp2095
g34
F12.21875
sg35
F2.953125
sg36
F0.28125
sg37
S'yellow'
p2096
sba(icurlovision
Stone
p2097
(dp2098
g34
F-2.53125
sg35
F2.671875
sg36
F0.34375
sg37
S'red'
p2099
sbasba(icurlovision
StoneLayout
p2100
(dp2101
g29
F0.4791666666666667
sg30
(lp2102
(icurlovision
Stone
p2103
(dp2104
g34
F-0.0
sg35
F0.25
sg36
F0.46875
sg37
S'red'
p2105
sba(icurlovision
Stone
p2106
(dp2107
g34
F2.5625
sg35
F3.53125
sg36
F0.34375
sg37
S'yellow'
p2108
sba(icurlovision
Stone
p2109
(dp2110
g34
F12.375
sg35
F2.96875
sg36
F0.46875
sg37
S'yellow'
p2111
sbasba(icurlovision
StoneLayout
p2112
(dp2113
g29
F0.4791666666666667
sg30
(lp2114
(icurlovision
Stone
p2115
(dp2116
g34
F3.325
sg35
F3.45
sg36
F0.4375
sg37
S'yellow'
p2117
sba(icurlovision
Stone
p2118
(dp2119
g34
F-0.0
sg35
F0.275
sg36
F0.325
sg37
S'red'
p2120
sba(icurlovision
Stone
p2121
(dp2122
g34
F2.325
sg35
F3.5
sg36
F0.3375
sg37
S'yellow'
p2123
sbasba(icurlovision
StoneLayout
p2124
(dp2125
g29
F0.4791666666666667
sg30
(lp2126
(icurlovision
Stone
p2127
(dp2128
g34
F-0.0125
sg35
F0.2625
sg36
F0.45
sg37
S'red'
p2129
sba(icurlovision
Stone
p2130
(dp2131
g34
F-0.8625
sg35
F-2.0875
sg36
F0.45
sg37
S'red'
p2132
sba(icurlovision
Stone
p2133
(dp2134
g34
F2.9875000000000003
sg35
F5.7625
sg36
F0.4625
sg37
S'yellow'
p2135
sba(icurlovision
Stone
p2136
(dp2137
g34
F-5.5125
sg35
F5.5375000000000005
sg36
F0.4625
sg37
S'yellow'
p2138
sbasba(icurlovision
StoneLayout
p2139
(dp2140
g29
F0.4791666666666667
sg30
(lp2141
(icurlovision
Stone
p2142
(dp2143
g34
F-0.01171875
sg35
F0.26953125
sg36
F0.4453125
sg37
S'red'
p2144
sba(icurlovision
Stone
p2145
(dp2146
g34
F2.70703125
sg35
F6.48046875
sg36
F0.4453125
sg37
S'yellow'
p2147
sba(icurlovision
Stone
p2148
(dp2149
g34
F0.62109375
sg35
F5.09765625
sg36
F0.328125
sg37
S'yellow'
p2150
sbasba(icurlovision
StoneLayout
p2151
(dp2152
g29
F0.4791666666666667
sg30
(lp2153
(icurlovision
Stone
p2154
(dp2155
g34
F2.692622950819672
sg35
F6.467213114754098
sg36
F0.4426229508196721
sg37
S'yellow'
p2156
sba(icurlovision
Stone
p2157
(dp2158
g34
F-0.012295081967213115
sg35
F0.2704918032786885
sg36
F0.35655737704918034
sg37
S'red'
p2159
sbasba(icurlovision
StoneLayout
p2160
(dp2161
g29
F0.4791666666666667
sg30
(lp2162
(icurlovision
Stone
p2163
(dp2164
g34
F3.819444444444444
sg35
F6.069444444444444
sg36
F0.4444444444444444
sg37
S'yellow'
p2165
sba(icurlovision
Stone
p2166
(dp2167
g34
F-0.013888888888888888
sg35
F0.2361111111111111
sg36
F0.4583333333333333
sg37
S'red'
p2168
sba(icurlovision
Stone
p2169
(dp2170
g34
F2.763888888888889
sg35
F6.541666666666666
sg36
F0.4722222222222222
sg37
S'yellow'
p2171
sbasba(icurlovision
StoneLayout
p2172
(dp2173
g29
F0.4791666666666667
sg30
(lp2174
(icurlovision
Stone
p2175
(dp2176
g34
F0.08035714285714285
sg35
F-3.0535714285714284
sg36
F0.3482142857142857
sg37
S'red'
p2177
sba(icurlovision
Stone
p2178
(dp2179
g34
F3.883928571428571
sg35
F6.241071428571428
sg36
F0.46875
sg37
S'yellow'
p2180
sba(icurlovision
Stone
p2181
(dp2182
g34
F-0.026785714285714284
sg35
F0.26785714285714285
sg36
F0.46875
sg37
S'red'
p2183
sba(icurlovision
Stone
p2184
(dp2185
g34
F2.7857142857142856
sg35
F6.723214285714286
sg36
F0.46875
sg37
S'yellow'
p2186
sbasba(icurlovision
StoneLayout
p2187
(dp2188
g29
F0.4791666666666667
sg30
(lp2189
(icurlovision
Stone
p2190
(dp2191
g34
F0.8483606557377049
sg35
F3.1967213114754096
sg36
F0.3073770491803279
sg37
S'yellow'
p2192
sba(icurlovision
Stone
p2193
(dp2194
g34
F0.11065573770491803
sg35
F-3.0
sg36
F0.45491803278688525
sg37
S'red'
p2195
sba(icurlovision
Stone
p2196
(dp2197
g34
F-0.036885245901639344
sg35
F0.2704918032786885
sg36
F0.3319672131147541
sg37
S'red'
p2198
sba(icurlovision
Stone
p2199
(dp2200
g34
F3.4795081967213113
sg35
F3.5655737704918034
sg36
F0.3319672131147541
sg37
S'yellow'
p2201
sbasba(icurlovision
StoneLayout
p2202
(dp2203
g29
F0.4791666666666667
sg30
(lp2204
(icurlovision
Stone
p2205
(dp2206
g34
F0.8483606557377049
sg35
F3.2459016393442623
sg36
F0.4672131147540983
sg37
S'yellow'
p2207
sba(icurlovision
Stone
p2208
(dp2209
g34
F0.0860655737704918
sg35
F-3.122950819672131
sg36
F0.35655737704918034
sg37
S'red'
p2210
sba(icurlovision
Stone
p2211
(dp2212
g34
F-0.012295081967213115
sg35
F0.2459016393442623
sg36
F0.3319672131147541
sg37
S'red'
p2213
sba(icurlovision
Stone
p2214
(dp2215
g34
F1.1434426229508197
sg35
F-2.3852459016393444
sg36
F0.4672131147540983
sg37
S'red'
p2216
sbasba(icurlovision
StoneLayout
p2217
(dp2218
g29
F0.4791666666666667
sg30
(lp2219
(icurlovision
Stone
p2220
(dp2221
g34
F0.7976190476190476
sg35
F3.238095238095238
sg36
F0.3333333333333333
sg37
S'yellow'
p2222
sba(icurlovision
Stone
p2223
(dp2224
g34
F1.226190476190476
sg35
F2.214285714285714
sg36
F0.3333333333333333
sg37
S'yellow'
p2225
sba(icurlovision
Stone
p2226
(dp2227
g34
F-2.1547619047619047
sg35
F-0.45238095238095233
sg36
F0.46428571428571425
sg37
S'red'
p2228
sbasba(icurlovision
StoneLayout
p2229
(dp2230
g29
F0.4791666666666667
sg30
(lp2231
(icurlovision
Stone
p2232
(dp2233
g34
F-4.524193548387097
sg35
F-4.935483870967742
sg36
F0.4596774193548387
sg37
S'red'
p2234
sba(icurlovision
Stone
p2235
(dp2236
g34
F-1.4516129032258065
sg35
F6.459677419354839
sg36
F0.4596774193548387
sg37
S'yellow'
p2237
sba(icurlovision
Stone
p2238
(dp2239
g34
F-5.491935483870968
sg35
F3.4596774193548385
sg36
F0.47177419354838707
sg37
S'red'
p2240
sba(icurlovision
Stone
p2241
(dp2242
g34
F-4.814516129032258
sg35
F-0.9919354838709677
sg36
F0.3508064516129032
sg37
S'yellow'
p2243
sba(icurlovision
Stone
p2244
(dp2245
g34
F-2.153225806451613
sg35
F-0.43548387096774194
sg36
F0.4475806451612903
sg37
S'red'
p2246
sbasbasg198
I7
sg199
I0
sbasS'version'
p2247
I20180812
sg198
I7
sS'metadata'
p2248
(icurlovision
MatchMetadata
p2249
(dp2250
S'team_name_red'
p2251
S'Unknown'
p2252
sS'event_name'
p2253
g2252
sS'gender'
p2254
g2252
sS'other_info'
p2255
g2252
sS'team_name_yel'
p2256
g2252
sS'date'
p2257
g2252
sbsb.