(icurlovision
MatchResult
p0
(dp1
S'yel_score'
p2
I5
sS'red_score'
p3
I7
sS'name'
p4
S"VideoLibrary/PyeongChang.Olympics.2018.curling.men's.bronze.medal.match.Switzerland.v.Canada.1080p.NBC.WEB-DL-FINFUNGUS.mp4"
p5
sS'end_results'
p6
(lp7
(icurlovision
EndResult
p8
(dp9
g2
I0
sS'stones_left'
p10
(lp11
(I7
I8
tp12
a(I7
I7
tp13
a(I6
I6
tp14
a(I5
I5
tp15
a(I3
I4
tp16
a(I2
I3
tp17
a(I2
I2
tp18
a(I1
I2
tp19
a(I1
I1
tp20
a(I0
I1
tp21
asS'end_num'
p22
I1
sS'stone_layouts'
p23
(lp24
(icurlovision
StoneLayout
p25
(dp26
S'stone_radius'
p27
F0.4791666666666667
sS'stones'
p28
(lp29
(icurlovision
Stone
p30
(dp31
S'y'
p32
F3.1144067796610173
sS'x'
p33
F0.11440677966101695
sS'r'
p34
F0.44491525423728817
sS'color'
p35
S'red'
p36
sbasba(icurlovision
StoneLayout
p37
(dp38
g27
F0.4791666666666667
sg28
(lp39
(icurlovision
Stone
p40
(dp41
g32
F10.322727272727272
sg33
F2.9863636363636363
sg34
F0.3136363636363636
sg35
S'yellow'
p42
sba(icurlovision
Stone
p43
(dp44
g32
F3.2318181818181815
sg33
F0.09545454545454544
sg34
F0.4636363636363636
sg35
S'red'
p45
sbasba(icurlovision
StoneLayout
p46
(dp47
g27
F0.4791666666666667
sg28
(lp48
(icurlovision
Stone
p49
(dp50
g32
F10.532608695652174
sg33
F3.0652173913043477
sg34
F0.27717391304347827
sg35
S'yellow'
p51
sba(icurlovision
Stone
p52
(dp53
g32
F4.108695652173913
sg33
F0.5543478260869565
sg34
F0.45652173913043476
sg35
S'red'
p54
sba(icurlovision
Stone
p55
(dp56
g32
F5.641304347826087
sg33
F-0.09782608695652173
sg34
F0.30978260869565216
sg35
S'yellow'
p57
sba(icurlovision
Stone
p58
(dp59
g32
F10.043478260869565
sg33
F-3.8152173913043477
sg34
F0.2934782608695652
sg35
S'yellow'
p60
sbasba(icurlovision
StoneLayout
p61
(dp62
g27
F0.4791666666666667
sg28
(lp63
(icurlovision
Stone
p64
(dp65
g32
F10.117647058823529
sg33
F2.8529411764705883
sg34
F0.4117647058823529
sg35
S'yellow'
p66
sba(icurlovision
Stone
p67
(dp68
g32
F3.9705882352941178
sg33
F0.5
sg34
F0.4264705882352941
sg35
S'red'
p69
sba(icurlovision
Stone
p70
(dp71
g32
F5.970588235294118
sg33
F0.4411764705882353
sg34
F0.3382352941176471
sg35
S'yellow'
p72
sba(icurlovision
Stone
p73
(dp74
g32
F12.058823529411764
sg33
F0.3529411764705882
sg34
F0.4264705882352941
sg35
S'red'
p75
sbasba(icurlovision
StoneLayout
p76
(dp77
g27
F0.4791666666666667
sg28
(lp78
(icurlovision
Stone
p79
(dp80
g32
F6.566326530612245
sg33
F0.8571428571428571
sg34
F0.42857142857142855
sg35
S'red'
p81
sba(icurlovision
Stone
p82
(dp83
g32
F9.994897959183673
sg33
F2.877551020408163
sg34
F0.3979591836734694
sg35
S'yellow'
p84
sba(icurlovision
Stone
p85
(dp86
g32
F12.566326530612244
sg33
F0.24489795918367346
sg34
F0.413265306122449
sg35
S'yellow'
p87
sba(icurlovision
Stone
p88
(dp89
g32
F5.403061224489796
sg33
F-0.4897959183673469
sg34
F0.30612244897959184
sg35
S'red'
p90
sba(icurlovision
Stone
p91
(dp92
g32
F12.107142857142858
sg33
F-11.051020408163264
sg34
F0.2755102040816326
sg35
S'yellow'
p93
sbasba(icurlovision
StoneLayout
p94
(dp95
g27
F0.4791666666666667
sg28
(lp96
(icurlovision
Stone
p97
(dp98
g32
F6.555
sg33
F0.825
sg34
F0.42
sg35
S'red'
p99
sba(icurlovision
Stone
p100
(dp101
g32
F9.975
sg33
F2.8649999999999998
sg34
F0.3
sg35
S'yellow'
p102
sba(icurlovision
Stone
p103
(dp104
g32
F12.525
sg33
F0.255
sg34
F0.345
sg35
S'yellow'
p105
sba(icurlovision
Stone
p106
(dp107
g32
F6.614999999999999
sg33
F-1.545
sg34
F0.42
sg35
S'red'
p108
sbasba(icurlovision
StoneLayout
p109
(dp110
g27
F0.4791666666666667
sg28
(lp111
(icurlovision
Stone
p112
(dp113
g32
F12.7
sg33
F0.2
sg34
F0.31666666666666665
sg35
S'yellow'
p114
sba(icurlovision
Stone
p115
(dp116
g32
F10.066666666666666
sg33
F2.8666666666666667
sg34
F0.43333333333333335
sg35
S'yellow'
p117
sba(icurlovision
Stone
p118
(dp119
g32
F4.866666666666666
sg33
F6.8999999999999995
sg34
F0.3333333333333333
sg35
S'red'
p120
sba(icurlovision
Stone
p121
(dp122
g32
F-0.1
sg33
F0.5333333333333333
sg34
F0.3333333333333333
sg35
S'yellow'
p123
sba(icurlovision
Stone
p124
(dp125
g32
F12.433333333333334
sg33
F-12.066666666666666
sg34
F0.26666666666666666
sg35
S'yellow'
p126
sbasba(icurlovision
StoneLayout
p127
(dp128
g27
F0.4791666666666667
sg28
(lp129
(icurlovision
Stone
p130
(dp131
g32
F10.446428571428571
sg33
F2.9821428571428568
sg34
F0.4464285714285714
sg35
S'yellow'
p132
sba(icurlovision
Stone
p133
(dp134
g32
F13.160714285714285
sg33
F0.23214285714285712
sg34
F0.42857142857142855
sg35
S'yellow'
p135
sba(icurlovision
Stone
p136
(dp137
g32
F0.4464285714285714
sg33
F0.1607142857142857
sg34
F0.26785714285714285
sg35
S'red'
p138
sbasba(icurlovision
StoneLayout
p139
(dp140
g27
F0.4791666666666667
sg28
(lp141
(icurlovision
Stone
p142
(dp143
g32
F1.3166666666666667
sg33
F-0.03333333333333333
sg34
F0.4666666666666667
sg35
S'yellow'
p144
sba(icurlovision
Stone
p145
(dp146
g32
F10.15
sg33
F2.8666666666666667
sg34
F0.26666666666666666
sg35
S'yellow'
p147
sba(icurlovision
Stone
p148
(dp149
g32
F12.75
sg33
F0.2
sg34
F0.4166666666666667
sg35
S'yellow'
p150
sba(icurlovision
Stone
p151
(dp152
g32
F12.216666666666667
sg33
F-12.066666666666666
sg34
F0.26666666666666666
sg35
S'yellow'
p153
sbasba(icurlovision
StoneLayout
p154
(dp155
g27
F0.4791666666666667
sg28
(lp156
(icurlovision
Stone
p157
(dp158
g32
F10.214285714285714
sg33
F2.964285714285714
sg34
F0.42857142857142855
sg35
S'yellow'
p159
sba(icurlovision
Stone
p160
(dp161
g32
F12.892857142857142
sg33
F0.25
sg34
F0.42857142857142855
sg35
S'yellow'
p162
sba(icurlovision
Stone
p163
(dp164
g32
F12.25
sg33
F-12.892857142857142
sg34
F0.2857142857142857
sg35
S'yellow'
p165
sbasbasg3
I0
sS'red_hammer'
p166
I0
sba(icurlovision
EndResult
p167
(dp168
g2
I0
sg10
(lp169
(I7
I8
tp170
a(I6
I7
tp171
a(I6
I6
tp172
a(I5
I6
tp173
a(I5
I5
tp174
a(I4
I5
tp175
a(I4
I4
tp176
a(I3
I4
tp177
a(I3
I3
tp178
a(I2
I3
tp179
a(I2
I2
tp180
a(I1
I2
tp181
a(I1
I1
tp182
a(I0
I1
tp183
asg22
I2
sg23
(lp184
(icurlovision
StoneLayout
p185
(dp186
g27
F0.4791666666666667
sg28
(lp187
(icurlovision
Stone
p188
(dp189
g32
F2.782258064516129
sg33
F0.2661290322580645
sg34
F0.3387096774193548
sg35
S'red'
p190
sbasba(icurlovision
StoneLayout
p191
(dp192
g27
F0.4791666666666667
sg28
(lp193
(icurlovision
Stone
p194
(dp195
g32
F7.48469387755102
sg33
F3.627551020408163
sg34
F0.29081632653061223
sg35
S'yellow'
p196
sba(icurlovision
Stone
p197
(dp198
g32
F11.709183673469388
sg33
F0.5357142857142857
sg34
F0.42857142857142855
sg35
S'red'
p199
sba(icurlovision
Stone
p200
(dp201
g32
F3.0153061224489797
sg33
F0.22959183673469388
sg34
F0.44387755102040816
sg35
S'red'
p202
sbasba(icurlovision
StoneLayout
p203
(dp204
g27
F0.4791666666666667
sg28
(lp205
(icurlovision
Stone
p206
(dp207
g32
F7.59375
sg33
F3.76875
sg34
F0.44999999999999996
sg35
S'yellow'
p208
sba(icurlovision
Stone
p209
(dp210
g32
F-5.75625
sg33
F2.30625
sg34
F0.33749999999999997
sg35
S'red'
p211
sba(icurlovision
Stone
p212
(dp213
g32
F3.8812499999999996
sg33
F-0.056249999999999994
sg34
F0.35625
sg35
S'yellow'
p214
sba(icurlovision
Stone
p215
(dp216
g32
F11.98125
sg33
F0.5812499999999999
sg34
F0.44999999999999996
sg35
S'red'
p217
sbasba(icurlovision
StoneLayout
p218
(dp219
g27
F0.4791666666666667
sg28
(lp220
(icurlovision
Stone
p221
(dp222
g32
F7.392857142857142
sg33
F3.6696428571428568
sg34
F0.42857142857142855
sg35
S'yellow'
p223
sba(icurlovision
Stone
p224
(dp225
g32
F11.651785714285714
sg33
F0.5892857142857143
sg34
F0.4419642857142857
sg35
S'red'
p226
sba(icurlovision
Stone
p227
(dp228
g32
F4.580357142857142
sg33
F-0.40178571428571425
sg34
F0.33482142857142855
sg35
S'red'
p229
sbasba(icurlovision
StoneLayout
p230
(dp231
g27
F0.4791666666666667
sg28
(lp232
(icurlovision
Stone
p233
(dp234
g32
F7.186363636363636
sg33
F3.5318181818181817
sg34
F0.43636363636363634
sg35
S'yellow'
p235
sba(icurlovision
Stone
p236
(dp237
g32
F11.35909090909091
sg33
F0.5318181818181817
sg34
F0.42272727272727273
sg35
S'red'
p238
sba(icurlovision
Stone
p239
(dp240
g32
F4.6499999999999995
sg33
F1.0227272727272727
sg34
F0.3136363636363636
sg35
S'yellow'
p241
sbasba(icurlovision
StoneLayout
p242
(dp243
g27
F0.4791666666666667
sg28
(lp244
(icurlovision
Stone
p245
(dp246
g32
F7.666666666666667
sg33
F3.7333333333333334
sg34
F0.2833333333333333
sg35
S'yellow'
p247
sba(icurlovision
Stone
p248
(dp249
g32
F12.066666666666666
sg33
F0.5666666666666667
sg34
F0.45
sg35
S'red'
p250
sba(icurlovision
Stone
p251
(dp252
g32
F3.8333333333333335
sg33
F3.7333333333333334
sg34
F0.35
sg35
S'red'
p253
sba(icurlovision
Stone
p254
(dp255
g32
F11.466666666666667
sg33
F-12.233333333333333
sg34
F0.26666666666666666
sg35
S'yellow'
p256
sbasba(icurlovision
StoneLayout
p257
(dp258
g27
F0.4791666666666667
sg28
(lp259
(icurlovision
Stone
p260
(dp261
g32
F3.7193877551020407
sg33
F3.6581632653061225
sg34
F0.30612244897959184
sg35
S'red'
p262
sba(icurlovision
Stone
p263
(dp264
g32
F11.770408163265305
sg33
F0.5357142857142857
sg34
F0.44387755102040816
sg35
S'red'
p265
sbasba(icurlovision
StoneLayout
p266
(dp267
g27
F0.4791666666666667
sg28
(lp268
(icurlovision
Stone
p269
(dp270
g32
F11.709183673469388
sg33
F0.5663265306122449
sg34
F0.44387755102040816
sg35
S'red'
p271
sba(icurlovision
Stone
p272
(dp273
g32
F3.6887755102040813
sg33
F3.6887755102040813
sg34
F0.29081632653061223
sg35
S'red'
p274
sba(icurlovision
Stone
p275
(dp276
g32
F0.6275510204081632
sg33
F0.1377551020408163
sg34
F0.45918367346938777
sg35
S'red'
p277
sbasba(icurlovision
StoneLayout
p278
(dp279
g27
F0.4791666666666667
sg28
(lp280
(icurlovision
Stone
p281
(dp282
g32
F7.444444444444444
sg33
F0.08333333333333333
sg34
F0.3055555555555555
sg35
S'red'
p283
sba(icurlovision
Stone
p284
(dp285
g32
F0.6388888888888888
sg33
F0.1111111111111111
sg34
F0.4444444444444444
sg35
S'red'
p286
sba(icurlovision
Stone
p287
(dp288
g32
F3.638888888888889
sg33
F3.5555555555555554
sg34
F0.4444444444444444
sg35
S'red'
p289
sba(icurlovision
Stone
p290
(dp291
g32
F10.888888888888888
sg33
F1.4166666666666665
sg34
F0.4305555555555555
sg35
S'red'
p292
sbasba(icurlovision
StoneLayout
p293
(dp294
g27
F0.4791666666666667
sg28
(lp295
(icurlovision
Stone
p296
(dp297
g32
F10.5
sg33
F1.3392857142857142
sg34
F0.40178571428571425
sg35
S'red'
p298
sba(icurlovision
Stone
p299
(dp300
g32
F3.508928571428571
sg33
F3.455357142857143
sg34
F0.29464285714285715
sg35
S'red'
p301
sba(icurlovision
Stone
p302
(dp303
g32
F0.6160714285714285
sg33
F0.05357142857142857
sg34
F0.4419642857142857
sg35
S'red'
p304
sba(icurlovision
Stone
p305
(dp306
g32
F7.178571428571428
sg33
F0.05357142857142857
sg34
F0.29464285714285715
sg35
S'red'
p307
sbasba(icurlovision
StoneLayout
p308
(dp309
g27
F0.4791666666666667
sg28
(lp310
(icurlovision
Stone
p311
(dp312
g32
F7.0
sg33
F3.625
sg34
F0.4375
sg35
S'yellow'
p313
sba(icurlovision
Stone
p314
(dp315
g32
F11.375
sg33
F1.5
sg34
F0.4375
sg35
S'red'
p316
sba(icurlovision
Stone
p317
(dp318
g32
F0.65625
sg33
F0.125
sg34
F0.296875
sg35
S'red'
p319
sba(icurlovision
Stone
p320
(dp321
g32
F3.8125
sg33
F3.75
sg34
F0.4375
sg35
S'red'
p322
sbasba(icurlovision
StoneLayout
p323
(dp324
g27
F0.4791666666666667
sg28
(lp325
(icurlovision
Stone
p326
(dp327
g32
F6.675
sg33
F3.5549999999999997
sg34
F0.44999999999999996
sg35
S'yellow'
p328
sba(icurlovision
Stone
p329
(dp330
g32
F3.645
sg33
F3.6149999999999998
sg34
F0.3
sg35
S'red'
p331
sba(icurlovision
Stone
p332
(dp333
g32
F0.615
sg33
F0.075
sg34
F0.46499999999999997
sg35
S'red'
p334
sba(icurlovision
Stone
p335
(dp336
g32
F10.965
sg33
F1.425
sg34
F0.435
sg35
S'red'
p337
sba(icurlovision
Stone
p338
(dp339
g32
F8.325
sg33
F0.045
sg34
F0.44999999999999996
sg35
S'red'
p340
sbasba(icurlovision
StoneLayout
p341
(dp342
g27
F0.4791666666666667
sg28
(lp343
(icurlovision
Stone
p344
(dp345
g32
F9.195652173913043
sg33
F0.42391304347826086
sg34
F0.34239130434782605
sg35
S'yellow'
p346
sba(icurlovision
Stone
p347
(dp348
g32
F6.815217391304348
sg33
F3.717391304347826
sg34
F0.44021739130434784
sg35
S'yellow'
p349
sba(icurlovision
Stone
p350
(dp351
g32
F11.25
sg33
F1.5
sg34
F0.44021739130434784
sg35
S'red'
p352
sba(icurlovision
Stone
p353
(dp354
g32
F3.717391304347826
sg33
F3.684782608695652
sg34
F0.30978260869565216
sg35
S'red'
p355
sbasba(icurlovision
StoneLayout
p356
(dp357
g27
F0.4791666666666667
sg28
(lp358
(icurlovision
Stone
p359
(dp360
g32
F6.925531914893616
sg33
F3.7659574468085104
sg34
F0.33510638297872336
sg35
S'yellow'
p361
sba(icurlovision
Stone
p362
(dp363
g32
F9.319148936170212
sg33
F0.4148936170212766
sg34
F0.44680851063829785
sg35
S'yellow'
p364
sba(icurlovision
Stone
p365
(dp366
g32
F3.7659574468085104
sg33
F3.7659574468085104
sg34
F0.351063829787234
sg35
S'red'
p367
sba(icurlovision
Stone
p368
(dp369
g32
F0.702127659574468
sg33
F0.5425531914893617
sg34
F0.4627659574468085
sg35
S'red'
p370
sba(icurlovision
Stone
p371
(dp372
g32
F11.425531914893616
sg33
F1.5319148936170213
sg34
F0.4627659574468085
sg35
S'red'
p373
sbasbasg3
I1
sg166
I0
sba(icurlovision
EndResult
p374
(dp375
g2
I0
sg10
(lp376
(I7
I7
tp377
a(I6
I7
tp378
a(I6
I6
tp379
a(I5
I6
tp380
a(I5
I5
tp381
a(I4
I5
tp382
a(I4
I4
tp383
a(I3
I4
tp384
a(I3
I3
tp385
a(I2
I3
tp386
a(I2
I2
tp387
a(I1
I2
tp388
a(I1
I1
tp389
a(I0
I1
tp390
asg22
I3
sg23
(lp391
(icurlovision
StoneLayout
p392
(dp393
g27
F0.4791666666666667
sg28
(lp394
(icurlovision
Stone
p395
(dp396
g32
F9.607758620689655
sg33
F3.4267241379310343
sg34
F0.4267241379310345
sg35
S'yellow'
p397
sba(icurlovision
Stone
p398
(dp399
g32
F1.7974137931034482
sg33
F0.27155172413793105
sg34
F0.4525862068965517
sg35
S'red'
p400
sbasba(icurlovision
StoneLayout
p401
(dp402
g27
F0.4791666666666667
sg28
(lp403
(icurlovision
Stone
p404
(dp405
g32
F1.794642857142857
sg33
F0.26785714285714285
sg34
F0.4419642857142857
sg35
S'red'
p406
sba(icurlovision
Stone
p407
(dp408
g32
F9.696428571428571
sg33
F3.4821428571428568
sg34
F0.4419642857142857
sg35
S'yellow'
p409
sba(icurlovision
Stone
p410
(dp411
g32
F3.75
sg33
F0.40178571428571425
sg34
F0.3482142857142857
sg35
S'red'
p412
sbasba(icurlovision
StoneLayout
p413
(dp414
g27
F0.4791666666666667
sg28
(lp415
(icurlovision
Stone
p416
(dp417
g32
F9.504310344827585
sg33
F3.413793103448276
sg34
F0.4396551724137931
sg35
S'yellow'
p418
sba(icurlovision
Stone
p419
(dp420
g32
F2.625
sg33
F0.33620689655172414
sg34
F0.4525862068965517
sg35
S'red'
p421
sba(icurlovision
Stone
p422
(dp423
g32
F4.435344827586206
sg33
F0.75
sg34
F0.3103448275862069
sg35
S'yellow'
p424
sbasba(icurlovision
StoneLayout
p425
(dp426
g27
F0.4791666666666667
sg28
(lp427
(icurlovision
Stone
p428
(dp429
g32
F2.66015625
sg33
F0.36328125
sg34
F0.33984375
sg35
S'red'
p430
sba(icurlovision
Stone
p431
(dp432
g32
F2.26171875
sg33
F-6.24609375
sg34
F0.4453125
sg35
S'red'
p433
sba(icurlovision
Stone
p434
(dp435
g32
F4.51171875
sg33
F0.80859375
sg34
F0.31640625
sg35
S'yellow'
p436
sba(icurlovision
Stone
p437
(dp438
g32
F-4.41796875
sg33
F6.97265625
sg34
F0.3515625
sg35
S'yellow'
p439
sbasba(icurlovision
StoneLayout
p440
(dp441
g27
F0.4791666666666667
sg28
(lp442
(icurlovision
Stone
p443
(dp444
g32
F2.725
sg33
F0.35000000000000003
sg34
F0.45
sg35
S'red'
p445
sba(icurlovision
Stone
p446
(dp447
g32
F-4.825
sg33
F0.5
sg34
F0.325
sg35
S'yellow'
p448
sba(icurlovision
Stone
p449
(dp450
g32
F4.575
sg33
F0.8
sg34
F0.3375
sg35
S'yellow'
p451
sbasba(icurlovision
StoneLayout
p452
(dp453
g27
F0.4791666666666667
sg28
(lp454
(icurlovision
Stone
p455
(dp456
g32
F-4.862903225806451
sg33
F0.5080645161290323
sg34
F0.3387096774193548
sg35
S'yellow'
p457
sba(icurlovision
Stone
p458
(dp459
g32
F2.685483870967742
sg33
F0.3870967741935484
sg34
F0.4475806451612903
sg35
S'red'
p460
sbasba(icurlovision
StoneLayout
p461
(dp462
g27
F0.4791666666666667
sg28
(lp463
(icurlovision
Stone
p464
(dp465
g32
F-4.983050847457627
sg33
F0.6355932203389831
sg34
F0.3305084745762712
sg35
S'yellow'
p466
sba(icurlovision
Stone
p467
(dp468
g32
F2.6949152542372885
sg33
F0.3305084745762712
sg34
F0.4703389830508475
sg35
S'red'
p469
sba(icurlovision
Stone
p470
(dp471
g32
F-5.516949152542373
sg33
F-0.7372881355932204
sg34
F0.3305084745762712
sg35
S'yellow'
p472
sbasba(icurlovision
StoneLayout
p473
(dp474
g27
F0.4791666666666667
sg28
(lp475
(icurlovision
Stone
p476
(dp477
g32
F-5.431034482758621
sg33
F0.9827586206896551
sg34
F0.34913793103448276
sg35
S'yellow'
p478
sba(icurlovision
Stone
p479
(dp480
g32
F2.7155172413793105
sg33
F0.3620689655172414
sg34
F0.46551724137931033
sg35
S'red'
p481
sba(icurlovision
Stone
p482
(dp483
g32
F-4.681034482758621
sg33
F-0.3103448275862069
sg34
F0.46551724137931033
sg35
S'red'
p484
sba(icurlovision
Stone
p485
(dp486
g32
F-5.612068965517241
sg33
F-0.7241379310344828
sg34
F0.33620689655172414
sg35
S'yellow'
p487
sbasba(icurlovision
StoneLayout
p488
(dp489
g27
F0.4791666666666667
sg28
(lp490
(icurlovision
Stone
p491
(dp492
g32
F-5.552631578947368
sg33
F1.2368421052631577
sg34
F0.3421052631578947
sg35
S'yellow'
p493
sba(icurlovision
Stone
p494
(dp495
g32
F2.6842105263157894
sg33
F0.39473684210526316
sg34
F0.4473684210526315
sg35
S'red'
p496
sba(icurlovision
Stone
p497
(dp498
g32
F-6.315789473684211
sg33
F-0.763157894736842
sg34
F0.4473684210526315
sg35
S'yellow'
p499
sba(icurlovision
Stone
p500
(dp501
g32
F-5.0
sg33
F0.15789473684210525
sg34
F0.3289473684210526
sg35
S'red'
p502
sba(icurlovision
Stone
p503
(dp504
g32
F-4.815789473684211
sg33
F-1.8157894736842104
sg34
F0.35526315789473684
sg35
S'yellow'
p505
sbasba(icurlovision
StoneLayout
p506
(dp507
g27
F0.4791666666666667
sg28
(lp508
(icurlovision
Stone
p509
(dp510
g32
F-6.333333333333333
sg33
F-0.8055555555555555
sg34
F0.4444444444444444
sg35
S'yellow'
p511
sba(icurlovision
Stone
p512
(dp513
g32
F-5.583333333333333
sg33
F0.2222222222222222
sg34
F0.3333333333333333
sg35
S'red'
p514
sba(icurlovision
Stone
p515
(dp516
g32
F-4.694444444444444
sg33
F-0.75
sg34
F0.3055555555555555
sg35
S'red'
p517
sba(icurlovision
Stone
p518
(dp519
g32
F2.75
sg33
F0.3611111111111111
sg34
F0.4722222222222222
sg35
S'red'
p520
sbasba(icurlovision
StoneLayout
p521
(dp522
g27
F0.4791666666666667
sg28
(lp523
(icurlovision
Stone
p524
(dp525
g32
F3.2410714285714284
sg33
F1.0714285714285714
sg34
F0.33482142857142855
sg35
S'yellow'
p526
sba(icurlovision
Stone
p527
(dp528
g32
F-5.625
sg33
F0.1875
sg34
F0.36160714285714285
sg35
S'red'
p529
sbasba(icurlovision
StoneLayout
p530
(dp531
g27
F0.4791666666666667
sg28
(lp532
(icurlovision
Stone
p533
(dp534
g32
F0.47368421052631576
sg33
F-4.289473684210526
sg34
F0.3421052631578947
sg35
S'red'
p535
sba(icurlovision
Stone
p536
(dp537
g32
F-5.684210526315789
sg33
F0.21052631578947367
sg34
F0.47368421052631576
sg35
S'red'
p538
sbasba(icurlovision
StoneLayout
p539
(dp540
g27
F0.4791666666666667
sg28
(lp541
(icurlovision
Stone
p542
(dp543
g32
F-5.472222222222222
sg33
F0.20833333333333331
sg34
F0.3055555555555555
sg35
S'red'
p544
sbasba(icurlovision
StoneLayout
p545
(dp546
g27
F0.4791666666666667
sg28
(lp547
(icurlovision
Stone
p548
(dp549
g32
F1.4872881355932204
sg33
F4.461864406779661
sg34
F0.3432203389830509
sg35
S'red'
p550
sba(icurlovision
Stone
p551
(dp552
g32
F-5.580508474576272
sg33
F0.24152542372881358
sg34
F0.35593220338983056
sg35
S'red'
p553
sbasbasg3
I2
sg166
I0
sba(icurlovision
EndResult
p554
(dp555
g2
I2
sg10
(lp556
(I7
I8
tp557
a(I7
I7
tp558
a(I6
I7
tp559
a(I5
I6
tp560
a(I5
I5
tp561
a(I4
I5
tp562
a(I4
I4
tp563
a(I3
I4
tp564
a(I3
I3
tp565
a(I2
I3
tp566
a(I2
I2
tp567
a(I1
I2
tp568
a(I1
I1
tp569
a(I0
I1
tp570
asg22
I4
sg23
(lp571
(icurlovision
StoneLayout
p572
(dp573
g27
F0.4791666666666667
sg28
(lp574
(icurlovision
Stone
p575
(dp576
g32
F2.6956521739130435
sg33
F0.0
sg34
F0.43478260869565216
sg35
S'red'
p577
sbasba(icurlovision
StoneLayout
p578
(dp579
g27
F0.4791666666666667
sg28
(lp580
(icurlovision
Stone
p581
(dp582
g32
F2.855769230769231
sg33
F-0.04326923076923077
sg34
F0.44711538461538464
sg35
S'red'
p583
sba(icurlovision
Stone
p584
(dp585
g32
F11.509615384615385
sg33
F3.014423076923077
sg34
F0.4326923076923077
sg35
S'yellow'
p586
sbasba(icurlovision
StoneLayout
p587
(dp588
g27
F0.4791666666666667
sg28
(lp589
(icurlovision
Stone
p590
(dp591
g32
F11.553191489361701
sg33
F2.9999999999999996
sg34
F0.4308510638297872
sg35
S'yellow'
p592
sba(icurlovision
Stone
p593
(dp594
g32
F2.8723404255319145
sg33
F-0.06382978723404255
sg34
F0.3191489361702127
sg35
S'red'
p595
sba(icurlovision
Stone
p596
(dp597
g32
F12.223404255319148
sg33
F0.3829787234042553
sg34
F0.3031914893617021
sg35
S'red'
p598
sbasba(icurlovision
StoneLayout
p599
(dp600
g27
F0.4791666666666667
sg28
(lp601
(icurlovision
Stone
p602
(dp603
g32
F2.923469387755102
sg33
F-0.04591836734693877
sg34
F0.45918367346938777
sg35
S'red'
p604
sba(icurlovision
Stone
p605
(dp606
g32
F11.61734693877551
sg33
F3.0459183673469385
sg34
F0.42857142857142855
sg35
S'yellow'
p607
sba(icurlovision
Stone
p608
(dp609
g32
F12.260204081632653
sg33
F0.3826530612244898
sg34
F0.44387755102040816
sg35
S'red'
p610
sba(icurlovision
Stone
p611
(dp612
g32
F4.576530612244897
sg33
F-0.5663265306122449
sg34
F0.44387755102040816
sg35
S'red'
p613
sba(icurlovision
Stone
p614
(dp615
g32
F4.086734693877551
sg33
F0.3520408163265306
sg34
F0.30612244897959184
sg35
S'yellow'
p616
sbasba(icurlovision
StoneLayout
p617
(dp618
g27
F0.4791666666666667
sg28
(lp619
(icurlovision
Stone
p620
(dp621
g32
F11.341836734693878
sg33
F2.954081632653061
sg34
F0.42857142857142855
sg35
S'yellow'
p622
sba(icurlovision
Stone
p623
(dp624
g32
F9.474489795918368
sg33
F-1.0561224489795917
sg34
F0.44387755102040816
sg35
S'yellow'
p625
sba(icurlovision
Stone
p626
(dp627
g32
F2.8316326530612246
sg33
F-0.07653061224489796
sg34
F0.44387755102040816
sg35
S'red'
p628
sba(icurlovision
Stone
p629
(dp630
g32
F11.770408163265305
sg33
F0.6275510204081632
sg34
F0.42857142857142855
sg35
S'red'
p631
sba(icurlovision
Stone
p632
(dp633
g32
F3.933673469387755
sg33
F0.3214285714285714
sg34
F0.3214285714285714
sg35
S'yellow'
p634
sba(icurlovision
Stone
p635
(dp636
g32
F4.423469387755102
sg33
F-0.5357142857142857
sg34
F0.3214285714285714
sg35
S'red'
p637
sba(icurlovision
Stone
p638
(dp639
g32
F0.413265306122449
sg33
F-0.3214285714285714
sg34
F0.3520408163265306
sg35
S'red'
p640
sbasba(icurlovision
StoneLayout
p641
(dp642
g27
F0.4791666666666667
sg28
(lp643
(icurlovision
Stone
p644
(dp645
g32
F9.788461538461538
sg33
F-1.0961538461538463
sg34
F0.46153846153846156
sg35
S'yellow'
p646
sba(icurlovision
Stone
p647
(dp648
g32
F2.6346153846153846
sg33
F6.25
sg34
F0.46153846153846156
sg35
S'red'
p649
sba(icurlovision
Stone
p650
(dp651
g32
F3.1730769230769234
sg33
F1.2115384615384617
sg34
F0.46153846153846156
sg35
S'yellow'
p652
sba(icurlovision
Stone
p653
(dp654
g32
F12.673076923076923
sg33
F0.9807692307692308
sg34
F0.44230769230769235
sg35
S'yellow'
p655
sba(icurlovision
Stone
p656
(dp657
g32
F1.0192307692307694
sg33
F-1.1730769230769231
sg34
F0.34615384615384615
sg35
S'red'
p658
sba(icurlovision
Stone
p659
(dp660
g32
F11.711538461538462
sg33
F3.057692307692308
sg34
F0.2692307692307693
sg35
S'yellow'
p661
sba(icurlovision
Stone
p662
(dp663
g32
F-3.326923076923077
sg33
F0.2884615384615385
sg34
F0.46153846153846156
sg35
S'red'
p664
sbasba(icurlovision
StoneLayout
p665
(dp666
g27
F0.4791666666666667
sg28
(lp667
(icurlovision
Stone
p668
(dp669
g32
F1.026315789473684
sg33
F-1.1842105263157894
sg34
F0.35526315789473684
sg35
S'red'
p670
sba(icurlovision
Stone
p671
(dp672
g32
F10.026315789473683
sg33
F-1.144736842105263
sg34
F0.47368421052631576
sg35
S'yellow'
p673
sba(icurlovision
Stone
p674
(dp675
g32
F3.276315789473684
sg33
F1.2236842105263157
sg34
F0.35526315789473684
sg35
S'yellow'
p676
sba(icurlovision
Stone
p677
(dp678
g32
F11.960526315789473
sg33
F3.1184210526315788
sg34
F0.4539473684210526
sg35
S'yellow'
p679
sba(icurlovision
Stone
p680
(dp681
g32
F-3.394736842105263
sg33
F0.23684210526315788
sg34
F0.4934210526315789
sg35
S'red'
p682
sba(icurlovision
Stone
p683
(dp684
g32
F12.986842105263158
sg33
F0.9868421052631579
sg34
F0.43421052631578944
sg35
S'yellow'
p685
sba(icurlovision
Stone
p686
(dp687
g32
F12.710526315789473
sg33
F-14.486842105263158
sg34
F0.35526315789473684
sg35
S'yellow'
p688
sbasba(icurlovision
StoneLayout
p689
(dp690
g27
F0.4791666666666667
sg28
(lp691
(icurlovision
Stone
p692
(dp693
g32
F12.671052631578947
sg33
F0.9868421052631579
sg34
F0.43421052631578944
sg35
S'yellow'
p694
sba(icurlovision
Stone
p695
(dp696
g32
F3.1973684210526314
sg33
F1.2236842105263157
sg34
F0.43421052631578944
sg35
S'yellow'
p697
sba(icurlovision
Stone
p698
(dp699
g32
F1.026315789473684
sg33
F-1.144736842105263
sg34
F0.35526315789473684
sg35
S'red'
p700
sba(icurlovision
Stone
p701
(dp702
g32
F-3.31578947368421
sg33
F0.2763157894736842
sg34
F0.47368421052631576
sg35
S'red'
p703
sba(icurlovision
Stone
p704
(dp705
g32
F11.723684210526315
sg33
F3.039473684210526
sg34
F0.43421052631578944
sg35
S'yellow'
p706
sba(icurlovision
Stone
p707
(dp708
g32
F14.171052631578947
sg33
F-0.9473684210526315
sg34
F0.41447368421052627
sg35
S'red'
p709
sba(icurlovision
Stone
p710
(dp711
g32
F13.93421052631579
sg33
F-14.526315789473683
sg34
F0.23684210526315788
sg35
S'yellow'
p712
sbasba(icurlovision
StoneLayout
p713
(dp714
g27
F0.4791666666666667
sg28
(lp715
(icurlovision
Stone
p716
(dp717
g32
F-3.1875
sg33
F0.3
sg34
F0.31875
sg35
S'red'
p718
sba(icurlovision
Stone
p719
(dp720
g32
F1.0125
sg33
F-1.0875
sg34
F0.2625
sg35
S'red'
p721
sba(icurlovision
Stone
p722
(dp723
g32
F12.3375
sg33
F0.975
sg34
F0.4125
sg35
S'yellow'
p724
sba(icurlovision
Stone
p725
(dp726
g32
F13.4625
sg33
F-3.3
sg34
F0.4125
sg35
S'yellow'
p727
sba(icurlovision
Stone
p728
(dp729
g32
F3.1125
sg33
F1.1624999999999999
sg34
F0.44999999999999996
sg35
S'yellow'
p730
sba(icurlovision
Stone
p731
(dp732
g32
F11.4375
sg33
F2.9625
sg34
F0.28125
sg35
S'yellow'
p733
sba(icurlovision
Stone
p734
(dp735
g32
F12.7125
sg33
F-13.725
sg34
F0.33749999999999997
sg35
S'yellow'
p736
sbasba(icurlovision
StoneLayout
p737
(dp738
g27
F0.4791666666666667
sg28
(lp739
(icurlovision
Stone
p740
(dp741
g32
F12.486486486486488
sg33
F1.0135135135135136
sg34
F0.4256756756756757
sg35
S'yellow'
p742
sba(icurlovision
Stone
p743
(dp744
g32
F3.121621621621622
sg33
F1.2162162162162162
sg34
F0.46621621621621623
sg35
S'yellow'
p745
sba(icurlovision
Stone
p746
(dp747
g32
F-3.2432432432432434
sg33
F0.28378378378378377
sg34
F0.32432432432432434
sg35
S'red'
p748
sba(icurlovision
Stone
p749
(dp750
g32
F13.621621621621623
sg33
F-3.3243243243243246
sg34
F0.22297297297297297
sg35
S'yellow'
p751
sba(icurlovision
Stone
p752
(dp753
g32
F11.513513513513514
sg33
F3.040540540540541
sg34
F0.4256756756756757
sg35
S'yellow'
p754
sba(icurlovision
Stone
p755
(dp756
g32
F7.135135135135135
sg33
F-0.8918918918918919
sg34
F0.44594594594594594
sg35
S'red'
p757
sba(icurlovision
Stone
p758
(dp759
g32
F0.9324324324324325
sg33
F-1.0945945945945947
sg34
F0.4256756756756757
sg35
S'red'
p760
sbasba(icurlovision
StoneLayout
p761
(dp762
g27
F0.4791666666666667
sg28
(lp763
(icurlovision
Stone
p764
(dp765
g32
F13.621621621621623
sg33
F-3.364864864864865
sg34
F0.40540540540540543
sg35
S'yellow'
p766
sba(icurlovision
Stone
p767
(dp768
g32
F3.1621621621621623
sg33
F1.1756756756756757
sg34
F0.46621621621621623
sg35
S'yellow'
p769
sba(icurlovision
Stone
p770
(dp771
g32
F12.567567567567568
sg33
F0.972972972972973
sg34
F0.26351351351351354
sg35
S'yellow'
p772
sba(icurlovision
Stone
p773
(dp774
g32
F11.554054054054054
sg33
F3.0
sg34
F0.4256756756756757
sg35
S'yellow'
p775
sba(icurlovision
Stone
p776
(dp777
g32
F7.013513513513514
sg33
F1.0540540540540542
sg34
F0.3445945945945946
sg35
S'yellow'
p778
sba(icurlovision
Stone
p779
(dp780
g32
F-3.8513513513513518
sg33
F-1.2567567567567568
sg34
F0.44594594594594594
sg35
S'red'
p781
sbasba(icurlovision
StoneLayout
p782
(dp783
g27
F0.4791666666666667
sg28
(lp784
(icurlovision
Stone
p785
(dp786
g32
F12.592105263157894
sg33
F0.9473684210526315
sg34
F0.43421052631578944
sg35
S'yellow'
p787
sba(icurlovision
Stone
p788
(dp789
g32
F7.06578947368421
sg33
F1.0657894736842104
sg34
F0.43421052631578944
sg35
S'yellow'
p790
sba(icurlovision
Stone
p791
(dp792
g32
F11.644736842105262
sg33
F3.039473684210526
sg34
F0.256578947368421
sg35
S'yellow'
p793
sba(icurlovision
Stone
p794
(dp795
g32
F3.1973684210526314
sg33
F1.1842105263157894
sg34
F0.3157894736842105
sg35
S'yellow'
p796
sba(icurlovision
Stone
p797
(dp798
g32
F13.736842105263158
sg33
F-3.3552631578947367
sg34
F0.39473684210526316
sg35
S'yellow'
p799
sba(icurlovision
Stone
p800
(dp801
g32
F1.3421052631578947
sg33
F0.7894736842105263
sg34
F0.4539473684210526
sg35
S'yellow'
p802
sba(icurlovision
Stone
p803
(dp804
g32
F0.11842105263157894
sg33
F1.0657894736842104
sg34
F0.4539473684210526
sg35
S'red'
p805
sba(icurlovision
Stone
p806
(dp807
g32
F-3.8684210526315788
sg33
F-1.2236842105263157
sg34
F0.3355263157894737
sg35
S'red'
p808
sba(icurlovision
Stone
p809
(dp810
g32
F12.43421052631579
sg33
F-14.565789473684209
sg34
F0.23684210526315788
sg35
S'yellow'
p811
sbasba(icurlovision
StoneLayout
p812
(dp813
g27
F0.4791666666666667
sg28
(lp814
(icurlovision
Stone
p815
(dp816
g32
F3.1578947368421053
sg33
F1.1842105263157894
sg34
F0.43421052631578944
sg35
S'yellow'
p817
sba(icurlovision
Stone
p818
(dp819
g32
F12.592105263157894
sg33
F0.9473684210526315
sg34
F0.43421052631578944
sg35
S'yellow'
p820
sba(icurlovision
Stone
p821
(dp822
g32
F-3.8684210526315788
sg33
F-1.2236842105263157
sg34
F0.4539473684210526
sg35
S'red'
p823
sba(icurlovision
Stone
p824
(dp825
g32
F11.644736842105262
sg33
F3.039473684210526
sg34
F0.2763157894736842
sg35
S'yellow'
p826
sba(icurlovision
Stone
p827
(dp828
g32
F13.69736842105263
sg33
F-3.394736842105263
sg34
F0.43421052631578944
sg35
S'yellow'
p829
sba(icurlovision
Stone
p830
(dp831
g32
F1.381578947368421
sg33
F0.75
sg34
F0.4539473684210526
sg35
S'yellow'
p832
sba(icurlovision
Stone
p833
(dp834
g32
F7.026315789473684
sg33
F1.1052631578947367
sg34
F0.41447368421052627
sg35
S'yellow'
p835
sba(icurlovision
Stone
p836
(dp837
g32
F0.11842105263157894
sg33
F1.1052631578947367
sg34
F0.3355263157894737
sg35
S'red'
p838
sbasba(icurlovision
StoneLayout
p839
(dp840
g27
F0.4791666666666667
sg28
(lp841
(icurlovision
Stone
p842
(dp843
g32
F12.854166666666666
sg33
F1.0208333333333333
sg34
F0.3333333333333333
sg35
S'yellow'
p844
sba(icurlovision
Stone
p845
(dp846
g32
F11.854166666666666
sg33
F3.1041666666666665
sg34
F0.4375
sg35
S'yellow'
p847
sba(icurlovision
Stone
p848
(dp849
g32
F3.270833333333333
sg33
F1.2291666666666665
sg34
F0.3333333333333333
sg35
S'yellow'
p850
sba(icurlovision
Stone
p851
(dp852
g32
F7.1875
sg33
F1.1041666666666665
sg34
F0.4583333333333333
sg35
S'yellow'
p853
sba(icurlovision
Stone
p854
(dp855
g32
F13.979166666666666
sg33
F-3.4375
sg34
F0.3125
sg35
S'yellow'
p856
sba(icurlovision
Stone
p857
(dp858
g32
F0.10416666666666666
sg33
F1.1458333333333333
sg34
F0.4583333333333333
sg35
S'red'
p859
sba(icurlovision
Stone
p860
(dp861
g32
F1.3958333333333333
sg33
F0.8125
sg34
F0.35416666666666663
sg35
S'yellow'
p862
sba(icurlovision
Stone
p863
(dp864
g32
F-3.9375
sg33
F-1.2708333333333333
sg34
F0.3333333333333333
sg35
S'red'
p865
sba(icurlovision
Stone
p866
(dp867
g32
F12.0625
sg33
F-0.2708333333333333
sg34
F0.20833333333333331
sg35
S'red'
p868
sba(icurlovision
Stone
p869
(dp870
g32
F14.854166666666666
sg33
F-15.604166666666666
sg34
F0.25
sg35
S'yellow'
p871
sbasbasg3
I2
sg166
I0
sba(icurlovision
EndResult
p872
(dp873
g2
I2
sg10
(lp874
(I8
I7
tp875
a(I7
I6
tp876
a(I6
I6
tp877
a(I6
I5
tp878
a(I5
I5
tp879
a(I5
I4
tp880
a(I4
I4
tp881
a(I4
I3
tp882
a(I3
I3
tp883
a(I3
I2
tp884
a(I2
I2
tp885
a(I2
I1
tp886
a(I1
I1
tp887
a(I1
I0
tp888
asg22
I5
sg23
(lp889
(icurlovision
StoneLayout
p890
(dp891
g27
F0.4791666666666667
sg28
(lp892
(icurlovision
Stone
p893
(dp894
g32
F6.700819672131147
sg33
F0.6270491803278688
sg34
F0.4180327868852459
sg35
S'yellow'
p895
sbasba(icurlovision
StoneLayout
p896
(dp897
g27
F0.4791666666666667
sg28
(lp898
(icurlovision
Stone
p899
(dp900
g32
F7.125
sg33
F0.6057692307692308
sg34
F0.3605769230769231
sg35
S'yellow'
p901
sba(icurlovision
Stone
p902
(dp903
g32
F3.1153846153846154
sg33
F0.028846153846153848
sg34
F0.46153846153846156
sg35
S'yellow'
p904
sba(icurlovision
Stone
p905
(dp906
g32
F0.6923076923076923
sg33
F0.2884615384615385
sg34
F0.46153846153846156
sg35
S'red'
p907
sba(icurlovision
Stone
p908
(dp909
g32
F-3.201923076923077
sg33
F-1.6442307692307694
sg34
F0.4182692307692308
sg35
S'red'
p910
sbasba(icurlovision
StoneLayout
p911
(dp912
g27
F0.4791666666666667
sg28
(lp913
(icurlovision
Stone
p914
(dp915
g32
F7.038461538461539
sg33
F0.6057692307692308
sg34
F0.44711538461538464
sg35
S'yellow'
p916
sba(icurlovision
Stone
p917
(dp918
g32
F0.6923076923076923
sg33
F0.2884615384615385
sg34
F0.3317307692307693
sg35
S'red'
p919
sba(icurlovision
Stone
p920
(dp921
g32
F3.1442307692307696
sg33
F0.057692307692307696
sg34
F0.3317307692307693
sg35
S'yellow'
p922
sba(icurlovision
Stone
p923
(dp924
g32
F10.413461538461538
sg33
F-0.20192307692307693
sg34
F0.3028846153846154
sg35
S'red'
p925
sbasba(icurlovision
StoneLayout
p926
(dp927
g27
F0.4791666666666667
sg28
(lp928
(icurlovision
Stone
p929
(dp930
g32
F6.96875
sg33
F0.5625
sg34
F0.3125
sg35
S'yellow'
p931
sba(icurlovision
Stone
p932
(dp933
g32
F0.71875
sg33
F0.3125
sg34
F0.4375
sg35
S'red'
p934
sba(icurlovision
Stone
p935
(dp936
g32
F10.25
sg33
F-0.21875
sg34
F0.34375
sg35
S'red'
p937
sba(icurlovision
Stone
p938
(dp939
g32
F2.90625
sg33
F0.0625
sg34
F0.28125
sg35
S'yellow'
p940
sba(icurlovision
Stone
p941
(dp942
g32
F3.96875
sg33
F-0.25
sg34
F0.328125
sg35
S'yellow'
p943
sba(icurlovision
Stone
p944
(dp945
g32
F10.25
sg33
F-4.46875
sg34
F0.28125
sg35
S'yellow'
p946
sbasba(icurlovision
StoneLayout
p947
(dp948
g27
F0.4791666666666667
sg28
(lp949
(icurlovision
Stone
p950
(dp951
g32
F2.885869565217391
sg33
F0.11413043478260869
sg34
F0.30978260869565216
sg35
S'yellow'
p952
sba(icurlovision
Stone
p953
(dp954
g32
F9.864130434782608
sg33
F-2.7228260869565215
sg34
F0.45652173913043476
sg35
S'red'
p955
sba(icurlovision
Stone
p956
(dp957
g32
F0.6684782608695652
sg33
F0.30978260869565216
sg34
F0.2934782608695652
sg35
S'red'
p958
sba(icurlovision
Stone
p959
(dp960
g32
F3.9619565217391304
sg33
F-0.11413043478260869
sg34
F0.2934782608695652
sg35
S'yellow'
p961
sba(icurlovision
Stone
p962
(dp963
g32
F10.157608695652174
sg33
F-11.78804347826087
sg34
F0.2934782608695652
sg35
S'yellow'
p964
sbasba(icurlovision
StoneLayout
p965
(dp966
g27
F0.4791666666666667
sg28
(lp967
(icurlovision
Stone
p968
(dp969
g32
F7.13235294117647
sg33
F3.3676470588235294
sg34
F0.3382352941176471
sg35
S'yellow'
p970
sba(icurlovision
Stone
p971
(dp972
g32
F2.8970588235294117
sg33
F0.1323529411764706
sg34
F0.29411764705882354
sg35
S'yellow'
p973
sba(icurlovision
Stone
p974
(dp975
g32
F-0.8676470588235294
sg33
F2.1029411764705883
sg34
F0.3676470588235294
sg35
S'red'
p976
sba(icurlovision
Stone
p977
(dp978
g32
F3.985294117647059
sg33
F-0.16176470588235295
sg34
F0.45588235294117646
sg35
S'yellow'
p979
sba(icurlovision
Stone
p980
(dp981
g32
F1.161764705882353
sg33
F-0.4264705882352941
sg34
F0.3529411764705882
sg35
S'red'
p982
sba(icurlovision
Stone
p983
(dp984
g32
F-2.3970588235294117
sg33
F-1.338235294117647
sg34
F0.45588235294117646
sg35
S'red'
p985
sbasba(icurlovision
StoneLayout
p986
(dp987
g27
F0.4791666666666667
sg28
(lp988
(icurlovision
Stone
p989
(dp990
g32
F-1.3055555555555556
sg33
F0.75
sg34
F0.3472222222222222
sg35
S'yellow'
p991
sba(icurlovision
Stone
p992
(dp993
g32
F7.0
sg33
F3.3055555555555554
sg34
F0.3333333333333333
sg35
S'yellow'
p994
sba(icurlovision
Stone
p995
(dp996
g32
F3.638888888888889
sg33
F-0.2222222222222222
sg34
F0.3333333333333333
sg35
S'yellow'
p997
sba(icurlovision
Stone
p998
(dp999
g32
F0.7222222222222222
sg33
F-0.8888888888888888
sg34
F0.4722222222222222
sg35
S'red'
p1000
sba(icurlovision
Stone
p1001
(dp1002
g32
F4.666666666666666
sg33
F-0.4722222222222222
sg34
F0.3472222222222222
sg35
S'red'
p1003
sbasba(icurlovision
StoneLayout
p1004
(dp1005
g27
F0.4791666666666667
sg28
(lp1006
(icurlovision
Stone
p1007
(dp1008
g32
F-1.3026315789473684
sg33
F0.75
sg34
F0.4605263157894737
sg35
S'yellow'
p1009
sba(icurlovision
Stone
p1010
(dp1011
g32
F7.197368421052631
sg33
F3.381578947368421
sg34
F0.47368421052631576
sg35
S'yellow'
p1012
sba(icurlovision
Stone
p1013
(dp1014
g32
F-0.17105263157894735
sg33
F0.6710526315789473
sg34
F0.3421052631578947
sg35
S'yellow'
p1015
sba(icurlovision
Stone
p1016
(dp1017
g32
F0.8026315789473684
sg33
F-0.9078947368421052
sg34
F0.3289473684210526
sg35
S'red'
p1018
sba(icurlovision
Stone
p1019
(dp1020
g32
F4.644736842105263
sg33
F-0.48684210526315785
sg34
F0.3289473684210526
sg35
S'red'
p1021
sba(icurlovision
Stone
p1022
(dp1023
g32
F5.776315789473684
sg33
F-0.5657894736842105
sg34
F0.3421052631578947
sg35
S'yellow'
p1024
sbasba(icurlovision
StoneLayout
p1025
(dp1026
g27
F0.4791666666666667
sg28
(lp1027
(icurlovision
Stone
p1028
(dp1029
g32
F7.453125
sg33
F3.546875
sg34
F0.46875
sg35
S'yellow'
p1030
sba(icurlovision
Stone
p1031
(dp1032
g32
F-0.390625
sg33
F0.703125
sg34
F0.484375
sg35
S'yellow'
p1033
sba(icurlovision
Stone
p1034
(dp1035
g32
F0.828125
sg33
F-0.953125
sg34
F0.359375
sg35
S'red'
p1036
sba(icurlovision
Stone
p1037
(dp1038
g32
F0.640625
sg33
F0.171875
sg34
F0.484375
sg35
S'red'
p1039
sba(icurlovision
Stone
p1040
(dp1041
g32
F4.828125
sg33
F-0.453125
sg34
F0.484375
sg35
S'red'
p1042
sba(icurlovision
Stone
p1043
(dp1044
g32
F5.953125
sg33
F-0.578125
sg34
F0.375
sg35
S'yellow'
p1045
sbasba(icurlovision
StoneLayout
p1046
(dp1047
g27
F0.4791666666666667
sg28
(lp1048
(icurlovision
Stone
p1049
(dp1050
g32
F-0.3088235294117647
sg33
F-1.7794117647058822
sg34
F0.47058823529411764
sg35
S'red'
p1051
sba(icurlovision
Stone
p1052
(dp1053
g32
F7.102941176470588
sg33
F3.3676470588235294
sg34
F0.45588235294117646
sg35
S'yellow'
p1054
sba(icurlovision
Stone
p1055
(dp1056
g32
F4.75
sg33
F-2.25
sg34
F0.3529411764705882
sg35
S'yellow'
p1057
sba(icurlovision
Stone
p1058
(dp1059
g32
F6.044117647058823
sg33
F0.39705882352941174
sg34
F0.3235294117647059
sg35
S'yellow'
p1060
sba(icurlovision
Stone
p1061
(dp1062
g32
F-0.044117647058823525
sg33
F-0.3382352941176471
sg34
F0.3088235294117647
sg35
S'red'
p1063
sba(icurlovision
Stone
p1064
(dp1065
g32
F1.7794117647058822
sg33
F-0.6911764705882353
sg34
F0.3676470588235294
sg35
S'red'
p1066
sbasba(icurlovision
StoneLayout
p1067
(dp1068
g27
F0.4791666666666667
sg28
(lp1069
(icurlovision
Stone
p1070
(dp1071
g32
F6.5625
sg33
F3.1607142857142856
sg34
F0.30803571428571425
sg35
S'yellow'
p1072
sba(icurlovision
Stone
p1073
(dp1074
g32
F-0.05357142857142857
sg33
F-1.3928571428571428
sg34
F0.42857142857142855
sg35
S'red'
p1075
sba(icurlovision
Stone
p1076
(dp1077
g32
F5.625
sg33
F0.5625
sg34
F0.3214285714285714
sg35
S'yellow'
p1078
sba(icurlovision
Stone
p1079
(dp1080
g32
F4.526785714285714
sg33
F-0.375
sg34
F0.30803571428571425
sg35
S'red'
p1081
sba(icurlovision
Stone
p1082
(dp1083
g32
F1.8482142857142856
sg33
F-0.42857142857142855
sg34
F0.3883928571428571
sg35
S'red'
p1084
sbasba(icurlovision
StoneLayout
p1085
(dp1086
g27
F0.4791666666666667
sg28
(lp1087
(icurlovision
Stone
p1088
(dp1089
g32
F7.110576923076923
sg33
F3.3605769230769234
sg34
F0.3605769230769231
sg35
S'yellow'
p1090
sba(icurlovision
Stone
p1091
(dp1092
g32
F0.7355769230769231
sg33
F-2.120192307692308
sg34
F0.46153846153846156
sg35
S'red'
p1093
sba(icurlovision
Stone
p1094
(dp1095
g32
F5.408653846153847
sg33
F-1.1971153846153846
sg34
F0.31730769230769235
sg35
S'yellow'
p1096
sba(icurlovision
Stone
p1097
(dp1098
g32
F6.0144230769230775
sg33
F0.3894230769230769
sg34
F0.34615384615384615
sg35
S'yellow'
p1099
sbasba(icurlovision
StoneLayout
p1100
(dp1101
g27
F0.4791666666666667
sg28
(lp1102
(icurlovision
Stone
p1103
(dp1104
g32
F6.958333333333333
sg33
F3.263888888888889
sg34
F0.4444444444444444
sg35
S'yellow'
p1105
sba(icurlovision
Stone
p1106
(dp1107
g32
F-3.5416666666666665
sg33
F-1.2638888888888888
sg34
F0.3472222222222222
sg35
S'red'
p1108
sba(icurlovision
Stone
p1109
(dp1110
g32
F5.291666666666666
sg33
F-1.2083333333333333
sg34
F0.3055555555555555
sg35
S'yellow'
p1111
sba(icurlovision
Stone
p1112
(dp1113
g32
F0.6805555555555555
sg33
F-2.069444444444444
sg34
F0.3194444444444444
sg35
S'red'
p1114
sba(icurlovision
Stone
p1115
(dp1116
g32
F5.875
sg33
F0.3472222222222222
sg34
F0.3333333333333333
sg35
S'yellow'
p1117
sba(icurlovision
Stone
p1118
(dp1119
g32
F-5.847222222222222
sg33
F-3.263888888888889
sg34
F0.4444444444444444
sg35
S'red'
p1120
sbasba(icurlovision
StoneLayout
p1121
(dp1122
g27
F0.4791666666666667
sg28
(lp1123
(icurlovision
Stone
p1124
(dp1125
g32
F7.14
sg33
F3.3899999999999997
sg34
F0.345
sg35
S'yellow'
p1126
sba(icurlovision
Stone
p1127
(dp1128
g32
F-3.5999999999999996
sg33
F-1.23
sg34
F0.32999999999999996
sg35
S'red'
p1129
sba(icurlovision
Stone
p1130
(dp1131
g32
F6.06
sg33
F0.39
sg34
F0.32999999999999996
sg35
S'yellow'
p1132
sba(icurlovision
Stone
p1133
(dp1134
g32
F5.46
sg33
F-1.17
sg34
F0.315
sg35
S'yellow'
p1135
sbasbasg3
I4
sg166
I1
sba(icurlovision
EndResult
p1136
(dp1137
g2
I3
sg10
(lp1138
(I7
I8
tp1139
a(I7
I7
tp1140
a(I6
I7
tp1141
a(I6
I6
tp1142
a(I5
I6
tp1143
a(I5
I5
tp1144
a(I4
I5
tp1145
a(I4
I4
tp1146
a(I3
I4
tp1147
a(I3
I3
tp1148
a(I2
I3
tp1149
a(I2
I2
tp1150
a(I1
I2
tp1151
a(I1
I1
tp1152
a(I0
I1
tp1153
asg22
I6
sg23
(lp1154
(icurlovision
StoneLayout
p1155
(dp1156
g27
F0.4791666666666667
sg28
(lp1157
(icurlovision
Stone
p1158
(dp1159
g32
F4.273809523809524
sg33
F0.7976190476190476
sg34
F0.34523809523809523
sg35
S'red'
p1160
sbasba(icurlovision
StoneLayout
p1161
(dp1162
g27
F0.4791666666666667
sg28
(lp1163
(icurlovision
Stone
p1164
(dp1165
g32
F11.691176470588236
sg33
F3.161764705882353
sg34
F0.4264705882352941
sg35
S'yellow'
p1166
sba(icurlovision
Stone
p1167
(dp1168
g32
F4.25
sg33
F0.7794117647058824
sg34
F0.45588235294117646
sg35
S'red'
p1169
sbasba(icurlovision
StoneLayout
p1170
(dp1171
g27
F0.4791666666666667
sg28
(lp1172
(icurlovision
Stone
p1173
(dp1174
g32
F11.683333333333334
sg33
F3.183333333333333
sg34
F0.45
sg35
S'yellow'
p1175
sba(icurlovision
Stone
p1176
(dp1177
g32
F-0.48333333333333334
sg33
F-0.08333333333333333
sg34
F0.31666666666666665
sg35
S'red'
p1178
sba(icurlovision
Stone
p1179
(dp1180
g32
F4.25
sg33
F0.7833333333333333
sg34
F0.35
sg35
S'red'
p1181
sba(icurlovision
Stone
p1182
(dp1183
g32
F11.15
sg33
F-12.216666666666667
sg34
F0.26666666666666666
sg35
S'yellow'
p1184
sbasba(icurlovision
StoneLayout
p1185
(dp1186
g27
F0.4791666666666667
sg28
(lp1187
(icurlovision
Stone
p1188
(dp1189
g32
F11.678571428571427
sg33
F3.142857142857143
sg34
F0.42857142857142855
sg35
S'yellow'
p1190
sba(icurlovision
Stone
p1191
(dp1192
g32
F4.25
sg33
F0.75
sg34
F0.33928571428571425
sg35
S'red'
p1193
sba(icurlovision
Stone
p1194
(dp1195
g32
F0.42857142857142855
sg33
F-0.2857142857142857
sg34
F0.3214285714285714
sg35
S'yellow'
p1196
sba(icurlovision
Stone
p1197
(dp1198
g32
F-0.6071428571428571
sg33
F-0.07142857142857142
sg34
F0.33928571428571425
sg35
S'red'
p1199
sba(icurlovision
Stone
p1200
(dp1201
g32
F11.392857142857142
sg33
F-13.107142857142856
sg34
F0.3214285714285714
sg35
S'yellow'
p1202
sbasba(icurlovision
StoneLayout
p1203
(dp1204
g27
F0.4791666666666667
sg28
(lp1205
(icurlovision
Stone
p1206
(dp1207
g32
F1.2804878048780488
sg33
F-0.18292682926829268
sg34
F0.4390243902439024
sg35
S'red'
p1208
sba(icurlovision
Stone
p1209
(dp1210
g32
F11.378048780487804
sg33
F3.1097560975609753
sg34
F0.4390243902439024
sg35
S'yellow'
p1211
sba(icurlovision
Stone
p1212
(dp1213
g32
F4.097560975609756
sg33
F0.7682926829268292
sg34
F0.40243902439024387
sg35
S'red'
p1214
sba(icurlovision
Stone
p1215
(dp1216
g32
F0.25609756097560976
sg33
F-0.3292682926829268
sg34
F0.31097560975609756
sg35
S'yellow'
p1217
sba(icurlovision
Stone
p1218
(dp1219
g32
F11.378048780487804
sg33
F-13.390243902439023
sg34
F0.3292682926829268
sg35
S'yellow'
p1220
sbasba(icurlovision
StoneLayout
p1221
(dp1222
g27
F0.4791666666666667
sg28
(lp1223
(icurlovision
Stone
p1224
(dp1225
g32
F0.2553191489361702
sg33
F3.6702127659574466
sg34
F0.3191489361702127
sg35
S'yellow'
p1226
sba(icurlovision
Stone
p1227
(dp1228
g32
F11.393617021276595
sg33
F3.127659574468085
sg34
F0.4308510638297872
sg35
S'yellow'
p1229
sba(icurlovision
Stone
p1230
(dp1231
g32
F1.3404255319148934
sg33
F-0.19148936170212766
sg34
F0.33510638297872336
sg35
S'red'
p1232
sba(icurlovision
Stone
p1233
(dp1234
g32
F0.2553191489361702
sg33
F-0.351063829787234
sg34
F0.3191489361702127
sg35
S'yellow'
p1235
sba(icurlovision
Stone
p1236
(dp1237
g32
F4.148936170212766
sg33
F0.7659574468085106
sg34
F0.351063829787234
sg35
S'red'
p1238
sba(icurlovision
Stone
p1239
(dp1240
g32
F10.53191489361702
sg33
F-11.680851063829786
sg34
F0.3031914893617021
sg35
S'yellow'
p1241
sbasba(icurlovision
StoneLayout
p1242
(dp1243
g27
F0.4791666666666667
sg28
(lp1244
(icurlovision
Stone
p1245
(dp1246
g32
F0.25
sg33
F3.802631578947368
sg34
F0.3421052631578947
sg35
S'yellow'
p1247
sba(icurlovision
Stone
p1248
(dp1249
g32
F1.381578947368421
sg33
F-0.25
sg34
F0.3289473684210526
sg35
S'red'
p1250
sba(icurlovision
Stone
p1251
(dp1252
g32
F0.25
sg33
F-0.35526315789473684
sg34
F0.4605263157894737
sg35
S'yellow'
p1253
sba(icurlovision
Stone
p1254
(dp1255
g32
F4.302631578947368
sg33
F0.7763157894736842
sg34
F0.3289473684210526
sg35
S'red'
p1256
sbasba(icurlovision
StoneLayout
p1257
(dp1258
g27
F0.4791666666666667
sg28
(lp1259
(icurlovision
Stone
p1260
(dp1261
g32
F-2.53125
sg33
F-0.6294642857142857
sg34
F0.46875
sg35
S'yellow'
p1262
sba(icurlovision
Stone
p1263
(dp1264
g32
F0.2544642857142857
sg33
F3.736607142857143
sg34
F0.46875
sg35
S'yellow'
p1265
sba(icurlovision
Stone
p1266
(dp1267
g32
F4.299107142857142
sg33
F0.7901785714285714
sg34
F0.3482142857142857
sg35
S'red'
p1268
sba(icurlovision
Stone
p1269
(dp1270
g32
F2.290178571428571
sg33
F-0.3883928571428571
sg34
F0.4419642857142857
sg35
S'yellow'
p1271
sba(icurlovision
Stone
p1272
(dp1273
g32
F1.138392857142857
sg33
F-0.12053571428571427
sg34
F0.45535714285714285
sg35
S'red'
p1274
sbasba(icurlovision
StoneLayout
p1275
(dp1276
g27
F0.4791666666666667
sg28
(lp1277
(icurlovision
Stone
p1278
(dp1279
g32
F-2.5238095238095237
sg33
F-0.5833333333333333
sg34
F0.45238095238095233
sg35
S'yellow'
p1280
sba(icurlovision
Stone
p1281
(dp1282
g32
F2.214285714285714
sg33
F-0.369047619047619
sg34
F0.3333333333333333
sg35
S'yellow'
p1283
sba(icurlovision
Stone
p1284
(dp1285
g32
F1.119047619047619
sg33
F-0.10714285714285714
sg34
F0.45238095238095233
sg35
S'red'
p1286
sba(icurlovision
Stone
p1287
(dp1288
g32
F-1.1904761904761905
sg33
F-0.17857142857142855
sg34
F0.3333333333333333
sg35
S'red'
p1289
sba(icurlovision
Stone
p1290
(dp1291
g32
F4.238095238095238
sg33
F0.7976190476190476
sg34
F0.34523809523809523
sg35
S'red'
p1292
sbasba(icurlovision
StoneLayout
p1293
(dp1294
g27
F0.4791666666666667
sg28
(lp1295
(icurlovision
Stone
p1296
(dp1297
g32
F-2.510204081632653
sg33
F-0.5663265306122449
sg34
F0.45918367346938777
sg35
S'yellow'
p1298
sba(icurlovision
Stone
p1299
(dp1300
g32
F2.2346938775510203
sg33
F-0.3520408163265306
sg34
F0.3214285714285714
sg35
S'yellow'
p1301
sba(icurlovision
Stone
p1302
(dp1303
g32
F1.1326530612244898
sg33
F-0.07653061224489796
sg34
F0.336734693877551
sg35
S'red'
p1304
sba(icurlovision
Stone
p1305
(dp1306
g32
F-1.193877551020408
sg33
F-0.1683673469387755
sg34
F0.45918367346938777
sg35
S'red'
p1307
sba(icurlovision
Stone
p1308
(dp1309
g32
F4.8979591836734695
sg33
F0.413265306122449
sg34
F0.336734693877551
sg35
S'yellow'
p1310
sbasba(icurlovision
StoneLayout
p1311
(dp1312
g27
F0.4791666666666667
sg28
(lp1313
(icurlovision
Stone
p1314
(dp1315
g32
F-2.458333333333333
sg33
F-0.5972222222222222
sg34
F0.38888888888888884
sg35
S'yellow'
p1316
sba(icurlovision
Stone
p1317
(dp1318
g32
F-1.1805555555555556
sg33
F-0.15277777777777776
sg34
F0.3333333333333333
sg35
S'red'
p1319
sba(icurlovision
Stone
p1320
(dp1321
g32
F6.625
sg33
F-1.097222222222222
sg34
F0.3333333333333333
sg35
S'red'
p1322
sba(icurlovision
Stone
p1323
(dp1324
g32
F1.1527777777777777
sg33
F-0.06944444444444445
sg34
F0.3333333333333333
sg35
S'red'
p1325
sba(icurlovision
Stone
p1326
(dp1327
g32
F2.236111111111111
sg33
F-0.375
sg34
F0.3333333333333333
sg35
S'yellow'
p1328
sba(icurlovision
Stone
p1329
(dp1330
g32
F4.902777777777778
sg33
F0.4305555555555555
sg34
F0.3055555555555555
sg35
S'yellow'
p1331
sbasba(icurlovision
StoneLayout
p1332
(dp1333
g27
F0.4791666666666667
sg28
(lp1334
(icurlovision
Stone
p1335
(dp1336
g32
F-2.5949999999999998
sg33
F-0.615
sg34
F0.46499999999999997
sg35
S'yellow'
p1337
sba(icurlovision
Stone
p1338
(dp1339
g32
F7.6049999999999995
sg33
F-1.275
sg34
F0.32999999999999996
sg35
S'yellow'
p1340
sba(icurlovision
Stone
p1341
(dp1342
g32
F-1.2449999999999999
sg33
F-0.195
sg34
F0.32999999999999996
sg35
S'red'
p1343
sba(icurlovision
Stone
p1344
(dp1345
g32
F1.9949999999999999
sg33
F-0.015
sg34
F0.44999999999999996
sg35
S'yellow'
p1346
sba(icurlovision
Stone
p1347
(dp1348
g32
F5.0249999999999995
sg33
F0.40499999999999997
sg34
F0.32999999999999996
sg35
S'yellow'
p1349
sbasba(icurlovision
StoneLayout
p1350
(dp1351
g27
F0.4791666666666667
sg28
(lp1352
(icurlovision
Stone
p1353
(dp1354
g32
F-2.6158536585365852
sg33
F-0.5853658536585366
sg34
F0.47560975609756095
sg35
S'yellow'
p1355
sba(icurlovision
Stone
p1356
(dp1357
g32
F7.664634146341463
sg33
F-1.2073170731707317
sg34
F0.3475609756097561
sg35
S'yellow'
p1358
sba(icurlovision
Stone
p1359
(dp1360
g32
F-1.2621951219512195
sg33
F-0.18292682926829268
sg34
F0.47560975609756095
sg35
S'red'
p1361
sba(icurlovision
Stone
p1362
(dp1363
g32
F2.067073170731707
sg33
F0.0
sg34
F0.3475609756097561
sg35
S'yellow'
p1364
sba(icurlovision
Stone
p1365
(dp1366
g32
F12.713414634146341
sg33
F0.5121951219512195
sg34
F0.4390243902439024
sg35
S'red'
p1367
sba(icurlovision
Stone
p1368
(dp1369
g32
F5.103658536585366
sg33
F0.4390243902439024
sg34
F0.3475609756097561
sg35
S'yellow'
p1370
sba(icurlovision
Stone
p1371
(dp1372
g32
F11.579268292682926
sg33
F-13.390243902439023
sg34
F0.3292682926829268
sg35
S'yellow'
p1373
sbasba(icurlovision
StoneLayout
p1374
(dp1375
g27
F0.4791666666666667
sg28
(lp1376
(icurlovision
Stone
p1377
(dp1378
g32
F-2.6158536585365852
sg33
F-0.6219512195121951
sg34
F0.45731707317073167
sg35
S'yellow'
p1379
sba(icurlovision
Stone
p1380
(dp1381
g32
F-0.45731707317073167
sg33
F-0.8048780487804877
sg34
F0.3475609756097561
sg35
S'yellow'
p1382
sba(icurlovision
Stone
p1383
(dp1384
g32
F7.554878048780488
sg33
F-1.2439024390243902
sg34
F0.45731707317073167
sg35
S'yellow'
p1385
sba(icurlovision
Stone
p1386
(dp1387
g32
F2.0304878048780486
sg33
F0.0
sg34
F0.45731707317073167
sg35
S'yellow'
p1388
sba(icurlovision
Stone
p1389
(dp1390
g32
F-1.2621951219512195
sg33
F-0.18292682926829268
sg34
F0.36585365853658536
sg35
S'red'
p1391
sba(icurlovision
Stone
p1392
(dp1393
g32
F12.567073170731707
sg33
F0.47560975609756095
sg34
F0.4390243902439024
sg35
S'red'
p1394
sba(icurlovision
Stone
p1395
(dp1396
g32
F5.030487804878049
sg33
F0.40243902439024387
sg34
F0.3475609756097561
sg35
S'yellow'
p1397
sba(icurlovision
Stone
p1398
(dp1399
g32
F11.835365853658535
sg33
F-13.426829268292682
sg34
F0.3292682926829268
sg35
S'yellow'
p1400
sbasba(icurlovision
StoneLayout
p1401
(dp1402
g27
F0.4791666666666667
sg28
(lp1403
(icurlovision
Stone
p1404
(dp1405
g32
F-2.563953488372093
sg33
F-0.5755813953488372
sg34
F0.45348837209302323
sg35
S'yellow'
p1406
sba(icurlovision
Stone
p1407
(dp1408
g32
F8.040697674418604
sg33
F-1.8313953488372092
sg34
F0.436046511627907
sg35
S'red'
p1409
sba(icurlovision
Stone
p1410
(dp1411
g32
F-1.2034883720930232
sg33
F-0.12209302325581395
sg34
F0.3488372093023256
sg35
S'red'
p1412
sba(icurlovision
Stone
p1413
(dp1414
g32
F6.680232558139535
sg33
F-0.6802325581395349
sg34
F0.436046511627907
sg35
S'yellow'
p1415
sba(icurlovision
Stone
p1416
(dp1417
g32
F-0.4011627906976744
sg33
F-0.7151162790697674
sg34
F0.3313953488372093
sg35
S'yellow'
p1418
sba(icurlovision
Stone
p1419
(dp1420
g32
F12.366279069767442
sg33
F0.5058139534883721
sg34
F0.436046511627907
sg35
S'red'
p1421
sba(icurlovision
Stone
p1422
(dp1423
g32
F4.901162790697675
sg33
F0.436046511627907
sg34
F0.2616279069767442
sg35
S'yellow'
p1424
sba(icurlovision
Stone
p1425
(dp1426
g32
F11.66860465116279
sg33
F-12.75
sg34
F0.313953488372093
sg35
S'yellow'
p1427
sba(icurlovision
Stone
p1428
(dp1429
g32
F2.005813953488372
sg33
F0.05232558139534883
sg34
F0.47093023255813954
sg35
S'yellow'
p1430
sbasbasg3
I4
sg166
I0
sba(icurlovision
EndResult
p1431
(dp1432
g2
I3
sg10
(lp1433
(I8
I7
tp1434
a(I7
I6
tp1435
a(I6
I6
tp1436
a(I6
I5
tp1437
a(I5
I5
tp1438
a(I5
I4
tp1439
a(I4
I4
tp1440
a(I4
I3
tp1441
a(I3
I3
tp1442
a(I3
I2
tp1443
a(I2
I2
tp1444
a(I2
I1
tp1445
a(I1
I1
tp1446
a(I1
I0
tp1447
asg22
I7
sg23
(lp1448
(icurlovision
StoneLayout
p1449
(dp1450
g27
F0.4791666666666667
sg28
(lp1451
(icurlovision
Stone
p1452
(dp1453
g32
F9.375
sg33
F0.4267241379310345
sg34
F0.34913793103448276
sg35
S'yellow'
p1454
sbasba(icurlovision
StoneLayout
p1455
(dp1456
g27
F0.4791666666666667
sg28
(lp1457
(icurlovision
Stone
p1458
(dp1459
g32
F9.511363636363635
sg33
F0.4431818181818181
sg34
F0.4261363636363636
sg35
S'yellow'
p1460
sba(icurlovision
Stone
p1461
(dp1462
g32
F1.602272727272727
sg33
F0.13636363636363635
sg34
F0.32386363636363635
sg35
S'red'
p1463
sba(icurlovision
Stone
p1464
(dp1465
g32
F14.045454545454545
sg33
F-0.03409090909090909
sg34
F0.40909090909090906
sg35
S'yellow'
p1466
sbasba(icurlovision
StoneLayout
p1467
(dp1468
g27
F0.4791666666666667
sg28
(lp1469
(icurlovision
Stone
p1470
(dp1471
g32
F9.55813953488372
sg33
F0.47093023255813954
sg34
F0.436046511627907
sg35
S'yellow'
p1472
sba(icurlovision
Stone
p1473
(dp1474
g32
F2.8255813953488373
sg33
F-0.19186046511627908
sg34
F0.47093023255813954
sg35
S'red'
p1475
sba(icurlovision
Stone
p1476
(dp1477
g32
F14.162790697674419
sg33
F0.01744186046511628
sg34
F0.41860465116279066
sg35
S'yellow'
p1478
sba(icurlovision
Stone
p1479
(dp1480
g32
F1.6744186046511627
sg33
F0.12209302325581395
sg34
F0.27906976744186046
sg35
S'red'
p1481
sba(icurlovision
Stone
p1482
(dp1483
g32
F13.290697674418604
sg33
F-12.61046511627907
sg34
F0.313953488372093
sg35
S'yellow'
p1484
sbasba(icurlovision
StoneLayout
p1485
(dp1486
g27
F0.4791666666666667
sg28
(lp1487
(icurlovision
Stone
p1488
(dp1489
g32
F9.443181818181818
sg33
F0.4431818181818181
sg34
F0.4431818181818181
sg35
S'yellow'
p1490
sba(icurlovision
Stone
p1491
(dp1492
g32
F-0.23863636363636362
sg33
F-1.227272727272727
sg34
F0.3409090909090909
sg35
S'yellow'
p1493
sba(icurlovision
Stone
p1494
(dp1495
g32
F2.727272727272727
sg33
F-0.17045454545454544
sg34
F0.4602272727272727
sg35
S'red'
p1496
sba(icurlovision
Stone
p1497
(dp1498
g32
F13.977272727272727
sg33
F-0.06818181818181818
sg34
F0.4431818181818181
sg35
S'yellow'
p1499
sba(icurlovision
Stone
p1500
(dp1501
g32
F1.602272727272727
sg33
F0.06818181818181818
sg34
F0.4602272727272727
sg35
S'red'
p1502
sba(icurlovision
Stone
p1503
(dp1504
g32
F12.443181818181817
sg33
F-4.909090909090908
sg34
F0.30681818181818177
sg35
S'yellow'
p1505
sbasba(icurlovision
StoneLayout
p1506
(dp1507
g27
F0.4791666666666667
sg28
(lp1508
(icurlovision
Stone
p1509
(dp1510
g32
F-2.151315789473684
sg33
F0.29605263157894735
sg34
F0.3355263157894737
sg35
S'yellow'
p1511
sba(icurlovision
Stone
p1512
(dp1513
g32
F9.532894736842104
sg33
F0.4539473684210526
sg34
F0.4539473684210526
sg35
S'yellow'
p1514
sba(icurlovision
Stone
p1515
(dp1516
g32
F14.111842105263158
sg33
F0.019736842105263157
sg34
F0.23684210526315788
sg35
S'yellow'
p1517
sba(icurlovision
Stone
p1518
(dp1519
g32
F2.506578947368421
sg33
F0.4539473684210526
sg34
F0.4539473684210526
sg35
S'red'
p1520
sba(icurlovision
Stone
p1521
(dp1522
g32
F1.125
sg33
F0.256578947368421
sg34
F0.4539473684210526
sg35
S'red'
p1523
sba(icurlovision
Stone
p1524
(dp1525
g32
F12.967105263157894
sg33
F-5.625
sg34
F0.35526315789473684
sg35
S'yellow'
p1526
sba(icurlovision
Stone
p1527
(dp1528
g32
F13.00657894736842
sg33
F-14.30921052631579
sg34
F0.3355263157894737
sg35
S'yellow'
p1529
sbasba(icurlovision
StoneLayout
p1530
(dp1531
g27
F0.4791666666666667
sg28
(lp1532
(icurlovision
Stone
p1533
(dp1534
g32
F-2.25
sg33
F0.3333333333333333
sg34
F0.35416666666666663
sg35
S'yellow'
p1535
sba(icurlovision
Stone
p1536
(dp1537
g32
F1.875
sg33
F-0.7083333333333333
sg34
F0.25
sg35
S'yellow'
p1538
sba(icurlovision
Stone
p1539
(dp1540
g32
F14.583333333333332
sg33
F0.0
sg34
F0.41666666666666663
sg35
S'yellow'
p1541
sba(icurlovision
Stone
p1542
(dp1543
g32
F9.916666666666666
sg33
F0.5
sg34
F0.35416666666666663
sg35
S'yellow'
p1544
sba(icurlovision
Stone
p1545
(dp1546
g32
F2.625
sg33
F0.5
sg34
F0.47916666666666663
sg35
S'red'
p1547
sba(icurlovision
Stone
p1548
(dp1549
g32
F1.1666666666666665
sg33
F0.29166666666666663
sg34
F0.2708333333333333
sg35
S'red'
p1550
sba(icurlovision
Stone
p1551
(dp1552
g32
F15.166666666666666
sg33
F-15.041666666666666
sg34
F0.375
sg35
S'yellow'
p1553
sbasba(icurlovision
StoneLayout
p1554
(dp1555
g27
F0.4791666666666667
sg28
(lp1556
(icurlovision
Stone
p1557
(dp1558
g32
F-2.1702127659574466
sg33
F0.28723404255319146
sg34
F0.33510638297872336
sg35
S'yellow'
p1559
sba(icurlovision
Stone
p1560
(dp1561
g32
F2.5212765957446805
sg33
F0.4787234042553191
sg34
F0.4627659574468085
sg35
S'red'
p1562
sba(icurlovision
Stone
p1563
(dp1564
g32
F9.638297872340425
sg33
F0.5106382978723404
sg34
F0.44680851063829785
sg35
S'yellow'
p1565
sba(icurlovision
Stone
p1566
(dp1567
g32
F1.1489361702127658
sg33
F0.2553191489361702
sg34
F0.28723404255319146
sg35
S'red'
p1568
sba(icurlovision
Stone
p1569
(dp1570
g32
F1.8191489361702127
sg33
F-0.6702127659574467
sg34
F0.3031914893617021
sg35
S'yellow'
p1571
sba(icurlovision
Stone
p1572
(dp1573
g32
F9.638297872340425
sg33
F-5.329787234042553
sg34
F0.28723404255319146
sg35
S'yellow'
p1574
sbasba(icurlovision
StoneLayout
p1575
(dp1576
g27
F0.4791666666666667
sg28
(lp1577
(icurlovision
Stone
p1578
(dp1579
g32
F-2.2
sg33
F0.26666666666666666
sg34
F0.4666666666666667
sg35
S'yellow'
p1580
sba(icurlovision
Stone
p1581
(dp1582
g32
F3.3
sg33
F-0.13333333333333333
sg34
F0.3333333333333333
sg35
S'yellow'
p1583
sba(icurlovision
Stone
p1584
(dp1585
g32
F9.833333333333334
sg33
F0.4666666666666667
sg34
F0.4666666666666667
sg35
S'yellow'
p1586
sba(icurlovision
Stone
p1587
(dp1588
g32
F1.8333333333333333
sg33
F-0.7333333333333333
sg34
F0.35
sg35
S'yellow'
p1589
sba(icurlovision
Stone
p1590
(dp1591
g32
F2.0
sg33
F0.7666666666666666
sg34
F0.26666666666666666
sg35
S'red'
p1592
sba(icurlovision
Stone
p1593
(dp1594
g32
F1.1666666666666667
sg33
F0.23333333333333334
sg34
F0.31666666666666665
sg35
S'red'
p1595
sba(icurlovision
Stone
p1596
(dp1597
g32
F10.1
sg33
F-6.433333333333334
sg34
F0.3
sg35
S'yellow'
p1598
sbasba(icurlovision
StoneLayout
p1599
(dp1600
g27
F0.4791666666666667
sg28
(lp1601
(icurlovision
Stone
p1602
(dp1603
g32
F-2.1724137931034484
sg33
F0.24568965517241378
sg34
F0.33620689655172414
sg35
S'yellow'
p1604
sba(icurlovision
Stone
p1605
(dp1606
g32
F3.2327586206896552
sg33
F-0.14224137931034483
sg34
F0.4525862068965517
sg35
S'yellow'
p1607
sba(icurlovision
Stone
p1608
(dp1609
g32
F1.9655172413793103
sg33
F0.7629310344827586
sg34
F0.34913793103448276
sg35
S'red'
p1610
sba(icurlovision
Stone
p1611
(dp1612
g32
F1.1379310344827587
sg33
F0.21982758620689655
sg34
F0.3620689655172414
sg35
S'red'
p1613
sba(icurlovision
Stone
p1614
(dp1615
g32
F1.8103448275862069
sg33
F-0.7112068965517241
sg34
F0.34913793103448276
sg35
S'yellow'
p1616
sba(icurlovision
Stone
p1617
(dp1618
g32
F2.5086206896551726
sg33
F-1.8491379310344827
sg34
F0.5043103448275862
sg35
S'red'
p1619
sbasba(icurlovision
StoneLayout
p1620
(dp1621
g27
F0.4791666666666667
sg28
(lp1622
(icurlovision
Stone
p1623
(dp1624
g32
F-2.196428571428571
sg33
F0.26785714285714285
sg34
F0.4821428571428571
sg35
S'yellow'
p1625
sba(icurlovision
Stone
p1626
(dp1627
g32
F3.267857142857143
sg33
F-0.125
sg34
F0.33928571428571425
sg35
S'yellow'
p1628
sba(icurlovision
Stone
p1629
(dp1630
g32
F1.8035714285714284
sg33
F-0.6964285714285714
sg34
F0.33928571428571425
sg35
S'yellow'
p1631
sba(icurlovision
Stone
p1632
(dp1633
g32
F11.017857142857142
sg33
F0.23214285714285712
sg34
F0.46428571428571425
sg35
S'yellow'
p1634
sba(icurlovision
Stone
p1635
(dp1636
g32
F2.017857142857143
sg33
F0.8035714285714285
sg34
F0.33928571428571425
sg35
S'red'
p1637
sba(icurlovision
Stone
p1638
(dp1639
g32
F1.1607142857142856
sg33
F0.23214285714285712
sg34
F0.33928571428571425
sg35
S'red'
p1640
sba(icurlovision
Stone
p1641
(dp1642
g32
F11.375
sg33
F-12.910714285714285
sg34
F0.3214285714285714
sg35
S'yellow'
p1643
sbasba(icurlovision
StoneLayout
p1644
(dp1645
g27
F0.4791666666666667
sg28
(lp1646
(icurlovision
Stone
p1647
(dp1648
g32
F-2.1710526315789473
sg33
F0.2763157894736842
sg34
F0.3421052631578947
sg35
S'yellow'
p1649
sba(icurlovision
Stone
p1650
(dp1651
g32
F3.2236842105263155
sg33
F-0.11842105263157894
sg34
F0.47368421052631576
sg35
S'yellow'
p1652
sba(icurlovision
Stone
p1653
(dp1654
g32
F1.9605263157894737
sg33
F0.7763157894736842
sg34
F0.4605263157894737
sg35
S'red'
p1655
sba(icurlovision
Stone
p1656
(dp1657
g32
F1.776315789473684
sg33
F-0.7236842105263157
sg34
F0.3289473684210526
sg35
S'yellow'
p1658
sba(icurlovision
Stone
p1659
(dp1660
g32
F1.118421052631579
sg33
F0.25
sg34
F0.35526315789473684
sg35
S'red'
p1661
sbasba(icurlovision
StoneLayout
p1662
(dp1663
g27
F0.4791666666666667
sg28
(lp1664
(icurlovision
Stone
p1665
(dp1666
g32
F1.1186440677966103
sg33
F0.2542372881355932
sg34
F0.3432203389830509
sg35
S'red'
p1667
sba(icurlovision
Stone
p1668
(dp1669
g32
F2.669491525423729
sg33
F-0.5593220338983051
sg34
F0.3305084745762712
sg35
S'yellow'
p1670
sba(icurlovision
Stone
p1671
(dp1672
g32
F-4.983050847457627
sg33
F-3.2796610169491527
sg34
F0.3305084745762712
sg35
S'yellow'
p1673
sba(icurlovision
Stone
p1674
(dp1675
g32
F1.957627118644068
sg33
F0.7627118644067797
sg34
F0.35593220338983056
sg35
S'red'
p1676
sba(icurlovision
Stone
p1677
(dp1678
g32
F-2.1610169491525424
sg33
F0.2542372881355932
sg34
F0.3432203389830509
sg35
S'yellow'
p1679
sba(icurlovision
Stone
p1680
(dp1681
g32
F-3.838983050847458
sg33
F6.203389830508475
sg34
F0.4703389830508475
sg35
S'yellow'
p1682
sba(icurlovision
Stone
p1683
(dp1684
g32
F-2.9491525423728815
sg33
F-1.4237288135593222
sg34
F0.48305084745762716
sg35
S'red'
p1685
sbasba(icurlovision
StoneLayout
p1686
(dp1687
g27
F0.4791666666666667
sg28
(lp1688
(icurlovision
Stone
p1689
(dp1690
g32
F-2.153225806451613
sg33
F0.2540322580645161
sg34
F0.3508064516129032
sg35
S'yellow'
p1691
sba(icurlovision
Stone
p1692
(dp1693
g32
F2.2741935483870965
sg33
F6.157258064516129
sg34
F0.32661290322580644
sg35
S'red'
p1694
sba(icurlovision
Stone
p1695
(dp1696
g32
F-3.82258064516129
sg33
F6.157258064516129
sg34
F0.4596774193548387
sg35
S'yellow'
p1697
sba(icurlovision
Stone
p1698
(dp1699
g32
F1.6451612903225805
sg33
F1.0282258064516128
sg34
F0.43548387096774194
sg35
S'red'
p1700
sba(icurlovision
Stone
p1701
(dp1702
g32
F0.4596774193548387
sg33
F0.012096774193548387
sg34
F0.4596774193548387
sg35
S'red'
p1703
sbasba(icurlovision
StoneLayout
p1704
(dp1705
g27
F0.4791666666666667
sg28
(lp1706
(icurlovision
Stone
p1707
(dp1708
g32
F2.3017241379310343
sg33
F6.232758620689655
sg34
F0.33620689655172414
sg35
S'red'
p1709
sba(icurlovision
Stone
p1710
(dp1711
g32
F2.560344827586207
sg33
F1.1896551724137931
sg34
F0.3232758620689655
sg35
S'yellow'
p1712
sba(icurlovision
Stone
p1713
(dp1714
g32
F-2.456896551724138
sg33
F-0.20689655172413793
sg34
F0.46551724137931033
sg35
S'yellow'
p1715
sba(icurlovision
Stone
p1716
(dp1717
g32
F-3.8275862068965516
sg33
F6.206896551724138
sg34
F0.4525862068965517
sg35
S'yellow'
p1718
sba(icurlovision
Stone
p1719
(dp1720
g32
F0.3879310344827586
sg33
F-0.3103448275862069
sg34
F0.33620689655172414
sg35
S'red'
p1721
sbasbasg3
I6
sg166
I1
sba(icurlovision
EndResult
p1722
(dp1723
g2
I5
sg10
(lp1724
(I6
I7
tp1725
a(I5
I5
tp1726
a(I3
I4
tp1727
a(I3
I3
tp1728
a(I2
I3
tp1729
a(I2
I2
tp1730
a(I1
I1
tp1731
a(I0
I1
tp1732
asg22
I8
sg23
(lp1733
(icurlovision
StoneLayout
p1734
(dp1735
g27
F0.4791666666666667
sg28
(lp1736
(icurlovision
Stone
p1737
(dp1738
g32
F12.797872340425531
sg33
F3.223404255319149
sg34
F0.44680851063829785
sg35
S'yellow'
p1739
sba(icurlovision
Stone
p1740
(dp1741
g32
F1.6914893617021276
sg33
F0.22340425531914893
sg34
F0.33510638297872336
sg35
S'red'
p1742
sba(icurlovision
Stone
p1743
(dp1744
g32
F4.276595744680851
sg33
F0.22340425531914893
sg34
F0.4627659574468085
sg35
S'red'
p1745
sbasba(icurlovision
StoneLayout
p1746
(dp1747
g27
F0.4791666666666667
sg28
(lp1748
(icurlovision
Stone
p1749
(dp1750
g32
F-0.8181818181818181
sg33
F0.5454545454545454
sg34
F0.36818181818181817
sg35
S'red'
p1751
sba(icurlovision
Stone
p1752
(dp1753
g32
F-2.618181818181818
sg33
F-7.090909090909091
sg34
F0.3409090909090909
sg35
S'red'
p1754
sba(icurlovision
Stone
p1755
(dp1756
g32
F2.536363636363636
sg33
F-0.10909090909090909
sg34
F0.4636363636363636
sg35
S'red'
p1757
sba(icurlovision
Stone
p1758
(dp1759
g32
F5.045454545454545
sg33
F0.8181818181818181
sg34
F0.3409090909090909
sg35
S'yellow'
p1760
sbasba(icurlovision
StoneLayout
p1761
(dp1762
g27
F0.4791666666666667
sg28
(lp1763
(icurlovision
Stone
p1764
(dp1765
g32
F-3.1422413793103448
sg33
F-0.16810344827586207
sg34
F0.4525862068965517
sg35
S'yellow'
p1766
sba(icurlovision
Stone
p1767
(dp1768
g32
F-0.7370689655172413
sg33
F0.5043103448275862
sg34
F0.4525862068965517
sg35
S'red'
p1769
sba(icurlovision
Stone
p1770
(dp1771
g32
F2.4956896551724137
sg33
F-0.09051724137931035
sg34
F0.3232758620689655
sg35
S'red'
p1772
sbasba(icurlovision
StoneLayout
p1773
(dp1774
g27
F0.4791666666666667
sg28
(lp1775
(icurlovision
Stone
p1776
(dp1777
g32
F-3.1473214285714284
sg33
F-0.17410714285714285
sg34
F0.45535714285714285
sg35
S'yellow'
p1778
sba(icurlovision
Stone
p1779
(dp1780
g32
F2.5044642857142856
sg33
F-0.09375
sg34
F0.46875
sg35
S'red'
p1781
sba(icurlovision
Stone
p1782
(dp1783
g32
F-0.7098214285714285
sg33
F0.5223214285714285
sg34
F0.33482142857142855
sg35
S'red'
p1784
sba(icurlovision
Stone
p1785
(dp1786
g32
F4.21875
sg33
F-0.09375
sg34
F0.3482142857142857
sg35
S'yellow'
p1787
sbasba(icurlovision
StoneLayout
p1788
(dp1789
g27
F0.4791666666666667
sg28
(lp1790
(icurlovision
Stone
p1791
(dp1792
g32
F-3.2368421052631575
sg33
F-0.15789473684210525
sg34
F0.4605263157894737
sg35
S'yellow'
p1793
sba(icurlovision
Stone
p1794
(dp1795
g32
F-0.8157894736842105
sg33
F0.5
sg34
F0.47368421052631576
sg35
S'red'
p1796
sba(icurlovision
Stone
p1797
(dp1798
g32
F2.552631578947368
sg33
F-0.13157894736842105
sg34
F0.47368421052631576
sg35
S'red'
p1799
sbasba(icurlovision
StoneLayout
p1800
(dp1801
g27
F0.4791666666666667
sg28
(lp1802
(icurlovision
Stone
p1803
(dp1804
g32
F-3.0860655737704916
sg33
F-0.1844262295081967
sg34
F0.4426229508196721
sg35
S'yellow'
p1805
sba(icurlovision
Stone
p1806
(dp1807
g32
F1.290983606557377
sg33
F2.987704918032787
sg34
F0.3319672131147541
sg35
S'yellow'
p1808
sba(icurlovision
Stone
p1809
(dp1810
g32
F-0.7254098360655737
sg33
F0.47950819672131145
sg34
F0.3442622950819672
sg35
S'red'
p1811
sbasba(icurlovision
StoneLayout
p1812
(dp1813
g27
F0.4791666666666667
sg28
(lp1814
(icurlovision
Stone
p1815
(dp1816
g32
F-3.2008928571428568
sg33
F-0.1875
sg34
F0.45535714285714285
sg35
S'yellow'
p1817
sba(icurlovision
Stone
p1818
(dp1819
g32
F3.5223214285714284
sg33
F2.8660714285714284
sg34
F0.33482142857142855
sg35
S'yellow'
p1820
sba(icurlovision
Stone
p1821
(dp1822
g32
F-0.8169642857142857
sg33
F0.4821428571428571
sg34
F0.4419642857142857
sg35
S'red'
p1823
sbasba(icurlovision
StoneLayout
p1824
(dp1825
g27
F0.4791666666666667
sg28
(lp1826
(icurlovision
Stone
p1827
(dp1828
g32
F-3.263157894736842
sg33
F-0.14473684210526316
sg34
F0.3289473684210526
sg35
S'yellow'
p1829
sba(icurlovision
Stone
p1830
(dp1831
g32
F1.026315789473684
sg33
F-2.144736842105263
sg34
F0.47368421052631576
sg35
S'red'
p1832
sba(icurlovision
Stone
p1833
(dp1834
g32
F-0.8157894736842105
sg33
F0.513157894736842
sg34
F0.47368421052631576
sg35
S'red'
p1835
sbasbasg3
I6
sg166
I0
sba(icurlovision
EndResult
p1836
(dp1837
g2
I5
sg10
(lp1838
(I7
I7
tp1839
a(I6
I6
tp1840
a(I5
I5
tp1841
a(I4
I3
tp1842
a(I3
I3
tp1843
a(I2
I1
tp1844
a(I1
I1
tp1845
a(I1
I0
tp1846
asg22
I9
sg23
(lp1847
(icurlovision
StoneLayout
p1848
(dp1849
g27
F0.4791666666666667
sg28
(lp1850
(icurlovision
Stone
p1851
(dp1852
g32
F0.61875
sg33
F-0.91875
sg34
F0.44999999999999996
sg35
S'red'
p1853
sba(icurlovision
Stone
p1854
(dp1855
g32
F8.75625
sg33
F0.46875
sg34
F0.43124999999999997
sg35
S'yellow'
p1856
sba(icurlovision
Stone
p1857
(dp1858
g32
F15.393749999999999
sg33
F0.28125
sg34
F0.375
sg35
S'yellow'
p1859
sbasba(icurlovision
StoneLayout
p1860
(dp1861
g27
F0.4791666666666667
sg28
(lp1862
(icurlovision
Stone
p1863
(dp1864
g32
F2.945121951219512
sg33
F0.12804878048780488
sg34
F0.31097560975609756
sg35
S'red'
p1865
sba(icurlovision
Stone
p1866
(dp1867
g32
F8.72560975609756
sg33
F0.45731707317073167
sg34
F0.3292682926829268
sg35
S'yellow'
p1868
sba(icurlovision
Stone
p1869
(dp1870
g32
F0.6036585365853658
sg33
F-0.9329268292682926
sg34
F0.3475609756097561
sg35
S'red'
p1871
sba(icurlovision
Stone
p1872
(dp1873
g32
F15.310975609756097
sg33
F0.274390243902439
sg34
F0.42073170731707316
sg35
S'yellow'
p1874
sbasba(icurlovision
StoneLayout
p1875
(dp1876
g27
F0.4791666666666667
sg28
(lp1877
(icurlovision
Stone
p1878
(dp1879
g32
F8.783653846153847
sg33
F0.5048076923076923
sg34
F0.34615384615384615
sg35
S'yellow'
p1880
sba(icurlovision
Stone
p1881
(dp1882
g32
F-3.591346153846154
sg33
F2.0913461538461537
sg34
F0.4759615384615385
sg35
S'red'
p1883
sba(icurlovision
Stone
p1884
(dp1885
g32
F3.793269230769231
sg33
F-0.12980769230769232
sg34
F0.31730769230769235
sg35
S'yellow'
p1886
sba(icurlovision
Stone
p1887
(dp1888
g32
F0.5913461538461539
sg33
F-0.9375
sg34
F0.34615384615384615
sg35
S'red'
p1889
sbasba(icurlovision
StoneLayout
p1890
(dp1891
g27
F0.4791666666666667
sg28
(lp1892
(icurlovision
Stone
p1893
(dp1894
g32
F0.8382352941176471
sg33
F0.3529411764705882
sg34
F0.3382352941176471
sg35
S'yellow'
p1895
sba(icurlovision
Stone
p1896
(dp1897
g32
F3.8088235294117645
sg33
F-0.14705882352941177
sg34
F0.3529411764705882
sg35
S'yellow'
p1898
sba(icurlovision
Stone
p1899
(dp1900
g32
F8.867647058823529
sg33
F0.5294117647058824
sg34
F0.45588235294117646
sg35
S'yellow'
p1901
sba(icurlovision
Stone
p1902
(dp1903
g32
F-3.691176470588235
sg33
F2.1470588235294117
sg34
F0.3382352941176471
sg35
S'red'
p1904
sba(icurlovision
Stone
p1905
(dp1906
g32
F0.5735294117647058
sg33
F-0.9117647058823529
sg34
F0.47058823529411764
sg35
S'red'
p1907
sbasba(icurlovision
StoneLayout
p1908
(dp1909
g27
F0.4791666666666667
sg28
(lp1910
(icurlovision
Stone
p1911
(dp1912
g32
F-3.7199999999999998
sg33
F2.19
sg34
F0.48
sg35
S'red'
p1913
sba(icurlovision
Stone
p1914
(dp1915
g32
F9.06
sg33
F0.54
sg34
F0.46499999999999997
sg35
S'yellow'
p1916
sba(icurlovision
Stone
p1917
(dp1918
g32
F3.9
sg33
F-0.15
sg34
F0.48
sg35
S'yellow'
p1919
sba(icurlovision
Stone
p1920
(dp1921
g32
F0.6
sg33
F-0.96
sg34
F0.36
sg35
S'red'
p1922
sba(icurlovision
Stone
p1923
(dp1924
g32
F0.87
sg33
F0.32999999999999996
sg34
F0.36
sg35
S'yellow'
p1925
sbasba(icurlovision
StoneLayout
p1926
(dp1927
g27
F0.4791666666666667
sg28
(lp1928
(icurlovision
Stone
p1929
(dp1930
g32
F0.6201923076923077
sg33
F1.3990384615384617
sg34
F0.46153846153846156
sg35
S'yellow'
p1931
sba(icurlovision
Stone
p1932
(dp1933
g32
F7.975961538461539
sg33
F1.0240384615384617
sg34
F0.4326923076923077
sg35
S'yellow'
p1934
sba(icurlovision
Stone
p1935
(dp1936
g32
F0.5625
sg33
F-0.9086538461538463
sg34
F0.44711538461538464
sg35
S'red'
p1937
sba(icurlovision
Stone
p1938
(dp1939
g32
F-3.5336538461538463
sg33
F2.0336538461538463
sg34
F0.3028846153846154
sg35
S'red'
p1940
sbasba(icurlovision
StoneLayout
p1941
(dp1942
g27
F0.4791666666666667
sg28
(lp1943
(icurlovision
Stone
p1944
(dp1945
g32
F0.6336206896551724
sg33
F1.4612068965517242
sg34
F0.33620689655172414
sg35
S'yellow'
p1946
sba(icurlovision
Stone
p1947
(dp1948
g32
F-3.6077586206896552
sg33
F2.1077586206896552
sg34
F0.34913793103448276
sg35
S'red'
p1949
sba(icurlovision
Stone
p1950
(dp1951
g32
F0.5818965517241379
sg33
F-0.9439655172413793
sg34
F0.3232758620689655
sg35
S'red'
p1952
sbasba(icurlovision
StoneLayout
p1953
(dp1954
g27
F0.4791666666666667
sg28
(lp1955
(icurlovision
Stone
p1956
(dp1957
g32
F0.6428571428571428
sg33
F1.419642857142857
sg34
F0.45535714285714285
sg35
S'yellow'
p1958
sba(icurlovision
Stone
p1959
(dp1960
g32
F0.9910714285714285
sg33
F-2.0357142857142856
sg34
F0.33482142857142855
sg35
S'yellow'
p1961
sba(icurlovision
Stone
p1962
(dp1963
g32
F-3.5625
sg33
F2.089285714285714
sg34
F0.33482142857142855
sg35
S'red'
p1964
sbasbasg3
I7
sg166
I1
sba(icurlovision
EndResult
p1965
(dp1966
g2
I5
sg10
(lp1967
(I7
I8
tp1968
a(I7
I7
tp1969
a(I6
I7
tp1970
a(I6
I6
tp1971
a(I5
I5
tp1972
a(I4
I5
tp1973
a(I4
I4
tp1974
a(I3
I4
tp1975
a(I3
I3
tp1976
a(I2
I3
tp1977
a(I2
I2
tp1978
a(I1
I2
tp1979
a(I1
I1
tp1980
a(I0
I1
tp1981
asg22
I10
sg23
(lp1982
(icurlovision
StoneLayout
p1983
(dp1984
g27
F0.4791666666666667
sg28
(lp1985
(icurlovision
Stone
p1986
(dp1987
g32
F-0.0
sg33
F0.24193548387096775
sg34
F0.32661290322580644
sg35
S'red'
p1988
sbasba(icurlovision
StoneLayout
p1989
(dp1990
g27
F0.4791666666666667
sg28
(lp1991
(icurlovision
Stone
p1992
(dp1993
g32
F-0.03
sg33
F0.24
sg34
F0.36
sg35
S'red'
p1994
sba(icurlovision
Stone
p1995
(dp1996
g32
F12.03
sg33
F2.9099999999999997
sg34
F0.435
sg35
S'yellow'
p1997
sbasba(icurlovision
StoneLayout
p1998
(dp1999
g27
F0.4791666666666667
sg28
(lp2000
(icurlovision
Stone
p2001
(dp2002
g32
F-0.03125
sg33
F0.265625
sg34
F0.453125
sg35
S'red'
p2003
sba(icurlovision
Stone
p2004
(dp2005
g32
F12.21875
sg33
F2.953125
sg34
F0.28125
sg35
S'yellow'
p2006
sba(icurlovision
Stone
p2007
(dp2008
g32
F-2.53125
sg33
F2.671875
sg34
F0.34375
sg35
S'red'
p2009
sbasba(icurlovision
StoneLayout
p2010
(dp2011
g27
F0.4791666666666667
sg28
(lp2012
(icurlovision
Stone
p2013
(dp2014
g32
F-0.0
sg33
F0.25
sg34
F0.46875
sg35
S'red'
p2015
sba(icurlovision
Stone
p2016
(dp2017
g32
F2.5625
sg33
F3.53125
sg34
F0.34375
sg35
S'yellow'
p2018
sba(icurlovision
Stone
p2019
(dp2020
g32
F12.375
sg33
F2.96875
sg34
F0.46875
sg35
S'yellow'
p2021
sbasba(icurlovision
StoneLayout
p2022
(dp2023
g27
F0.4791666666666667
sg28
(lp2024
(icurlovision
Stone
p2025
(dp2026
g32
F3.325
sg33
F3.45
sg34
F0.4375
sg35
S'yellow'
p2027
sba(icurlovision
Stone
p2028
(dp2029
g32
F-0.0
sg33
F0.275
sg34
F0.325
sg35
S'red'
p2030
sba(icurlovision
Stone
p2031
(dp2032
g32
F2.325
sg33
F3.5
sg34
F0.3375
sg35
S'yellow'
p2033
sbasba(icurlovision
StoneLayout
p2034
(dp2035
g27
F0.4791666666666667
sg28
(lp2036
(icurlovision
Stone
p2037
(dp2038
g32
F-0.0125
sg33
F0.2625
sg34
F0.45
sg35
S'red'
p2039
sba(icurlovision
Stone
p2040
(dp2041
g32
F-0.8625
sg33
F-2.0875
sg34
F0.45
sg35
S'red'
p2042
sba(icurlovision
Stone
p2043
(dp2044
g32
F2.9875000000000003
sg33
F5.7625
sg34
F0.4625
sg35
S'yellow'
p2045
sba(icurlovision
Stone
p2046
(dp2047
g32
F-5.5125
sg33
F5.5375000000000005
sg34
F0.4625
sg35
S'yellow'
p2048
sbasba(icurlovision
StoneLayout
p2049
(dp2050
g27
F0.4791666666666667
sg28
(lp2051
(icurlovision
Stone
p2052
(dp2053
g32
F-0.01171875
sg33
F0.26953125
sg34
F0.4453125
sg35
S'red'
p2054
sba(icurlovision
Stone
p2055
(dp2056
g32
F2.70703125
sg33
F6.48046875
sg34
F0.4453125
sg35
S'yellow'
p2057
sba(icurlovision
Stone
p2058
(dp2059
g32
F0.62109375
sg33
F5.09765625
sg34
F0.328125
sg35
S'yellow'
p2060
sbasba(icurlovision
StoneLayout
p2061
(dp2062
g27
F0.4791666666666667
sg28
(lp2063
(icurlovision
Stone
p2064
(dp2065
g32
F2.692622950819672
sg33
F6.467213114754098
sg34
F0.4426229508196721
sg35
S'yellow'
p2066
sba(icurlovision
Stone
p2067
(dp2068
g32
F-0.012295081967213115
sg33
F0.2704918032786885
sg34
F0.35655737704918034
sg35
S'red'
p2069
sbasba(icurlovision
StoneLayout
p2070
(dp2071
g27
F0.4791666666666667
sg28
(lp2072
(icurlovision
Stone
p2073
(dp2074
g32
F3.819444444444444
sg33
F6.069444444444444
sg34
F0.4444444444444444
sg35
S'yellow'
p2075
sba(icurlovision
Stone
p2076
(dp2077
g32
F-0.013888888888888888
sg33
F0.2361111111111111
sg34
F0.4583333333333333
sg35
S'red'
p2078
sba(icurlovision
Stone
p2079
(dp2080
g32
F2.763888888888889
sg33
F6.541666666666666
sg34
F0.4722222222222222
sg35
S'yellow'
p2081
sbasba(icurlovision
StoneLayout
p2082
(dp2083
g27
F0.4791666666666667
sg28
(lp2084
(icurlovision
Stone
p2085
(dp2086
g32
F0.08035714285714285
sg33
F-3.0535714285714284
sg34
F0.3482142857142857
sg35
S'red'
p2087
sba(icurlovision
Stone
p2088
(dp2089
g32
F3.883928571428571
sg33
F6.241071428571428
sg34
F0.46875
sg35
S'yellow'
p2090
sba(icurlovision
Stone
p2091
(dp2092
g32
F-0.026785714285714284
sg33
F0.26785714285714285
sg34
F0.46875
sg35
S'red'
p2093
sba(icurlovision
Stone
p2094
(dp2095
g32
F2.7857142857142856
sg33
F6.723214285714286
sg34
F0.46875
sg35
S'yellow'
p2096
sbasba(icurlovision
StoneLayout
p2097
(dp2098
g27
F0.4791666666666667
sg28
(lp2099
(icurlovision
Stone
p2100
(dp2101
g32
F0.8483606557377049
sg33
F3.1967213114754096
sg34
F0.3073770491803279
sg35
S'yellow'
p2102
sba(icurlovision
Stone
p2103
(dp2104
g32
F0.11065573770491803
sg33
F-3.0
sg34
F0.45491803278688525
sg35
S'red'
p2105
sba(icurlovision
Stone
p2106
(dp2107
g32
F-0.036885245901639344
sg33
F0.2704918032786885
sg34
F0.3319672131147541
sg35
S'red'
p2108
sba(icurlovision
Stone
p2109
(dp2110
g32
F3.4795081967213113
sg33
F3.5655737704918034
sg34
F0.3319672131147541
sg35
S'yellow'
p2111
sbasba(icurlovision
StoneLayout
p2112
(dp2113
g27
F0.4791666666666667
sg28
(lp2114
(icurlovision
Stone
p2115
(dp2116
g32
F0.8483606557377049
sg33
F3.2459016393442623
sg34
F0.4672131147540983
sg35
S'yellow'
p2117
sba(icurlovision
Stone
p2118
(dp2119
g32
F0.0860655737704918
sg33
F-3.122950819672131
sg34
F0.35655737704918034
sg35
S'red'
p2120
sba(icurlovision
Stone
p2121
(dp2122
g32
F-0.012295081967213115
sg33
F0.2459016393442623
sg34
F0.3319672131147541
sg35
S'red'
p2123
sba(icurlovision
Stone
p2124
(dp2125
g32
F1.1434426229508197
sg33
F-2.3852459016393444
sg34
F0.4672131147540983
sg35
S'red'
p2126
sbasba(icurlovision
StoneLayout
p2127
(dp2128
g27
F0.4791666666666667
sg28
(lp2129
(icurlovision
Stone
p2130
(dp2131
g32
F0.7976190476190476
sg33
F3.238095238095238
sg34
F0.3333333333333333
sg35
S'yellow'
p2132
sba(icurlovision
Stone
p2133
(dp2134
g32
F1.226190476190476
sg33
F2.214285714285714
sg34
F0.3333333333333333
sg35
S'yellow'
p2135
sba(icurlovision
Stone
p2136
(dp2137
g32
F-2.1547619047619047
sg33
F-0.45238095238095233
sg34
F0.46428571428571425
sg35
S'red'
p2138
sbasba(icurlovision
StoneLayout
p2139
(dp2140
g27
F0.4791666666666667
sg28
(lp2141
(icurlovision
Stone
p2142
(dp2143
g32
F-4.524193548387097
sg33
F-4.935483870967742
sg34
F0.4596774193548387
sg35
S'red'
p2144
sba(icurlovision
Stone
p2145
(dp2146
g32
F-1.4516129032258065
sg33
F6.459677419354839
sg34
F0.4596774193548387
sg35
S'yellow'
p2147
sba(icurlovision
Stone
p2148
(dp2149
g32
F-5.491935483870968
sg33
F3.4596774193548385
sg34
F0.47177419354838707
sg35
S'red'
p2150
sba(icurlovision
Stone
p2151
(dp2152
g32
F-4.814516129032258
sg33
F-0.9919354838709677
sg34
F0.3508064516129032
sg35
S'yellow'
p2153
sba(icurlovision
Stone
p2154
(dp2155
g32
F-2.153225806451613
sg33
F-0.43548387096774194
sg34
F0.4475806451612903
sg35
S'red'
p2156
sbasbasg3
I7
sg166
I0
sbasb.