(icurlovision
MatchResult
p0
(dp1
S'yel_score'
p2
I8
sS'name'
p3
S'VideoLibrary/PyeongChang.Olympics.2018.curling.mixed.doubles.round-robin.tiebreaker.1080p.NBC.WEB-DL-FINFUNGUS.mp4'
p4
sS'end_results'
p5
(lp6
(icurlovision
EndResult
p7
(dp8
g2
I0
sS'stones_left'
p9
(lp10
(I4
I4
tp11
a(I4
I3
tp12
a(I3
I3
tp13
a(I3
I2
tp14
a(I2
I2
tp15
a(I2
I1
tp16
a(I1
I1
tp17
a(I1
I0
tp18
asS'end_num'
p19
I1
sS'stone_layouts'
p20
(lp21
(icurlovision
StoneLayout
p22
(dp23
S'stone_radius'
p24
F0.4791666666666667
sS'stones'
p25
(lp26
(icurlovision
Stone
p27
(dp28
S'y'
p29
F10.421875
sS'x'
p30
F0.0625
sS'r'
p31
F0.421875
sS'color'
p32
S'yellow'
p33
sba(icurlovision
Stone
p34
(dp35
g29
F1.109375
sg30
F-0.5625
sg31
F0.3125
sg32
S'yellow'
p36
sba(icurlovision
Stone
p37
(dp38
g29
F2.078125
sg30
F-0.15625
sg31
F0.4375
sg32
S'red'
p39
sba(icurlovision
Stone
p40
(dp41
g29
F-1.546875
sg30
F-0.03125
sg31
F0.3125
sg32
S'red'
p42
sbasba(icurlovision
StoneLayout
p43
(dp44
g24
F0.4791666666666667
sg25
(lp45
(icurlovision
Stone
p46
(dp47
g29
F10.5
sg30
F0.07978723404255318
sg31
F0.4148936170212766
sg32
S'yellow'
p48
sba(icurlovision
Stone
p49
(dp50
g29
F-1.5957446808510638
sg30
F-0.015957446808510637
sg31
F0.3191489361702127
sg32
S'red'
p51
sba(icurlovision
Stone
p52
(dp53
g29
F2.074468085106383
sg30
F-0.14361702127659573
sg31
F0.44680851063829785
sg32
S'red'
p54
sba(icurlovision
Stone
p55
(dp56
g29
F1.1170212765957446
sg30
F-0.526595744680851
sg31
F0.33510638297872336
sg32
S'yellow'
p57
sba(icurlovision
Stone
p58
(dp59
g29
F3.9893617021276593
sg30
F-0.14361702127659573
sg31
F0.3031914893617021
sg32
S'yellow'
p60
sbasba(icurlovision
StoneLayout
p61
(dp62
g24
F0.4791666666666667
sg25
(lp63
(icurlovision
Stone
p64
(dp65
g29
F8.533018867924529
sg30
F-4.34433962264151
sg31
F0.4528301886792453
sg32
S'red'
p66
sba(icurlovision
Stone
p67
(dp68
g29
F1.0896226415094339
sg30
F-0.5518867924528302
sg31
F0.2830188679245283
sg32
S'yellow'
p69
sba(icurlovision
Stone
p70
(dp71
g29
F2.0235849056603774
sg30
F-0.09905660377358491
sg31
F0.42452830188679247
sg32
S'red'
p72
sba(icurlovision
Stone
p73
(dp74
g29
F-1.570754716981132
sg30
F0.04245283018867925
sg31
F0.32547169811320753
sg32
S'red'
p75
sba(icurlovision
Stone
p76
(dp77
g29
F3.8915094339622645
sg30
F-0.09905660377358491
sg31
F0.3113207547169811
sg32
S'yellow'
p78
sbasba(icurlovision
StoneLayout
p79
(dp80
g24
F0.4791666666666667
sg25
(lp81
(icurlovision
Stone
p82
(dp83
g29
F8.738372093023255
sg30
F-4.4476744186046515
sg31
F0.41860465116279066
sg32
S'red'
p84
sba(icurlovision
Stone
p85
(dp86
g29
F1.0988372093023255
sg30
F-0.5406976744186046
sg31
F0.3488372093023256
sg32
S'yellow'
p87
sba(icurlovision
Stone
p88
(dp89
g29
F12.470930232558139
sg30
F-0.05232558139534883
sg31
F0.41860465116279066
sg32
S'yellow'
p90
sba(icurlovision
Stone
p91
(dp92
g29
F-1.6569767441860466
sg30
F0.01744186046511628
sg31
F0.47093023255813954
sg32
S'red'
p93
sba(icurlovision
Stone
p94
(dp95
g29
F2.1104651162790695
sg30
F-0.12209302325581395
sg31
F0.3488372093023256
sg32
S'red'
p96
sba(icurlovision
Stone
p97
(dp98
g29
F4.02906976744186
sg30
F-0.0872093023255814
sg31
F0.3313953488372093
sg32
S'yellow'
p99
sbasba(icurlovision
StoneLayout
p100
(dp101
g24
F0.4791666666666667
sg25
(lp102
(icurlovision
Stone
p103
(dp104
g29
F8.671875
sg30
F-4.546875
sg31
F0.453125
sg32
S'red'
p105
sba(icurlovision
Stone
p106
(dp107
g29
F-1.640625
sg30
F-0.015625
sg31
F0.34375
sg32
S'red'
p108
sba(icurlovision
Stone
p109
(dp110
g29
F2.140625
sg30
F-0.171875
sg31
F0.328125
sg32
S'red'
p111
sba(icurlovision
Stone
p112
(dp113
g29
F1.140625
sg30
F-0.578125
sg31
F0.46875
sg32
S'yellow'
p114
sba(icurlovision
Stone
p115
(dp116
g29
F4.078125
sg30
F-0.140625
sg31
F0.328125
sg32
S'yellow'
p117
sba(icurlovision
Stone
p118
(dp119
g29
F9.515625
sg30
F-6.796875
sg31
F0.28125
sg32
S'yellow'
p120
sbasba(icurlovision
StoneLayout
p121
(dp122
g24
F0.4791666666666667
sg25
(lp123
(icurlovision
Stone
p124
(dp125
g29
F10.71195652173913
sg30
F-0.24456521739130435
sg31
F0.27717391304347827
sg32
S'yellow'
p126
sba(icurlovision
Stone
p127
(dp128
g29
F8.625
sg30
F-4.516304347826087
sg31
F0.44021739130434784
sg32
S'red'
p129
sba(icurlovision
Stone
p130
(dp131
g29
F-1.6141304347826086
sg30
F-0.016304347826086956
sg31
F0.32608695652173914
sg32
S'red'
p132
sba(icurlovision
Stone
p133
(dp134
g29
F1.125
sg30
F-0.5380434782608695
sg31
F0.42391304347826086
sg32
S'yellow'
p135
sba(icurlovision
Stone
p136
(dp137
g29
F4.092391304347826
sg30
F-0.1467391304347826
sg31
F0.32608695652173914
sg32
S'yellow'
p138
sba(icurlovision
Stone
p139
(dp140
g29
F2.135869565217391
sg30
F-0.1793478260869565
sg31
F0.34239130434782605
sg32
S'red'
p141
sbasba(icurlovision
StoneLayout
p142
(dp143
g24
F0.4791666666666667
sg25
(lp144
(icurlovision
Stone
p145
(dp146
g29
F8.58
sg30
F-4.5
sg31
F0.44999999999999996
sg32
S'red'
p147
sba(icurlovision
Stone
p148
(dp149
g29
F2.1
sg30
F-0.15
sg31
F0.32999999999999996
sg32
S'red'
p150
sba(icurlovision
Stone
p151
(dp152
g29
F1.14
sg30
F-0.54
sg31
F0.32999999999999996
sg32
S'yellow'
p153
sba(icurlovision
Stone
p154
(dp155
g29
F-1.5899999999999999
sg30
F0.03
sg31
F0.315
sg32
S'red'
p156
sba(icurlovision
Stone
p157
(dp158
g29
F4.05
sg30
F-0.09
sg31
F0.32999999999999996
sg32
S'yellow'
p159
sbasba(icurlovision
StoneLayout
p160
(dp161
g24
F0.4791666666666667
sg25
(lp162
(icurlovision
Stone
p163
(dp164
g29
F2.1333333333333333
sg30
F-0.16666666666666666
sg31
F0.4666666666666667
sg32
S'red'
p165
sba(icurlovision
Stone
p166
(dp167
g29
F8.6
sg30
F-4.5
sg31
F0.43333333333333335
sg32
S'red'
p168
sba(icurlovision
Stone
p169
(dp170
g29
F1.1666666666666667
sg30
F-0.6
sg31
F0.3333333333333333
sg32
S'yellow'
p171
sba(icurlovision
Stone
p172
(dp173
g29
F11.033333333333333
sg30
F-0.23333333333333334
sg31
F0.3333333333333333
sg32
S'yellow'
p174
sba(icurlovision
Stone
p175
(dp176
g29
F-1.5666666666666667
sg30
F-0.03333333333333333
sg31
F0.3
sg32
S'red'
p177
sba(icurlovision
Stone
p178
(dp179
g29
F4.1
sg30
F-0.13333333333333333
sg31
F0.3333333333333333
sg32
S'yellow'
p180
sbasbasS'red_score'
p181
I2
sS'red_hammer'
p182
I1
sba(icurlovision
EndResult
p183
(dp184
g2
I3
sg9
(lp185
(I4
I5
tp186
a(I4
I4
tp187
a(I3
I4
tp188
a(I3
I3
tp189
a(I2
I3
tp190
a(I2
I2
tp191
a(I1
I2
tp192
a(I1
I1
tp193
a(I0
I1
tp194
asg19
I2
sg20
(lp195
(icurlovision
StoneLayout
p196
(dp197
g24
F0.4791666666666667
sg25
(lp198
(icurlovision
Stone
p199
(dp200
g29
F-3.0833333333333335
sg30
F-0.35
sg31
F0.4666666666666667
sg32
S'yellow'
p201
sba(icurlovision
Stone
p202
(dp203
g29
F10.75
sg30
F0.11666666666666667
sg31
F0.43333333333333335
sg32
S'red'
p204
sba(icurlovision
Stone
p205
(dp206
g29
F-0.6833333333333333
sg30
F0.15
sg31
F0.35
sg32
S'red'
p207
sbasba(icurlovision
StoneLayout
p208
(dp209
g24
F0.4791666666666667
sg25
(lp210
(icurlovision
Stone
p211
(dp212
g29
F-3.153409090909091
sg30
F-0.30681818181818177
sg31
F0.375
sg32
S'yellow'
p213
sba(icurlovision
Stone
p214
(dp215
g29
F1.721590909090909
sg30
F-0.30681818181818177
sg31
F0.3409090909090909
sg32
S'yellow'
p216
sba(icurlovision
Stone
p217
(dp218
g29
F10.994318181818182
sg30
F-0.13636363636363635
sg31
F0.4602272727272727
sg32
S'red'
p219
sba(icurlovision
Stone
p220
(dp221
g29
F-0.7329545454545454
sg30
F0.17045454545454544
sg31
F0.47727272727272724
sg32
S'red'
p222
sbasba(icurlovision
StoneLayout
p223
(dp224
g24
F0.4791666666666667
sg25
(lp225
(icurlovision
Stone
p226
(dp227
g29
F-3.1141304347826084
sg30
F-0.34239130434782605
sg31
F0.34239130434782605
sg32
S'yellow'
p228
sba(icurlovision
Stone
p229
(dp230
g29
F1.7445652173913042
sg30
F-0.24456521739130435
sg31
F0.32608695652173914
sg32
S'yellow'
p231
sba(icurlovision
Stone
p232
(dp233
g29
F3.016304347826087
sg30
F0.7010869565217391
sg31
F0.358695652173913
sg32
S'red'
p234
sba(icurlovision
Stone
p235
(dp236
g29
F10.809782608695652
sg30
F0.048913043478260865
sg31
F0.44021739130434784
sg32
S'red'
p237
sba(icurlovision
Stone
p238
(dp239
g29
F-0.733695652173913
sg30
F0.21195652173913043
sg31
F0.30978260869565216
sg32
S'red'
p240
sba(icurlovision
Stone
p241
(dp242
g29
F10.744565217391305
sg30
F-5.625
sg31
F0.2934782608695652
sg32
S'yellow'
p243
sbasba(icurlovision
StoneLayout
p244
(dp245
g24
F0.4791666666666667
sg25
(lp246
(icurlovision
Stone
p247
(dp248
g29
F2.6590909090909087
sg30
F-0.4431818181818181
sg31
F0.4602272727272727
sg32
S'yellow'
p249
sba(icurlovision
Stone
p250
(dp251
g29
F10.909090909090908
sg30
F0.10227272727272727
sg31
F0.4431818181818181
sg32
S'red'
p252
sba(icurlovision
Stone
p253
(dp254
g29
F3.0
sg30
F0.7159090909090908
sg31
F0.28977272727272724
sg32
S'red'
p255
sba(icurlovision
Stone
p256
(dp257
g29
F0.23863636363636362
sg30
F0.06818181818181818
sg31
F0.3579545454545454
sg32
S'yellow'
p258
sba(icurlovision
Stone
p259
(dp260
g29
F-1.159090909090909
sg30
F0.20454545454545453
sg31
F0.32386363636363635
sg32
S'red'
p261
sbasba(icurlovision
StoneLayout
p262
(dp263
g24
F0.4791666666666667
sg25
(lp264
(icurlovision
Stone
p265
(dp266
g29
F-3.1046511627906974
sg30
F-0.313953488372093
sg31
F0.47093023255813954
sg32
S'yellow'
p267
sba(icurlovision
Stone
p268
(dp269
g29
F8.720930232558139
sg30
F-0.872093023255814
sg31
F0.2965116279069767
sg32
S'red'
p270
sba(icurlovision
Stone
p271
(dp272
g29
F0.2441860465116279
sg30
F0.10465116279069767
sg31
F0.3313953488372093
sg32
S'yellow'
p273
sba(icurlovision
Stone
p274
(dp275
g29
F2.6511627906976742
sg30
F-0.41860465116279066
sg31
F0.3313953488372093
sg32
S'yellow'
p276
sba(icurlovision
Stone
p277
(dp278
g29
F11.476744186046512
sg30
F0.6976744186046512
sg31
F0.41860465116279066
sg32
S'red'
p279
sba(icurlovision
Stone
p280
(dp281
g29
F3.0
sg30
F0.7325581395348837
sg31
F0.45348837209302323
sg32
S'red'
p282
sba(icurlovision
Stone
p283
(dp284
g29
F-1.1162790697674418
sg30
F0.27906976744186046
sg31
F0.3313953488372093
sg32
S'red'
p285
sbasba(icurlovision
StoneLayout
p286
(dp287
g24
F0.4791666666666667
sg25
(lp288
(icurlovision
Stone
p289
(dp290
g29
F-3.0511363636363633
sg30
F-0.30681818181818177
sg31
F0.4602272727272727
sg32
S'yellow'
p291
sba(icurlovision
Stone
p292
(dp293
g29
F2.6079545454545454
sg30
F-0.40909090909090906
sg31
F0.3409090909090909
sg32
S'yellow'
p294
sba(icurlovision
Stone
p295
(dp296
g29
F0.22159090909090906
sg30
F0.10227272727272727
sg31
F0.4602272727272727
sg32
S'yellow'
p297
sba(icurlovision
Stone
p298
(dp299
g29
F2.9488636363636362
sg30
F0.7159090909090908
sg31
F0.4261363636363636
sg32
S'red'
p300
sba(icurlovision
Stone
p301
(dp302
g29
F11.369318181818182
sg30
F0.7159090909090908
sg31
F0.4261363636363636
sg32
S'red'
p303
sba(icurlovision
Stone
p304
(dp305
g29
F-1.1420454545454544
sg30
F0.20454545454545453
sg31
F0.3579545454545454
sg32
S'red'
p306
sbasba(icurlovision
StoneLayout
p307
(dp308
g24
F0.4791666666666667
sg25
(lp309
(icurlovision
Stone
p310
(dp311
g29
F11.348684210526315
sg30
F0.6710526315789473
sg31
F0.43421052631578944
sg32
S'red'
p312
sba(icurlovision
Stone
p313
(dp314
g29
F2.901315789473684
sg30
F0.7105263157894737
sg31
F0.4539473684210526
sg32
S'red'
p315
sba(icurlovision
Stone
p316
(dp317
g29
F-0.019736842105263157
sg30
F-6.75
sg31
F0.43421052631578944
sg32
S'red'
p318
sba(icurlovision
Stone
p319
(dp320
g29
F-0.3355263157894737
sg30
F1.026315789473684
sg31
F0.3355263157894737
sg32
S'yellow'
p321
sba(icurlovision
Stone
p322
(dp323
g29
F1.0855263157894737
sg30
F-0.15789473684210525
sg31
F0.35526315789473684
sg32
S'yellow'
p324
sbasba(icurlovision
StoneLayout
p325
(dp326
g24
F0.4791666666666667
sg25
(lp327
(icurlovision
Stone
p328
(dp329
g29
F9.9375
sg30
F-0.825
sg31
F0.44999999999999996
sg32
S'yellow'
p330
sba(icurlovision
Stone
p331
(dp332
g29
F2.9625
sg30
F0.6749999999999999
sg31
F0.44999999999999996
sg32
S'red'
p333
sba(icurlovision
Stone
p334
(dp335
g29
F-0.0
sg30
F-6.8625
sg31
F0.44999999999999996
sg32
S'red'
p336
sba(icurlovision
Stone
p337
(dp338
g29
F11.4375
sg30
F0.6749999999999999
sg31
F0.43124999999999997
sg32
S'red'
p339
sba(icurlovision
Stone
p340
(dp341
g29
F-0.3
sg30
F0.975
sg31
F0.35625
sg32
S'yellow'
p342
sba(icurlovision
Stone
p343
(dp344
g29
F1.125
sg30
F-0.15
sg31
F0.33749999999999997
sg32
S'yellow'
p345
sbasba(icurlovision
StoneLayout
p346
(dp347
g24
F0.4791666666666667
sg25
(lp348
(icurlovision
Stone
p349
(dp350
g29
F10.397727272727272
sg30
F-2.693181818181818
sg31
F0.4261363636363636
sg32
S'red'
p351
sba(icurlovision
Stone
p352
(dp353
g29
F9.647727272727272
sg30
F-0.8181818181818181
sg31
F0.32386363636363635
sg32
S'yellow'
p354
sba(icurlovision
Stone
p355
(dp356
g29
F2.829545454545454
sg30
F0.6818181818181818
sg31
F0.4261363636363636
sg32
S'red'
p357
sba(icurlovision
Stone
p358
(dp359
g29
F-0.03409090909090909
sg30
F-6.681818181818182
sg31
F0.4602272727272727
sg32
S'red'
p360
sba(icurlovision
Stone
p361
(dp362
g29
F-0.3409090909090909
sg30
F0.9545454545454545
sg31
F0.4602272727272727
sg32
S'yellow'
p363
sba(icurlovision
Stone
p364
(dp365
g29
F1.0568181818181817
sg30
F-0.13636363636363635
sg31
F0.32386363636363635
sg32
S'yellow'
p366
sba(icurlovision
Stone
p367
(dp368
g29
F-5.215909090909091
sg30
F4.1931818181818175
sg31
F0.3409090909090909
sg32
S'red'
p369
sbasbasg181
I2
sg182
I0
sba(icurlovision
EndResult
p370
(dp371
g2
I3
sg9
(lp372
(I5
I4
tp373
a(I4
I3
tp374
a(I3
I3
tp375
a(I3
I2
tp376
a(I2
I2
tp377
a(I2
I1
tp378
asg19
I3
sg20
(lp379
(icurlovision
StoneLayout
p380
(dp381
g24
F0.4791666666666667
sg25
(lp382
(icurlovision
Stone
p383
(dp384
g29
F3.4148936170212765
sg30
F-0.6702127659574467
sg31
F0.44680851063829785
sg32
S'yellow'
p385
sba(icurlovision
Stone
p386
(dp387
g29
F10.787234042553191
sg30
F0.1276595744680851
sg31
F0.3670212765957446
sg32
S'yellow'
p388
sba(icurlovision
Stone
p389
(dp390
g29
F-1.627659574468085
sg30
F0.0
sg31
F0.351063829787234
sg32
S'red'
p391
sbasba(icurlovision
StoneLayout
p392
(dp393
g24
F0.4791666666666667
sg25
(lp394
(icurlovision
Stone
p395
(dp396
g29
F3.3
sg30
F-0.63
sg31
F0.315
sg32
S'yellow'
p397
sba(icurlovision
Stone
p398
(dp399
g29
F10.379999999999999
sg30
F0.15
sg31
F0.345
sg32
S'yellow'
p400
sba(icurlovision
Stone
p401
(dp402
g29
F0.99
sg30
F-0.21
sg31
F0.435
sg32
S'red'
p403
sba(icurlovision
Stone
p404
(dp405
g29
F-1.56
sg30
F0.06
sg31
F0.315
sg32
S'red'
p406
sba(icurlovision
Stone
p407
(dp408
g29
F4.9799999999999995
sg30
F0.6
sg31
F0.32999999999999996
sg32
S'yellow'
p409
sbasba(icurlovision
StoneLayout
p410
(dp411
g24
F0.4791666666666667
sg25
(lp412
(icurlovision
Stone
p413
(dp414
g29
F3.4261363636363633
sg30
F-0.6647727272727272
sg31
F0.32386363636363635
sg32
S'yellow'
p415
sba(icurlovision
Stone
p416
(dp417
g29
F10.6875
sg30
F0.08522727272727272
sg31
F0.32386363636363635
sg32
S'yellow'
p418
sba(icurlovision
Stone
p419
(dp420
g29
F11.676136363636363
sg30
F0.3579545454545454
sg31
F0.28977272727272724
sg32
S'red'
p421
sba(icurlovision
Stone
p422
(dp423
g29
F1.0056818181818181
sg30
F-0.2556818181818182
sg31
F0.4602272727272727
sg32
S'red'
p424
sba(icurlovision
Stone
p425
(dp426
g29
F-1.6193181818181817
sg30
F-0.017045454545454544
sg31
F0.32386363636363635
sg32
S'red'
p427
sba(icurlovision
Stone
p428
(dp429
g29
F5.164772727272727
sg30
F0.5965909090909091
sg31
F0.32386363636363635
sg32
S'yellow'
p430
sbasba(icurlovision
StoneLayout
p431
(dp432
g24
F0.4791666666666667
sg25
(lp433
(icurlovision
Stone
p434
(dp435
g29
F10.682432432432433
sg30
F0.060810810810810814
sg31
F0.30405405405405406
sg32
S'yellow'
p436
sba(icurlovision
Stone
p437
(dp438
g29
F11.614864864864865
sg30
F0.3445945945945946
sg31
F0.28378378378378377
sg32
S'red'
p439
sba(icurlovision
Stone
p440
(dp441
g29
F-0.75
sg30
F-0.14189189189189189
sg31
F0.26351351351351354
sg32
S'red'
p442
sba(icurlovision
Stone
p443
(dp444
g29
F3.3040540540540544
sg30
F-2.4932432432432434
sg31
F0.32432432432432434
sg32
S'yellow'
p445
sba(icurlovision
Stone
p446
(dp447
g29
F1.8445945945945947
sg30
F0.22297297297297297
sg31
F0.3445945945945946
sg32
S'yellow'
p448
sba(icurlovision
Stone
p449
(dp450
g29
F5.168918918918919
sg30
F0.5472972972972974
sg31
F0.3445945945945946
sg32
S'yellow'
p451
sbasba(icurlovision
StoneLayout
p452
(dp453
g24
F0.4791666666666667
sg25
(lp454
(icurlovision
Stone
p455
(dp456
g29
F11.710227272727272
sg30
F0.3579545454545454
sg31
F0.4431818181818181
sg32
S'red'
p457
sba(icurlovision
Stone
p458
(dp459
g29
F10.755681818181817
sg30
F0.08522727272727272
sg31
F0.3409090909090909
sg32
S'yellow'
p460
sba(icurlovision
Stone
p461
(dp462
g29
F1.6193181818181817
sg30
F0.4261363636363636
sg31
F0.32386363636363635
sg32
S'yellow'
p463
sba(icurlovision
Stone
p464
(dp465
g29
F-0.7329545454545454
sg30
F-0.15340909090909088
sg31
F0.4431818181818181
sg32
S'red'
p466
sba(icurlovision
Stone
p467
(dp468
g29
F3.3238636363636362
sg30
F-2.4715909090909087
sg31
F0.4602272727272727
sg32
S'yellow'
p469
sba(icurlovision
Stone
p470
(dp471
g29
F1.8238636363636362
sg30
F-0.8693181818181818
sg31
F0.4602272727272727
sg32
S'red'
p472
sba(icurlovision
Stone
p473
(dp474
g29
F5.198863636363636
sg30
F0.5965909090909091
sg31
F0.32386363636363635
sg32
S'yellow'
p475
sbasba(icurlovision
StoneLayout
p476
(dp477
g24
F0.4791666666666667
sg25
(lp478
(icurlovision
Stone
p479
(dp480
g29
F10.865384615384617
sg30
F0.09615384615384616
sg31
F0.46153846153846156
sg32
S'yellow'
p481
sba(icurlovision
Stone
p482
(dp483
g29
F1.6346153846153848
sg30
F0.44230769230769235
sg31
F0.25
sg32
S'yellow'
p484
sba(icurlovision
Stone
p485
(dp486
g29
F11.826923076923078
sg30
F0.3653846153846154
sg31
F0.25
sg32
S'red'
p487
sba(icurlovision
Stone
p488
(dp489
g29
F3.3653846153846154
sg30
F-2.519230769230769
sg31
F0.3269230769230769
sg32
S'yellow'
p490
sba(icurlovision
Stone
p491
(dp492
g29
F0.13461538461538464
sg30
F0.3269230769230769
sg31
F0.4807692307692308
sg32
S'red'
p493
sba(icurlovision
Stone
p494
(dp495
g29
F-0.75
sg30
F-5.25
sg31
F0.3076923076923077
sg32
S'yellow'
p496
sba(icurlovision
Stone
p497
(dp498
g29
F5.25
sg30
F0.5961538461538461
sg31
F0.3269230769230769
sg32
S'yellow'
p499
sba(icurlovision
Stone
p500
(dp501
g29
F-2.557692307692308
sg30
F-2.326923076923077
sg31
F0.4807692307692308
sg32
S'red'
p502
sbasbasg181
I3
sg182
I1
sba(icurlovision
EndResult
p503
(dp504
g2
I4
sg9
(lp505
(I4
I4
tp506
a(I3
I3
tp507
a(I2
I3
tp508
a(I2
I2
tp509
a(I1
I2
tp510
a(I1
I1
tp511
a(I0
I1
tp512
asg19
I4
sg20
(lp513
(icurlovision
StoneLayout
p514
(dp515
g24
F0.4791666666666667
sg25
(lp516
(icurlovision
Stone
p517
(dp518
g29
F10.453125
sg30
F0.109375
sg31
F0.4375
sg32
S'red'
p519
sba(icurlovision
Stone
p520
(dp521
g29
F10.296875
sg30
F-5.359375
sg31
F0.296875
sg32
S'yellow'
p522
sbasba(icurlovision
StoneLayout
p523
(dp524
g24
F0.4791666666666667
sg25
(lp525
(icurlovision
Stone
p526
(dp527
g29
F3.40625
sg30
F-0.625
sg31
F0.453125
sg32
S'red'
p528
sba(icurlovision
Stone
p529
(dp530
g29
F-0.78125
sg30
F-0.46875
sg31
F0.34375
sg32
S'red'
p531
sba(icurlovision
Stone
p532
(dp533
g29
F-1.625
sg30
F0.0
sg31
F0.34375
sg32
S'yellow'
p534
sba(icurlovision
Stone
p535
(dp536
g29
F10.75
sg30
F0.0625
sg31
F0.4375
sg32
S'red'
p537
sbasba(icurlovision
StoneLayout
p538
(dp539
g24
F0.4791666666666667
sg25
(lp540
(icurlovision
Stone
p541
(dp542
g29
F-1.755
sg30
F0.015
sg31
F0.44999999999999996
sg32
S'yellow'
p543
sba(icurlovision
Stone
p544
(dp545
g29
F0.105
sg30
F-0.105
sg31
F0.345
sg32
S'yellow'
p546
sba(icurlovision
Stone
p547
(dp548
g29
F10.815
sg30
F0.135
sg31
F0.285
sg32
S'red'
p549
sba(icurlovision
Stone
p550
(dp551
g29
F1.065
sg30
F0.045
sg31
F0.32999999999999996
sg32
S'yellow'
p552
sba(icurlovision
Stone
p553
(dp554
g29
F-0.825
sg30
F-0.46499999999999997
sg31
F0.46499999999999997
sg32
S'red'
p555
sba(icurlovision
Stone
p556
(dp557
g29
F2.025
sg30
F-0.285
sg31
F0.345
sg32
S'red'
p558
sbasba(icurlovision
StoneLayout
p559
(dp560
g24
F0.4791666666666667
sg25
(lp561
(icurlovision
Stone
p562
(dp563
g29
F-1.74
sg30
F0.03
sg31
F0.32999999999999996
sg32
S'yellow'
p564
sba(icurlovision
Stone
p565
(dp566
g29
F-0.84
sg30
F-0.51
sg31
F0.315
sg32
S'red'
p567
sba(icurlovision
Stone
p568
(dp569
g29
F3.54
sg30
F-0.12
sg31
F0.44999999999999996
sg32
S'yellow'
p570
sba(icurlovision
Stone
p571
(dp572
g29
F10.799999999999999
sg30
F0.12
sg31
F0.44999999999999996
sg32
S'red'
p573
sba(icurlovision
Stone
p574
(dp575
g29
F2.01
sg30
F-0.3
sg31
F0.46499999999999997
sg32
S'red'
p576
sba(icurlovision
Stone
p577
(dp578
g29
F0.12
sg30
F-0.12
sg31
F0.36
sg32
S'yellow'
p579
sba(icurlovision
Stone
p580
(dp581
g29
F1.05
sg30
F0.0
sg31
F0.345
sg32
S'yellow'
p582
sbasba(icurlovision
StoneLayout
p583
(dp584
g24
F0.4791666666666667
sg25
(lp585
(icurlovision
Stone
p586
(dp587
g29
F3.515625
sg30
F-0.171875
sg31
F0.453125
sg32
S'yellow'
p588
sba(icurlovision
Stone
p589
(dp590
g29
F11.578125
sg30
F1.015625
sg31
F0.4375
sg32
S'red'
p591
sba(icurlovision
Stone
p592
(dp593
g29
F0.078125
sg30
F-0.109375
sg31
F0.34375
sg32
S'yellow'
p594
sba(icurlovision
Stone
p595
(dp596
g29
F-0.859375
sg30
F-0.515625
sg31
F0.4375
sg32
S'red'
p597
sba(icurlovision
Stone
p598
(dp599
g29
F10.734375
sg30
F0.015625
sg31
F0.4375
sg32
S'red'
p600
sba(icurlovision
Stone
p601
(dp602
g29
F2.015625
sg30
F-0.328125
sg31
F0.34375
sg32
S'red'
p603
sba(icurlovision
Stone
p604
(dp605
g29
F4.265625
sg30
F-0.828125
sg31
F0.453125
sg32
S'red'
p606
sbasba(icurlovision
StoneLayout
p607
(dp608
g24
F0.4791666666666667
sg25
(lp609
(icurlovision
Stone
p610
(dp611
g29
F10.637755102040815
sg30
F0.07653061224489796
sg31
F0.44387755102040816
sg32
S'red'
p612
sba(icurlovision
Stone
p613
(dp614
g29
F11.464285714285714
sg30
F1.1173469387755102
sg31
F0.42857142857142855
sg32
S'red'
p615
sba(icurlovision
Stone
p616
(dp617
g29
F3.75
sg30
F-1.0561224489795917
sg31
F0.44387755102040816
sg32
S'red'
p618
sbasba(icurlovision
StoneLayout
p619
(dp620
g24
F0.4791666666666667
sg25
(lp621
(icurlovision
Stone
p622
(dp623
g29
F7.515625
sg30
F1.234375
sg31
F0.4375
sg32
S'red'
p624
sba(icurlovision
Stone
p625
(dp626
g29
F10.546875
sg30
F0.109375
sg31
F0.421875
sg32
S'red'
p627
sba(icurlovision
Stone
p628
(dp629
g29
F11.328125
sg30
F1.109375
sg31
F0.4375
sg32
S'red'
p630
sba(icurlovision
Stone
p631
(dp632
g29
F3.703125
sg30
F-1.015625
sg31
F0.4375
sg32
S'red'
p633
sba(icurlovision
Stone
p634
(dp635
g29
F1.984375
sg30
F-0.265625
sg31
F0.34375
sg32
S'red'
p636
sbasbasg181
I3
sg182
I0
sba(icurlovision
EndResult
p637
(dp638
g2
I4
sg9
(lp639
(I4
I4
tp640
a(I4
I3
tp641
a(I3
I3
tp642
a(I3
I2
tp643
a(I2
I2
tp644
a(I2
I1
tp645
a(I1
I1
tp646
a(I1
I0
tp647
asg19
I5
sg20
(lp648
(icurlovision
StoneLayout
p649
(dp650
g24
F0.4791666666666667
sg25
(lp651
(icurlovision
Stone
p652
(dp653
g29
F10.78125
sg30
F0.109375
sg31
F0.3125
sg32
S'yellow'
p654
sba(icurlovision
Stone
p655
(dp656
g29
F0.625
sg30
F-0.953125
sg31
F0.46875
sg32
S'red'
p657
sba(icurlovision
Stone
p658
(dp659
g29
F-1.25
sg30
F1.015625
sg31
F0.3125
sg32
S'yellow'
p660
sba(icurlovision
Stone
p661
(dp662
g29
F-1.625
sg30
F-0.078125
sg31
F0.3125
sg32
S'red'
p663
sba(icurlovision
Stone
p664
(dp665
g29
F-1.25
sg30
F2.296875
sg31
F0.375
sg32
S'red'
p666
sbasba(icurlovision
StoneLayout
p667
(dp668
g24
F0.4791666666666667
sg25
(lp669
(icurlovision
Stone
p670
(dp671
g29
F10.514999999999999
sg30
F0.105
sg31
F0.315
sg32
S'yellow'
p672
sba(icurlovision
Stone
p673
(dp674
g29
F-1.305
sg30
F1.125
sg31
F0.32999999999999996
sg32
S'yellow'
p675
sba(icurlovision
Stone
p676
(dp677
g29
F0.585
sg30
F-0.885
sg31
F0.44999999999999996
sg32
S'red'
p678
sba(icurlovision
Stone
p679
(dp680
g29
F1.845
sg30
F-0.105
sg31
F0.44999999999999996
sg32
S'yellow'
p681
sba(icurlovision
Stone
p682
(dp683
g29
F-1.605
sg30
F0.015
sg31
F0.32999999999999996
sg32
S'red'
p684
sbasba(icurlovision
StoneLayout
p685
(dp686
g24
F0.4791666666666667
sg25
(lp687
(icurlovision
Stone
p688
(dp689
g29
F10.661764705882353
sg30
F0.044117647058823525
sg31
F0.3235294117647059
sg32
S'yellow'
p690
sba(icurlovision
Stone
p691
(dp692
g29
F2.3970588235294117
sg30
F-0.9852941176470588
sg31
F0.3382352941176471
sg32
S'red'
p693
sba(icurlovision
Stone
p694
(dp695
g29
F-1.338235294117647
sg30
F1.1323529411764706
sg31
F0.3382352941176471
sg32
S'yellow'
p696
sba(icurlovision
Stone
p697
(dp698
g29
F1.7205882352941175
sg30
F0.10294117647058823
sg31
F0.3382352941176471
sg32
S'yellow'
p699
sba(icurlovision
Stone
p700
(dp701
g29
F0.6323529411764706
sg30
F-0.9558823529411764
sg31
F0.3529411764705882
sg32
S'red'
p702
sba(icurlovision
Stone
p703
(dp704
g29
F-1.6323529411764706
sg30
F0.014705882352941176
sg31
F0.3382352941176471
sg32
S'red'
p705
sbasba(icurlovision
StoneLayout
p706
(dp707
g24
F0.4791666666666667
sg25
(lp708
(icurlovision
Stone
p709
(dp710
g29
F5.314655172413793
sg30
F4.616379310344827
sg31
F0.46551724137931033
sg32
S'yellow'
p711
sba(icurlovision
Stone
p712
(dp713
g29
F2.3922413793103448
sg30
F-0.9698275862068966
sg31
F0.4525862068965517
sg32
S'red'
p714
sba(icurlovision
Stone
p715
(dp716
g29
F5.599137931034483
sg30
F-5.081896551724138
sg31
F0.4525862068965517
sg32
S'yellow'
p717
sba(icurlovision
Stone
p718
(dp719
g29
F-1.3577586206896552
sg30
F1.125
sg31
F0.33620689655172414
sg32
S'yellow'
p720
sba(icurlovision
Stone
p721
(dp722
g29
F1.668103448275862
sg30
F0.09051724137931035
sg31
F0.46551724137931033
sg32
S'yellow'
p723
sba(icurlovision
Stone
p724
(dp725
g29
F0.6077586206896551
sg30
F-0.9439655172413793
sg31
F0.46551724137931033
sg32
S'red'
p726
sba(icurlovision
Stone
p727
(dp728
g29
F-1.6163793103448276
sg30
F-0.03879310344827586
sg31
F0.375
sg32
S'red'
p729
sbasba(icurlovision
StoneLayout
p730
(dp731
g24
F0.4791666666666667
sg25
(lp732
(icurlovision
Stone
p733
(dp734
g29
F5.294117647058823
sg30
F4.529411764705882
sg31
F0.45588235294117646
sg32
S'yellow'
p735
sba(icurlovision
Stone
p736
(dp737
g29
F5.5588235294117645
sg30
F-5.029411764705882
sg31
F0.45588235294117646
sg32
S'yellow'
p738
sba(icurlovision
Stone
p739
(dp740
g29
F2.411764705882353
sg30
F-0.9705882352941176
sg31
F0.45588235294117646
sg32
S'red'
p741
sba(icurlovision
Stone
p742
(dp743
g29
F1.7352941176470589
sg30
F0.08823529411764705
sg31
F0.3235294117647059
sg32
S'yellow'
p744
sba(icurlovision
Stone
p745
(dp746
g29
F0.6176470588235294
sg30
F-0.9411764705882353
sg31
F0.27941176470588236
sg32
S'red'
p747
sba(icurlovision
Stone
p748
(dp749
g29
F-1.9411764705882353
sg30
F3.8823529411764706
sg31
F0.3235294117647059
sg32
S'red'
p750
sba(icurlovision
Stone
p751
(dp752
g29
F-1.6176470588235294
sg30
F-0.029411764705882353
sg31
F0.3235294117647059
sg32
S'red'
p753
sbasba(icurlovision
StoneLayout
p754
(dp755
g24
F0.4791666666666667
sg25
(lp756
(icurlovision
Stone
p757
(dp758
g29
F5.263157894736842
sg30
F4.592105263157895
sg31
F0.4473684210526315
sg32
S'yellow'
p759
sba(icurlovision
Stone
p760
(dp761
g29
F-0.8421052631578947
sg30
F0.4605263157894737
sg31
F0.4605263157894737
sg32
S'yellow'
p762
sba(icurlovision
Stone
p763
(dp764
g29
F5.605263157894736
sg30
F-5.065789473684211
sg31
F0.4605263157894737
sg32
S'yellow'
p765
sba(icurlovision
Stone
p766
(dp767
g29
F0.5789473684210527
sg30
F-0.9868421052631579
sg31
F0.3157894736842105
sg32
S'red'
p768
sba(icurlovision
Stone
p769
(dp770
g29
F-2.026315789473684
sg30
F3.907894736842105
sg31
F0.3421052631578947
sg32
S'red'
p771
sbasba(icurlovision
StoneLayout
p772
(dp773
g24
F0.4791666666666667
sg25
(lp774
(icurlovision
Stone
p775
(dp776
g29
F5.090163934426229
sg30
F4.450819672131147
sg31
F0.3319672131147541
sg32
S'yellow'
p777
sba(icurlovision
Stone
p778
(dp779
g29
F-0.7131147540983607
sg30
F2.2131147540983607
sg31
F0.4426229508196721
sg32
S'red'
p780
sba(icurlovision
Stone
p781
(dp782
g29
F5.360655737704918
sg30
F-4.819672131147541
sg31
F0.4426229508196721
sg32
S'yellow'
p783
sba(icurlovision
Stone
p784
(dp785
g29
F0.6147540983606558
sg30
F-0.8360655737704918
sg31
F0.3442622950819672
sg32
S'red'
p786
sba(icurlovision
Stone
p787
(dp788
g29
F-1.9426229508196722
sg30
F3.7868852459016393
sg31
F0.319672131147541
sg32
S'red'
p789
sbasba(icurlovision
StoneLayout
p790
(dp791
g24
F0.4791666666666667
sg25
(lp792
(icurlovision
Stone
p793
(dp794
g29
F5.3590909090909085
sg30
F4.677272727272727
sg31
F0.4636363636363636
sg32
S'yellow'
p795
sba(icurlovision
Stone
p796
(dp797
g29
F5.6863636363636365
sg30
F-5.113636363636363
sg31
F0.4636363636363636
sg32
S'yellow'
p798
sba(icurlovision
Stone
p799
(dp800
g29
F-0.6954545454545454
sg30
F1.4045454545454545
sg31
F0.4636363636363636
sg32
S'yellow'
p801
sba(icurlovision
Stone
p802
(dp803
g29
F-1.8409090909090908
sg30
F3.068181818181818
sg31
F0.4636363636363636
sg32
S'red'
p804
sba(icurlovision
Stone
p805
(dp806
g29
F-6.368181818181818
sg30
F6.368181818181818
sg31
F0.47727272727272724
sg32
S'red'
p807
sbasbasg181
I5
sg182
I1
sba(icurlovision
EndResult
p808
(dp809
g2
I8
sg9
(lp810
(I4
I4
tp811
a(I3
I4
tp812
a(I3
I3
tp813
a(I2
I3
tp814
a(I2
I2
tp815
a(I1
I2
tp816
a(I1
I1
tp817
a(I0
I1
tp818
asg19
I6
sg20
(lp819
(icurlovision
StoneLayout
p820
(dp821
g24
F0.4791666666666667
sg25
(lp822
(icurlovision
Stone
p823
(dp824
g29
F11.046875
sg30
F4.140625
sg31
F0.296875
sg32
S'red'
p825
sba(icurlovision
Stone
p826
(dp827
g29
F0.421875
sg30
F3.984375
sg31
F0.40625
sg32
S'yellow'
p828
sba(icurlovision
Stone
p829
(dp830
g29
F4.953125
sg30
F3.265625
sg31
F0.3125
sg32
S'yellow'
p831
sba(icurlovision
Stone
p832
(dp833
g29
F-1.546875
sg30
F-0.171875
sg31
F0.46875
sg32
S'red'
p834
sbasba(icurlovision
StoneLayout
p835
(dp836
g24
F0.4791666666666667
sg25
(lp837
(icurlovision
Stone
p838
(dp839
g29
F0.47282608695652173
sg30
F4.157608695652174
sg31
F0.34239130434782605
sg32
S'yellow'
p840
sba(icurlovision
Stone
p841
(dp842
g29
F11.625
sg30
F4.353260869565217
sg31
F0.45652173913043476
sg32
S'red'
p843
sba(icurlovision
Stone
p844
(dp845
g29
F5.885869565217392
sg30
F2.8206521739130435
sg31
F0.47282608695652173
sg32
S'red'
p846
sba(icurlovision
Stone
p847
(dp848
g29
F5.168478260869565
sg30
F3.5054347826086953
sg31
F0.2934782608695652
sg32
S'yellow'
p849
sba(icurlovision
Stone
p850
(dp851
g29
F-1.5815217391304348
sg30
F-0.1793478260869565
sg31
F0.34239130434782605
sg32
S'red'
p852
sba(icurlovision
Stone
p853
(dp854
g29
F10.581521739130434
sg30
F-5.625
sg31
F0.2934782608695652
sg32
S'yellow'
p855
sbasba(icurlovision
StoneLayout
p856
(dp857
g24
F0.4791666666666667
sg25
(lp858
(icurlovision
Stone
p859
(dp860
g29
F-1.6363636363636362
sg30
F-1.8068181818181817
sg31
F0.4602272727272727
sg32
S'yellow'
p861
sba(icurlovision
Stone
p862
(dp863
g29
F11.318181818181817
sg30
F4.261363636363636
sg31
F0.28977272727272724
sg32
S'red'
p864
sba(icurlovision
Stone
p865
(dp866
g29
F4.977272727272727
sg30
F3.443181818181818
sg31
F0.4602272727272727
sg32
S'yellow'
p867
sba(icurlovision
Stone
p868
(dp869
g29
F0.40909090909090906
sg30
F4.056818181818182
sg31
F0.4602272727272727
sg32
S'yellow'
p870
sba(icurlovision
Stone
p871
(dp872
g29
F5.6931818181818175
sg30
F2.7613636363636362
sg31
F0.4602272727272727
sg32
S'red'
p873
sbasba(icurlovision
StoneLayout
p874
(dp875
g24
F0.4791666666666667
sg25
(lp876
(icurlovision
Stone
p877
(dp878
g29
F-1.6141304347826086
sg30
F-1.7445652173913042
sg31
F0.45652173913043476
sg32
S'yellow'
p879
sba(icurlovision
Stone
p880
(dp881
g29
F0.44021739130434784
sg30
F3.9619565217391304
sg31
F0.32608695652173914
sg32
S'yellow'
p882
sba(icurlovision
Stone
p883
(dp884
g29
F11.070652173913043
sg30
F4.059782608695652
sg31
F0.42391304347826086
sg32
S'red'
p885
sba(icurlovision
Stone
p886
(dp887
g29
F-2.9510869565217392
sg30
F-5.364130434782608
sg31
F0.2934782608695652
sg32
S'red'
p888
sba(icurlovision
Stone
p889
(dp890
g29
F5.233695652173913
sg30
F2.527173913043478
sg31
F0.34239130434782605
sg32
S'red'
p891
sba(icurlovision
Stone
p892
(dp893
g29
F-0.21195652173913043
sg30
F6.21195652173913
sg31
F0.42391304347826086
sg32
S'yellow'
p894
sbasba(icurlovision
StoneLayout
p895
(dp896
g24
F0.4791666666666667
sg25
(lp897
(icurlovision
Stone
p898
(dp899
g29
F-1.6117021276595744
sg30
F-1.7712765957446808
sg31
F0.4627659574468085
sg32
S'yellow'
p900
sba(icurlovision
Stone
p901
(dp902
g29
F11.25
sg30
F4.196808510638298
sg31
F0.4308510638297872
sg32
S'red'
p903
sba(icurlovision
Stone
p904
(dp905
g29
F0.4627659574468085
sg30
F4.00531914893617
sg31
F0.4627659574468085
sg32
S'yellow'
p906
sba(icurlovision
Stone
p907
(dp908
g29
F-0.7180851063829786
sg30
F-4.6436170212765955
sg31
F0.33510638297872336
sg32
S'yellow'
p909
sba(icurlovision
Stone
p910
(dp911
g29
F5.3138297872340425
sg30
F2.601063829787234
sg31
F0.33510638297872336
sg32
S'red'
p912
sbasba(icurlovision
StoneLayout
p913
(dp914
g24
F0.4791666666666667
sg25
(lp915
(icurlovision
Stone
p916
(dp917
g29
F-1.6141304347826086
sg30
F-1.7771739130434783
sg31
F0.47282608695652173
sg32
S'yellow'
p918
sba(icurlovision
Stone
p919
(dp920
g29
F0.4076086956521739
sg30
F4.0271739130434785
sg31
F0.34239130434782605
sg32
S'yellow'
p921
sba(icurlovision
Stone
p922
(dp923
g29
F11.168478260869565
sg30
F4.190217391304348
sg31
F0.44021739130434784
sg32
S'red'
p924
sba(icurlovision
Stone
p925
(dp926
g29
F5.266304347826087
sg30
F2.559782608695652
sg31
F0.44021739130434784
sg32
S'red'
p927
sba(icurlovision
Stone
p928
(dp929
g29
F0.08152173913043478
sg30
F-4.451086956521739
sg31
F0.32608695652173914
sg32
S'red'
p930
sbasba(icurlovision
StoneLayout
p931
(dp932
g24
F0.4791666666666667
sg25
(lp933
(icurlovision
Stone
p934
(dp935
g29
F0.47282608695652173
sg30
F-3.342391304347826
sg31
F0.47282608695652173
sg32
S'yellow'
p936
sba(icurlovision
Stone
p937
(dp938
g29
F-1.6467391304347825
sg30
F-1.809782608695652
sg31
F0.34239130434782605
sg32
S'yellow'
p939
sba(icurlovision
Stone
p940
(dp941
g29
F11.429347826086957
sg30
F4.288043478260869
sg31
F0.45652173913043476
sg32
S'red'
p942
sba(icurlovision
Stone
p943
(dp944
g29
F0.44021739130434784
sg30
F4.092391304347826
sg31
F0.32608695652173914
sg32
S'yellow'
p945
sba(icurlovision
Stone
p946
(dp947
g29
F5.364130434782608
sg30
F2.625
sg31
F0.358695652173913
sg32
S'red'
p948
sbasba(icurlovision
StoneLayout
p949
(dp950
g24
F0.4791666666666667
sg25
(lp951
(icurlovision
Stone
p952
(dp953
g29
F0.4627659574468085
sg30
F-3.207446808510638
sg31
F0.44680851063829785
sg32
S'yellow'
p954
sba(icurlovision
Stone
p955
(dp956
g29
F-1.5797872340425532
sg30
F-1.7393617021276595
sg31
F0.3670212765957446
sg32
S'yellow'
p957
sba(icurlovision
Stone
p958
(dp959
g29
F11.090425531914892
sg30
F4.196808510638298
sg31
F0.4308510638297872
sg32
S'red'
p960
sba(icurlovision
Stone
p961
(dp962
g29
F0.4308510638297872
sg30
F4.00531914893617
sg31
F0.33510638297872336
sg32
S'yellow'
p963
sba(icurlovision
Stone
p964
(dp965
g29
F5.218085106382978
sg30
F2.5691489361702127
sg31
F0.3031914893617021
sg32
S'red'
p966
sba(icurlovision
Stone
p967
(dp968
g29
F0.07978723404255318
sg30
F-4.196808510638298
sg31
F0.3829787234042553
sg32
S'red'
p969
sbasbasg181
I5
sg182
I0
sba(icurlovision
EndResult
p970
(dp971
g2
I8
sg9
(lp972
(I5
I4
tp973
a(I4
I3
tp974
a(I3
I3
tp975
a(I3
I2
tp976
a(I2
I2
tp977
a(I2
I1
tp978
a(I1
I1
tp979
a(I1
I0
tp980
asg19
I7
sg20
(lp981
(icurlovision
StoneLayout
p982
(dp983
g24
F0.4791666666666667
sg25
(lp984
(icurlovision
Stone
p985
(dp986
g29
F9.226415094339623
sg30
F6.339622641509434
sg31
F0.4528301886792453
sg32
S'yellow'
p987
sba(icurlovision
Stone
p988
(dp989
g29
F0.5377358490566038
sg30
F-2.009433962264151
sg31
F0.4386792452830189
sg32
S'yellow'
p990
sba(icurlovision
Stone
p991
(dp992
g29
F0.4528301886792453
sg30
F3.9339622641509435
sg31
F0.32547169811320753
sg32
S'red'
p993
sbasba(icurlovision
StoneLayout
p994
(dp995
g24
F0.4791666666666667
sg25
(lp996
(icurlovision
Stone
p997
(dp998
g29
F7.455
sg30
F3.8249999999999997
sg31
F0.44999999999999996
sg32
S'red'
p999
sba(icurlovision
Stone
p1000
(dp1001
g29
F0.495
sg30
F3.0149999999999997
sg31
F0.32999999999999996
sg32
S'yellow'
p1002
sba(icurlovision
Stone
p1003
(dp1004
g29
F0.525
sg30
F-2.025
sg31
F0.345
sg32
S'yellow'
p1005
sba(icurlovision
Stone
p1006
(dp1007
g29
F9.344999999999999
sg30
F6.495
sg31
F0.46499999999999997
sg32
S'yellow'
p1008
sba(icurlovision
Stone
p1009
(dp1010
g29
F0.315
sg30
F4.125
sg31
F0.27
sg32
S'red'
p1011
sbasba(icurlovision
StoneLayout
p1012
(dp1013
g24
F0.4791666666666667
sg25
(lp1014
(icurlovision
Stone
p1015
(dp1016
g29
F-0.9305555555555555
sg30
F2.597222222222222
sg31
F0.4583333333333333
sg32
S'yellow'
p1017
sba(icurlovision
Stone
p1018
(dp1019
g29
F7.569444444444444
sg30
F3.847222222222222
sg31
F0.4444444444444444
sg32
S'red'
p1020
sba(icurlovision
Stone
p1021
(dp1022
g29
F0.5972222222222222
sg30
F-2.069444444444444
sg31
F0.3472222222222222
sg32
S'yellow'
p1023
sba(icurlovision
Stone
p1024
(dp1025
g29
F9.48611111111111
sg30
F6.541666666666666
sg31
F0.4583333333333333
sg32
S'yellow'
p1026
sba(icurlovision
Stone
p1027
(dp1028
g29
F1.2083333333333333
sg30
F3.875
sg31
F0.4444444444444444
sg32
S'red'
p1029
sba(icurlovision
Stone
p1030
(dp1031
g29
F0.3194444444444444
sg30
F4.208333333333333
sg31
F0.3611111111111111
sg32
S'red'
p1032
sbasba(icurlovision
StoneLayout
p1033
(dp1034
g24
F0.4791666666666667
sg25
(lp1035
(icurlovision
Stone
p1036
(dp1037
g29
F7.165178571428571
sg30
F3.65625
sg31
F0.42857142857142855
sg32
S'red'
p1038
sba(icurlovision
Stone
p1039
(dp1040
g29
F-0.09375
sg30
F2.049107142857143
sg31
F0.3214285714285714
sg32
S'yellow'
p1041
sba(icurlovision
Stone
p1042
(dp1043
g29
F0.6026785714285714
sg30
F-1.9419642857142856
sg31
F0.42857142857142855
sg32
S'yellow'
p1044
sba(icurlovision
Stone
p1045
(dp1046
g29
F-0.8705357142857142
sg30
F2.450892857142857
sg31
F0.4419642857142857
sg32
S'yellow'
p1047
sba(icurlovision
Stone
p1048
(dp1049
g29
F8.959821428571429
sg30
F6.227678571428571
sg31
F0.4419642857142857
sg32
S'yellow'
p1050
sba(icurlovision
Stone
p1051
(dp1052
g29
F1.138392857142857
sg30
F3.683035714285714
sg31
F0.3214285714285714
sg32
S'red'
p1053
sba(icurlovision
Stone
p1054
(dp1055
g29
F0.040178571428571425
sg30
F4.138392857142857
sg31
F0.33482142857142855
sg32
S'red'
p1056
sbasba(icurlovision
StoneLayout
p1057
(dp1058
g24
F0.4791666666666667
sg25
(lp1059
(icurlovision
Stone
p1060
(dp1061
g29
F7.418478260869565
sg30
F3.766304347826087
sg31
F0.44021739130434784
sg32
S'red'
p1062
sba(icurlovision
Stone
p1063
(dp1064
g29
F9.244565217391305
sg30
F6.407608695652174
sg31
F0.42391304347826086
sg32
S'yellow'
p1065
sba(icurlovision
Stone
p1066
(dp1067
g29
F0.5706521739130435
sg30
F-2.0380434782608696
sg31
F0.32608695652173914
sg32
S'yellow'
p1068
sba(icurlovision
Stone
p1069
(dp1070
g29
F0.21195652173913043
sg30
F3.375
sg31
F0.32608695652173914
sg32
S'red'
p1071
sba(icurlovision
Stone
p1072
(dp1073
g29
F1.1576086956521738
sg30
F3.8315217391304346
sg31
F0.34239130434782605
sg32
S'red'
p1074
sba(icurlovision
Stone
p1075
(dp1076
g29
F-0.21195652173913043
sg30
F4.71195652173913
sg31
F0.27717391304347827
sg32
S'red'
p1077
sba(icurlovision
Stone
p1078
(dp1079
g29
F-2.755434782608696
sg30
F-1.7771739130434783
sg31
F0.32608695652173914
sg32
S'yellow'
p1080
sbasba(icurlovision
StoneLayout
p1081
(dp1082
g24
F0.4791666666666667
sg25
(lp1083
(icurlovision
Stone
p1084
(dp1085
g29
F1.7142857142857142
sg30
F3.0918367346938775
sg31
F0.30612244897959184
sg32
S'yellow'
p1086
sba(icurlovision
Stone
p1087
(dp1088
g29
F7.561224489795918
sg30
F3.857142857142857
sg31
F0.45918367346938777
sg32
S'red'
p1089
sba(icurlovision
Stone
p1090
(dp1091
g29
F9.459183673469388
sg30
F6.581632653061225
sg31
F0.42857142857142855
sg32
S'yellow'
p1092
sba(icurlovision
Stone
p1093
(dp1094
g29
F0.5816326530612245
sg30
F-2.0510204081632653
sg31
F0.3520408163265306
sg32
S'yellow'
p1095
sba(icurlovision
Stone
p1096
(dp1097
g29
F0.24489795918367346
sg30
F3.489795918367347
sg31
F0.45918367346938777
sg32
S'red'
p1098
sba(icurlovision
Stone
p1099
(dp1100
g29
F-4.224489795918367
sg30
F-2.5408163265306123
sg31
F0.3520408163265306
sg32
S'yellow'
p1101
sba(icurlovision
Stone
p1102
(dp1103
g29
F-0.18367346938775508
sg30
F4.8061224489795915
sg31
F0.3214285714285714
sg32
S'red'
p1104
sba(icurlovision
Stone
p1105
(dp1106
g29
F0.7040816326530612
sg30
F4.346938775510204
sg31
F0.3214285714285714
sg32
S'red'
p1107
sbasba(icurlovision
StoneLayout
p1108
(dp1109
g24
F0.4791666666666667
sg25
(lp1110
(icurlovision
Stone
p1111
(dp1112
g29
F1.6683673469387754
sg30
F3.0918367346938775
sg31
F0.336734693877551
sg32
S'yellow'
p1113
sba(icurlovision
Stone
p1114
(dp1115
g29
F7.576530612244897
sg30
F3.887755102040816
sg31
F0.45918367346938777
sg32
S'red'
p1116
sba(icurlovision
Stone
p1117
(dp1118
g29
F-0.1989795918367347
sg30
F4.8061224489795915
sg31
F0.3520408163265306
sg32
S'red'
p1119
sba(icurlovision
Stone
p1120
(dp1121
g29
F9.443877551020408
sg30
F6.581632653061225
sg31
F0.45918367346938777
sg32
S'yellow'
p1122
sba(icurlovision
Stone
p1123
(dp1124
g29
F0.7193877551020408
sg30
F4.346938775510204
sg31
F0.2755102040816326
sg32
S'red'
p1125
sba(icurlovision
Stone
p1126
(dp1127
g29
F1.2397959183673468
sg30
F-2.6632653061224487
sg31
F0.45918367346938777
sg32
S'red'
p1128
sba(icurlovision
Stone
p1129
(dp1130
g29
F0.22959183673469388
sg30
F3.4591836734693877
sg31
F0.45918367346938777
sg32
S'red'
p1131
sba(icurlovision
Stone
p1132
(dp1133
g29
F-4.178571428571429
sg30
F-2.571428571428571
sg31
F0.2755102040816326
sg32
S'yellow'
p1134
sba(icurlovision
Stone
p1135
(dp1136
g29
F-3.2295918367346936
sg30
F-1.6224489795918366
sg31
F0.5051020408163265
sg32
S'red'
p1137
sbasba(icurlovision
StoneLayout
p1138
(dp1139
g24
F0.4791666666666667
sg25
(lp1140
(icurlovision
Stone
p1141
(dp1142
g29
F1.640625
sg30
F3.03125
sg31
F0.453125
sg32
S'yellow'
p1143
sba(icurlovision
Stone
p1144
(dp1145
g29
F7.484375
sg30
F3.8125
sg31
F0.28125
sg32
S'red'
p1146
sba(icurlovision
Stone
p1147
(dp1148
g29
F-4.140625
sg30
F-2.53125
sg31
F0.34375
sg32
S'yellow'
p1149
sba(icurlovision
Stone
p1150
(dp1151
g29
F9.328125
sg30
F6.5
sg31
F0.453125
sg32
S'yellow'
p1152
sba(icurlovision
Stone
p1153
(dp1154
g29
F0.234375
sg30
F3.4375
sg31
F0.453125
sg32
S'red'
p1155
sba(icurlovision
Stone
p1156
(dp1157
g29
F0.734375
sg30
F4.25
sg31
F0.328125
sg32
S'red'
p1158
sba(icurlovision
Stone
p1159
(dp1160
g29
F-0.203125
sg30
F4.78125
sg31
F0.34375
sg32
S'red'
p1161
sbasbasg181
I7
sg182
I1
sba(icurlovision
EndResult
p1162
(dp1163
g2
I8
sg9
(lp1164
(I4
I4
tp1165
a(I3
I4
tp1166
a(I3
I3
tp1167
a(I2
I2
tp1168
a(I1
I2
tp1169
a(I1
I1
tp1170
asg19
I8
sg20
(lp1171
(icurlovision
StoneLayout
p1172
(dp1173
g24
F0.4791666666666667
sg25
(lp1174
(icurlovision
Stone
p1175
(dp1176
g29
F0.9782608695652174
sg30
F-0.45652173913043476
sg31
F0.34239130434782605
sg32
S'yellow'
p1177
sba(icurlovision
Stone
p1178
(dp1179
g29
F-1.5978260869565217
sg30
F0.03260869565217391
sg31
F0.32608695652173914
sg32
S'yellow'
p1180
sba(icurlovision
Stone
p1181
(dp1182
g29
F10.891304347826086
sg30
F0.16304347826086957
sg31
F0.44021739130434784
sg32
S'red'
p1183
sba(icurlovision
Stone
p1184
(dp1185
g29
F-0.32608695652173914
sg30
F-0.717391304347826
sg31
F0.358695652173913
sg32
S'red'
p1186
sba(icurlovision
Stone
p1187
(dp1188
g29
F10.565217391304348
sg30
F-4.793478260869565
sg31
F0.2934782608695652
sg32
S'yellow'
p1189
sbasba(icurlovision
StoneLayout
p1190
(dp1191
g24
F0.4791666666666667
sg25
(lp1192
(icurlovision
Stone
p1193
(dp1194
g29
F-1.6141304347826086
sg30
F0.016304347826086956
sg31
F0.32608695652173914
sg32
S'yellow'
p1195
sba(icurlovision
Stone
p1196
(dp1197
g29
F0.8967391304347826
sg30
F-0.47282608695652173
sg31
F0.45652173913043476
sg32
S'yellow'
p1198
sba(icurlovision
Stone
p1199
(dp1200
g29
F10.744565217391305
sg30
F0.11413043478260869
sg31
F0.44021739130434784
sg32
S'red'
p1201
sba(icurlovision
Stone
p1202
(dp1203
g29
F-0.4076086956521739
sg30
F-0.6684782608695652
sg31
F0.47282608695652173
sg32
S'red'
p1204
sba(icurlovision
Stone
p1205
(dp1206
g29
F5.429347826086956
sg30
F0.8641304347826086
sg31
F0.42391304347826086
sg32
S'red'
p1207
sbasba(icurlovision
StoneLayout
p1208
(dp1209
g24
F0.4791666666666667
sg25
(lp1210
(icurlovision
Stone
p1211
(dp1212
g29
F-2.3478260869565215
sg30
F-1.141304347826087
sg31
F0.32608695652173914
sg32
S'red'
p1213
sba(icurlovision
Stone
p1214
(dp1215
g29
F-1.5652173913043477
sg30
F0.0
sg31
F0.45652173913043476
sg32
S'yellow'
p1216
sba(icurlovision
Stone
p1217
(dp1218
g29
F10.66304347826087
sg30
F0.13043478260869565
sg31
F0.42391304347826086
sg32
S'red'
p1219
sba(icurlovision
Stone
p1220
(dp1221
g29
F1.7934782608695652
sg30
F-0.19565217391304346
sg31
F0.32608695652173914
sg32
S'yellow'
p1222
sba(icurlovision
Stone
p1223
(dp1224
g29
F0.5217391304347826
sg30
F-0.45652173913043476
sg31
F0.45652173913043476
sg32
S'yellow'
p1225
sba(icurlovision
Stone
p1226
(dp1227
g29
F5.445652173913043
sg30
F0.8478260869565217
sg31
F0.2934782608695652
sg32
S'red'
p1228
sbasba(icurlovision
StoneLayout
p1229
(dp1230
g24
F0.4791666666666667
sg25
(lp1231
(icurlovision
Stone
p1232
(dp1233
g29
F2.3641304347826084
sg30
F-1.0271739130434783
sg31
F0.34239130434782605
sg32
S'red'
p1234
sba(icurlovision
Stone
p1235
(dp1236
g29
F-0.34239130434782605
sg30
F-0.6358695652173912
sg31
F0.32608695652173914
sg32
S'yellow'
p1237
sba(icurlovision
Stone
p1238
(dp1239
g29
F-2.3641304347826084
sg30
F-1.0923913043478262
sg31
F0.44021739130434784
sg32
S'red'
p1240
sba(icurlovision
Stone
p1241
(dp1242
g29
F0.8967391304347826
sg30
F0.6358695652173912
sg31
F0.32608695652173914
sg32
S'yellow'
p1243
sba(icurlovision
Stone
p1244
(dp1245
g29
F-1.5815217391304348
sg30
F0.016304347826086956
sg31
F0.34239130434782605
sg32
S'yellow'
p1246
sba(icurlovision
Stone
p1247
(dp1248
g29
F-1.809782608695652
sg30
F-5.298913043478261
sg31
F0.34239130434782605
sg32
S'yellow'
p1249
sba(icurlovision
Stone
p1250
(dp1251
g29
F5.364130434782608
sg30
F0.7989130434782609
sg31
F0.2934782608695652
sg32
S'red'
p1252
sbasba(icurlovision
StoneLayout
p1253
(dp1254
g24
F0.4791666666666667
sg25
(lp1255
(icurlovision
Stone
p1256
(dp1257
g29
F-2.4098360655737703
sg30
F-1.1680327868852458
sg31
F0.4672131147540983
sg32
S'red'
p1258
sba(icurlovision
Stone
p1259
(dp1260
g29
F-1.7950819672131146
sg30
F0.13524590163934425
sg31
F0.3442622950819672
sg32
S'yellow'
p1261
sba(icurlovision
Stone
p1262
(dp1263
g29
F3.2950819672131146
sg30
F-1.1926229508196722
sg31
F0.45491803278688525
sg32
S'red'
p1264
sba(icurlovision
Stone
p1265
(dp1266
g29
F0.9098360655737705
sg30
F0.6516393442622951
sg31
F0.35655737704918034
sg32
S'yellow'
p1267
sba(icurlovision
Stone
p1268
(dp1269
g29
F-0.9344262295081966
sg30
F-0.6762295081967213
sg31
F0.3442622950819672
sg32
S'yellow'
p1270
sba(icurlovision
Stone
p1271
(dp1272
g29
F0.639344262295082
sg30
F-0.6270491803278688
sg31
F0.3442622950819672
sg32
S'red'
p1273
sba(icurlovision
Stone
p1274
(dp1275
g29
F5.532786885245901
sg30
F0.8483606557377049
sg31
F0.319672131147541
sg32
S'red'
p1276
sbasba(icurlovision
StoneLayout
p1277
(dp1278
g24
F0.4791666666666667
sg25
(lp1279
(icurlovision
Stone
p1280
(dp1281
g29
F0.8467741935483871
sg30
F0.6048387096774194
sg31
F0.32661290322580644
sg32
S'yellow'
p1282
sba(icurlovision
Stone
p1283
(dp1284
g29
F-4.064516129032258
sg30
F3.2419354838709675
sg31
F0.3387096774193548
sg32
S'yellow'
p1285
sba(icurlovision
Stone
p1286
(dp1287
g29
F3.6774193548387095
sg30
F-1.935483870967742
sg31
F0.3387096774193548
sg32
S'yellow'
p1288
sba(icurlovision
Stone
p1289
(dp1290
g29
F5.274193548387097
sg30
F0.7258064516129032
sg31
F0.47177419354838707
sg32
S'red'
p1291
sba(icurlovision
Stone
p1292
(dp1293
g29
F-0.8709677419354839
sg30
F-0.9919354838709677
sg31
F0.3387096774193548
sg32
S'red'
p1294
sbasbasg181
I7
sg182
I0
sbasS'version'
p1295
I20180812
sg181
I7
sS'metadata'
p1296
(icurlovision
MatchMetadata
p1297
(dp1298
S'team_name_red'
p1299
S'Unknown'
p1300
sS'event_name'
p1301
g1300
sS'gender'
p1302
g1300
sS'other_info'
p1303
g1300
sS'team_name_yel'
p1304
g1300
sS'date'
p1305
g1300
sbsb.