(icurlovision
MatchResult
p0
(dp1
S'yel_score'
p2
I4
sS'name'
p3
S"VideoLibrary/PyeongChang.Olympics.2018.curling.women's.bronze.medal.match.Great.Britain.v.Japan.1080p.NBC.WEB-DL-FINFUNGUS.mp4"
p4
sS'end_results'
p5
(lp6
(icurlovision
EndResult
p7
(dp8
g2
I0
sS'stones_left'
p9
(lp10
(I7
I6
tp11
a(I6
I6
tp12
a(I6
I5
tp13
a(I5
I5
tp14
a(I4
I3
tp15
a(I3
I3
tp16
a(I3
I2
tp17
a(I2
I2
tp18
a(I2
I1
tp19
a(I1
I0
tp20
asS'end_num'
p21
I1
sS'stone_layouts'
p22
(lp23
(icurlovision
StoneLayout
p24
(dp25
S'stone_radius'
p26
F0.4791666666666667
sS'stones'
p27
(lp28
(icurlovision
Stone
p29
(dp30
S'y'
p31
F9.303191489361701
sS'x'
p32
F-0.4308510638297872
sS'r'
p33
F0.3031914893617021
sS'color'
p34
S'yellow'
p35
sba(icurlovision
Stone
p36
(dp37
g31
F-4.26063829787234
sg32
F-2.7606382978723403
sg33
F0.3191489361702127
sg34
S'yellow'
p38
sba(icurlovision
Stone
p39
(dp40
g31
F-6.175531914893616
sg32
F-6.781914893617021
sg33
F0.3031914893617021
sg34
S'red'
p41
sbasba(icurlovision
StoneLayout
p42
(dp43
g26
F0.4791666666666667
sg27
(lp44
(icurlovision
Stone
p45
(dp46
g31
F0.6847826086956521
sg32
F3.375
sg33
F0.47282608695652173
sg34
S'red'
p47
sba(icurlovision
Stone
p48
(dp49
g31
F9.521739130434783
sg32
F-0.44021739130434784
sg33
F0.27717391304347827
sg34
S'yellow'
p50
sbasba(icurlovision
StoneLayout
p51
(dp52
g26
F0.4791666666666667
sg27
(lp53
(icurlovision
Stone
p54
(dp55
g31
F-0.10294117647058823
sg32
F6.529411764705882
sg33
F0.3235294117647059
sg34
S'yellow'
p56
sba(icurlovision
Stone
p57
(dp58
g31
F9.455882352941176
sg32
F-0.47058823529411764
sg33
F0.29411764705882354
sg34
S'yellow'
p59
sbasba(icurlovision
StoneLayout
p60
(dp61
g26
F0.4791666666666667
sg27
(lp62
(icurlovision
Stone
p63
(dp64
g31
F9.456521739130434
sg32
F-0.45652173913043476
sg33
F0.2934782608695652
sg34
S'yellow'
p65
sbasba(icurlovision
StoneLayout
p66
(dp67
g26
F0.4791666666666667
sg27
(lp68
(icurlovision
Stone
p69
(dp70
g31
F10.484375
sg32
F-0.296875
sg33
F0.421875
sg34
S'yellow'
p71
sba(icurlovision
Stone
p72
(dp73
g31
F3.015625
sg32
F-0.078125
sg33
F0.4375
sg34
S'red'
p74
sbasba(icurlovision
StoneLayout
p75
(dp76
g26
F0.4791666666666667
sg27
(lp77
(icurlovision
Stone
p78
(dp79
g31
F9.833333333333334
sg32
F-4.133333333333333
sg33
F0.45
sg34
S'red'
p80
sba(icurlovision
Stone
p81
(dp82
g31
F-4.033333333333333
sg32
F4.266666666666667
sg33
F0.3333333333333333
sg34
S'yellow'
p83
sbasba(icurlovision
StoneLayout
p84
(dp85
g26
F0.4791666666666667
sg27
(lp86
(icurlovision
Stone
p87
(dp88
g31
F8.831632653061224
sg32
F-5.341836734693877
sg33
F0.45918367346938777
sg34
S'red'
p89
sba(icurlovision
Stone
p90
(dp91
g31
F-0.22959183673469388
sg32
F-5.035714285714286
sg33
F0.45918367346938777
sg34
S'yellow'
p92
sba(icurlovision
Stone
p93
(dp94
g31
F9.75
sg32
F-6.658163265306122
sg33
F0.2755102040816326
sg34
S'yellow'
p95
sbasba(icurlovision
StoneLayout
p96
(dp97
g26
F0.4791666666666667
sg27
(lp98
(icurlovision
Stone
p99
(dp100
g31
F8.859375
sg32
F-5.359375
sg33
F0.46875
sg34
S'red'
p101
sba(icurlovision
Stone
p102
(dp103
g31
F-0.078125
sg32
F-3.609375
sg33
F0.46875
sg34
S'red'
p104
sbasba(icurlovision
StoneLayout
p105
(dp106
g26
F0.4791666666666667
sg27
(lp107
(icurlovision
Stone
p108
(dp109
g31
F-0.08152173913043478
sg32
F-3.6032608695652173
sg33
F0.34239130434782605
sg34
S'red'
p110
sba(icurlovision
Stone
p111
(dp112
g31
F8.88586956521739
sg32
F-5.331521739130435
sg33
F0.47282608695652173
sg34
S'red'
p113
sba(icurlovision
Stone
p114
(dp115
g31
F3.994565217391304
sg32
F-3.8967391304347827
sg33
F0.34239130434782605
sg34
S'yellow'
p116
sbasba(icurlovision
StoneLayout
p117
(dp118
g26
F0.4791666666666667
sg27
(lp119
(icurlovision
Stone
p120
(dp121
g31
F8.690217391304348
sg32
F-5.233695652173913
sg33
F0.44021739130434784
sg34
S'red'
p122
sba(icurlovision
Stone
p123
(dp124
g31
F2.4619565217391304
sg32
F-4.288043478260869
sg33
F0.34239130434782605
sg34
S'yellow'
p125
sba(icurlovision
Stone
p126
(dp127
g31
F-5.429347826086956
sg32
F-1.3532608695652173
sg33
F0.32608695652173914
sg34
S'red'
p128
sbasbasS'red_score'
p129
I1
sS'red_hammer'
p130
I1
sba(icurlovision
EndResult
p131
(dp132
g2
I1
sg9
(lp133
(I7
I8
tp134
a(I7
I7
tp135
a(I6
I6
tp136
a(I5
I6
tp137
a(I4
I5
tp138
a(I4
I4
tp139
a(I3
I4
tp140
a(I3
I3
tp141
a(I2
I3
tp142
a(I2
I2
tp143
a(I1
I2
tp144
a(I1
I1
tp145
a(I0
I1
tp146
asg21
I2
sg22
(lp147
(icurlovision
StoneLayout
p148
(dp149
g26
F0.4791666666666667
sg27
(lp150
(icurlovision
Stone
p151
(dp152
g31
F-0.11413043478260869
sg32
F0.24456521739130435
sg33
F0.27717391304347827
sg34
S'red'
p153
sbasba(icurlovision
StoneLayout
p154
(dp155
g26
F0.4791666666666667
sg27
(lp156
(icurlovision
Stone
p157
(dp158
g31
F7.215
sg32
F2.79
sg33
F0.46499999999999997
sg34
S'yellow'
p159
sba(icurlovision
Stone
p160
(dp161
g31
F-0.135
sg32
F0.18
sg33
F0.46499999999999997
sg34
S'red'
p162
sbasba(icurlovision
StoneLayout
p163
(dp164
g26
F0.4791666666666667
sg27
(lp165
(icurlovision
Stone
p166
(dp167
g31
F1.5416666666666665
sg32
F1.7777777777777777
sg33
F0.4722222222222222
sg34
S'yellow'
p168
sba(icurlovision
Stone
p169
(dp170
g31
F7.347222222222221
sg32
F2.833333333333333
sg33
F0.4722222222222222
sg34
S'yellow'
p171
sba(icurlovision
Stone
p172
(dp173
g31
F-2.0972222222222223
sg32
F-4.638888888888888
sg33
F0.4444444444444444
sg34
S'red'
p174
sbasba(icurlovision
StoneLayout
p175
(dp176
g26
F0.4791666666666667
sg27
(lp177
(icurlovision
Stone
p178
(dp179
g31
F7.388297872340425
sg32
F2.840425531914893
sg33
F0.4627659574468085
sg34
S'yellow'
p180
sba(icurlovision
Stone
p181
(dp182
g31
F2.25
sg32
F1.2127659574468084
sg33
F0.3191489361702127
sg34
S'red'
p183
sba(icurlovision
Stone
p184
(dp185
g31
F-2.0904255319148937
sg32
F-4.627659574468085
sg33
F0.4787234042553191
sg34
S'red'
p186
sbasba(icurlovision
StoneLayout
p187
(dp188
g26
F0.4791666666666667
sg27
(lp189
(icurlovision
Stone
p190
(dp191
g31
F-2.505
sg32
F6.975
sg33
F0.44999999999999996
sg34
S'yellow'
p192
sba(icurlovision
Stone
p193
(dp194
g31
F7.0649999999999995
sg32
F2.745
sg33
F0.435
sg34
S'yellow'
p195
sba(icurlovision
Stone
p196
(dp197
g31
F-1.9949999999999999
sg32
F-4.395
sg33
F0.44999999999999996
sg34
S'red'
p198
sbasba(icurlovision
StoneLayout
p199
(dp200
g26
F0.4791666666666667
sg27
(lp201
(icurlovision
Stone
p202
(dp203
g31
F6.59375
sg32
F3.3125
sg33
F0.34375
sg34
S'yellow'
p204
sba(icurlovision
Stone
p205
(dp206
g31
F-1.96875
sg32
F-4.4375
sg33
F0.3125
sg34
S'red'
p207
sba(icurlovision
Stone
p208
(dp209
g31
F5.9375
sg32
F1.15625
sg33
F0.3125
sg34
S'yellow'
p210
sba(icurlovision
Stone
p211
(dp212
g31
F8.4375
sg32
F-5.375
sg33
F0.28125
sg34
S'yellow'
p213
sbasba(icurlovision
StoneLayout
p214
(dp215
g26
F0.4791666666666667
sg27
(lp216
(icurlovision
Stone
p217
(dp218
g31
F6.237500000000001
sg32
F0.3875
sg33
F0.41250000000000003
sg34
S'red'
p219
sba(icurlovision
Stone
p220
(dp221
g31
F-1.9125
sg32
F-4.1625000000000005
sg33
F0.4375
sg34
S'red'
p222
sba(icurlovision
Stone
p223
(dp224
g31
F6.3125
sg32
F3.2125000000000004
sg33
F0.4375
sg34
S'yellow'
p225
sba(icurlovision
Stone
p226
(dp227
g31
F-2.4125
sg32
F6.7875000000000005
sg33
F0.3125
sg34
S'yellow'
p228
sbasba(icurlovision
StoneLayout
p229
(dp230
g26
F0.4791666666666667
sg27
(lp231
(icurlovision
Stone
p232
(dp233
g31
F6.664772727272727
sg32
F2.4204545454545454
sg33
F0.4602272727272727
sg34
S'yellow'
p234
sba(icurlovision
Stone
p235
(dp236
g31
F6.767045454545454
sg32
F3.477272727272727
sg33
F0.4261363636363636
sg34
S'yellow'
p237
sba(icurlovision
Stone
p238
(dp239
g31
F-2.0965909090909087
sg32
F-4.534090909090909
sg33
F0.3409090909090909
sg34
S'red'
p240
sbasba(icurlovision
StoneLayout
p241
(dp242
g26
F0.4791666666666667
sg27
(lp243
(icurlovision
Stone
p244
(dp245
g31
F6.3894230769230775
sg32
F2.4086538461538463
sg33
F0.44711538461538464
sg34
S'yellow'
p246
sba(icurlovision
Stone
p247
(dp248
g31
F-2.0336538461538463
sg32
F-4.427884615384616
sg33
F0.3605769230769231
sg34
S'red'
p249
sba(icurlovision
Stone
p250
(dp251
g31
F6.475961538461539
sg32
F3.4759615384615388
sg33
F0.3605769230769231
sg34
S'yellow'
p252
sba(icurlovision
Stone
p253
(dp254
g31
F5.927884615384616
sg32
F1.5432692307692308
sg33
F0.3028846153846154
sg34
S'red'
p255
sbasba(icurlovision
StoneLayout
p256
(dp257
g26
F0.4791666666666667
sg27
(lp258
(icurlovision
Stone
p259
(dp260
g31
F-2.3375
sg32
F6.9125000000000005
sg33
F0.325
sg34
S'yellow'
p261
sba(icurlovision
Stone
p262
(dp263
g31
F4.7875000000000005
sg32
F-1.9625000000000001
sg33
F0.325
sg34
S'yellow'
p264
sba(icurlovision
Stone
p265
(dp266
g31
F0.7375
sg32
F2.6125000000000003
sg33
F0.42500000000000004
sg34
S'red'
p267
sba(icurlovision
Stone
p268
(dp269
g31
F6.4125000000000005
sg32
F3.3125
sg33
F0.45
sg34
S'yellow'
p270
sba(icurlovision
Stone
p271
(dp272
g31
F-2.0125
sg32
F-4.1875
sg33
F0.325
sg34
S'red'
p273
sbasba(icurlovision
StoneLayout
p274
(dp275
g26
F0.4791666666666667
sg27
(lp276
(icurlovision
Stone
p277
(dp278
g31
F6.56578947368421
sg32
F3.407894736842105
sg33
F0.35526315789473684
sg34
S'yellow'
p279
sba(icurlovision
Stone
p280
(dp281
g31
F-2.4605263157894735
sg32
F6.9605263157894735
sg33
F0.4473684210526315
sg34
S'yellow'
p282
sba(icurlovision
Stone
p283
(dp284
g31
F0.7763157894736842
sg32
F2.6184210526315788
sg33
F0.3421052631578947
sg34
S'red'
p285
sba(icurlovision
Stone
p286
(dp287
g31
F-1.9342105263157894
sg32
F-4.381578947368421
sg33
F0.4473684210526315
sg34
S'red'
p288
sba(icurlovision
Stone
p289
(dp290
g31
F5.223684210526316
sg32
F-3.4868421052631575
sg33
F0.43421052631578944
sg34
S'red'
p291
sbasba(icurlovision
StoneLayout
p292
(dp293
g26
F0.4791666666666667
sg27
(lp294
(icurlovision
Stone
p295
(dp296
g31
F-2.495192307692308
sg32
F6.995192307692308
sg33
F0.44711538461538464
sg34
S'yellow'
p297
sba(icurlovision
Stone
p298
(dp299
g31
F6.5625
sg32
F3.447115384615385
sg33
F0.46153846153846156
sg34
S'yellow'
p300
sba(icurlovision
Stone
p301
(dp302
g31
F1.1105769230769231
sg32
F1.3990384615384617
sg33
F0.44711538461538464
sg34
S'yellow'
p303
sba(icurlovision
Stone
p304
(dp305
g31
F5.206730769230769
sg32
F-3.447115384615385
sg33
F0.44711538461538464
sg34
S'red'
p306
sba(icurlovision
Stone
p307
(dp308
g31
F-1.9759615384615385
sg32
F-4.427884615384616
sg33
F0.34615384615384615
sg34
S'red'
p309
sbasba(icurlovision
StoneLayout
p310
(dp311
g26
F0.4791666666666667
sg27
(lp312
(icurlovision
Stone
p313
(dp314
g31
F6.518181818181818
sg32
F3.436363636363636
sg33
F0.35454545454545455
sg34
S'yellow'
p315
sba(icurlovision
Stone
p316
(dp317
g31
F-2.018181818181818
sg32
F-4.336363636363636
sg33
F0.3409090909090909
sg34
S'red'
p318
sba(icurlovision
Stone
p319
(dp320
g31
F-1.5
sg32
F6.9818181818181815
sg33
F0.4636363636363636
sg34
S'red'
p321
sba(icurlovision
Stone
p322
(dp323
g31
F5.154545454545454
sg32
F-3.4090909090909087
sg33
F0.32727272727272727
sg34
S'red'
p324
sbasbasg129
I1
sg130
I0
sba(icurlovision
EndResult
p325
(dp326
g2
I1
sg9
(lp327
(I7
I7
tp328
a(I6
I6
tp329
a(I5
I5
tp330
a(I5
I4
tp331
a(I4
I4
tp332
a(I4
I3
tp333
a(I3
I3
tp334
a(I1
I1
tp335
asg21
I3
sg22
(lp336
(icurlovision
StoneLayout
p337
(dp338
g26
F0.4791666666666667
sg27
(lp339
(icurlovision
Stone
p340
(dp341
g31
F6.791666666666666
sg32
F-0.5972222222222222
sg33
F0.4444444444444444
sg34
S'red'
p342
sba(icurlovision
Stone
p343
(dp344
g31
F4.986111111111111
sg32
F-0.4861111111111111
sg33
F0.3055555555555555
sg34
S'yellow'
p345
sbasba(icurlovision
StoneLayout
p346
(dp347
g26
F0.4791666666666667
sg27
(lp348
(icurlovision
Stone
p349
(dp350
g31
F6.3173076923076925
sg32
F-1.8173076923076925
sg33
F0.46153846153846156
sg34
S'red'
p351
sbasba(icurlovision
StoneLayout
p352
(dp353
g26
F0.4791666666666667
sg27
(lp354
(icurlovision
Stone
p355
(dp356
g31
F4.13235294117647
sg32
F1.4264705882352942
sg33
F0.3235294117647059
sg34
S'yellow'
p357
sba(icurlovision
Stone
p358
(dp359
g31
F5.602941176470588
sg32
F-1.5147058823529411
sg33
F0.3382352941176471
sg34
S'red'
p360
sbasba(icurlovision
StoneLayout
p361
(dp362
g26
F0.4791666666666667
sg27
(lp363
(icurlovision
Stone
p364
(dp365
g31
F4.118421052631579
sg32
F0.5394736842105263
sg33
F0.3289473684210526
sg34
S'yellow'
p366
sbasba(icurlovision
StoneLayout
p367
(dp368
g26
F0.4791666666666667
sg27
(lp369
(icurlovision
Stone
p370
(dp371
g31
F4.887931034482759
sg32
F0.1810344827586207
sg33
F0.33620689655172414
sg34
S'red'
p372
sbasba(icurlovision
StoneLayout
p373
(dp374
g26
F0.4791666666666667
sg27
(lp375
(icurlovision
Stone
p376
(dp377
g31
F5.598214285714286
sg32
F-0.1875
sg33
F0.3482142857142857
sg34
S'yellow'
p378
sbasba(icurlovision
StoneLayout
p379
(dp380
g26
F0.4791666666666667
sg27
(lp381
(icurlovision
Stone
p382
(dp383
g31
F6.375
sg32
F-0.1875
sg33
F0.296875
sg34
S'red'
p384
sbasba(icurlovision
StoneLayout
p385
(dp386
g26
F0.4791666666666667
sg27
(lp387
(icurlovision
Stone
p388
(dp389
g31
F-1.75
sg32
F-3.583333333333333
sg33
F0.3611111111111111
sg34
S'red'
p390
sbasbasg129
I2
sg130
I1
sba(icurlovision
EndResult
p391
(dp392
g2
I2
sg9
(lp393
(I7
I8
tp394
a(I7
I7
tp395
a(I6
I7
tp396
a(I6
I6
tp397
a(I5
I6
tp398
a(I5
I5
tp399
a(I4
I5
tp400
a(I4
I4
tp401
a(I3
I4
tp402
a(I3
I3
tp403
a(I2
I2
tp404
a(I1
I2
tp405
a(I1
I1
tp406
a(I0
I1
tp407
asg21
I4
sg22
(lp408
(icurlovision
StoneLayout
p409
(dp410
g26
F0.4791666666666667
sg27
(lp411
(icurlovision
Stone
p412
(dp413
g31
F4.7625
sg32
F-0.3375
sg33
F0.36250000000000004
sg34
S'red'
p414
sbasba(icurlovision
StoneLayout
p415
(dp416
g26
F0.4791666666666667
sg27
(lp417
(icurlovision
Stone
p418
(dp419
g31
F11.53125
sg32
F3.25
sg33
F0.34375
sg34
S'yellow'
p420
sba(icurlovision
Stone
p421
(dp422
g31
F4.78125
sg32
F-0.34375
sg33
F0.3125
sg34
S'red'
p423
sbasba(icurlovision
StoneLayout
p424
(dp425
g26
F0.4791666666666667
sg27
(lp426
(icurlovision
Stone
p427
(dp428
g31
F11.46195652173913
sg32
F3.2119565217391304
sg33
F0.42391304347826086
sg34
S'yellow'
p429
sba(icurlovision
Stone
p430
(dp431
g31
F13.320652173913043
sg32
F0.1467391304347826
sg33
F0.44021739130434784
sg34
S'red'
p432
sba(icurlovision
Stone
p433
(dp434
g31
F4.842391304347826
sg32
F-0.4076086956521739
sg33
F0.32608695652173914
sg34
S'red'
p435
sbasba(icurlovision
StoneLayout
p436
(dp437
g26
F0.4791666666666667
sg27
(lp438
(icurlovision
Stone
p439
(dp440
g31
F-2.2857142857142856
sg32
F2.071428571428571
sg33
F0.33928571428571425
sg34
S'red'
p441
sba(icurlovision
Stone
p442
(dp443
g31
F11.5
sg32
F3.25
sg33
F0.42857142857142855
sg34
S'yellow'
p444
sba(icurlovision
Stone
p445
(dp446
g31
F13.285714285714285
sg32
F0.14285714285714285
sg33
F0.4464285714285714
sg34
S'red'
p447
sba(icurlovision
Stone
p448
(dp449
g31
F5.142857142857142
sg32
F-1.357142857142857
sg33
F0.30357142857142855
sg34
S'yellow'
p450
sbasba(icurlovision
StoneLayout
p451
(dp452
g26
F0.4791666666666667
sg27
(lp453
(icurlovision
Stone
p454
(dp455
g31
F-2.2010869565217392
sg32
F2.0380434782608696
sg33
F0.45652173913043476
sg34
S'red'
p456
sba(icurlovision
Stone
p457
(dp458
g31
F11.233695652173912
sg32
F3.2119565217391304
sg33
F0.358695652173913
sg34
S'yellow'
p459
sba(icurlovision
Stone
p460
(dp461
g31
F12.994565217391305
sg32
F0.1793478260869565
sg33
F0.42391304347826086
sg34
S'red'
p462
sba(icurlovision
Stone
p463
(dp464
g31
F3.5054347826086953
sg32
F2.4619565217391304
sg33
F0.44021739130434784
sg34
S'red'
p465
sbasba(icurlovision
StoneLayout
p466
(dp467
g26
F0.4791666666666667
sg27
(lp468
(icurlovision
Stone
p469
(dp470
g31
F2.5227272727272725
sg32
F-0.5454545454545454
sg33
F0.32386363636363635
sg34
S'yellow'
p471
sba(icurlovision
Stone
p472
(dp473
g31
F-2.1818181818181817
sg32
F2.0113636363636362
sg33
F0.3409090909090909
sg34
S'red'
p474
sba(icurlovision
Stone
p475
(dp476
g31
F11.147727272727272
sg32
F3.1363636363636362
sg33
F0.4431818181818181
sg34
S'yellow'
p477
sba(icurlovision
Stone
p478
(dp479
g31
F12.920454545454545
sg32
F0.17045454545454544
sg33
F0.4261363636363636
sg34
S'red'
p480
sba(icurlovision
Stone
p481
(dp482
g31
F-4.3977272727272725
sg32
F6.204545454545454
sg33
F0.40909090909090906
sg34
S'red'
p483
sbasba(icurlovision
StoneLayout
p484
(dp485
g26
F0.4791666666666667
sg27
(lp486
(icurlovision
Stone
p487
(dp488
g31
F-2.232142857142857
sg32
F2.089285714285714
sg33
F0.46428571428571425
sg34
S'red'
p489
sba(icurlovision
Stone
p490
(dp491
g31
F2.767857142857143
sg32
F-1.625
sg33
F0.4464285714285714
sg34
S'red'
p492
sba(icurlovision
Stone
p493
(dp494
g31
F11.517857142857142
sg32
F3.2321428571428568
sg33
F0.42857142857142855
sg34
S'yellow'
p495
sba(icurlovision
Stone
p496
(dp497
g31
F13.339285714285714
sg32
F0.125
sg33
F0.4464285714285714
sg34
S'red'
p498
sbasba(icurlovision
StoneLayout
p499
(dp500
g26
F0.4791666666666667
sg27
(lp501
(icurlovision
Stone
p502
(dp503
g31
F-2.3048780487804876
sg32
F2.048780487804878
sg33
F0.31097560975609756
sg34
S'red'
p504
sba(icurlovision
Stone
p505
(dp506
g31
F3.512195121951219
sg32
F-2.2317073170731705
sg33
F0.4390243902439024
sg34
S'yellow'
p507
sba(icurlovision
Stone
p508
(dp509
g31
F11.48780487804878
sg32
F3.219512195121951
sg33
F0.4390243902439024
sg34
S'yellow'
p510
sba(icurlovision
Stone
p511
(dp512
g31
F13.353658536585366
sg32
F0.14634146341463414
sg33
F0.274390243902439
sg34
S'red'
p513
sbasba(icurlovision
StoneLayout
p514
(dp515
g26
F0.4791666666666667
sg27
(lp516
(icurlovision
Stone
p517
(dp518
g31
F-2.183333333333333
sg32
F2.033333333333333
sg33
F0.35
sg34
S'red'
p519
sba(icurlovision
Stone
p520
(dp521
g31
F11.116666666666667
sg32
F3.1333333333333333
sg33
F0.4166666666666667
sg34
S'yellow'
p522
sba(icurlovision
Stone
p523
(dp524
g31
F3.216666666666667
sg32
F0.0
sg33
F0.45
sg34
S'red'
p525
sba(icurlovision
Stone
p526
(dp527
g31
F12.883333333333333
sg32
F0.16666666666666666
sg33
F0.43333333333333335
sg34
S'red'
p528
sbasba(icurlovision
StoneLayout
p529
(dp530
g26
F0.4791666666666667
sg27
(lp531
(icurlovision
Stone
p532
(dp533
g31
F3.25
sg32
F-0.07142857142857142
sg33
F0.42857142857142855
sg34
S'red'
p534
sba(icurlovision
Stone
p535
(dp536
g31
F11.25
sg32
F3.142857142857143
sg33
F0.42857142857142855
sg34
S'yellow'
p537
sba(icurlovision
Stone
p538
(dp539
g31
F-3.1071428571428568
sg32
F6.7142857142857135
sg33
F0.4464285714285714
sg34
S'red'
p540
sba(icurlovision
Stone
p541
(dp542
g31
F12.964285714285714
sg32
F-1.8928571428571428
sg33
F0.42857142857142855
sg34
S'yellow'
p543
sbasba(icurlovision
StoneLayout
p544
(dp545
g26
F0.4791666666666667
sg27
(lp546
(icurlovision
Stone
p547
(dp548
g31
F12.35
sg32
F-1.6333333333333333
sg33
F0.4
sg34
S'yellow'
p549
sba(icurlovision
Stone
p550
(dp551
g31
F-3.216666666666667
sg32
F6.7
sg33
F0.45
sg34
S'red'
p552
sba(icurlovision
Stone
p553
(dp554
g31
F10.65
sg32
F3.2333333333333334
sg33
F0.4166666666666667
sg34
S'yellow'
p555
sba(icurlovision
Stone
p556
(dp557
g31
F6.95
sg32
F0.2
sg33
F0.43333333333333335
sg34
S'red'
p558
sba(icurlovision
Stone
p559
(dp560
g31
F2.95
sg32
F0.16666666666666666
sg33
F0.43333333333333335
sg34
S'red'
p561
sbasba(icurlovision
StoneLayout
p562
(dp563
g26
F0.4791666666666667
sg27
(lp564
(icurlovision
Stone
p565
(dp566
g31
F-3.196428571428571
sg32
F6.875
sg33
F0.4821428571428571
sg34
S'red'
p567
sba(icurlovision
Stone
p568
(dp569
g31
F13.267857142857142
sg32
F-1.9464285714285714
sg33
F0.42857142857142855
sg34
S'yellow'
p570
sba(icurlovision
Stone
p571
(dp572
g31
F7.982142857142857
sg32
F-0.9821428571428571
sg33
F0.2857142857142857
sg34
S'yellow'
p573
sba(icurlovision
Stone
p574
(dp575
g31
F11.482142857142856
sg32
F3.2321428571428568
sg33
F0.4464285714285714
sg34
S'yellow'
p576
sba(icurlovision
Stone
p577
(dp578
g31
F-1.0535714285714286
sg32
F-0.5892857142857143
sg33
F0.2857142857142857
sg34
S'red'
p579
sbasba(icurlovision
StoneLayout
p580
(dp581
g26
F0.4791666666666667
sg27
(lp582
(icurlovision
Stone
p583
(dp584
g31
F7.704545454545454
sg32
F-0.9545454545454545
sg33
F0.4431818181818181
sg34
S'yellow'
p585
sba(icurlovision
Stone
p586
(dp587
g31
F-0.13636363636363635
sg32
F-0.6136363636363635
sg33
F0.32386363636363635
sg34
S'yellow'
p588
sba(icurlovision
Stone
p589
(dp590
g31
F-3.0340909090909087
sg32
F6.681818181818182
sg33
F0.30681818181818177
sg34
S'red'
p591
sba(icurlovision
Stone
p592
(dp593
g31
F12.784090909090908
sg32
F-1.8409090909090908
sg33
F0.4261363636363636
sg34
S'yellow'
p594
sba(icurlovision
Stone
p595
(dp596
g31
F11.113636363636363
sg32
F3.1363636363636362
sg33
F0.40909090909090906
sg34
S'yellow'
p597
sba(icurlovision
Stone
p598
(dp599
g31
F-1.534090909090909
sg32
F-0.5795454545454545
sg33
F0.3409090909090909
sg34
S'red'
p600
sbasba(icurlovision
StoneLayout
p601
(dp602
g26
F0.4791666666666667
sg27
(lp603
(icurlovision
Stone
p604
(dp605
g31
F7.909090909090908
sg32
F-0.9374999999999999
sg33
F0.4431818181818181
sg34
S'yellow'
p606
sba(icurlovision
Stone
p607
(dp608
g31
F11.420454545454545
sg32
F3.2215909090909087
sg33
F0.4261363636363636
sg34
S'yellow'
p609
sba(icurlovision
Stone
p610
(dp611
g31
F-3.1704545454545454
sg32
F6.869318181818182
sg33
F0.47727272727272724
sg34
S'red'
p612
sba(icurlovision
Stone
p613
(dp614
g31
F-0.13636363636363635
sg32
F-0.5965909090909091
sg33
F0.32386363636363635
sg34
S'yellow'
p615
sba(icurlovision
Stone
p616
(dp617
g31
F13.193181818181817
sg32
F-1.8579545454545454
sg33
F0.30681818181818177
sg34
S'yellow'
p618
sba(icurlovision
Stone
p619
(dp620
g31
F0.75
sg32
F-0.9374999999999999
sg33
F0.47727272727272724
sg34
S'red'
p621
sba(icurlovision
Stone
p622
(dp623
g31
F-1.5681818181818181
sg32
F-0.5625
sg33
F0.3409090909090909
sg34
S'red'
p624
sbasbasg129
I2
sg130
I0
sba(icurlovision
EndResult
p625
(dp626
g2
I2
sg9
(lp627
(I8
I7
tp628
a(I7
I6
tp629
a(I6
I6
tp630
a(I6
I5
tp631
a(I5
I5
tp632
a(I5
I4
tp633
a(I4
I4
tp634
a(I4
I3
tp635
a(I3
I3
tp636
a(I2
I2
tp637
a(I2
I1
tp638
a(I1
I1
tp639
a(I1
I0
tp640
asg21
I5
sg22
(lp641
(icurlovision
StoneLayout
p642
(dp643
g26
F0.4791666666666667
sg27
(lp644
(icurlovision
Stone
p645
(dp646
g31
F11.441176470588236
sg32
F0.6470588235294118
sg33
F0.4264705882352941
sg34
S'yellow'
p647
sbasba(icurlovision
StoneLayout
p648
(dp649
g26
F0.4791666666666667
sg27
(lp650
(icurlovision
Stone
p651
(dp652
g31
F2.6578947368421053
sg32
F0.4605263157894737
sg33
F0.4473684210526315
sg34
S'yellow'
p653
sba(icurlovision
Stone
p654
(dp655
g31
F11.44736842105263
sg32
F0.7236842105263157
sg33
F0.4473684210526315
sg34
S'yellow'
p656
sba(icurlovision
Stone
p657
(dp658
g31
F9.605263157894736
sg32
F-3.4605263157894735
sg33
F0.4473684210526315
sg34
S'red'
p659
sbasba(icurlovision
StoneLayout
p660
(dp661
g26
F0.4791666666666667
sg27
(lp662
(icurlovision
Stone
p663
(dp664
g31
F-5.9817073170731705
sg32
F6.091463414634146
sg33
F0.2926829268292683
sg34
S'yellow'
p665
sba(icurlovision
Stone
p666
(dp667
g31
F-0.7134146341463414
sg32
F-3.786585365853658
sg33
F0.45731707317073167
sg34
S'red'
p668
sba(icurlovision
Stone
p669
(dp670
g31
F11.579268292682926
sg32
F0.7134146341463414
sg33
F0.2926829268292683
sg34
S'yellow'
p671
sba(icurlovision
Stone
p672
(dp673
g31
F9.713414634146341
sg32
F-3.5304878048780486
sg33
F0.4390243902439024
sg34
S'red'
p674
sbasba(icurlovision
StoneLayout
p675
(dp676
g26
F0.4791666666666667
sg27
(lp677
(icurlovision
Stone
p678
(dp679
g31
F11.817073170731707
sg32
F0.6951219512195121
sg33
F0.4390243902439024
sg34
S'yellow'
p680
sba(icurlovision
Stone
p681
(dp682
g31
F7.792682926829268
sg32
F-5.48780487804878
sg33
F0.45731707317073167
sg34
S'red'
p683
sba(icurlovision
Stone
p684
(dp685
g31
F-0.6951219512195121
sg32
F-3.8780487804878048
sg33
F0.47560975609756095
sg34
S'red'
p686
sba(icurlovision
Stone
p687
(dp688
g31
F4.317073170731707
sg32
F0.6219512195121951
sg33
F0.3475609756097561
sg34
S'yellow'
p689
sbasba(icurlovision
StoneLayout
p690
(dp691
g26
F0.4791666666666667
sg27
(lp692
(icurlovision
Stone
p693
(dp694
g31
F9.945
sg32
F2.37
sg33
F0.435
sg34
S'yellow'
p695
sba(icurlovision
Stone
p696
(dp697
g31
F5.685
sg32
F-2.9099999999999997
sg33
F0.345
sg34
S'red'
p698
sba(icurlovision
Stone
p699
(dp700
g31
F-0.6749999999999999
sg32
F-3.78
sg33
F0.285
sg34
S'red'
p701
sba(icurlovision
Stone
p702
(dp703
g31
F7.574999999999999
sg32
F-5.37
sg33
F0.3
sg34
S'red'
p704
sba(icurlovision
Stone
p705
(dp706
g31
F4.125
sg32
F0.6
sg33
F0.345
sg34
S'yellow'
p707
sba(icurlovision
Stone
p708
(dp709
g31
F8.685
sg32
F-4.26
sg33
F0.27
sg34
S'yellow'
p710
sbasba(icurlovision
StoneLayout
p711
(dp712
g26
F0.4791666666666667
sg27
(lp713
(icurlovision
Stone
p714
(dp715
g31
F-5.877906976744186
sg32
F5.982558139534883
sg33
F0.45348837209302323
sg34
S'yellow'
p716
sba(icurlovision
Stone
p717
(dp718
g31
F9.854651162790697
sg32
F2.563953488372093
sg33
F0.436046511627907
sg34
S'yellow'
p719
sba(icurlovision
Stone
p720
(dp721
g31
F-5.25
sg32
F-5.703488372093023
sg33
F0.47093023255813954
sg34
S'red'
p722
sba(icurlovision
Stone
p723
(dp724
g31
F7.587209302325581
sg32
F-5.354651162790698
sg33
F0.45348837209302323
sg34
S'red'
p725
sba(icurlovision
Stone
p726
(dp727
g31
F4.133720930232558
sg32
F0.6453488372093024
sg33
F0.313953488372093
sg34
S'yellow'
p728
sba(icurlovision
Stone
p729
(dp730
g31
F-0.7151162790697674
sg32
F-5.912790697674419
sg33
F0.313953488372093
sg34
S'yellow'
p731
sba(icurlovision
Stone
p732
(dp733
g31
F-7.482558139534883
sg32
F-2.1802325581395348
sg33
F0.41860465116279066
sg34
S'red'
p734
sbasba(icurlovision
StoneLayout
p735
(dp736
g26
F0.4791666666666667
sg27
(lp737
(icurlovision
Stone
p738
(dp739
g31
F-5.615853658536585
sg32
F5.890243902439024
sg33
F0.4390243902439024
sg34
S'yellow'
p740
sba(icurlovision
Stone
p741
(dp742
g31
F-1.2987804878048779
sg32
F-6.6951219512195115
sg33
F0.4390243902439024
sg34
S'yellow'
p743
sba(icurlovision
Stone
p744
(dp745
g31
F9.603658536585366
sg32
F2.4146341463414633
sg33
F0.40243902439024387
sg34
S'yellow'
p746
sba(icurlovision
Stone
p747
(dp748
g31
F-5.103658536585366
sg32
F-5.48780487804878
sg33
F0.3292682926829268
sg34
S'red'
p749
sba(icurlovision
Stone
p750
(dp751
g31
F7.371951219512194
sg32
F-5.158536585365853
sg33
F0.42073170731707316
sg34
S'red'
p752
sba(icurlovision
Stone
p753
(dp754
g31
F3.8231707317073167
sg32
F2.74390243902439
sg33
F0.25609756097560976
sg34
S'red'
p755
sbasba(icurlovision
StoneLayout
p756
(dp757
g26
F0.4791666666666667
sg27
(lp758
(icurlovision
Stone
p759
(dp760
g31
F-5.2
sg32
F-5.616666666666666
sg33
F0.45
sg34
S'red'
p761
sba(icurlovision
Stone
p762
(dp763
g31
F-5.733333333333333
sg32
F5.916666666666667
sg33
F0.45
sg34
S'yellow'
p764
sba(icurlovision
Stone
p765
(dp766
g31
F-1.3333333333333333
sg32
F-6.85
sg33
F0.2833333333333333
sg34
S'yellow'
p767
sba(icurlovision
Stone
p768
(dp769
g31
F10.533333333333333
sg32
F2.3166666666666664
sg33
F0.35
sg34
S'yellow'
p770
sba(icurlovision
Stone
p771
(dp772
g31
F7.466666666666667
sg32
F-5.316666666666666
sg33
F0.43333333333333335
sg34
S'red'
p773
sba(icurlovision
Stone
p774
(dp775
g31
F4.733333333333333
sg32
F2.6166666666666667
sg33
F0.2833333333333333
sg34
S'yellow'
p776
sbasba(icurlovision
StoneLayout
p777
(dp778
g26
F0.4791666666666667
sg27
(lp779
(icurlovision
Stone
p780
(dp781
g31
F-5.284090909090908
sg32
F-5.6931818181818175
sg33
F0.4602272727272727
sg34
S'red'
p782
sba(icurlovision
Stone
p783
(dp784
g31
F-1.3977272727272727
sg32
F-6.954545454545454
sg33
F0.4431818181818181
sg34
S'yellow'
p785
sba(icurlovision
Stone
p786
(dp787
g31
F4.806818181818182
sg32
F2.693181818181818
sg33
F0.2727272727272727
sg34
S'yellow'
p788
sba(icurlovision
Stone
p789
(dp790
g31
F-5.829545454545454
sg32
F6.0
sg33
F0.4602272727272727
sg34
S'yellow'
p791
sba(icurlovision
Stone
p792
(dp793
g31
F-1.4659090909090908
sg32
F2.693181818181818
sg33
F0.4602272727272727
sg34
S'red'
p794
sba(icurlovision
Stone
p795
(dp796
g31
F10.636363636363635
sg32
F2.352272727272727
sg33
F0.4261363636363636
sg34
S'yellow'
p797
sba(icurlovision
Stone
p798
(dp799
g31
F7.534090909090908
sg32
F-5.352272727272727
sg33
F0.28977272727272724
sg34
S'red'
p800
sbasba(icurlovision
StoneLayout
p801
(dp802
g26
F0.4791666666666667
sg27
(lp803
(icurlovision
Stone
p804
(dp805
g31
F-1.434782608695652
sg32
F2.6902173913043477
sg33
F0.32608695652173914
sg34
S'red'
p806
sba(icurlovision
Stone
p807
(dp808
g31
F-5.804347826086956
sg32
F5.951086956521739
sg33
F0.45652173913043476
sg34
S'yellow'
p809
sba(icurlovision
Stone
p810
(dp811
g31
F-1.4021739130434783
sg32
F-6.864130434782608
sg33
F0.32608695652173914
sg34
S'yellow'
p812
sba(icurlovision
Stone
p813
(dp814
g31
F-4.304347826086956
sg32
F-5.820652173913043
sg33
F0.2934782608695652
sg34
S'red'
p815
sba(icurlovision
Stone
p816
(dp817
g31
F7.467391304347826
sg32
F-5.298913043478261
sg33
F0.2934782608695652
sg34
S'red'
p818
sba(icurlovision
Stone
p819
(dp820
g31
F4.532608695652174
sg32
F2.9510869565217392
sg33
F0.44021739130434784
sg34
S'yellow'
p821
sba(icurlovision
Stone
p822
(dp823
g31
F-5.576086956521739
sg32
F-5.690217391304348
sg33
F0.32608695652173914
sg34
S'red'
p824
sba(icurlovision
Stone
p825
(dp826
g31
F10.532608695652174
sg32
F2.3315217391304346
sg33
F0.32608695652173914
sg34
S'yellow'
p827
sbasba(icurlovision
StoneLayout
p828
(dp829
g26
F0.4791666666666667
sg27
(lp830
(icurlovision
Stone
p831
(dp832
g31
F-4.261363636363636
sg32
F-5.829545454545454
sg33
F0.4602272727272727
sg34
S'red'
p833
sba(icurlovision
Stone
p834
(dp835
g31
F-5.761363636363636
sg32
F5.863636363636363
sg33
F0.4261363636363636
sg34
S'yellow'
p836
sba(icurlovision
Stone
p837
(dp838
g31
F-0.75
sg32
F2.0454545454545454
sg33
F0.4261363636363636
sg34
S'yellow'
p839
sba(icurlovision
Stone
p840
(dp841
g31
F-5.488636363636363
sg32
F-5.727272727272727
sg33
F0.4602272727272727
sg34
S'red'
p842
sba(icurlovision
Stone
p843
(dp844
g31
F-1.3295454545454544
sg32
F-6.852272727272727
sg33
F0.4602272727272727
sg34
S'yellow'
p845
sba(icurlovision
Stone
p846
(dp847
g31
F7.431818181818182
sg32
F-5.284090909090908
sg33
F0.30681818181818177
sg34
S'red'
p848
sba(icurlovision
Stone
p849
(dp850
g31
F10.46590909090909
sg32
F2.2840909090909087
sg33
F0.3409090909090909
sg34
S'yellow'
p851
sba(icurlovision
Stone
p852
(dp853
g31
F4.534090909090909
sg32
F2.8977272727272725
sg33
F0.32386363636363635
sg34
S'yellow'
p854
sba(icurlovision
Stone
p855
(dp856
g31
F-2.1136363636363633
sg32
F2.7954545454545454
sg33
F0.2727272727272727
sg34
S'red'
p857
sba(icurlovision
Stone
p858
(dp859
g31
F-5.181818181818182
sg32
F0.47727272727272724
sg33
F0.49431818181818177
sg34
S'red'
p860
sbasba(icurlovision
StoneLayout
p861
(dp862
g26
F0.4791666666666667
sg27
(lp863
(icurlovision
Stone
p864
(dp865
g31
F-5.910714285714286
sg32
F6.0892857142857135
sg33
F0.46428571428571425
sg34
S'yellow'
p866
sba(icurlovision
Stone
p867
(dp868
g31
F-1.4107142857142856
sg32
F-6.982142857142857
sg33
F0.30357142857142855
sg34
S'yellow'
p869
sba(icurlovision
Stone
p870
(dp871
g31
F-5.660714285714286
sg32
F-5.8392857142857135
sg33
F0.46428571428571425
sg34
S'red'
p872
sba(icurlovision
Stone
p873
(dp874
g31
F10.767857142857142
sg32
F2.4107142857142856
sg33
F0.30357142857142855
sg34
S'yellow'
p875
sba(icurlovision
Stone
p876
(dp877
g31
F-4.375
sg32
F-5.946428571428571
sg33
F0.46428571428571425
sg34
S'red'
p878
sba(icurlovision
Stone
p879
(dp880
g31
F-2.482142857142857
sg32
F1.9107142857142856
sg33
F0.4821428571428571
sg34
S'yellow'
p881
sba(icurlovision
Stone
p882
(dp883
g31
F4.660714285714286
sg32
F3.0535714285714284
sg33
F0.3214285714285714
sg34
S'yellow'
p884
sba(icurlovision
Stone
p885
(dp886
g31
F7.625
sg32
F-5.375
sg33
F0.4464285714285714
sg34
S'red'
p887
sba(icurlovision
Stone
p888
(dp889
g31
F0.08928571428571427
sg32
F2.5535714285714284
sg33
F0.4464285714285714
sg34
S'red'
p890
sba(icurlovision
Stone
p891
(dp892
g31
F-2.196428571428571
sg32
F2.9107142857142856
sg33
F0.2857142857142857
sg34
S'red'
p893
sbasba(icurlovision
StoneLayout
p894
(dp895
g26
F0.4791666666666667
sg27
(lp896
(icurlovision
Stone
p897
(dp898
g31
F0.9715909090909091
sg32
F2.352272727272727
sg33
F0.3409090909090909
sg34
S'yellow'
p899
sba(icurlovision
Stone
p900
(dp901
g31
F-4.346590909090909
sg32
F-5.863636363636363
sg33
F0.4602272727272727
sg34
S'red'
p902
sba(icurlovision
Stone
p903
(dp904
g31
F4.5852272727272725
sg32
F2.965909090909091
sg33
F0.3409090909090909
sg34
S'yellow'
p905
sba(icurlovision
Stone
p906
(dp907
g31
F-0.6988636363636364
sg32
F2.590909090909091
sg33
F0.3409090909090909
sg34
S'red'
p908
sba(icurlovision
Stone
p909
(dp910
g31
F-5.642045454545454
sg32
F-5.761363636363636
sg33
F0.4602272727272727
sg34
S'red'
p911
sba(icurlovision
Stone
p912
(dp913
g31
F-1.4488636363636362
sg32
F-6.920454545454545
sg33
F0.28977272727272724
sg34
S'yellow'
p914
sba(icurlovision
Stone
p915
(dp916
g31
F-2.4715909090909087
sg32
F1.8749999999999998
sg33
F0.32386363636363635
sg34
S'yellow'
p917
sba(icurlovision
Stone
p918
(dp919
g31
F-5.846590909090908
sg32
F6.034090909090908
sg33
F0.4261363636363636
sg34
S'yellow'
p920
sba(icurlovision
Stone
p921
(dp922
g31
F7.517045454545454
sg32
F-5.386363636363636
sg33
F0.4261363636363636
sg34
S'red'
p923
sba(icurlovision
Stone
p924
(dp925
g31
F10.585227272727272
sg32
F2.352272727272727
sg33
F0.40909090909090906
sg34
S'yellow'
p926
sba(icurlovision
Stone
p927
(dp928
g31
F-2.1988636363636362
sg32
F2.8977272727272725
sg33
F0.2727272727272727
sg34
S'red'
p929
sbasbasg129
I3
sg130
I1
sba(icurlovision
EndResult
p930
(dp931
g2
I2
sg9
(lp932
(I7
I7
tp933
a(I6
I7
tp934
a(I6
I6
tp935
a(I5
I6
tp936
a(I5
I5
tp937
a(I4
I4
tp938
a(I3
I4
tp939
a(I2
I3
tp940
a(I2
I2
tp941
a(I1
I2
tp942
a(I1
I1
tp943
asg21
I6
sg22
(lp944
(icurlovision
StoneLayout
p945
(dp946
g26
F0.4791666666666667
sg27
(lp947
(icurlovision
Stone
p948
(dp949
g31
F10.125
sg32
F3.0535714285714284
sg33
F0.42857142857142855
sg34
S'yellow'
p950
sba(icurlovision
Stone
p951
(dp952
g31
F-0.8392857142857142
sg32
F0.30357142857142855
sg33
F0.3214285714285714
sg34
S'red'
p953
sbasba(icurlovision
StoneLayout
p954
(dp955
g26
F0.4791666666666667
sg27
(lp956
(icurlovision
Stone
p957
(dp958
g31
F10.388297872340425
sg32
F3.1914893617021276
sg33
F0.44680851063829785
sg34
S'yellow'
p959
sba(icurlovision
Stone
p960
(dp961
g31
F-0.8457446808510638
sg32
F0.351063829787234
sg33
F0.3670212765957446
sg34
S'red'
p962
sba(icurlovision
Stone
p963
(dp964
g31
F3.941489361702127
sg32
F0.06382978723404255
sg33
F0.28723404255319146
sg34
S'red'
p965
sbasba(icurlovision
StoneLayout
p966
(dp967
g26
F0.4791666666666667
sg27
(lp968
(icurlovision
Stone
p969
(dp970
g31
F-0.0
sg32
F0.03260869565217391
sg33
F0.45652173913043476
sg34
S'red'
p971
sba(icurlovision
Stone
p972
(dp973
g31
F10.01086956521739
sg32
F3.0978260869565215
sg33
F0.358695652173913
sg34
S'yellow'
p974
sba(icurlovision
Stone
p975
(dp976
g31
F4.663043478260869
sg32
F0.06521739130434782
sg33
F0.44021739130434784
sg34
S'yellow'
p977
sbasba(icurlovision
StoneLayout
p978
(dp979
g26
F0.4791666666666667
sg27
(lp980
(icurlovision
Stone
p981
(dp982
g31
F-0.040178571428571425
sg32
F0.040178571428571425
sg33
F0.45535714285714285
sg34
S'red'
p983
sba(icurlovision
Stone
p984
(dp985
g31
F4.620535714285714
sg32
F0.09375
sg33
F0.30803571428571425
sg34
S'yellow'
p986
sbasba(icurlovision
StoneLayout
p987
(dp988
g26
F0.4791666666666667
sg27
(lp989
(icurlovision
Stone
p990
(dp991
g31
F-0.015625
sg32
F0.046875
sg33
F0.46875
sg34
S'red'
p992
sba(icurlovision
Stone
p993
(dp994
g31
F4.765625
sg32
F0.015625
sg33
F0.46875
sg34
S'yellow'
p995
sba(icurlovision
Stone
p996
(dp997
g31
F-6.203125
sg32
F1.421875
sg33
F0.34375
sg34
S'yellow'
p998
sbasba(icurlovision
StoneLayout
p999
(dp1000
g26
F0.4791666666666667
sg27
(lp1001
(icurlovision
Stone
p1002
(dp1003
g31
F0.33620689655172414
sg32
F0.9956896551724138
sg33
F0.33620689655172414
sg34
S'yellow'
p1004
sbasba(icurlovision
StoneLayout
p1005
(dp1006
g26
F0.4791666666666667
sg27
(lp1007
(icurlovision
Stone
p1008
(dp1009
g31
F0.4528301886792453
sg32
F6.933962264150944
sg33
F0.4669811320754717
sg34
S'red'
p1010
sba(icurlovision
Stone
p1011
(dp1012
g31
F1.1603773584905661
sg32
F0.7641509433962265
sg33
F0.4386792452830189
sg34
S'red'
p1013
sbasba(icurlovision
StoneLayout
p1014
(dp1015
g26
F0.4791666666666667
sg27
(lp1016
(icurlovision
Stone
p1017
(dp1018
g31
F1.7638888888888888
sg32
F1.486111111111111
sg33
F0.3333333333333333
sg34
S'yellow'
p1019
sba(icurlovision
Stone
p1020
(dp1021
g31
F0.4583333333333333
sg32
F6.875
sg33
F0.4583333333333333
sg34
S'red'
p1022
sba(icurlovision
Stone
p1023
(dp1024
g31
F4.986111111111111
sg32
F1.4305555555555556
sg33
F0.3472222222222222
sg34
S'red'
p1025
sbasba(icurlovision
StoneLayout
p1026
(dp1027
g26
F0.4791666666666667
sg27
(lp1028
(icurlovision
Stone
p1029
(dp1030
g31
F0.44047619047619047
sg32
F6.988095238095238
sg33
F0.3333333333333333
sg34
S'red'
p1031
sba(icurlovision
Stone
p1032
(dp1033
g31
F-0.5833333333333333
sg32
F6.226190476190476
sg33
F0.3333333333333333
sg34
S'yellow'
p1034
sbasba(icurlovision
StoneLayout
p1035
(dp1036
g26
F0.4791666666666667
sg27
(lp1037
(icurlovision
Stone
p1038
(dp1039
g31
F-5.846938775510204
sg32
F6.030612244897959
sg33
F0.4744897959183673
sg34
S'yellow'
p1040
sba(icurlovision
Stone
p1041
(dp1042
g31
F-6.0
sg32
F1.4387755102040816
sg33
F0.336734693877551
sg34
S'red'
p1043
sbasba(icurlovision
StoneLayout
p1044
(dp1045
g26
F0.4791666666666667
sg27
(lp1046
(icurlovision
Stone
p1047
(dp1048
g31
F0.43421052631578944
sg32
F6.9605263157894735
sg33
F0.43421052631578944
sg34
S'red'
p1049
sba(icurlovision
Stone
p1050
(dp1051
g31
F4.618421052631579
sg32
F-3.9868421052631575
sg33
F0.42105263157894735
sg34
S'yellow'
p1052
sbasbasg129
I3
sg130
I0
sba(icurlovision
EndResult
p1053
(dp1054
g2
I2
sg9
(lp1055
(I7
I8
tp1056
a(I7
I7
tp1057
a(I6
I6
tp1058
a(I5
I6
tp1059
a(I5
I5
tp1060
a(I4
I4
tp1061
a(I3
I4
tp1062
a(I3
I3
tp1063
a(I2
I3
tp1064
a(I2
I2
tp1065
a(I0
I1
tp1066
asg21
I7
sg22
(lp1067
(icurlovision
StoneLayout
p1068
(dp1069
g26
F0.4791666666666667
sg27
(lp1070
(icurlovision
Stone
p1071
(dp1072
g31
F10.010204081632653
sg32
F-0.030612244897959183
sg33
F0.42857142857142855
sg34
S'red'
p1073
sbasba(icurlovision
StoneLayout
p1074
(dp1075
g26
F0.4791666666666667
sg27
(lp1076
(icurlovision
Stone
p1077
(dp1078
g31
F2.142857142857143
sg32
F0.29464285714285715
sg33
F0.42857142857142855
sg34
S'yellow'
p1079
sba(icurlovision
Stone
p1080
(dp1081
g31
F9.75
sg32
F-0.05357142857142857
sg33
F0.42857142857142855
sg34
S'red'
p1082
sbasba(icurlovision
StoneLayout
p1083
(dp1084
g26
F0.4791666666666667
sg27
(lp1085
(icurlovision
Stone
p1086
(dp1087
g31
F3.2368421052631575
sg32
F0.5
sg33
F0.4473684210526315
sg34
S'red'
p1088
sba(icurlovision
Stone
p1089
(dp1090
g31
F9.921052631578947
sg32
F-0.05263157894736842
sg33
F0.4473684210526315
sg34
S'red'
p1091
sba(icurlovision
Stone
p1092
(dp1093
g31
F4.578947368421052
sg32
F0.07894736842105263
sg33
F0.3157894736842105
sg34
S'yellow'
p1094
sba(icurlovision
Stone
p1095
(dp1096
g31
F2.2105263157894735
sg32
F0.2894736842105263
sg33
F0.43421052631578944
sg34
S'yellow'
p1097
sbasba(icurlovision
StoneLayout
p1098
(dp1099
g26
F0.4791666666666667
sg27
(lp1100
(icurlovision
Stone
p1101
(dp1102
g31
F3.25
sg32
F0.4852941176470588
sg33
F0.4411764705882353
sg34
S'red'
p1103
sba(icurlovision
Stone
p1104
(dp1105
g31
F7.63235294117647
sg32
F-6.279411764705882
sg33
F0.45588235294117646
sg34
S'red'
p1106
sba(icurlovision
Stone
p1107
(dp1108
g31
F2.191176470588235
sg32
F0.27941176470588236
sg33
F0.4411764705882353
sg34
S'yellow'
p1109
sba(icurlovision
Stone
p1110
(dp1111
g31
F4.602941176470588
sg32
F0.07352941176470588
sg33
F0.3235294117647059
sg34
S'yellow'
p1112
sbasba(icurlovision
StoneLayout
p1113
(dp1114
g26
F0.4791666666666667
sg27
(lp1115
(icurlovision
Stone
p1116
(dp1117
g31
F7.887931034482759
sg32
F-6.491379310344827
sg33
F0.46551724137931033
sg34
S'red'
p1118
sba(icurlovision
Stone
p1119
(dp1120
g31
F3.155172413793103
sg32
F0.6982758620689655
sg33
F0.34913793103448276
sg34
S'red'
p1121
sba(icurlovision
Stone
p1122
(dp1123
g31
F4.241379310344827
sg32
F0.12931034482758622
sg33
F0.34913793103448276
sg34
S'yellow'
p1124
sba(icurlovision
Stone
p1125
(dp1126
g31
F5.663793103448276
sg32
F-0.02586206896551724
sg33
F0.34913793103448276
sg34
S'yellow'
p1127
sbasba(icurlovision
StoneLayout
p1128
(dp1129
g26
F0.4791666666666667
sg27
(lp1130
(icurlovision
Stone
p1131
(dp1132
g31
F7.369565217391304
sg32
F-6.08695652173913
sg33
F0.34782608695652173
sg34
S'red'
p1133
sba(icurlovision
Stone
p1134
(dp1135
g31
F-0.8695652173913043
sg32
F-3.434782608695652
sg33
F0.44565217391304346
sg34
S'yellow'
p1136
sba(icurlovision
Stone
p1137
(dp1138
g31
F1.6304347826086956
sg32
F0.21739130434782608
sg33
F0.34782608695652173
sg34
S'yellow'
p1139
sbasba(icurlovision
StoneLayout
p1140
(dp1141
g26
F0.4791666666666667
sg27
(lp1142
(icurlovision
Stone
p1143
(dp1144
g31
F-0.8773584905660378
sg32
F-3.509433962264151
sg33
F0.4386792452830189
sg34
S'yellow'
p1145
sba(icurlovision
Stone
p1146
(dp1147
g31
F1.1037735849056605
sg32
F-2.2358490566037736
sg33
F0.32547169811320753
sg34
S'red'
p1148
sbasba(icurlovision
StoneLayout
p1149
(dp1150
g26
F0.4791666666666667
sg27
(lp1151
(icurlovision
Stone
p1152
(dp1153
g31
F-0.6581632653061225
sg32
F1.6377551020408163
sg33
F0.45918367346938777
sg34
S'yellow'
p1154
sba(icurlovision
Stone
p1155
(dp1156
g31
F7.607142857142857
sg32
F-6.290816326530612
sg33
F0.45918367346938777
sg34
S'red'
p1157
sba(icurlovision
Stone
p1158
(dp1159
g31
F-1.3010204081632653
sg32
F-2.0357142857142856
sg33
F0.45918367346938777
sg34
S'red'
p1160
sbasba(icurlovision
StoneLayout
p1161
(dp1162
g26
F0.4791666666666667
sg27
(lp1163
(icurlovision
Stone
p1164
(dp1165
g31
F7.75
sg32
F-6.34375
sg33
F0.46875
sg34
S'red'
p1166
sba(icurlovision
Stone
p1167
(dp1168
g31
F-1.34375
sg32
F-2.375
sg33
F0.453125
sg34
S'red'
p1169
sba(icurlovision
Stone
p1170
(dp1171
g31
F-1.59375
sg32
F-1.21875
sg33
F0.46875
sg34
S'red'
p1172
sbasba(icurlovision
StoneLayout
p1173
(dp1174
g26
F0.4791666666666667
sg27
(lp1175
(icurlovision
Stone
p1176
(dp1177
g31
F-1.3526785714285714
sg32
F-2.370535714285714
sg33
F0.3214285714285714
sg34
S'red'
p1178
sba(icurlovision
Stone
p1179
(dp1180
g31
F0.17410714285714285
sg32
F-2.15625
sg33
F0.33482142857142855
sg34
S'yellow'
p1181
sba(icurlovision
Stone
p1182
(dp1183
g31
F7.700892857142857
sg32
F-6.3080357142857135
sg33
F0.46875
sg34
S'red'
p1184
sba(icurlovision
Stone
p1185
(dp1186
g31
F-1.6205357142857142
sg32
F-1.21875
sg33
F0.4821428571428571
sg34
S'red'
p1187
sbasba(icurlovision
StoneLayout
p1188
(dp1189
g26
F0.4791666666666667
sg27
(lp1190
(icurlovision
Stone
p1191
(dp1192
g31
F-2.855769230769231
sg32
F-5.307692307692308
sg33
F0.3605769230769231
sg34
S'red'
p1193
sba(icurlovision
Stone
p1194
(dp1195
g31
F-3.8365384615384617
sg32
F-5.798076923076923
sg33
F0.34615384615384615
sg34
S'yellow'
p1196
sba(icurlovision
Stone
p1197
(dp1198
g31
F7.846153846153847
sg32
F-6.403846153846154
sg33
F0.4759615384615385
sg34
S'red'
p1199
sbasbasg129
I3
sg130
I0
sba(icurlovision
EndResult
p1200
(dp1201
g2
I3
sg9
(lp1202
(I7
I8
tp1203
a(I6
I7
tp1204
a(I6
I6
tp1205
a(I5
I5
tp1206
a(I4
I5
tp1207
a(I4
I4
tp1208
a(I3
I4
tp1209
a(I3
I3
tp1210
a(I2
I3
tp1211
a(I2
I2
tp1212
a(I1
I2
tp1213
a(I1
I1
tp1214
a(I0
I1
tp1215
asg21
I8
sg22
(lp1216
(icurlovision
StoneLayout
p1217
(dp1218
g26
F0.4791666666666667
sg27
(lp1219
(icurlovision
Stone
p1220
(dp1221
g31
F1.65625
sg32
F0.25
sg33
F0.3125
sg34
S'red'
p1222
sbasba(icurlovision
StoneLayout
p1223
(dp1224
g26
F0.4791666666666667
sg27
(lp1225
(icurlovision
Stone
p1226
(dp1227
g31
F11.052631578947368
sg32
F2.8421052631578947
sg33
F0.43421052631578944
sg34
S'yellow'
p1228
sba(icurlovision
Stone
p1229
(dp1230
g31
F4.605263157894736
sg32
F-0.10526315789473684
sg33
F0.3421052631578947
sg34
S'red'
p1231
sba(icurlovision
Stone
p1232
(dp1233
g31
F1.6052631578947367
sg32
F0.2894736842105263
sg33
F0.3289473684210526
sg34
S'red'
p1234
sbasba(icurlovision
StoneLayout
p1235
(dp1236
g26
F0.4791666666666667
sg27
(lp1237
(icurlovision
Stone
p1238
(dp1239
g31
F11.762195121951219
sg32
F2.9817073170731705
sg33
F0.45731707317073167
sg34
S'yellow'
p1240
sba(icurlovision
Stone
p1241
(dp1242
g31
F5.652439024390244
sg32
F0.1646341463414634
sg33
F0.2926829268292683
sg34
S'yellow'
p1243
sbasba(icurlovision
StoneLayout
p1244
(dp1245
g26
F0.4791666666666667
sg27
(lp1246
(icurlovision
Stone
p1247
(dp1248
g31
F0.9941860465116279
sg32
F2.354651162790698
sg33
F0.45348837209302323
sg34
S'yellow'
p1249
sba(icurlovision
Stone
p1250
(dp1251
g31
F11.598837209302326
sg32
F2.947674418604651
sg33
F0.436046511627907
sg34
S'yellow'
p1252
sba(icurlovision
Stone
p1253
(dp1254
g31
F6.436046511627907
sg32
F0.19186046511627908
sg33
F0.41860465116279066
sg34
S'red'
p1255
sbasba(icurlovision
StoneLayout
p1256
(dp1257
g26
F0.4791666666666667
sg27
(lp1258
(icurlovision
Stone
p1259
(dp1260
g31
F-4.517857142857142
sg32
F5.339285714285714
sg33
F0.46428571428571425
sg34
S'yellow'
p1261
sba(icurlovision
Stone
p1262
(dp1263
g31
F11.767857142857142
sg32
F3.017857142857143
sg33
F0.42857142857142855
sg34
S'yellow'
p1264
sba(icurlovision
Stone
p1265
(dp1266
g31
F6.553571428571428
sg32
F0.19642857142857142
sg33
F0.30357142857142855
sg34
S'red'
p1267
sba(icurlovision
Stone
p1268
(dp1269
g31
F-0.08928571428571427
sg32
F-0.4821428571428571
sg33
F0.4821428571428571
sg34
S'red'
p1270
sbasba(icurlovision
StoneLayout
p1271
(dp1272
g26
F0.4791666666666667
sg27
(lp1273
(icurlovision
Stone
p1274
(dp1275
g31
F6.732558139534883
sg32
F1.8313953488372092
sg33
F0.45348837209302323
sg34
S'yellow'
p1276
sba(icurlovision
Stone
p1277
(dp1278
g31
F-2.058139534883721
sg32
F-4.726744186046512
sg33
F0.3488372093023256
sg34
S'red'
p1279
sba(icurlovision
Stone
p1280
(dp1281
g31
F11.755813953488373
sg32
F2.9825581395348837
sg33
F0.45348837209302323
sg34
S'yellow'
p1282
sbasba(icurlovision
StoneLayout
p1283
(dp1284
g26
F0.4791666666666667
sg27
(lp1285
(icurlovision
Stone
p1286
(dp1287
g31
F6.505813953488372
sg32
F1.7965116279069768
sg33
F0.45348837209302323
sg34
S'yellow'
p1288
sba(icurlovision
Stone
p1289
(dp1290
g31
F-1.9709302325581395
sg32
F-4.5523255813953485
sg33
F0.313953488372093
sg34
S'red'
p1291
sba(icurlovision
Stone
p1292
(dp1293
g31
F11.38953488372093
sg32
F2.877906976744186
sg33
F0.436046511627907
sg34
S'yellow'
p1294
sba(icurlovision
Stone
p1295
(dp1296
g31
F2.947674418604651
sg32
F1.2732558139534884
sg33
F0.313953488372093
sg34
S'red'
p1297
sbasba(icurlovision
StoneLayout
p1298
(dp1299
g26
F0.4791666666666667
sg27
(lp1300
(icurlovision
Stone
p1301
(dp1302
g31
F6.732954545454545
sg32
F1.8579545454545454
sg33
F0.3409090909090909
sg34
S'yellow'
p1303
sba(icurlovision
Stone
p1304
(dp1305
g31
F-1.8238636363636362
sg32
F-3.732954545454545
sg33
F0.3579545454545454
sg34
S'yellow'
p1306
sba(icurlovision
Stone
p1307
(dp1308
g31
F-2.778409090909091
sg32
F-5.573863636363636
sg33
F0.47727272727272724
sg34
S'red'
p1309
sba(icurlovision
Stone
p1310
(dp1311
g31
F11.77840909090909
sg32
F2.9829545454545454
sg33
F0.4602272727272727
sg34
S'yellow'
p1312
sbasba(icurlovision
StoneLayout
p1313
(dp1314
g26
F0.4791666666666667
sg27
(lp1315
(icurlovision
Stone
p1316
(dp1317
g31
F6.675
sg32
F1.875
sg33
F0.46875
sg34
S'yellow'
p1318
sba(icurlovision
Stone
p1319
(dp1320
g31
F11.6625
sg32
F3.0
sg33
F0.44999999999999996
sg34
S'yellow'
p1321
sba(icurlovision
Stone
p1322
(dp1323
g31
F-2.6999999999999997
sg32
F-5.5125
sg33
F0.31875
sg34
S'red'
p1324
sba(icurlovision
Stone
p1325
(dp1326
g31
F-5.925
sg32
F2.475
sg33
F0.46875
sg34
S'red'
p1327
sba(icurlovision
Stone
p1328
(dp1329
g31
F-7.3125
sg32
F-5.7
sg33
F0.35625
sg34
S'yellow'
p1330
sbasba(icurlovision
StoneLayout
p1331
(dp1332
g26
F0.4791666666666667
sg27
(lp1333
(icurlovision
Stone
p1334
(dp1335
g31
F-2.7209302325581395
sg32
F-5.441860465116279
sg33
F0.45348837209302323
sg34
S'red'
p1336
sba(icurlovision
Stone
p1337
(dp1338
g31
F-5.790697674418604
sg32
F2.197674418604651
sg33
F0.47093023255813954
sg34
S'red'
p1339
sba(icurlovision
Stone
p1340
(dp1341
g31
F-0.10465116279069767
sg32
F5.372093023255814
sg33
F0.3313953488372093
sg34
S'yellow'
p1342
sba(icurlovision
Stone
p1343
(dp1344
g31
F4.77906976744186
sg32
F-1.5
sg33
F0.3313953488372093
sg34
S'yellow'
p1345
sba(icurlovision
Stone
p1346
(dp1347
g31
F11.441860465116278
sg32
F2.8604651162790695
sg33
F0.45348837209302323
sg34
S'yellow'
p1348
sbasba(icurlovision
StoneLayout
p1349
(dp1350
g26
F0.4791666666666667
sg27
(lp1351
(icurlovision
Stone
p1352
(dp1353
g31
F-6.269230769230769
sg32
F2.4615384615384617
sg33
F0.3076923076923077
sg34
S'red'
p1354
sba(icurlovision
Stone
p1355
(dp1356
g31
F-2.9615384615384617
sg32
F-5.846153846153847
sg33
F0.34615384615384615
sg34
S'red'
p1357
sba(icurlovision
Stone
p1358
(dp1359
g31
F-0.11538461538461539
sg32
F5.884615384615385
sg33
F0.3269230769230769
sg34
S'yellow'
p1360
sba(icurlovision
Stone
p1361
(dp1362
g31
F12.461538461538462
sg32
F3.153846153846154
sg33
F0.46153846153846156
sg34
S'yellow'
p1363
sba(icurlovision
Stone
p1364
(dp1365
g31
F5.653846153846154
sg32
F-0.42307692307692313
sg33
F0.3269230769230769
sg34
S'red'
p1366
sbasba(icurlovision
StoneLayout
p1367
(dp1368
g26
F0.4791666666666667
sg27
(lp1369
(icurlovision
Stone
p1370
(dp1371
g31
F-2.775
sg32
F-5.625
sg33
F0.33749999999999997
sg34
S'red'
p1372
sba(icurlovision
Stone
p1373
(dp1374
g31
F11.85
sg32
F3.0
sg33
F0.3
sg34
S'yellow'
p1375
sba(icurlovision
Stone
p1376
(dp1377
g31
F-0.11249999999999999
sg32
F5.55
sg33
F0.31875
sg34
S'yellow'
p1378
sba(icurlovision
Stone
p1379
(dp1380
g31
F-5.9624999999999995
sg32
F2.25
sg33
F0.33749999999999997
sg34
S'red'
p1381
sba(icurlovision
Stone
p1382
(dp1383
g31
F6.3
sg32
F-0.75
sg33
F0.33749999999999997
sg34
S'yellow'
p1384
sbasba(icurlovision
StoneLayout
p1385
(dp1386
g26
F0.4791666666666667
sg27
(lp1387
(icurlovision
Stone
p1388
(dp1389
g31
F-2.7777777777777777
sg32
F-5.555555555555555
sg33
F0.4722222222222222
sg34
S'red'
p1390
sba(icurlovision
Stone
p1391
(dp1392
g31
F-5.944444444444444
sg32
F2.2222222222222223
sg33
F0.4583333333333333
sg34
S'red'
p1393
sba(icurlovision
Stone
p1394
(dp1395
g31
F6.222222222222221
sg32
F-0.7222222222222222
sg33
F0.3333333333333333
sg34
S'yellow'
p1396
sbasbasg129
I3
sg130
I0
sba(icurlovision
EndResult
p1397
(dp1398
g2
I4
sg9
(lp1399
(I8
I7
tp1400
a(I7
I7
tp1401
a(I7
I6
tp1402
a(I5
I5
tp1403
a(I4
I4
tp1404
a(I3
I3
tp1405
a(I3
I2
tp1406
a(I2
I2
tp1407
a(I2
I1
tp1408
a(I1
I1
tp1409
a(I1
I0
tp1410
asg21
I9
sg22
(lp1411
(icurlovision
StoneLayout
p1412
(dp1413
g26
F0.4791666666666667
sg27
(lp1414
(icurlovision
Stone
p1415
(dp1416
g31
F10.806122448979592
sg32
F-0.45918367346938777
sg33
F0.42857142857142855
sg34
S'yellow'
p1417
sbasba(icurlovision
StoneLayout
p1418
(dp1419
g26
F0.4791666666666667
sg27
(lp1420
(icurlovision
Stone
p1421
(dp1422
g31
F10.921875
sg32
F-0.484375
sg33
F0.453125
sg34
S'yellow'
p1423
sba(icurlovision
Stone
p1424
(dp1425
g31
F-2.453125
sg32
F3.828125
sg33
F0.359375
sg34
S'red'
p1426
sbasba(icurlovision
StoneLayout
p1427
(dp1428
g26
F0.4791666666666667
sg27
(lp1429
(icurlovision
Stone
p1430
(dp1431
g31
F10.875
sg32
F-0.4934210526315789
sg33
F0.23684210526315788
sg34
S'yellow'
p1432
sba(icurlovision
Stone
p1433
(dp1434
g31
F14.901315789473683
sg32
F-0.3355263157894737
sg33
F0.41447368421052627
sg34
S'yellow'
p1435
sba(icurlovision
Stone
p1436
(dp1437
g31
F-3.2960526315789473
sg32
F4.0855263157894735
sg33
F0.256578947368421
sg34
S'red'
p1438
sbasba(icurlovision
StoneLayout
p1439
(dp1440
g26
F0.4791666666666667
sg27
(lp1441
(icurlovision
Stone
p1442
(dp1443
g31
F3.0789473684210527
sg32
F-0.6710526315789473
sg33
F0.3157894736842105
sg34
S'yellow'
p1444
sba(icurlovision
Stone
p1445
(dp1446
g31
F14.605263157894736
sg32
F-1.6184210526315788
sg33
F0.41447368421052627
sg34
S'red'
p1447
sba(icurlovision
Stone
p1448
(dp1449
g31
F-3.1578947368421053
sg32
F3.8684210526315788
sg33
F0.29605263157894735
sg34
S'red'
p1450
sbasba(icurlovision
StoneLayout
p1451
(dp1452
g26
F0.4791666666666667
sg27
(lp1453
(icurlovision
Stone
p1454
(dp1455
g31
F-4.243421052631579
sg32
F6.769736842105263
sg33
F0.3355263157894737
sg34
S'red'
p1456
sba(icurlovision
Stone
p1457
(dp1458
g31
F3.0592105263157894
sg32
F-0.6513157894736842
sg33
F0.3157894736842105
sg34
S'yellow'
p1459
sba(icurlovision
Stone
p1460
(dp1461
g31
F14.546052631578947
sg32
F-1.638157894736842
sg33
F0.41447368421052627
sg34
S'red'
p1462
sba(icurlovision
Stone
p1463
(dp1464
g31
F-3.138157894736842
sg32
F3.888157894736842
sg33
F0.256578947368421
sg34
S'red'
p1465
sbasba(icurlovision
StoneLayout
p1466
(dp1467
g26
F0.4791666666666667
sg27
(lp1468
(icurlovision
Stone
p1469
(dp1470
g31
F8.554054054054054
sg32
F5.594594594594595
sg33
F0.4256756756756757
sg34
S'red'
p1471
sba(icurlovision
Stone
p1472
(dp1473
g31
F3.1621621621621623
sg32
F-0.6891891891891893
sg33
F0.32432432432432434
sg34
S'yellow'
p1474
sba(icurlovision
Stone
p1475
(dp1476
g31
F-1.7432432432432434
sg32
F-5.918918918918919
sg33
F0.32432432432432434
sg34
S'yellow'
p1477
sba(icurlovision
Stone
p1478
(dp1479
g31
F14.91891891891892
sg32
F-1.7432432432432434
sg33
F0.24324324324324326
sg34
S'red'
p1480
sba(icurlovision
Stone
p1481
(dp1482
g31
F-3.202702702702703
sg32
F4.013513513513514
sg33
F0.26351351351351354
sg34
S'red'
p1483
sba(icurlovision
Stone
p1484
(dp1485
g31
F10.986486486486488
sg32
F6.364864864864865
sg33
F0.4256756756756757
sg34
S'red'
p1486
sbasba(icurlovision
StoneLayout
p1487
(dp1488
g26
F0.4791666666666667
sg27
(lp1489
(icurlovision
Stone
p1490
(dp1491
g31
F3.2291666666666665
sg32
F-0.7291666666666666
sg33
F0.4583333333333333
sg34
S'yellow'
p1492
sba(icurlovision
Stone
p1493
(dp1494
g31
F9.645833333333332
sg32
F-0.1875
sg33
F0.4375
sg34
S'yellow'
p1495
sba(icurlovision
Stone
p1496
(dp1497
g31
F-3.3125
sg32
F4.104166666666666
sg33
F0.25
sg34
S'red'
p1498
sba(icurlovision
Stone
p1499
(dp1500
g31
F15.354166666666666
sg32
F-1.7708333333333333
sg33
F0.3958333333333333
sg34
S'red'
p1501
sbasba(icurlovision
StoneLayout
p1502
(dp1503
g26
F0.4791666666666667
sg27
(lp1504
(icurlovision
Stone
p1505
(dp1506
g31
F9.256578947368421
sg32
F1.0855263157894737
sg33
F0.41447368421052627
sg34
S'red'
p1507
sba(icurlovision
Stone
p1508
(dp1509
g31
F14.50657894736842
sg32
F-1.638157894736842
sg33
F0.41447368421052627
sg34
S'red'
p1510
sba(icurlovision
Stone
p1511
(dp1512
g31
F-3.138157894736842
sg32
F3.927631578947368
sg33
F0.2763157894736842
sg34
S'red'
p1513
sbasba(icurlovision
StoneLayout
p1514
(dp1515
g26
F0.4791666666666667
sg27
(lp1516
(icurlovision
Stone
p1517
(dp1518
g31
F1.4797297297297298
sg32
F1.0743243243243243
sg33
F0.3445945945945946
sg34
S'yellow'
p1519
sba(icurlovision
Stone
p1520
(dp1521
g31
F-3.2635135135135136
sg32
F4.033783783783784
sg33
F0.24324324324324326
sg34
S'red'
p1522
sba(icurlovision
Stone
p1523
(dp1524
g31
F9.628378378378379
sg32
F1.114864864864865
sg33
F0.44594594594594594
sg34
S'red'
p1525
sba(icurlovision
Stone
p1526
(dp1527
g31
F15.101351351351353
sg32
F-1.6824324324324325
sg33
F0.40540540540540543
sg34
S'red'
p1528
sbasba(icurlovision
StoneLayout
p1529
(dp1530
g26
F0.4791666666666667
sg27
(lp1531
(icurlovision
Stone
p1532
(dp1533
g31
F14.93918918918919
sg32
F-1.6824324324324325
sg33
F0.40540540540540543
sg34
S'red'
p1534
sba(icurlovision
Stone
p1535
(dp1536
g31
F10.114864864864865
sg32
F1.4797297297297298
sg33
F0.44594594594594594
sg34
S'red'
p1537
sbasba(icurlovision
StoneLayout
p1538
(dp1539
g26
F0.4791666666666667
sg27
(lp1540
(icurlovision
Stone
p1541
(dp1542
g31
F3.2333333333333334
sg32
F1.4666666666666666
sg33
F0.43333333333333335
sg34
S'yellow'
p1543
sba(icurlovision
Stone
p1544
(dp1545
g31
F9.9
sg32
F1.4666666666666666
sg33
F0.4166666666666667
sg34
S'red'
p1546
sba(icurlovision
Stone
p1547
(dp1548
g31
F14.633333333333333
sg32
F-1.6333333333333333
sg33
F0.4166666666666667
sg34
S'red'
p1549
sbasbasg129
I3
sg130
I1
sba(icurlovision
EndResult
p1550
(dp1551
g2
I4
sg9
(lp1552
(I8
I7
tp1553
a(I7
I6
tp1554
a(I6
I6
tp1555
a(I6
I5
tp1556
a(I5
I5
tp1557
a(I5
I4
tp1558
a(I4
I4
tp1559
a(I4
I3
tp1560
a(I3
I3
tp1561
a(I3
I2
tp1562
a(I2
I2
tp1563
a(I2
I1
tp1564
a(I1
I1
tp1565
a(I1
I0
tp1566
asg21
I10
sg22
(lp1567
(icurlovision
StoneLayout
p1568
(dp1569
g26
F0.4791666666666667
sg27
(lp1570
(icurlovision
Stone
p1571
(dp1572
g31
F9.885245901639344
sg32
F0.3688524590163934
sg33
F0.4180327868852459
sg34
S'yellow'
p1573
sbasba(icurlovision
StoneLayout
p1574
(dp1575
g26
F0.4791666666666667
sg27
(lp1576
(icurlovision
Stone
p1577
(dp1578
g31
F3.0136363636363637
sg32
F0.10909090909090909
sg33
F0.32727272727272727
sg34
S'yellow'
p1579
sba(icurlovision
Stone
p1580
(dp1581
g31
F9.913636363636364
sg32
F4.009090909090909
sg33
F0.44999999999999996
sg34
S'red'
p1582
sba(icurlovision
Stone
p1583
(dp1584
g31
F8.168181818181818
sg32
F-0.3818181818181818
sg33
F0.35454545454545455
sg34
S'yellow'
p1585
sbasba(icurlovision
StoneLayout
p1586
(dp1587
g26
F0.4791666666666667
sg27
(lp1588
(icurlovision
Stone
p1589
(dp1590
g31
F10.076086956521738
sg32
F4.076086956521739
sg33
F0.32608695652173914
sg34
S'red'
p1591
sba(icurlovision
Stone
p1592
(dp1593
g31
F8.315217391304348
sg32
F-0.358695652173913
sg33
F0.32608695652173914
sg34
S'yellow'
p1594
sba(icurlovision
Stone
p1595
(dp1596
g31
F2.510869565217391
sg32
F2.4782608695652173
sg33
F0.4891304347826087
sg34
S'red'
p1597
sba(icurlovision
Stone
p1598
(dp1599
g31
F-1.826086956521739
sg32
F-2.3478260869565215
sg33
F0.47282608695652173
sg34
S'yellow'
p1600
sbasba(icurlovision
StoneLayout
p1601
(dp1602
g26
F0.4791666666666667
sg27
(lp1603
(icurlovision
Stone
p1604
(dp1605
g31
F9.88953488372093
sg32
F4.02906976744186
sg33
F0.436046511627907
sg34
S'red'
p1606
sba(icurlovision
Stone
p1607
(dp1608
g31
F8.180232558139535
sg32
F-0.3313953488372093
sg33
F0.3488372093023256
sg34
S'yellow'
p1609
sba(icurlovision
Stone
p1610
(dp1611
g31
F-1.1337209302325582
sg32
F-1.2383720930232558
sg33
F0.3313953488372093
sg34
S'yellow'
p1612
sbasba(icurlovision
StoneLayout
p1613
(dp1614
g26
F0.4791666666666667
sg27
(lp1615
(icurlovision
Stone
p1616
(dp1617
g31
F9.859756097560975
sg32
F3.896341463414634
sg33
F0.4390243902439024
sg34
S'red'
p1618
sba(icurlovision
Stone
p1619
(dp1620
g31
F-5.652439024390244
sg32
F-2.9817073170731705
sg33
F0.47560975609756095
sg34
S'yellow'
p1621
sba(icurlovision
Stone
p1622
(dp1623
g31
F8.140243902439025
sg32
F-0.45731707317073167
sg33
F0.4390243902439024
sg34
S'yellow'
p1624
sba(icurlovision
Stone
p1625
(dp1626
g31
F-1.2621951219512195
sg32
F0.45731707317073167
sg33
F0.36585365853658536
sg34
S'red'
p1627
sbasba(icurlovision
StoneLayout
p1628
(dp1629
g26
F0.4791666666666667
sg27
(lp1630
(icurlovision
Stone
p1631
(dp1632
g31
F-0.3529411764705882
sg32
F0.2647058823529412
sg33
F0.3382352941176471
sg34
S'yellow'
p1633
sba(icurlovision
Stone
p1634
(dp1635
g31
F9.382352941176471
sg32
F3.8529411764705883
sg33
F0.27941176470588236
sg34
S'red'
p1636
sba(icurlovision
Stone
p1637
(dp1638
g31
F7.735294117647059
sg32
F-0.29411764705882354
sg33
F0.3235294117647059
sg34
S'yellow'
p1639
sba(icurlovision
Stone
p1640
(dp1641
g31
F-2.441176470588235
sg32
F0.5588235294117647
sg33
F0.4411764705882353
sg34
S'red'
p1642
sbasba(icurlovision
StoneLayout
p1643
(dp1644
g26
F0.4791666666666667
sg27
(lp1645
(icurlovision
Stone
p1646
(dp1647
g31
F8.23125
sg32
F-0.35625
sg33
F0.46875
sg34
S'yellow'
p1648
sba(icurlovision
Stone
p1649
(dp1650
g31
F-5.75625
sg32
F-3.05625
sg33
F0.39375
sg34
S'yellow'
p1651
sba(icurlovision
Stone
p1652
(dp1653
g31
F-0.91875
sg32
F-0.24375
sg33
F0.22499999999999998
sg34
S'yellow'
p1654
sba(icurlovision
Stone
p1655
(dp1656
g31
F9.99375
sg32
F4.06875
sg33
F0.44999999999999996
sg34
S'red'
p1657
sba(icurlovision
Stone
p1658
(dp1659
g31
F0.01875
sg32
F1.0687499999999999
sg33
F0.2625
sg34
S'red'
p1660
sbasba(icurlovision
StoneLayout
p1661
(dp1662
g26
F0.4791666666666667
sg27
(lp1663
(icurlovision
Stone
p1664
(dp1665
g31
F-4.867021276595744
sg32
F-3.2393617021276593
sg33
F0.33510638297872336
sg34
S'yellow'
p1666
sba(icurlovision
Stone
p1667
(dp1668
g31
F-4.994680851063829
sg32
F4.803191489361701
sg33
F0.4787234042553191
sg34
S'red'
p1669
sba(icurlovision
Stone
p1670
(dp1671
g31
F8.25
sg32
F-0.3670212765957446
sg33
F0.4627659574468085
sg34
S'yellow'
p1672
sba(icurlovision
Stone
p1673
(dp1674
g31
F3.303191489361702
sg32
F-0.526595744680851
sg33
F0.4627659574468085
sg34
S'yellow'
p1675
sba(icurlovision
Stone
p1676
(dp1677
g31
F10.069148936170212
sg32
F4.069148936170213
sg33
F0.28723404255319146
sg34
S'red'
p1678
sba(icurlovision
Stone
p1679
(dp1680
g31
F-6.494680851063829
sg32
F-3.2712765957446805
sg33
F0.4787234042553191
sg34
S'yellow'
p1681
sbasba(icurlovision
StoneLayout
p1682
(dp1683
g26
F0.4791666666666667
sg27
(lp1684
(icurlovision
Stone
p1685
(dp1686
g31
F-6.535714285714286
sg32
F-3.3571428571428568
sg33
F0.46428571428571425
sg34
S'yellow'
p1687
sba(icurlovision
Stone
p1688
(dp1689
g31
F-4.892857142857142
sg32
F-3.2857142857142856
sg33
F0.33928571428571425
sg34
S'yellow'
p1690
sba(icurlovision
Stone
p1691
(dp1692
g31
F-5.035714285714286
sg32
F4.821428571428571
sg33
F0.3214285714285714
sg34
S'red'
p1693
sba(icurlovision
Stone
p1694
(dp1695
g31
F10.142857142857142
sg32
F4.142857142857142
sg33
F0.46428571428571425
sg34
S'red'
p1696
sba(icurlovision
Stone
p1697
(dp1698
g31
F3.3571428571428568
sg32
F-0.5714285714285714
sg33
F0.33928571428571425
sg34
S'yellow'
p1699
sbasba(icurlovision
StoneLayout
p1700
(dp1701
g26
F0.4791666666666667
sg27
(lp1702
(icurlovision
Stone
p1703
(dp1704
g31
F-4.928571428571428
sg32
F4.732142857142857
sg33
F0.33928571428571425
sg34
S'red'
p1705
sba(icurlovision
Stone
p1706
(dp1707
g31
F3.2857142857142856
sg32
F-0.5178571428571428
sg33
F0.4464285714285714
sg34
S'yellow'
p1708
sba(icurlovision
Stone
p1709
(dp1710
g31
F-4.821428571428571
sg32
F-3.2321428571428568
sg33
F0.33928571428571425
sg34
S'yellow'
p1711
sba(icurlovision
Stone
p1712
(dp1713
g31
F12.142857142857142
sg32
F-0.7321428571428571
sg33
F0.25
sg34
S'yellow'
p1714
sba(icurlovision
Stone
p1715
(dp1716
g31
F9.892857142857142
sg32
F3.9821428571428568
sg33
F0.4464285714285714
sg34
S'red'
p1717
sbasba(icurlovision
StoneLayout
p1718
(dp1719
g26
F0.4791666666666667
sg27
(lp1720
(icurlovision
Stone
p1721
(dp1722
g31
F-4.73780487804878
sg32
F-3.1646341463414633
sg33
F0.3292682926829268
sg34
S'yellow'
p1723
sba(icurlovision
Stone
p1724
(dp1725
g31
F-4.847560975609756
sg32
F4.664634146341463
sg33
F0.45731707317073167
sg34
S'red'
p1726
sba(icurlovision
Stone
p1727
(dp1728
g31
F3.2378048780487805
sg32
F-0.5304878048780487
sg33
F0.3292682926829268
sg34
S'yellow'
p1729
sba(icurlovision
Stone
p1730
(dp1731
g31
F9.676829268292682
sg32
F3.969512195121951
sg33
F0.42073170731707316
sg34
S'red'
p1732
sba(icurlovision
Stone
p1733
(dp1734
g31
F11.908536585365853
sg32
F-0.6768292682926829
sg33
F0.3292682926829268
sg34
S'yellow'
p1735
sba(icurlovision
Stone
p1736
(dp1737
g31
F-6.384146341463414
sg32
F-3.3841463414634143
sg33
F0.3475609756097561
sg34
S'yellow'
p1738
sba(icurlovision
Stone
p1739
(dp1740
g31
F-0.6768292682926829
sg32
F-1.1890243902439024
sg33
F0.3292682926829268
sg34
S'red'
p1741
sbasba(icurlovision
StoneLayout
p1742
(dp1743
g26
F0.4791666666666667
sg27
(lp1744
(icurlovision
Stone
p1745
(dp1746
g31
F-6.4423076923076925
sg32
F-3.326923076923077
sg33
F0.34615384615384615
sg34
S'yellow'
p1747
sba(icurlovision
Stone
p1748
(dp1749
g31
F3.25
sg32
F-0.5192307692307693
sg33
F0.42307692307692313
sg34
S'yellow'
p1750
sba(icurlovision
Stone
p1751
(dp1752
g31
F-4.8269230769230775
sg32
F4.788461538461538
sg33
F0.46153846153846156
sg34
S'red'
p1753
sba(icurlovision
Stone
p1754
(dp1755
g31
F9.942307692307693
sg32
F3.903846153846154
sg33
F0.44230769230769235
sg34
S'red'
p1756
sba(icurlovision
Stone
p1757
(dp1758
g31
F12.134615384615385
sg32
F-0.8653846153846154
sg33
F0.42307692307692313
sg34
S'yellow'
p1759
sba(icurlovision
Stone
p1760
(dp1761
g31
F-4.8269230769230775
sg32
F-3.1730769230769234
sg33
F0.3269230769230769
sg34
S'yellow'
p1762
sba(icurlovision
Stone
p1763
(dp1764
g31
F0.17307692307692307
sg32
F-1.5961538461538463
sg33
F0.46153846153846156
sg34
S'yellow'
p1765
sba(icurlovision
Stone
p1766
(dp1767
g31
F-0.75
sg32
F-1.1730769230769231
sg33
F0.44230769230769235
sg34
S'red'
p1768
sbasba(icurlovision
StoneLayout
p1769
(dp1770
g26
F0.4791666666666667
sg27
(lp1771
(icurlovision
Stone
p1772
(dp1773
g31
F-4.767857142857142
sg32
F-3.196428571428571
sg33
F0.3214285714285714
sg34
S'yellow'
p1774
sba(icurlovision
Stone
p1775
(dp1776
g31
F12.017857142857142
sg32
F-0.7321428571428571
sg33
F0.4464285714285714
sg34
S'yellow'
p1777
sba(icurlovision
Stone
p1778
(dp1779
g31
F0.017857142857142856
sg32
F-1.8035714285714284
sg33
F0.33928571428571425
sg34
S'yellow'
p1780
sba(icurlovision
Stone
p1781
(dp1782
g31
F3.267857142857143
sg32
F-0.4821428571428571
sg33
F0.3214285714285714
sg34
S'yellow'
p1783
sba(icurlovision
Stone
p1784
(dp1785
g31
F0.9464285714285714
sg32
F-0.9821428571428571
sg33
F0.4464285714285714
sg34
S'red'
p1786
sba(icurlovision
Stone
p1787
(dp1788
g31
F-2.125
sg32
F-0.6964285714285714
sg33
F0.2857142857142857
sg34
S'red'
p1789
sba(icurlovision
Stone
p1790
(dp1791
g31
F9.803571428571429
sg32
F3.946428571428571
sg33
F0.42857142857142855
sg34
S'red'
p1792
sba(icurlovision
Stone
p1793
(dp1794
g31
F-4.839285714285714
sg32
F4.696428571428571
sg33
F0.3214285714285714
sg34
S'red'
p1795
sbasba(icurlovision
StoneLayout
p1796
(dp1797
g26
F0.4791666666666667
sg27
(lp1798
(icurlovision
Stone
p1799
(dp1800
g31
F-1.0392857142857144
sg32
F-2.517857142857143
sg33
F0.4392857142857143
sg34
S'yellow'
p1801
sba(icurlovision
Stone
p1802
(dp1803
g31
F3.032142857142857
sg32
F-0.48214285714285715
sg33
F0.4392857142857143
sg34
S'yellow'
p1804
sba(icurlovision
Stone
p1805
(dp1806
g31
F0.975
sg32
F-1.6607142857142858
sg33
F0.4392857142857143
sg34
S'red'
p1807
sba(icurlovision
Stone
p1808
(dp1809
g31
F-1.082142857142857
sg32
F2.9892857142857143
sg33
F0.41785714285714287
sg34
S'red'
p1810
sba(icurlovision
Stone
p1811
(dp1812
g31
F0.6535714285714286
sg32
F0.1392857142857143
sg33
F0.4392857142857143
sg34
S'yellow'
p1813
sba(icurlovision
Stone
p1814
(dp1815
g31
F-2.0892857142857144
sg32
F-0.6321428571428571
sg33
F0.36428571428571427
sg34
S'red'
p1816
sba(icurlovision
Stone
p1817
(dp1818
g31
F-4.617857142857143
sg32
F-3.0535714285714284
sg33
F0.33214285714285713
sg34
S'yellow'
p1819
sbasbasg129
I3
sg130
I1
sbasS'version'
p1820
I20180812
sg129
I3
sS'metadata'
p1821
(icurlovision
MatchMetadata
p1822
(dp1823
S'team_name_red'
p1824
S'Unknown'
p1825
sS'event_name'
p1826
g1825
sS'gender'
p1827
g1825
sS'other_info'
p1828
g1825
sS'team_name_yel'
p1829
g1825
sS'date'
p1830
g1825
sbsb.