(icurlovision
MatchResult
p0
(dp1
S'yel_score'
p2
I7
sS'name'
p3
S"VideoLibrary/PyeongChang.Olympics.2018.curling.women's.round-robin.USA.v.Canada.1080p.NBC.WEB-DL-FINFUNGUS.mp4"
p4
sS'end_results'
p5
(lp6
(icurlovision
EndResult
p7
(dp8
g2
I3
sS'stones_left'
p9
(lp10
(I7
I7
tp11
a(I6
I6
tp12
a(I6
I5
tp13
a(I5
I5
tp14
a(I5
I4
tp15
a(I4
I4
tp16
a(I4
I3
tp17
a(I3
I3
tp18
a(I3
I2
tp19
a(I2
I2
tp20
a(I2
I1
tp21
a(I1
I1
tp22
a(I1
I0
tp23
asS'end_num'
p24
I1
sS'stone_layouts'
p25
(lp26
(icurlovision
StoneLayout
p27
(dp28
S'stone_radius'
p29
F0.4791666666666667
sS'stones'
p30
(lp31
(icurlovision
Stone
p32
(dp33
S'y'
p34
F7.811320754716982
sS'x'
p35
F-0.19811320754716982
sS'r'
p36
F0.4528301886792453
sS'color'
p37
S'yellow'
p38
sba(icurlovision
Stone
p39
(dp40
g34
F-0.25471698113207547
sg35
F4.443396226415095
sg36
F0.3537735849056604
sg37
S'red'
p41
sbasba(icurlovision
StoneLayout
p42
(dp43
g29
F0.4791666666666667
sg30
(lp44
(icurlovision
Stone
p45
(dp46
g34
F7.75
sg35
F-0.19444444444444442
sg36
F0.4444444444444444
sg37
S'yellow'
p47
sbasba(icurlovision
StoneLayout
p48
(dp49
g29
F0.4791666666666667
sg30
(lp50
(icurlovision
Stone
p51
(dp52
g34
F7.556603773584905
sg35
F-0.1839622641509434
sg36
F0.32547169811320753
sg37
S'yellow'
p53
sba(icurlovision
Stone
p54
(dp55
g34
F-1.8679245283018868
sg35
F4.34433962264151
sg36
F0.339622641509434
sg37
S'yellow'
p56
sbasba(icurlovision
StoneLayout
p57
(dp58
g29
F0.4791666666666667
sg30
(lp59
(icurlovision
Stone
p60
(dp61
g34
F7.694444444444444
sg35
F-0.19444444444444442
sg36
F0.4722222222222222
sg37
S'yellow'
p62
sba(icurlovision
Stone
p63
(dp64
g34
F-1.9444444444444444
sg35
F4.472222222222222
sg36
F0.3333333333333333
sg37
S'yellow'
p65
sba(icurlovision
Stone
p66
(dp67
g34
F-0.9722222222222222
sg35
F4.638888888888888
sg36
F0.4583333333333333
sg37
S'red'
p68
sbasba(icurlovision
StoneLayout
p69
(dp70
g29
F0.4791666666666667
sg30
(lp71
(icurlovision
Stone
p72
(dp73
g34
F7.745454545454545
sg35
F-0.20454545454545453
sg36
F0.3409090909090909
sg37
S'yellow'
p74
sba(icurlovision
Stone
p75
(dp76
g34
F-1.9909090909090907
sg35
F6.531818181818181
sg36
F0.3409090909090909
sg37
S'red'
p77
sba(icurlovision
Stone
p78
(dp79
g34
F-0.16363636363636364
sg35
F4.8954545454545455
sg36
F0.4636363636363636
sg37
S'yellow'
p80
sbasba(icurlovision
StoneLayout
p81
(dp82
g29
F0.4791666666666667
sg30
(lp83
(icurlovision
Stone
p84
(dp85
g34
F7.897058823529411
sg35
F-0.22058823529411764
sg36
F0.3235294117647059
sg37
S'yellow'
p86
sba(icurlovision
Stone
p87
(dp88
g34
F-3.426470588235294
sg35
F6.1911764705882355
sg36
F0.4852941176470588
sg37
S'red'
p89
sbasba(icurlovision
StoneLayout
p90
(dp91
g29
F0.4791666666666667
sg30
(lp92
(icurlovision
Stone
p93
(dp94
g34
F7.683673469387755
sg35
F-0.18367346938775508
sg36
F0.29081632653061223
sg37
S'yellow'
p95
sba(icurlovision
Stone
p96
(dp97
g34
F-3.36734693877551
sg35
F6.091836734693877
sg36
F0.4744897959183673
sg37
S'red'
p98
sba(icurlovision
Stone
p99
(dp100
g34
F1.683673469387755
sg35
F0.0
sg36
F0.3214285714285714
sg37
S'yellow'
p101
sbasba(icurlovision
StoneLayout
p102
(dp103
g29
F0.4791666666666667
sg30
(lp104
(icurlovision
Stone
p105
(dp106
g34
F1.53125
sg35
F-2.125
sg36
F0.453125
sg37
S'yellow'
p107
sba(icurlovision
Stone
p108
(dp109
g34
F8.375
sg35
F-0.0625
sg36
F0.28125
sg37
S'red'
p110
sba(icurlovision
Stone
p111
(dp112
g34
F-3.28125
sg35
F6.0
sg36
F0.28125
sg37
S'red'
p113
sba(icurlovision
Stone
p114
(dp115
g34
F-5.4375
sg35
F1.625
sg36
F0.453125
sg37
S'yellow'
p116
sbasba(icurlovision
StoneLayout
p117
(dp118
g29
F0.4791666666666667
sg30
(lp119
(icurlovision
Stone
p120
(dp121
g34
F1.3701923076923077
sg35
F-2.495192307692308
sg36
F0.46153846153846156
sg37
S'yellow'
p122
sba(icurlovision
Stone
p123
(dp124
g34
F8.697115384615385
sg35
F-0.12980769230769232
sg36
F0.34615384615384615
sg37
S'red'
p125
sba(icurlovision
Stone
p126
(dp127
g34
F1.3990384615384617
sg35
F-0.04326923076923077
sg36
F0.46153846153846156
sg37
S'yellow'
p128
sba(icurlovision
Stone
p129
(dp130
g34
F-3.4759615384615388
sg35
F6.1875
sg36
F0.4903846153846154
sg37
S'red'
p131
sba(icurlovision
Stone
p132
(dp133
g34
F-3.793269230769231
sg35
F-2.0625
sg36
F0.3317307692307693
sg37
S'yellow'
p134
sbasba(icurlovision
StoneLayout
p135
(dp136
g29
F0.4791666666666667
sg30
(lp137
(icurlovision
Stone
p138
(dp139
g34
F8.703125
sg35
F-0.109375
sg36
F0.28125
sg37
S'red'
p140
sba(icurlovision
Stone
p141
(dp142
g34
F1.796875
sg35
F-1.203125
sg36
F0.453125
sg37
S'red'
p143
sba(icurlovision
Stone
p144
(dp145
g34
F-3.453125
sg35
F6.203125
sg36
F0.484375
sg37
S'red'
p146
sba(icurlovision
Stone
p147
(dp148
g34
F1.421875
sg35
F-0.046875
sg36
F0.46875
sg37
S'yellow'
p149
sba(icurlovision
Stone
p150
(dp151
g34
F8.890625
sg35
F-6.984375
sg36
F0.265625
sg37
S'yellow'
p152
sbasba(icurlovision
StoneLayout
p153
(dp154
g29
F0.4791666666666667
sg30
(lp155
(icurlovision
Stone
p156
(dp157
g34
F2.1778846153846154
sg35
F-2.1634615384615388
sg36
F0.31730769230769235
sg37
S'yellow'
p158
sba(icurlovision
Stone
p159
(dp160
g34
F8.408653846153847
sg35
F-0.11538461538461539
sg36
F0.46153846153846156
sg37
S'red'
p161
sba(icurlovision
Stone
p162
(dp163
g34
F1.3701923076923077
sg35
F0.0
sg36
F0.31730769230769235
sg37
S'yellow'
p164
sba(icurlovision
Stone
p165
(dp166
g34
F-3.3605769230769234
sg35
F6.028846153846154
sg36
F0.3317307692307693
sg37
S'red'
p167
sbasba(icurlovision
StoneLayout
p168
(dp169
g29
F0.4791666666666667
sg30
(lp170
(icurlovision
Stone
p171
(dp172
g34
F2.2346938775510203
sg35
F-2.2193877551020407
sg36
F0.45918367346938777
sg37
S'yellow'
p173
sba(icurlovision
Stone
p174
(dp175
g34
F8.571428571428571
sg35
F-0.10714285714285714
sg36
F0.4744897959183673
sg37
S'red'
p176
sba(icurlovision
Stone
p177
(dp178
g34
F-3.3979591836734695
sg35
F6.137755102040816
sg36
F0.3520408163265306
sg37
S'red'
p179
sba(icurlovision
Stone
p180
(dp181
g34
F1.3775510204081631
sg35
F-0.04591836734693877
sg36
F0.336734693877551
sg37
S'yellow'
p182
sbasba(icurlovision
StoneLayout
p183
(dp184
g29
F0.4791666666666667
sg30
(lp185
(icurlovision
Stone
p186
(dp187
g34
F2.235294117647059
sg35
F-2.2058823529411766
sg36
F0.3382352941176471
sg37
S'yellow'
p188
sba(icurlovision
Stone
p189
(dp190
g34
F1.3823529411764706
sg35
F0.0
sg36
F0.3235294117647059
sg37
S'yellow'
p191
sba(icurlovision
Stone
p192
(dp193
g34
F8.558823529411764
sg35
F-0.08823529411764705
sg36
F0.3235294117647059
sg37
S'red'
p194
sba(icurlovision
Stone
p195
(dp196
g34
F-3.411764705882353
sg35
F6.117647058823529
sg36
F0.47058823529411764
sg37
S'red'
p197
sba(icurlovision
Stone
p198
(dp199
g34
F5.38235294117647
sg35
F-1.3529411764705883
sg36
F0.3235294117647059
sg37
S'yellow'
p200
sbasbasS'red_score'
p201
I0
sS'red_hammer'
p202
I1
sba(icurlovision
EndResult
p203
(dp204
g2
I3
sg9
(lp205
(I7
I7
tp206
a(I7
I6
tp207
a(I6
I5
tp208
a(I5
I5
tp209
a(I4
I4
tp210
a(I4
I3
tp211
a(I3
I3
tp212
a(I3
I2
tp213
a(I2
I2
tp214
a(I2
I1
tp215
a(I1
I1
tp216
a(I1
I0
tp217
asg24
I2
sg25
(lp218
(icurlovision
StoneLayout
p219
(dp220
g29
F0.4791666666666667
sg30
(lp221
(icurlovision
Stone
p222
(dp223
g34
F-0.8653846153846154
sg35
F0.09615384615384616
sg36
F0.34615384615384615
sg37
S'yellow'
p224
sba(icurlovision
Stone
p225
(dp226
g34
F5.519230769230769
sg35
F0.6346153846153847
sg36
F0.23076923076923078
sg37
S'red'
p227
sbasba(icurlovision
StoneLayout
p228
(dp229
g29
F0.4791666666666667
sg30
(lp230
(icurlovision
Stone
p231
(dp232
g34
F1.5681818181818181
sg35
F-0.05454545454545454
sg36
F0.4636363636363636
sg37
S'yellow'
p233
sba(icurlovision
Stone
p234
(dp235
g34
F-0.8318181818181818
sg35
F0.08181818181818182
sg36
F0.44999999999999996
sg37
S'yellow'
p236
sbasba(icurlovision
StoneLayout
p237
(dp238
g29
F0.4791666666666667
sg30
(lp239
(icurlovision
Stone
p240
(dp241
g34
F-0.855
sg35
F0.075
sg36
F0.32999999999999996
sg37
S'yellow'
p242
sba(icurlovision
Stone
p243
(dp244
g34
F1.545
sg35
F-0.045
sg36
F0.32999999999999996
sg37
S'yellow'
p245
sba(icurlovision
Stone
p246
(dp247
g34
F2.5949999999999998
sg35
F5.745
sg36
F0.44999999999999996
sg37
S'yellow'
p248
sbasba(icurlovision
StoneLayout
p249
(dp250
g29
F0.4791666666666667
sg30
(lp251
(icurlovision
Stone
p252
(dp253
g34
F2.1545454545454543
sg35
F2.686363636363636
sg36
F0.4636363636363636
sg37
S'red'
p254
sba(icurlovision
Stone
p255
(dp256
g34
F-0.8727272727272727
sg35
F0.12272727272727273
sg36
F0.32727272727272727
sg37
S'yellow'
p257
sbasba(icurlovision
StoneLayout
p258
(dp259
g29
F0.4791666666666667
sg30
(lp260
(icurlovision
Stone
p261
(dp262
g34
F2.852678571428571
sg35
F1.96875
sg36
F0.46875
sg37
S'yellow'
p263
sba(icurlovision
Stone
p264
(dp265
g34
F2.477678571428571
sg35
F-0.17410714285714285
sg36
F0.33482142857142855
sg37
S'red'
p266
sba(icurlovision
Stone
p267
(dp268
g34
F0.06696428571428571
sg35
F-0.040178571428571425
sg36
F0.45535714285714285
sg37
S'yellow'
p269
sba(icurlovision
Stone
p270
(dp271
g34
F-2.34375
sg35
F0.36160714285714285
sg36
F0.33482142857142855
sg37
S'yellow'
p272
sbasba(icurlovision
StoneLayout
p273
(dp274
g29
F0.4791666666666667
sg30
(lp275
(icurlovision
Stone
p276
(dp277
g34
F0.041666666666666664
sg35
F-0.041666666666666664
sg36
F0.3333333333333333
sg37
S'yellow'
p278
sba(icurlovision
Stone
p279
(dp280
g34
F2.819444444444444
sg35
F1.986111111111111
sg36
F0.4583333333333333
sg37
S'yellow'
p281
sba(icurlovision
Stone
p282
(dp283
g34
F-0.15277777777777776
sg35
F-5.291666666666666
sg36
F0.3611111111111111
sg37
S'yellow'
p284
sba(icurlovision
Stone
p285
(dp286
g34
F-1.1527777777777777
sg35
F4.152777777777778
sg36
F0.41666666666666663
sg37
S'red'
p287
sbasba(icurlovision
StoneLayout
p288
(dp289
g29
F0.4791666666666667
sg30
(lp290
(icurlovision
Stone
p291
(dp292
g34
F-2.726190476190476
sg35
F0.46428571428571425
sg36
F0.3333333333333333
sg37
S'yellow'
p293
sba(icurlovision
Stone
p294
(dp295
g34
F0.34523809523809523
sg35
F-1.2023809523809523
sg36
F0.3333333333333333
sg37
S'red'
p296
sbasba(icurlovision
StoneLayout
p297
(dp298
g29
F0.4791666666666667
sg30
(lp299
(icurlovision
Stone
p300
(dp301
g34
F-2.7295081967213113
sg35
F0.4180327868852459
sg36
F0.3319672131147541
sg37
S'yellow'
p302
sba(icurlovision
Stone
p303
(dp304
g34
F-1.278688524590164
sg35
F0.2459016393442623
sg36
F0.3319672131147541
sg37
S'yellow'
p305
sba(icurlovision
Stone
p306
(dp307
g34
F1.1311475409836065
sg35
F-1.1311475409836065
sg36
F0.3442622950819672
sg37
S'yellow'
p308
sbasba(icurlovision
StoneLayout
p309
(dp310
g29
F0.4791666666666667
sg30
(lp311
(icurlovision
Stone
p312
(dp313
g34
F2.852678571428571
sg35
F2.0223214285714284
sg36
F0.46875
sg37
S'yellow'
p314
sba(icurlovision
Stone
p315
(dp316
g34
F0.4151785714285714
sg35
F-1.6741071428571428
sg36
F0.46875
sg37
S'yellow'
p317
sba(icurlovision
Stone
p318
(dp319
g34
F1.4330357142857142
sg35
F-0.06696428571428571
sg36
F0.3214285714285714
sg37
S'red'
p320
sba(icurlovision
Stone
p321
(dp322
g34
F-2.799107142857143
sg35
F0.4151785714285714
sg36
F0.3214285714285714
sg37
S'yellow'
p323
sba(icurlovision
Stone
p324
(dp325
g34
F-1.2991071428571428
sg35
F0.2544642857142857
sg36
F0.45535714285714285
sg37
S'yellow'
p326
sbasba(icurlovision
StoneLayout
p327
(dp328
g29
F0.4791666666666667
sg30
(lp329
(icurlovision
Stone
p330
(dp331
g34
F0.7741935483870968
sg35
F2.782258064516129
sg36
F0.4475806451612903
sg37
S'yellow'
p332
sba(icurlovision
Stone
p333
(dp334
g34
F-1.2338709677419355
sg35
F0.29032258064516125
sg36
F0.4475806451612903
sg37
S'yellow'
p335
sba(icurlovision
Stone
p336
(dp337
g34
F0.43548387096774194
sg35
F-1.6935483870967742
sg36
F0.32661290322580644
sg37
S'yellow'
p338
sba(icurlovision
Stone
p339
(dp340
g34
F-4.717741935483871
sg35
F-2.467741935483871
sg36
F0.32661290322580644
sg37
S'red'
p341
sbasba(icurlovision
StoneLayout
p342
(dp343
g29
F0.4791666666666667
sg30
(lp344
(icurlovision
Stone
p345
(dp346
g34
F0.40277777777777773
sg35
F-1.625
sg36
F0.4444444444444444
sg37
S'yellow'
p347
sba(icurlovision
Stone
p348
(dp349
g34
F-0.375
sg35
F-0.06944444444444445
sg36
F0.4583333333333333
sg37
S'red'
p350
sba(icurlovision
Stone
p351
(dp352
g34
F-1.347222222222222
sg35
F0.3472222222222222
sg36
F0.4583333333333333
sg37
S'yellow'
p353
sba(icurlovision
Stone
p354
(dp355
g34
F-2.6527777777777777
sg35
F0.4305555555555555
sg36
F0.4583333333333333
sg37
S'yellow'
p356
sbasba(icurlovision
StoneLayout
p357
(dp358
g29
F0.4791666666666667
sg30
(lp359
(icurlovision
Stone
p360
(dp361
g34
F-1.9067796610169492
sg35
F0.5084745762711864
sg36
F0.3305084745762712
sg37
S'yellow'
p362
sba(icurlovision
Stone
p363
(dp364
g34
F-2.7711864406779663
sg35
F6.915254237288136
sg36
F0.4576271186440678
sg37
S'yellow'
p365
sba(icurlovision
Stone
p366
(dp367
g34
F0.38135593220338987
sg35
F-1.6779661016949154
sg36
F0.3432203389830509
sg37
S'yellow'
p368
sbasbasg201
I1
sg202
I1
sba(icurlovision
EndResult
p369
(dp370
g2
I4
sg9
(lp371
(I7
I7
tp372
a(I6
I7
tp373
a(I6
I6
tp374
a(I5
I6
tp375
a(I5
I5
tp376
a(I4
I5
tp377
a(I4
I4
tp378
a(I3
I4
tp379
a(I3
I3
tp380
a(I2
I3
tp381
a(I2
I2
tp382
a(I1
I2
tp383
a(I0
I1
tp384
asg24
I3
sg25
(lp385
(icurlovision
StoneLayout
p386
(dp387
g29
F0.4791666666666667
sg30
(lp388
(icurlovision
Stone
p389
(dp390
g34
F-2.8010204081632653
sg35
F-3.2908163265306123
sg36
F0.336734693877551
sg37
S'yellow'
p391
sba(icurlovision
Stone
p392
(dp393
g34
F9.474489795918368
sg35
F0.6275510204081632
sg36
F0.42857142857142855
sg37
S'red'
p394
sbasba(icurlovision
StoneLayout
p395
(dp396
g29
F0.4791666666666667
sg30
(lp397
(icurlovision
Stone
p398
(dp399
g34
F9.75
sg35
F0.65
sg36
F0.2833333333333333
sg37
S'red'
p400
sba(icurlovision
Stone
p401
(dp402
g34
F-2.85
sg35
F-3.35
sg36
F0.31666666666666665
sg37
S'yellow'
p403
sba(icurlovision
Stone
p404
(dp405
g34
F1.35
sg35
F0.75
sg36
F0.26666666666666666
sg37
S'red'
p406
sbasba(icurlovision
StoneLayout
p407
(dp408
g29
F0.4791666666666667
sg30
(lp409
(icurlovision
Stone
p410
(dp411
g34
F-0.6029411764705882
sg35
F2.264705882352941
sg36
F0.45588235294117646
sg37
S'red'
p412
sba(icurlovision
Stone
p413
(dp414
g34
F0.8676470588235294
sg35
F-0.7058823529411764
sg36
F0.3235294117647059
sg37
S'yellow'
p415
sba(icurlovision
Stone
p416
(dp417
g34
F-2.8088235294117645
sg35
F-3.235294117647059
sg36
F0.3235294117647059
sg37
S'yellow'
p418
sba(icurlovision
Stone
p419
(dp420
g34
F9.455882352941176
sg35
F0.6470588235294118
sg36
F0.29411764705882354
sg37
S'red'
p421
sbasba(icurlovision
StoneLayout
p422
(dp423
g29
F0.4791666666666667
sg30
(lp424
(icurlovision
Stone
p425
(dp426
g34
F-2.745
sg35
F-3.255
sg36
F0.315
sg37
S'yellow'
p427
sba(icurlovision
Stone
p428
(dp429
g34
F1.545
sg35
F-0.135
sg36
F0.345
sg37
S'red'
p430
sba(icurlovision
Stone
p431
(dp432
g34
F-0.585
sg35
F2.205
sg36
F0.44999999999999996
sg37
S'red'
p433
sba(icurlovision
Stone
p434
(dp435
g34
F9.435
sg35
F0.615
sg36
F0.3
sg37
S'red'
p436
sba(icurlovision
Stone
p437
(dp438
g34
F-5.325
sg35
F-1.4549999999999998
sg36
F0.32999999999999996
sg37
S'yellow'
p439
sbasba(icurlovision
StoneLayout
p440
(dp441
g29
F0.4791666666666667
sg30
(lp442
(icurlovision
Stone
p443
(dp444
g34
F2.6052631578947367
sg35
F-6.328947368421052
sg36
F0.3421052631578947
sg37
S'yellow'
p445
sba(icurlovision
Stone
p446
(dp447
g34
F-0.6052631578947368
sg35
F2.3552631578947367
sg36
F0.47368421052631576
sg37
S'red'
p448
sba(icurlovision
Stone
p449
(dp450
g34
F1.631578947368421
sg35
F-0.06578947368421052
sg36
F0.35526315789473684
sg37
S'red'
p451
sba(icurlovision
Stone
p452
(dp453
g34
F1.2894736842105263
sg35
F6.934210526315789
sg36
F0.47368421052631576
sg37
S'red'
p454
sba(icurlovision
Stone
p455
(dp456
g34
F-2.894736842105263
sg35
F-3.3552631578947367
sg36
F0.3289473684210526
sg37
S'yellow'
p457
sbasba(icurlovision
StoneLayout
p458
(dp459
g29
F0.4791666666666667
sg30
(lp460
(icurlovision
Stone
p461
(dp462
g34
F-2.768181818181818
sg35
F-3.259090909090909
sg36
F0.3409090909090909
sg37
S'yellow'
p463
sba(icurlovision
Stone
p464
(dp465
g34
F2.5227272727272725
sg35
F-6.095454545454545
sg36
F0.44999999999999996
sg37
S'yellow'
p466
sba(icurlovision
Stone
p467
(dp468
g34
F-0.5590909090909091
sg35
F2.2772727272727273
sg36
F0.32727272727272727
sg37
S'red'
p469
sba(icurlovision
Stone
p470
(dp471
g34
F2.5227272727272725
sg35
F-0.06818181818181818
sg36
F0.3409090909090909
sg37
S'red'
p472
sba(icurlovision
Stone
p473
(dp474
g34
F1.268181818181818
sg35
F6.695454545454545
sg36
F0.4636363636363636
sg37
S'red'
p475
sba(icurlovision
Stone
p476
(dp477
g34
F1.4045454545454545
sg35
F-0.04090909090909091
sg36
F0.3136363636363636
sg37
S'red'
p478
sbasba(icurlovision
StoneLayout
p479
(dp480
g29
F0.4791666666666667
sg30
(lp481
(icurlovision
Stone
p482
(dp483
g34
F2.6045454545454545
sg35
F-6.3136363636363635
sg36
F0.3409090909090909
sg37
S'yellow'
p484
sba(icurlovision
Stone
p485
(dp486
g34
F-0.6136363636363636
sg35
F2.3318181818181816
sg36
F0.47727272727272724
sg37
S'red'
p487
sba(icurlovision
Stone
p488
(dp489
g34
F2.9863636363636363
sg35
F-1.2136363636363636
sg36
F0.4636363636363636
sg37
S'yellow'
p490
sba(icurlovision
Stone
p491
(dp492
g34
F-2.877272727272727
sg35
F-3.340909090909091
sg36
F0.32727272727272727
sg37
S'yellow'
p493
sba(icurlovision
Stone
p494
(dp495
g34
F2.2772727272727273
sg35
F0.20454545454545453
sg36
F0.35454545454545455
sg37
S'red'
p496
sba(icurlovision
Stone
p497
(dp498
g34
F1.2954545454545454
sg35
F6.913636363636363
sg36
F0.44999999999999996
sg37
S'red'
p499
sbasba(icurlovision
StoneLayout
p500
(dp501
g29
F0.4791666666666667
sg30
(lp502
(icurlovision
Stone
p503
(dp504
g34
F2.6037735849056602
sg35
F-6.254716981132075
sg36
F0.32547169811320753
sg37
S'yellow'
p505
sba(icurlovision
Stone
p506
(dp507
g34
F-0.5943396226415094
sg35
F2.3207547169811322
sg36
F0.4669811320754717
sg37
S'red'
p508
sba(icurlovision
Stone
p509
(dp510
g34
F2.2641509433962264
sg35
F0.19811320754716982
sg36
F0.32547169811320753
sg37
S'red'
p511
sba(icurlovision
Stone
p512
(dp513
g34
F3.2830188679245285
sg35
F-2.4622641509433962
sg36
F0.339622641509434
sg37
S'red'
p514
sba(icurlovision
Stone
p515
(dp516
g34
F1.3018867924528301
sg35
F6.849056603773585
sg36
F0.2830188679245283
sg37
S'red'
p517
sba(icurlovision
Stone
p518
(dp519
g34
F-2.8301886792452833
sg35
F-3.339622641509434
sg36
F0.339622641509434
sg37
S'yellow'
p520
sbasba(icurlovision
StoneLayout
p521
(dp522
g29
F0.4791666666666667
sg30
(lp523
(icurlovision
Stone
p524
(dp525
g34
F2.5942622950819674
sg35
F-6.307377049180328
sg36
F0.3319672131147541
sg37
S'yellow'
p526
sba(icurlovision
Stone
p527
(dp528
g34
F-0.6024590163934426
sg35
F2.3237704918032787
sg36
F0.35655737704918034
sg37
S'red'
p529
sba(icurlovision
Stone
p530
(dp531
g34
F3.2581967213114753
sg35
F-2.471311475409836
sg36
F0.35655737704918034
sg37
S'red'
p532
sba(icurlovision
Stone
p533
(dp534
g34
F-2.8401639344262293
sg35
F-3.331967213114754
sg36
F0.3319672131147541
sg37
S'yellow'
p535
sba(icurlovision
Stone
p536
(dp537
g34
F0.7991803278688524
sg35
F-3.872950819672131
sg36
F0.3442622950819672
sg37
S'yellow'
p538
sba(icurlovision
Stone
p539
(dp540
g34
F1.2663934426229508
sg35
F6.872950819672131
sg36
F0.319672131147541
sg37
S'red'
p541
sbasba(icurlovision
StoneLayout
p542
(dp543
g29
F0.4791666666666667
sg30
(lp544
(icurlovision
Stone
p545
(dp546
g34
F2.552631578947368
sg35
F-6.2368421052631575
sg36
F0.4605263157894737
sg37
S'yellow'
p547
sba(icurlovision
Stone
p548
(dp549
g34
F-0.6052631578947368
sg35
F2.3157894736842106
sg36
F0.3421052631578947
sg37
S'red'
p550
sba(icurlovision
Stone
p551
(dp552
g34
F1.657894736842105
sg35
F-3.657894736842105
sg36
F0.3421052631578947
sg37
S'red'
p553
sba(icurlovision
Stone
p554
(dp555
g34
F1.263157894736842
sg35
F6.842105263157895
sg36
F0.3421052631578947
sg37
S'red'
p556
sba(icurlovision
Stone
p557
(dp558
g34
F3.263157894736842
sg35
F-2.4210526315789473
sg36
F0.3684210526315789
sg37
S'red'
p559
sbasba(icurlovision
StoneLayout
p560
(dp561
g29
F0.4791666666666667
sg30
(lp562
(icurlovision
Stone
p563
(dp564
g34
F2.5044642857142856
sg35
F-6.1205357142857135
sg36
F0.45535714285714285
sg37
S'yellow'
p565
sba(icurlovision
Stone
p566
(dp567
g34
F1.2455357142857142
sg35
F6.6830357142857135
sg36
F0.3214285714285714
sg37
S'red'
p568
sba(icurlovision
Stone
p569
(dp570
g34
F-0.6026785714285714
sg35
F2.263392857142857
sg36
F0.33482142857142855
sg37
S'red'
p571
sba(icurlovision
Stone
p572
(dp573
g34
F0.4419642857142857
sg35
F3.4419642857142856
sg36
F0.46875
sg37
S'yellow'
p574
sbasba(icurlovision
StoneLayout
p575
(dp576
g29
F0.4791666666666667
sg30
(lp577
(icurlovision
Stone
p578
(dp579
g34
F2.5
sg35
F-6.157894736842105
sg36
F0.4473684210526315
sg37
S'yellow'
p580
sba(icurlovision
Stone
p581
(dp582
g34
F-3.052631578947368
sg35
F-1.6842105263157894
sg36
F0.3157894736842105
sg37
S'red'
p583
sba(icurlovision
Stone
p584
(dp585
g34
F-0.6052631578947368
sg35
F2.289473684210526
sg36
F0.3421052631578947
sg37
S'red'
p586
sbasba(icurlovision
StoneLayout
p587
(dp588
g29
F0.4791666666666667
sg30
(lp589
(icurlovision
Stone
p590
(dp591
g34
F2.6037735849056602
sg35
F-6.339622641509434
sg36
F0.4669811320754717
sg37
S'yellow'
p592
sba(icurlovision
Stone
p593
(dp594
g34
F-3.367924528301887
sg35
F-2.6320754716981134
sg36
F0.3537735849056604
sg37
S'red'
p595
sba(icurlovision
Stone
p596
(dp597
g34
F1.3018867924528301
sg35
F6.962264150943397
sg36
F0.3537735849056604
sg37
S'red'
p598
sba(icurlovision
Stone
p599
(dp600
g34
F-0.9056603773584906
sg35
F4.047169811320755
sg36
F0.3537735849056604
sg37
S'red'
p601
sbasbasg201
I1
sg202
I0
sba(icurlovision
EndResult
p602
(dp603
g2
I4
sg9
(lp604
(I8
I7
tp605
a(I7
I7
tp606
a(I7
I6
tp607
a(I6
I5
tp608
a(I5
I5
tp609
a(I5
I4
tp610
a(I4
I4
tp611
a(I4
I3
tp612
a(I3
I2
tp613
a(I2
I2
tp614
a(I2
I1
tp615
a(I1
I1
tp616
a(I1
I0
tp617
asg24
I4
sg25
(lp618
(icurlovision
StoneLayout
p619
(dp620
g29
F0.4791666666666667
sg30
(lp621
(icurlovision
Stone
p622
(dp623
g34
F8.450892857142856
sg35
F6.4955357142857135
sg36
F0.3214285714285714
sg37
S'red'
p624
sbasba(icurlovision
StoneLayout
p625
(dp626
g29
F0.4791666666666667
sg30
(lp627
(icurlovision
Stone
p628
(dp629
g34
F0.6599999999999999
sg35
F0.3
sg36
F0.32999999999999996
sg37
S'yellow'
p630
sba(icurlovision
Stone
p631
(dp632
g34
F8.76
sg35
F-3.57
sg36
F0.3
sg37
S'red'
p633
sbasba(icurlovision
StoneLayout
p634
(dp635
g29
F0.4791666666666667
sg30
(lp636
(icurlovision
Stone
p637
(dp638
g34
F3.9
sg35
F0.3
sg36
F0.3333333333333333
sg37
S'yellow'
p639
sba(icurlovision
Stone
p640
(dp641
g34
F0.7
sg35
F0.3
sg36
F0.4666666666666667
sg37
S'yellow'
p642
sba(icurlovision
Stone
p643
(dp644
g34
F9.033333333333333
sg35
F-3.6
sg36
F0.45
sg37
S'red'
p645
sbasba(icurlovision
StoneLayout
p646
(dp647
g29
F0.4791666666666667
sg30
(lp648
(icurlovision
Stone
p649
(dp650
g34
F3.8546511627906974
sg35
F0.2616279069767442
sg36
F0.3313953488372093
sg37
S'yellow'
p651
sba(icurlovision
Stone
p652
(dp653
g34
F8.982558139534884
sg35
F-3.7151162790697674
sg36
F0.45348837209302323
sg37
S'red'
p654
sba(icurlovision
Stone
p655
(dp656
g34
F0.6453488372093024
sg35
F0.2965116279069767
sg36
F0.47093023255813954
sg37
S'yellow'
p657
sba(icurlovision
Stone
p658
(dp659
g34
F-4.622093023255814
sg35
F2.4244186046511627
sg36
F0.3313953488372093
sg37
S'yellow'
p660
sbasba(icurlovision
StoneLayout
p661
(dp662
g29
F0.4791666666666667
sg30
(lp663
(icurlovision
Stone
p664
(dp665
g34
F8.816666666666666
sg35
F-3.6333333333333333
sg36
F0.45
sg37
S'red'
p666
sba(icurlovision
Stone
p667
(dp668
g34
F3.783333333333333
sg35
F0.3
sg36
F0.3333333333333333
sg37
S'yellow'
p669
sba(icurlovision
Stone
p670
(dp671
g34
F1.25
sg35
F-3.5
sg36
F0.35
sg37
S'red'
p672
sba(icurlovision
Stone
p673
(dp674
g34
F0.65
sg35
F0.3
sg36
F0.35
sg37
S'yellow'
p675
sba(icurlovision
Stone
p676
(dp677
g34
F-4.55
sg35
F2.4
sg36
F0.3333333333333333
sg37
S'yellow'
p678
sbasba(icurlovision
StoneLayout
p679
(dp680
g29
F0.4791666666666667
sg30
(lp681
(icurlovision
Stone
p682
(dp683
g34
F0.6201923076923077
sg35
F0.31730769230769235
sg36
F0.46153846153846156
sg37
S'yellow'
p684
sba(icurlovision
Stone
p685
(dp686
g34
F1.2548076923076923
sg35
F-3.5192307692307696
sg36
F0.3605769230769231
sg37
S'red'
p687
sba(icurlovision
Stone
p688
(dp689
g34
F3.793269230769231
sg35
F0.2884615384615385
sg36
F0.34615384615384615
sg37
S'yellow'
p690
sba(icurlovision
Stone
p691
(dp692
g34
F-0.5625
sg35
F6.5769230769230775
sg36
F0.34615384615384615
sg37
S'yellow'
p693
sba(icurlovision
Stone
p694
(dp695
g34
F-4.658653846153847
sg35
F2.4230769230769234
sg36
F0.3317307692307693
sg37
S'yellow'
p696
sba(icurlovision
Stone
p697
(dp698
g34
F1.1682692307692308
sg35
F6.115384615384616
sg36
F0.4759615384615385
sg37
S'red'
p699
sbasba(icurlovision
StoneLayout
p700
(dp701
g29
F0.4791666666666667
sg30
(lp702
(icurlovision
Stone
p703
(dp704
g34
F1.2692307692307694
sg35
F-3.576923076923077
sg36
F0.2884615384615385
sg37
S'red'
p705
sba(icurlovision
Stone
p706
(dp707
g34
F3.951923076923077
sg35
F2.076923076923077
sg36
F0.3317307692307693
sg37
S'red'
p708
sba(icurlovision
Stone
p709
(dp710
g34
F-4.7019230769230775
sg35
F2.5096153846153846
sg36
F0.34615384615384615
sg37
S'yellow'
p711
sbasba(icurlovision
StoneLayout
p712
(dp713
g29
F0.4791666666666667
sg30
(lp714
(icurlovision
Stone
p715
(dp716
g34
F0.6666666666666666
sg35
F0.3055555555555555
sg36
F0.3472222222222222
sg37
S'yellow'
p717
sba(icurlovision
Stone
p718
(dp719
g34
F-1.361111111111111
sg35
F-6.0
sg36
F0.3055555555555555
sg37
S'red'
p720
sba(icurlovision
Stone
p721
(dp722
g34
F2.694444444444444
sg35
F-4.305555555555555
sg36
F0.3472222222222222
sg37
S'yellow'
p723
sba(icurlovision
Stone
p724
(dp725
g34
F-4.666666666666666
sg35
F2.4166666666666665
sg36
F0.3472222222222222
sg37
S'yellow'
p726
sbasba(icurlovision
StoneLayout
p727
(dp728
g29
F0.4791666666666667
sg30
(lp729
(icurlovision
Stone
p730
(dp731
g34
F1.7999999999999998
sg35
F0.585
sg36
F0.345
sg37
S'yellow'
p732
sba(icurlovision
Stone
p733
(dp734
g34
F-0.27
sg35
F0.885
sg36
F0.46499999999999997
sg37
S'yellow'
p735
sba(icurlovision
Stone
p736
(dp737
g34
F-6.66
sg35
F-3.7649999999999997
sg36
F0.48
sg37
S'yellow'
p738
sba(icurlovision
Stone
p739
(dp740
g34
F-1.3499999999999999
sg35
F-5.925
sg36
F0.315
sg37
S'red'
p741
sba(icurlovision
Stone
p742
(dp743
g34
F-4.53
sg35
F2.415
sg36
F0.32999999999999996
sg37
S'yellow'
p744
sba(icurlovision
Stone
p745
(dp746
g34
F2.67
sg35
F-4.2749999999999995
sg36
F0.32999999999999996
sg37
S'yellow'
p747
sbasba(icurlovision
StoneLayout
p748
(dp749
g29
F0.4791666666666667
sg30
(lp750
(icurlovision
Stone
p751
(dp752
g34
F2.553191489361702
sg35
F0.3829787234042553
sg36
F0.44680851063829785
sg37
S'red'
p753
sba(icurlovision
Stone
p754
(dp755
g34
F-6.478723404255319
sg35
F-3.6382978723404253
sg36
F0.4627659574468085
sg37
S'yellow'
p756
sba(icurlovision
Stone
p757
(dp758
g34
F0.4148936170212766
sg35
F0.351063829787234
sg36
F0.4627659574468085
sg37
S'yellow'
p759
sba(icurlovision
Stone
p760
(dp761
g34
F-0.7340425531914893
sg35
F1.053191489361702
sg36
F0.33510638297872336
sg37
S'yellow'
p762
sba(icurlovision
Stone
p763
(dp764
g34
F-1.3085106382978722
sg35
F-5.776595744680851
sg36
F0.33510638297872336
sg37
S'red'
p765
sba(icurlovision
Stone
p766
(dp767
g34
F-4.4361702127659575
sg35
F2.2978723404255317
sg36
F0.33510638297872336
sg37
S'yellow'
p768
sba(icurlovision
Stone
p769
(dp770
g34
F2.553191489361702
sg35
F-4.117021276595745
sg36
F0.3191489361702127
sg37
S'yellow'
p771
sbasba(icurlovision
StoneLayout
p772
(dp773
g29
F0.4791666666666667
sg30
(lp774
(icurlovision
Stone
p775
(dp776
g34
F-0.7083333333333333
sg35
F1.0416666666666665
sg36
F0.4305555555555555
sg37
S'yellow'
p777
sba(icurlovision
Stone
p778
(dp779
g34
F0.40277777777777773
sg35
F0.375
sg36
F0.3194444444444444
sg37
S'yellow'
p780
sba(icurlovision
Stone
p781
(dp782
g34
F-0.4861111111111111
sg35
F4.958333333333333
sg36
F0.3055555555555555
sg37
S'yellow'
p783
sba(icurlovision
Stone
p784
(dp785
g34
F-1.3194444444444444
sg35
F-5.597222222222222
sg36
F0.4305555555555555
sg37
S'red'
p786
sba(icurlovision
Stone
p787
(dp788
g34
F-4.375
sg35
F2.263888888888889
sg36
F0.3333333333333333
sg37
S'yellow'
p789
sba(icurlovision
Stone
p790
(dp791
g34
F2.4305555555555554
sg35
F-4.013888888888888
sg36
F0.3194444444444444
sg37
S'yellow'
p792
sba(icurlovision
Stone
p793
(dp794
g34
F-4.236111111111111
sg35
F-3.4027777777777777
sg36
F0.3472222222222222
sg37
S'red'
p795
sbasba(icurlovision
StoneLayout
p796
(dp797
g29
F0.4791666666666667
sg30
(lp798
(icurlovision
Stone
p799
(dp800
g34
F-2.01
sg35
F1.95
sg36
F0.46499999999999997
sg37
S'yellow'
p801
sba(icurlovision
Stone
p802
(dp803
g34
F-6.66
sg35
F-3.75
sg36
F0.46499999999999997
sg37
S'yellow'
p804
sba(icurlovision
Stone
p805
(dp806
g34
F0.9299999999999999
sg35
F-0.6
sg36
F0.46499999999999997
sg37
S'red'
p807
sba(icurlovision
Stone
p808
(dp809
g34
F-1.3499999999999999
sg35
F-5.88
sg36
F0.48
sg37
S'red'
p810
sba(icurlovision
Stone
p811
(dp812
g34
F-0.3
sg35
F0.21
sg36
F0.44999999999999996
sg37
S'yellow'
p813
sba(icurlovision
Stone
p814
(dp815
g34
F-4.59
sg35
F2.37
sg36
F0.32999999999999996
sg37
S'yellow'
p816
sba(icurlovision
Stone
p817
(dp818
g34
F2.6399999999999997
sg35
F-4.2299999999999995
sg36
F0.345
sg37
S'yellow'
p819
sbasba(icurlovision
StoneLayout
p820
(dp821
g29
F0.4791666666666667
sg30
(lp822
(icurlovision
Stone
p823
(dp824
g34
F-1.9386792452830188
sg35
F1.9669811320754718
sg36
F0.4528301886792453
sg37
S'yellow'
p825
sba(icurlovision
Stone
p826
(dp827
g34
F1.0613207547169812
sg35
F1.1179245283018868
sg36
F0.4528301886792453
sg37
S'yellow'
p828
sba(icurlovision
Stone
p829
(dp830
g34
F-1.2877358490566038
sg35
F-5.84433962264151
sg36
F0.3537735849056604
sg37
S'red'
p831
sba(icurlovision
Stone
p832
(dp833
g34
F-4.514150943396227
sg35
F2.391509433962264
sg36
F0.339622641509434
sg37
S'yellow'
p834
sba(icurlovision
Stone
p835
(dp836
g34
F2.6745283018867925
sg35
F-4.1745283018867925
sg36
F0.339622641509434
sg37
S'yellow'
p837
sbasbasg201
I2
sg202
I1
sba(icurlovision
EndResult
p838
(dp839
g2
I7
sg9
(lp840
(I7
I8
tp841
a(I7
I7
tp842
a(I6
I7
tp843
a(I6
I6
tp844
a(I5
I6
tp845
a(I5
I5
tp846
a(I4
I4
tp847
a(I3
I4
tp848
a(I3
I3
tp849
a(I2
I2
tp850
a(I1
I2
tp851
a(I1
I1
tp852
a(I0
I1
tp853
asg24
I5
sg25
(lp854
(icurlovision
StoneLayout
p855
(dp856
g29
F0.4791666666666667
sg30
(lp857
(icurlovision
Stone
p858
(dp859
g34
F8.676470588235293
sg35
F0.8823529411764706
sg36
F0.4411764705882353
sg37
S'red'
p860
sbasba(icurlovision
StoneLayout
p861
(dp862
g29
F0.4791666666666667
sg30
(lp863
(icurlovision
Stone
p864
(dp865
g34
F-1.108695652173913
sg35
F-3.8804347826086953
sg36
F0.358695652173913
sg37
S'yellow'
p866
sba(icurlovision
Stone
p867
(dp868
g34
F8.934782608695652
sg35
F0.9456521739130435
sg36
F0.47282608695652173
sg37
S'red'
p869
sbasba(icurlovision
StoneLayout
p870
(dp871
g29
F0.4791666666666667
sg30
(lp872
(icurlovision
Stone
p873
(dp874
g34
F-1.0735294117647058
sg35
F-3.764705882352941
sg36
F0.3382352941176471
sg37
S'yellow'
p875
sba(icurlovision
Stone
p876
(dp877
g34
F9.455882352941176
sg35
F0.38235294117647056
sg36
F0.29411764705882354
sg37
S'red'
p878
sba(icurlovision
Stone
p879
(dp880
g34
F8.661764705882353
sg35
F0.8529411764705882
sg36
F0.29411764705882354
sg37
S'red'
p881
sbasba(icurlovision
StoneLayout
p882
(dp883
g29
F0.4791666666666667
sg30
(lp884
(icurlovision
Stone
p885
(dp886
g34
F2.88
sg35
F0.09
sg36
F0.46499999999999997
sg37
S'yellow'
p887
sba(icurlovision
Stone
p888
(dp889
g34
F-1.08
sg35
F-3.78
sg36
F0.46499999999999997
sg37
S'yellow'
p890
sba(icurlovision
Stone
p891
(dp892
g34
F9.54
sg35
F0.42
sg36
F0.46499999999999997
sg37
S'red'
p893
sba(icurlovision
Stone
p894
(dp895
g34
F8.76
sg35
F0.9299999999999999
sg36
F0.285
sg37
S'red'
p896
sbasba(icurlovision
StoneLayout
p897
(dp898
g29
F0.4791666666666667
sg30
(lp899
(icurlovision
Stone
p900
(dp901
g34
F2.473404255319149
sg35
F2.329787234042553
sg36
F0.351063829787234
sg37
S'red'
p902
sba(icurlovision
Stone
p903
(dp904
g34
F2.9202127659574466
sg35
F0.09574468085106383
sg36
F0.3031914893617021
sg37
S'yellow'
p905
sba(icurlovision
Stone
p906
(dp907
g34
F-1.101063829787234
sg35
F-3.8936170212765955
sg36
F0.351063829787234
sg37
S'yellow'
p908
sba(icurlovision
Stone
p909
(dp910
g34
F9.079787234042552
sg35
F0.925531914893617
sg36
F0.3191489361702127
sg37
S'red'
p911
sba(icurlovision
Stone
p912
(dp913
g34
F9.845744680851062
sg35
F0.3829787234042553
sg36
F0.3031914893617021
sg37
S'red'
p914
sbasba(icurlovision
StoneLayout
p915
(dp916
g29
F0.4791666666666667
sg30
(lp917
(icurlovision
Stone
p918
(dp919
g34
F2.8882978723404253
sg35
F0.11170212765957446
sg36
F0.4627659574468085
sg37
S'yellow'
p920
sba(icurlovision
Stone
p921
(dp922
g34
F8.888297872340425
sg35
F0.9414893617021276
sg36
F0.3031914893617021
sg37
S'red'
p923
sba(icurlovision
Stone
p924
(dp925
g34
F3.335106382978723
sg35
F2.377659574468085
sg36
F0.33510638297872336
sg37
S'yellow'
p926
sba(icurlovision
Stone
p927
(dp928
g34
F-1.101063829787234
sg35
F-3.813829787234042
sg36
F0.4787234042553191
sg37
S'yellow'
p929
sba(icurlovision
Stone
p930
(dp931
g34
F9.686170212765957
sg35
F0.39893617021276595
sg36
F0.3031914893617021
sg37
S'red'
p932
sbasba(icurlovision
StoneLayout
p933
(dp934
g29
F0.4791666666666667
sg30
(lp935
(icurlovision
Stone
p936
(dp937
g34
F2.9375
sg35
F0.09375
sg36
F0.34375
sg37
S'yellow'
p938
sba(icurlovision
Stone
p939
(dp940
g34
F-1.09375
sg35
F-3.875
sg36
F0.34375
sg37
S'yellow'
p941
sba(icurlovision
Stone
p942
(dp943
g34
F9.0
sg35
F0.90625
sg36
F0.3125
sg37
S'red'
p944
sba(icurlovision
Stone
p945
(dp946
g34
F9.84375
sg35
F0.40625
sg36
F0.3125
sg37
S'red'
p947
sba(icurlovision
Stone
p948
(dp949
g34
F4.6875
sg35
F3.125
sg36
F0.34375
sg37
S'yellow'
p950
sba(icurlovision
Stone
p951
(dp952
g34
F-5.75
sg35
F3.4375
sg36
F0.484375
sg37
S'red'
p953
sbasba(icurlovision
StoneLayout
p954
(dp955
g29
F0.4791666666666667
sg30
(lp956
(icurlovision
Stone
p957
(dp958
g34
F2.875
sg35
F0.140625
sg36
F0.328125
sg37
S'yellow'
p959
sba(icurlovision
Stone
p960
(dp961
g34
F-1.09375
sg35
F-3.796875
sg36
F0.46875
sg37
S'yellow'
p962
sba(icurlovision
Stone
p963
(dp964
g34
F7.375
sg35
F-0.140625
sg36
F0.34375
sg37
S'red'
p965
sba(icurlovision
Stone
p966
(dp967
g34
F7.1875
sg35
F3.234375
sg36
F0.4375
sg37
S'red'
p968
sba(icurlovision
Stone
p969
(dp970
g34
F9.53125
sg35
F0.390625
sg36
F0.28125
sg37
S'red'
p971
sba(icurlovision
Stone
p972
(dp973
g34
F4.5625
sg35
F3.078125
sg36
F0.3125
sg37
S'yellow'
p974
sbasba(icurlovision
StoneLayout
p975
(dp976
g29
F0.4791666666666667
sg30
(lp977
(icurlovision
Stone
p978
(dp979
g34
F2.7794117647058822
sg35
F0.07352941176470588
sg36
F0.4411764705882353
sg37
S'yellow'
p980
sba(icurlovision
Stone
p981
(dp982
g34
F-1.0441176470588236
sg35
F-3.7205882352941178
sg36
F0.3235294117647059
sg37
S'yellow'
p983
sba(icurlovision
Stone
p984
(dp985
g34
F-2.3970588235294117
sg35
F-6.897058823529411
sg36
F0.45588235294117646
sg37
S'yellow'
p986
sba(icurlovision
Stone
p987
(dp988
g34
F9.279411764705882
sg35
F0.3676470588235294
sg36
F0.29411764705882354
sg37
S'red'
p989
sba(icurlovision
Stone
p990
(dp991
g34
F6.985294117647059
sg35
F3.1029411764705883
sg36
F0.4264705882352941
sg37
S'red'
p992
sba(icurlovision
Stone
p993
(dp994
g34
F4.426470588235294
sg35
F2.9558823529411766
sg36
F0.3088235294117647
sg37
S'yellow'
p995
sbasba(icurlovision
StoneLayout
p996
(dp997
g29
F0.4791666666666667
sg30
(lp998
(icurlovision
Stone
p999
(dp1000
g34
F7.25
sg35
F3.283333333333333
sg36
F0.45
sg37
S'red'
p1001
sba(icurlovision
Stone
p1002
(dp1003
g34
F2.8833333333333333
sg35
F0.15
sg36
F0.43333333333333335
sg37
S'yellow'
p1004
sba(icurlovision
Stone
p1005
(dp1006
g34
F2.283333333333333
sg35
F1.25
sg36
F0.43333333333333335
sg37
S'yellow'
p1007
sba(icurlovision
Stone
p1008
(dp1009
g34
F-1.0833333333333333
sg35
F-3.8166666666666664
sg36
F0.3333333333333333
sg37
S'yellow'
p1010
sba(icurlovision
Stone
p1011
(dp1012
g34
F4.616666666666666
sg35
F3.1166666666666667
sg36
F0.3333333333333333
sg37
S'yellow'
p1013
sba(icurlovision
Stone
p1014
(dp1015
g34
F9.616666666666667
sg35
F0.3833333333333333
sg36
F0.4666666666666667
sg37
S'red'
p1016
sbasba(icurlovision
StoneLayout
p1017
(dp1018
g29
F0.4791666666666667
sg30
(lp1019
(icurlovision
Stone
p1020
(dp1021
g34
F2.8088235294117645
sg35
F0.08823529411764705
sg36
F0.45588235294117646
sg37
S'yellow'
p1022
sba(icurlovision
Stone
p1023
(dp1024
g34
F-1.0441176470588236
sg35
F-3.735294117647059
sg36
F0.3235294117647059
sg37
S'yellow'
p1025
sba(icurlovision
Stone
p1026
(dp1027
g34
F-0.75
sg35
F-0.4411764705882353
sg36
F0.3382352941176471
sg37
S'red'
p1028
sba(icurlovision
Stone
p1029
(dp1030
g34
F7.073529411764706
sg35
F3.176470588235294
sg36
F0.4264705882352941
sg37
S'red'
p1031
sba(icurlovision
Stone
p1032
(dp1033
g34
F2.25
sg35
F1.2058823529411764
sg36
F0.4264705882352941
sg37
S'yellow'
p1034
sba(icurlovision
Stone
p1035
(dp1036
g34
F9.397058823529411
sg35
F0.4117647058823529
sg36
F0.3088235294117647
sg37
S'red'
p1037
sba(icurlovision
Stone
p1038
(dp1039
g34
F4.455882352941177
sg35
F3.0
sg36
F0.4411764705882353
sg37
S'yellow'
p1040
sbasba(icurlovision
StoneLayout
p1041
(dp1042
g29
F0.4791666666666667
sg30
(lp1043
(icurlovision
Stone
p1044
(dp1045
g34
F-1.1079545454545454
sg35
F-3.9374999999999996
sg36
F0.3409090909090909
sg37
S'yellow'
p1046
sba(icurlovision
Stone
p1047
(dp1048
g34
F2.9488636363636362
sg35
F0.11931818181818181
sg36
F0.3409090909090909
sg37
S'yellow'
p1049
sba(icurlovision
Stone
p1050
(dp1051
g34
F2.3693181818181817
sg35
F1.3125
sg36
F0.47727272727272724
sg37
S'yellow'
p1052
sba(icurlovision
Stone
p1053
(dp1054
g34
F7.414772727272727
sg35
F3.392045454545454
sg36
F0.28977272727272724
sg37
S'red'
p1055
sba(icurlovision
Stone
p1056
(dp1057
g34
F9.835227272727272
sg35
F0.4261363636363636
sg36
F0.47727272727272724
sg37
S'red'
p1058
sba(icurlovision
Stone
p1059
(dp1060
g34
F4.721590909090909
sg35
F3.1874999999999996
sg36
F0.3409090909090909
sg37
S'yellow'
p1061
sbasba(icurlovision
StoneLayout
p1062
(dp1063
g29
F0.4791666666666667
sg30
(lp1064
(icurlovision
Stone
p1065
(dp1066
g34
F2.8622448979591835
sg35
F0.12244897959183673
sg36
F0.30612244897959184
sg37
S'yellow'
p1067
sba(icurlovision
Stone
p1068
(dp1069
g34
F2.311224489795918
sg35
F1.2551020408163265
sg36
F0.45918367346938777
sg37
S'yellow'
p1070
sba(icurlovision
Stone
p1071
(dp1072
g34
F-3.321428571428571
sg35
F0.2755102040816326
sg36
F0.45918367346938777
sg37
S'red'
p1073
sba(icurlovision
Stone
p1074
(dp1075
g34
F-1.086734693877551
sg35
F-3.857142857142857
sg36
F0.336734693877551
sg37
S'yellow'
p1076
sba(icurlovision
Stone
p1077
(dp1078
g34
F7.270408163265306
sg35
F3.2755102040816326
sg36
F0.44387755102040816
sg37
S'red'
p1079
sba(icurlovision
Stone
p1080
(dp1081
g34
F4.576530612244897
sg35
F3.061224489795918
sg36
F0.45918367346938777
sg37
S'yellow'
p1082
sba(icurlovision
Stone
p1083
(dp1084
g34
F9.627551020408163
sg35
F0.3979591836734694
sg36
F0.45918367346938777
sg37
S'red'
p1085
sbasbasg201
I2
sg202
I0
sba(icurlovision
EndResult
p1086
(dp1087
g2
I7
sg9
(lp1088
(I8
I7
tp1089
a(I7
I7
tp1090
a(I7
I6
tp1091
a(I6
I6
tp1092
a(I6
I5
tp1093
a(I5
I4
tp1094
a(I4
I4
tp1095
a(I4
I3
tp1096
a(I3
I3
tp1097
a(I2
I2
tp1098
a(I2
I1
tp1099
a(I1
I0
tp1100
asg24
I6
sg25
(lp1101
(icurlovision
StoneLayout
p1102
(dp1103
g29
F0.4791666666666667
sg30
(lp1104
(icurlovision
Stone
p1105
(dp1106
g34
F-5.709183673469387
sg35
F0.3520408163265306
sg36
F0.336734693877551
sg37
S'yellow'
p1107
sbasba(icurlovision
StoneLayout
p1108
(dp1109
g29
F0.4791666666666667
sg30
(lp1110
(icurlovision
Stone
p1111
(dp1112
g34
F-5.7
sg35
F0.35625
sg36
F0.33749999999999997
sg37
S'yellow'
p1113
sba(icurlovision
Stone
p1114
(dp1115
g34
F10.0875
sg35
F-3.20625
sg36
F0.44999999999999996
sg37
S'red'
p1116
sbasba(icurlovision
StoneLayout
p1117
(dp1118
g29
F0.4791666666666667
sg30
(lp1119
(icurlovision
Stone
p1120
(dp1121
g34
F-5.5060975609756095
sg35
F0.3475609756097561
sg36
F0.3292682926829268
sg37
S'yellow'
p1122
sba(icurlovision
Stone
p1123
(dp1124
g34
F9.75
sg35
F-3.1646341463414633
sg36
F0.25609756097560976
sg37
S'red'
p1125
sba(icurlovision
Stone
p1126
(dp1127
g34
F4.0060975609756095
sg35
F0.896341463414634
sg36
F0.2926829268292683
sg37
S'yellow'
p1128
sbasba(icurlovision
StoneLayout
p1129
(dp1130
g29
F0.4791666666666667
sg30
(lp1131
(icurlovision
Stone
p1132
(dp1133
g34
F3.994186046511628
sg35
F0.8895348837209303
sg36
F0.313953488372093
sg37
S'yellow'
p1134
sba(icurlovision
Stone
p1135
(dp1136
g34
F9.784883720930232
sg35
F-3.1220930232558137
sg36
F0.41860465116279066
sg37
S'red'
p1137
sba(icurlovision
Stone
p1138
(dp1139
g34
F-5.4941860465116275
sg35
F0.3313953488372093
sg36
F0.3313953488372093
sg37
S'yellow'
p1140
sba(icurlovision
Stone
p1141
(dp1142
g34
F2.38953488372093
sg35
F-3.4011627906976742
sg36
F0.2616279069767442
sg37
S'red'
p1143
sbasba(icurlovision
StoneLayout
p1144
(dp1145
g29
F0.4791666666666667
sg30
(lp1146
(icurlovision
Stone
p1147
(dp1148
g34
F4.0
sg35
F1.0625
sg36
F0.328125
sg37
S'yellow'
p1149
sba(icurlovision
Stone
p1150
(dp1151
g34
F2.5
sg35
F-3.34375
sg36
F0.34375
sg37
S'red'
p1152
sba(icurlovision
Stone
p1153
(dp1154
g34
F-5.625
sg35
F0.15625
sg36
F0.328125
sg37
S'yellow'
p1155
sba(icurlovision
Stone
p1156
(dp1157
g34
F8.34375
sg35
F-4.125
sg36
F0.28125
sg37
S'yellow'
p1158
sbasba(icurlovision
StoneLayout
p1159
(dp1160
g29
F0.4791666666666667
sg30
(lp1161
(icurlovision
Stone
p1162
(dp1163
g34
F4.161764705882353
sg35
F0.9264705882352942
sg36
F0.3529411764705882
sg37
S'yellow'
p1164
sba(icurlovision
Stone
p1165
(dp1166
g34
F2.485294117647059
sg35
F-3.514705882352941
sg36
F0.45588235294117646
sg37
S'red'
p1167
sba(icurlovision
Stone
p1168
(dp1169
g34
F-5.720588235294118
sg35
F0.3676470588235294
sg36
F0.3529411764705882
sg37
S'yellow'
p1170
sbasba(icurlovision
StoneLayout
p1171
(dp1172
g29
F0.4791666666666667
sg30
(lp1173
(icurlovision
Stone
p1174
(dp1175
g34
F4.166666666666667
sg35
F0.9666666666666667
sg36
F0.4166666666666667
sg37
S'yellow'
p1176
sba(icurlovision
Stone
p1177
(dp1178
g34
F-4.8
sg35
F-0.03333333333333333
sg36
F0.3333333333333333
sg37
S'red'
p1179
sba(icurlovision
Stone
p1180
(dp1181
g34
F-6.233333333333333
sg35
F0.5333333333333333
sg36
F0.3
sg37
S'yellow'
p1182
sba(icurlovision
Stone
p1183
(dp1184
g34
F2.5
sg35
F-3.433333333333333
sg36
F0.3
sg37
S'red'
p1185
sbasba(icurlovision
StoneLayout
p1186
(dp1187
g29
F0.4791666666666667
sg30
(lp1188
(icurlovision
Stone
p1189
(dp1190
g34
F4.125
sg35
F1.0
sg36
F0.453125
sg37
S'yellow'
p1191
sba(icurlovision
Stone
p1192
(dp1193
g34
F-4.84375
sg35
F-0.0625
sg36
F0.34375
sg37
S'red'
p1194
sba(icurlovision
Stone
p1195
(dp1196
g34
F3.40625
sg35
F-3.5
sg36
F0.328125
sg37
S'yellow'
p1197
sba(icurlovision
Stone
p1198
(dp1199
g34
F-6.34375
sg35
F0.53125
sg36
F0.34375
sg37
S'yellow'
p1200
sba(icurlovision
Stone
p1201
(dp1202
g34
F8.21875
sg35
F-5.65625
sg36
F0.28125
sg37
S'yellow'
p1203
sbasba(icurlovision
StoneLayout
p1204
(dp1205
g29
F0.4791666666666667
sg30
(lp1206
(icurlovision
Stone
p1207
(dp1208
g34
F4.083333333333333
sg35
F0.9666666666666667
sg36
F0.3333333333333333
sg37
S'yellow'
p1209
sba(icurlovision
Stone
p1210
(dp1211
g34
F2.25
sg35
F-1.5333333333333332
sg36
F0.43333333333333335
sg37
S'red'
p1212
sba(icurlovision
Stone
p1213
(dp1214
g34
F-6.25
sg35
F0.5333333333333333
sg36
F0.45
sg37
S'yellow'
p1215
sba(icurlovision
Stone
p1216
(dp1217
g34
F-4.783333333333333
sg35
F0.0
sg36
F0.4666666666666667
sg37
S'red'
p1218
sba(icurlovision
Stone
p1219
(dp1220
g34
F2.6166666666666667
sg35
F-4.033333333333333
sg36
F0.3
sg37
S'yellow'
p1221
sbasba(icurlovision
StoneLayout
p1222
(dp1223
g29
F0.4791666666666667
sg30
(lp1224
(icurlovision
Stone
p1225
(dp1226
g34
F-1.3404255319148934
sg35
F6.670212765957446
sg36
F0.4308510638297872
sg37
S'yellow'
p1227
sba(icurlovision
Stone
p1228
(dp1229
g34
F3.0638297872340425
sg35
F-1.5957446808510638
sg36
F0.33510638297872336
sg37
S'yellow'
p1230
sba(icurlovision
Stone
p1231
(dp1232
g34
F-6.127659574468085
sg35
F0.44680851063829785
sg36
F0.3191489361702127
sg37
S'yellow'
p1233
sba(icurlovision
Stone
p1234
(dp1235
g34
F-4.691489361702128
sg35
F-0.1276595744680851
sg36
F0.3191489361702127
sg37
S'red'
p1236
sba(icurlovision
Stone
p1237
(dp1238
g34
F2.6489361702127656
sg35
F-3.9255319148936167
sg36
F0.3031914893617021
sg37
S'yellow'
p1239
sbasba(icurlovision
StoneLayout
p1240
(dp1241
g29
F0.4791666666666667
sg30
(lp1242
(icurlovision
Stone
p1243
(dp1244
g34
F3.1467391304347827
sg35
F-1.5489130434782608
sg36
F0.34239130434782605
sg37
S'yellow'
p1245
sba(icurlovision
Stone
p1246
(dp1247
g34
F-1.5489130434782608
sg35
F6.831521739130435
sg36
F0.30978260869565216
sg37
S'yellow'
p1248
sba(icurlovision
Stone
p1249
(dp1250
g34
F2.755434782608696
sg35
F-3.994565217391304
sg36
F0.34239130434782605
sg37
S'yellow'
p1251
sba(icurlovision
Stone
p1252
(dp1253
g34
F-7.288043478260869
sg35
F6.309782608695652
sg36
F0.32608695652173914
sg37
S'yellow'
p1254
sbasba(icurlovision
StoneLayout
p1255
(dp1256
g29
F0.4791666666666667
sg30
(lp1257
(icurlovision
Stone
p1258
(dp1259
g34
F-1.3189655172413792
sg35
F6.762931034482759
sg36
F0.33620689655172414
sg37
S'yellow'
p1260
sba(icurlovision
Stone
p1261
(dp1262
g34
F-5.25
sg35
F2.883620689655172
sg36
F0.3232758620689655
sg37
S'yellow'
p1263
sba(icurlovision
Stone
p1264
(dp1265
g34
F3.413793103448276
sg35
F-3.5043103448275863
sg36
F0.3232758620689655
sg37
S'yellow'
p1266
sba(icurlovision
Stone
p1267
(dp1268
g34
F2.3793103448275863
sg35
F-4.176724137931035
sg36
F0.33620689655172414
sg37
S'yellow'
p1269
sba(icurlovision
Stone
p1270
(dp1271
g34
F-5.844827586206897
sg35
F-3.4008620689655173
sg36
F0.46551724137931033
sg37
S'red'
p1272
sbasbasg201
I3
sg202
I1
sba(icurlovision
EndResult
p1273
(dp1274
g2
I7
sg9
(lp1275
(I6
I7
tp1276
a(I6
I6
tp1277
a(I5
I6
tp1278
a(I5
I5
tp1279
a(I4
I5
tp1280
a(I4
I4
tp1281
a(I3
I4
tp1282
a(I3
I3
tp1283
a(I2
I3
tp1284
a(I2
I2
tp1285
a(I1
I2
tp1286
a(I1
I1
tp1287
a(I0
I1
tp1288
asg24
I7
sg25
(lp1289
(icurlovision
StoneLayout
p1290
(dp1291
g29
F0.4791666666666667
sg30
(lp1292
(icurlovision
Stone
p1293
(dp1294
g34
F10.597826086956522
sg35
F0.6847826086956521
sg36
F0.42391304347826086
sg37
S'red'
p1295
sba(icurlovision
Stone
p1296
(dp1297
g34
F1.9891304347826086
sg35
F-4.826086956521739
sg36
F0.42391304347826086
sg37
S'yellow'
p1298
sba(icurlovision
Stone
p1299
(dp1300
g34
F1.6304347826086956
sg35
F4.369565217391305
sg36
F0.32608695652173914
sg37
S'red'
p1301
sbasba(icurlovision
StoneLayout
p1302
(dp1303
g29
F0.4791666666666667
sg30
(lp1304
(icurlovision
Stone
p1305
(dp1306
g34
F11.08695652173913
sg35
F0.6847826086956521
sg36
F0.44021739130434784
sg37
S'red'
p1307
sba(icurlovision
Stone
p1308
(dp1309
g34
F2.217391304347826
sg35
F3.717391304347826
sg36
F0.34239130434782605
sg37
S'yellow'
p1310
sba(icurlovision
Stone
p1311
(dp1312
g34
F2.0543478260869565
sg35
F-5.021739130434782
sg36
F0.32608695652173914
sg37
S'yellow'
p1313
sbasba(icurlovision
StoneLayout
p1314
(dp1315
g29
F0.4791666666666667
sg30
(lp1316
(icurlovision
Stone
p1317
(dp1318
g34
F-0.6
sg35
F1.0333333333333332
sg36
F0.4666666666666667
sg37
S'red'
p1319
sba(icurlovision
Stone
p1320
(dp1321
g34
F11.233333333333333
sg35
F0.7
sg36
F0.45
sg37
S'red'
p1322
sba(icurlovision
Stone
p1323
(dp1324
g34
F2.0666666666666664
sg35
F-5.066666666666666
sg36
F0.3333333333333333
sg37
S'yellow'
p1325
sba(icurlovision
Stone
p1326
(dp1327
g34
F2.2666666666666666
sg35
F3.7666666666666666
sg36
F0.3333333333333333
sg37
S'yellow'
p1328
sbasba(icurlovision
StoneLayout
p1329
(dp1330
g29
F0.4791666666666667
sg30
(lp1331
(icurlovision
Stone
p1332
(dp1333
g34
F-0.5543478260869565
sg35
F1.0434782608695652
sg36
F0.45652173913043476
sg37
S'red'
p1334
sba(icurlovision
Stone
p1335
(dp1336
g34
F2.0869565217391304
sg35
F-5.054347826086956
sg36
F0.44021739130434784
sg37
S'yellow'
p1337
sba(icurlovision
Stone
p1338
(dp1339
g34
F2.25
sg35
F3.782608695652174
sg36
F0.34239130434782605
sg37
S'yellow'
p1340
sba(icurlovision
Stone
p1341
(dp1342
g34
F-4.663043478260869
sg35
F-6.58695652173913
sg36
F0.32608695652173914
sg37
S'yellow'
p1343
sbasba(icurlovision
StoneLayout
p1344
(dp1345
g29
F0.4791666666666667
sg30
(lp1346
(icurlovision
Stone
p1347
(dp1348
g34
F2.0727272727272728
sg35
F-5.072727272727272
sg36
F0.3409090909090909
sg37
S'yellow'
p1349
sba(icurlovision
Stone
p1350
(dp1351
g34
F3.8454545454545452
sg35
F0.2727272727272727
sg36
F0.35454545454545455
sg37
S'red'
p1352
sba(icurlovision
Stone
p1353
(dp1354
g34
F-0.5727272727272728
sg35
F1.0636363636363635
sg36
F0.4636363636363636
sg37
S'red'
p1355
sbasba(icurlovision
StoneLayout
p1356
(dp1357
g29
F0.4791666666666667
sg30
(lp1358
(icurlovision
Stone
p1359
(dp1360
g34
F4.669811320754717
sg35
F0.25471698113207547
sg36
F0.4528301886792453
sg37
S'yellow'
p1361
sba(icurlovision
Stone
p1362
(dp1363
g34
F2.2358490566037736
sg35
F3.7358490566037736
sg36
F0.3679245283018868
sg37
S'yellow'
p1364
sba(icurlovision
Stone
p1365
(dp1366
g34
F2.0377358490566038
sg35
F-5.037735849056604
sg36
F0.32547169811320753
sg37
S'yellow'
p1367
sbasba(icurlovision
StoneLayout
p1368
(dp1369
g29
F0.4791666666666667
sg30
(lp1370
(icurlovision
Stone
p1371
(dp1372
g34
F2.04
sg35
F-5.01
sg36
F0.315
sg37
S'yellow'
p1373
sba(icurlovision
Stone
p1374
(dp1375
g34
F4.68
sg35
F0.24
sg36
F0.3
sg37
S'yellow'
p1376
sba(icurlovision
Stone
p1377
(dp1378
g34
F-1.47
sg35
F-0.12
sg36
F0.32999999999999996
sg37
S'red'
p1379
sba(icurlovision
Stone
p1380
(dp1381
g34
F2.25
sg35
F3.75
sg36
F0.44999999999999996
sg37
S'yellow'
p1382
sbasba(icurlovision
StoneLayout
p1383
(dp1384
g29
F0.4791666666666667
sg30
(lp1385
(icurlovision
Stone
p1386
(dp1387
g34
F1.9830508474576272
sg35
F-4.932203389830509
sg36
F0.3432203389830509
sg37
S'yellow'
p1388
sba(icurlovision
Stone
p1389
(dp1390
g34
F2.1864406779661016
sg35
F3.635593220338983
sg36
F0.3432203389830509
sg37
S'yellow'
p1391
sba(icurlovision
Stone
p1392
(dp1393
g34
F5.313559322033899
sg35
F0.0
sg36
F0.31779661016949157
sg37
S'yellow'
p1394
sba(icurlovision
Stone
p1395
(dp1396
g34
F-5.618644067796611
sg35
F5.466101694915254
sg36
F0.4703389830508475
sg37
S'yellow'
p1397
sbasba(icurlovision
StoneLayout
p1398
(dp1399
g29
F0.4791666666666667
sg30
(lp1400
(icurlovision
Stone
p1401
(dp1402
g34
F-3.4705882352941178
sg35
F0.1764705882352941
sg36
F0.47058823529411764
sg37
S'red'
p1403
sba(icurlovision
Stone
p1404
(dp1405
g34
F2.0294117647058822
sg35
F-5.029411764705882
sg36
F0.29411764705882354
sg37
S'yellow'
p1406
sba(icurlovision
Stone
p1407
(dp1408
g34
F2.235294117647059
sg35
F3.764705882352941
sg36
F0.45588235294117646
sg37
S'yellow'
p1409
sba(icurlovision
Stone
p1410
(dp1411
g34
F5.4411764705882355
sg35
F0.029411764705882353
sg36
F0.3382352941176471
sg37
S'yellow'
p1412
sbasba(icurlovision
StoneLayout
p1413
(dp1414
g29
F0.4791666666666667
sg30
(lp1415
(icurlovision
Stone
p1416
(dp1417
g34
F6.230769230769231
sg35
F0.04326923076923077
sg36
F0.34615384615384615
sg37
S'yellow'
p1418
sba(icurlovision
Stone
p1419
(dp1420
g34
F2.076923076923077
sg35
F-5.0048076923076925
sg36
F0.44711538461538464
sg37
S'yellow'
p1421
sba(icurlovision
Stone
p1422
(dp1423
g34
F2.25
sg35
F3.764423076923077
sg36
F0.34615384615384615
sg37
S'yellow'
p1424
sba(icurlovision
Stone
p1425
(dp1426
g34
F-5.221153846153847
sg35
F-1.6875
sg36
F0.375
sg37
S'yellow'
p1427
sbasba(icurlovision
StoneLayout
p1428
(dp1429
g29
F0.4791666666666667
sg30
(lp1430
(icurlovision
Stone
p1431
(dp1432
g34
F-6.383720930232558
sg35
F-6.627906976744186
sg36
F0.47093023255813954
sg37
S'yellow'
p1433
sba(icurlovision
Stone
p1434
(dp1435
g34
F-3.1046511627906974
sg35
F-0.45348837209302323
sg36
F0.47093023255813954
sg37
S'red'
p1436
sba(icurlovision
Stone
p1437
(dp1438
g34
F6.2441860465116275
sg35
F0.0
sg36
F0.47093023255813954
sg37
S'yellow'
p1439
sba(icurlovision
Stone
p1440
(dp1441
g34
F2.058139534883721
sg35
F-5.093023255813954
sg36
F0.3313953488372093
sg37
S'yellow'
p1442
sba(icurlovision
Stone
p1443
(dp1444
g34
F2.2325581395348837
sg35
F3.7674418604651163
sg36
F0.3488372093023256
sg37
S'yellow'
p1445
sbasba(icurlovision
StoneLayout
p1446
(dp1447
g29
F0.4791666666666667
sg30
(lp1448
(icurlovision
Stone
p1449
(dp1450
g34
F2.0318181818181817
sg35
F-5.086363636363636
sg36
F0.3409090909090909
sg37
S'yellow'
p1451
sba(icurlovision
Stone
p1452
(dp1453
g34
F6.286363636363636
sg35
F-0.013636363636363636
sg36
F0.32727272727272727
sg37
S'yellow'
p1454
sba(icurlovision
Stone
p1455
(dp1456
g34
F-4.622727272727272
sg35
F-4.35
sg36
F0.3409090909090909
sg37
S'yellow'
p1457
sbasba(icurlovision
StoneLayout
p1458
(dp1459
g29
F0.4791666666666667
sg30
(lp1460
(icurlovision
Stone
p1461
(dp1462
g34
F3.389423076923077
sg35
F-1.3846153846153846
sg36
F0.46153846153846156
sg37
S'red'
p1463
sba(icurlovision
Stone
p1464
(dp1465
g34
F2.0336538461538463
sg35
F-5.048076923076923
sg36
F0.34615384615384615
sg37
S'yellow'
p1466
sba(icurlovision
Stone
p1467
(dp1468
g34
F2.2355769230769234
sg35
F3.7211538461538463
sg36
F0.34615384615384615
sg37
S'yellow'
p1469
sba(icurlovision
Stone
p1470
(dp1471
g34
F6.100961538461539
sg35
F0.11538461538461539
sg36
F0.3317307692307693
sg37
S'yellow'
p1472
sbasbasg201
I3
sg202
I0
sbasS'version'
p1473
I20180812
sg201
I3
sS'metadata'
p1474
(icurlovision
MatchMetadata
p1475
(dp1476
S'team_name_red'
p1477
S'Unknown'
p1478
sS'event_name'
p1479
g1478
sS'gender'
p1480
g1478
sS'other_info'
p1481
g1478
sS'team_name_yel'
p1482
g1478
sS'date'
p1483
g1478
sbsb.