(icurlovision
MatchResult
p0
(dp1
S'yel_score'
p2
I4
sS'name'
p3
S'VideoLibrary/PyeongChang.Olympics.2018.curling.mixed.doubles.semifinal.1.1080p.NBC.WEB-DL-FINFUNGUS.mp4'
p4
sS'end_results'
p5
(lp6
(icurlovision
EndResult
p7
(dp8
g2
I0
sS'stones_left'
p9
(lp10
(I5
I4
tp11
a(I4
I3
tp12
a(I3
I3
tp13
a(I3
I2
tp14
a(I2
I2
tp15
a(I2
I1
tp16
a(I1
I1
tp17
a(I1
I0
tp18
asS'end_num'
p19
I1
sS'stone_layouts'
p20
(lp21
(icurlovision
StoneLayout
p22
(dp23
S'stone_radius'
p24
F0.4791666666666667
sS'stones'
p25
(lp26
(icurlovision
Stone
p27
(dp28
S'y'
p29
F10.755681818181817
sS'x'
p30
F-0.10227272727272727
sS'r'
p31
F0.4431818181818181
sS'color'
p32
S'yellow'
p33
sba(icurlovision
Stone
p34
(dp35
g29
F0.4261363636363636
sg30
F0.20454545454545453
sg31
F0.3409090909090909
sg32
S'yellow'
p36
sba(icurlovision
Stone
p37
(dp38
g29
F-1.5852272727272727
sg30
F0.03409090909090909
sg31
F0.32386363636363635
sg32
S'red'
p39
sbasba(icurlovision
StoneLayout
p40
(dp41
g24
F0.4791666666666667
sg25
(lp42
(icurlovision
Stone
p43
(dp44
g29
F2.130681818181818
sg30
F-0.6136363636363635
sg31
F0.32386363636363635
sg32
S'yellow'
p45
sba(icurlovision
Stone
p46
(dp47
g29
F10.3125
sg30
F-0.10227272727272727
sg31
F0.4431818181818181
sg32
S'yellow'
p48
sba(icurlovision
Stone
p49
(dp50
g29
F1.2443181818181817
sg30
F0.03409090909090909
sg31
F0.3409090909090909
sg32
S'red'
p51
sba(icurlovision
Stone
p52
(dp53
g29
F0.2556818181818182
sg30
F0.20454545454545453
sg31
F0.4602272727272727
sg32
S'yellow'
p54
sba(icurlovision
Stone
p55
(dp56
g29
F-1.5852272727272727
sg30
F0.03409090909090909
sg31
F0.28977272727272724
sg32
S'red'
p57
sbasba(icurlovision
StoneLayout
p58
(dp59
g24
F0.4791666666666667
sg25
(lp60
(icurlovision
Stone
p61
(dp62
g29
F-0.19642857142857142
sg30
F0.42857142857142855
sg31
F0.3214285714285714
sg32
S'yellow'
p63
sba(icurlovision
Stone
p64
(dp65
g29
F3.1607142857142856
sg30
F-0.6071428571428571
sg31
F0.33928571428571425
sg32
S'red'
p66
sba(icurlovision
Stone
p67
(dp68
g29
F10.732142857142856
sg30
F0.0
sg31
F0.4464285714285714
sg32
S'yellow'
p69
sba(icurlovision
Stone
p70
(dp71
g29
F1.2678571428571428
sg30
F-1.1428571428571428
sg31
F0.33928571428571425
sg32
S'yellow'
p72
sba(icurlovision
Stone
p73
(dp74
g29
F1.232142857142857
sg30
F0.10714285714285714
sg31
F0.3214285714285714
sg32
S'red'
p75
sba(icurlovision
Stone
p76
(dp77
g29
F-1.6607142857142856
sg30
F0.0
sg31
F0.26785714285714285
sg32
S'red'
p78
sbasba(icurlovision
StoneLayout
p79
(dp80
g24
F0.4791666666666667
sg25
(lp81
(icurlovision
Stone
p82
(dp83
g29
F3.15
sg30
F-0.6749999999999999
sg31
F0.44999999999999996
sg32
S'red'
p84
sba(icurlovision
Stone
p85
(dp86
g29
F-0.22499999999999998
sg30
F0.4125
sg31
F0.33749999999999997
sg32
S'yellow'
p87
sba(icurlovision
Stone
p88
(dp89
g29
F1.3125
sg30
F-1.1624999999999999
sg31
F0.44999999999999996
sg32
S'yellow'
p90
sba(icurlovision
Stone
p91
(dp92
g29
F11.475
sg30
F0.4875
sg31
F0.4125
sg32
S'yellow'
p93
sba(icurlovision
Stone
p94
(dp95
g29
F1.2375
sg30
F0.075
sg31
F0.35625
sg32
S'red'
p96
sba(icurlovision
Stone
p97
(dp98
g29
F-1.65
sg30
F0.0
sg31
F0.28125
sg32
S'red'
p99
sbasba(icurlovision
StoneLayout
p100
(dp101
g24
F0.4791666666666667
sg25
(lp102
(icurlovision
Stone
p103
(dp104
g29
F3.1153846153846154
sg30
F-0.6153846153846154
sg31
F0.44230769230769235
sg32
S'red'
p105
sba(icurlovision
Stone
p106
(dp107
g29
F-1.7307692307692308
sg30
F0.23076923076923078
sg31
F0.46153846153846156
sg32
S'red'
p108
sba(icurlovision
Stone
p109
(dp110
g29
F1.1923076923076923
sg30
F0.11538461538461539
sg31
F0.46153846153846156
sg32
S'red'
p111
sba(icurlovision
Stone
p112
(dp113
g29
F11.307692307692308
sg30
F0.46153846153846156
sg31
F0.3076923076923077
sg32
S'yellow'
p114
sbasba(icurlovision
StoneLayout
p115
(dp116
g24
F0.4791666666666667
sg25
(lp117
(icurlovision
Stone
p118
(dp119
g29
F-1.732142857142857
sg30
F0.19642857142857142
sg31
F0.2857142857142857
sg32
S'red'
p120
sba(icurlovision
Stone
p121
(dp122
g29
F3.875
sg30
F-0.33928571428571425
sg31
F0.3214285714285714
sg32
S'yellow'
p123
sba(icurlovision
Stone
p124
(dp125
g29
F11.017857142857142
sg30
F0.5178571428571428
sg31
F0.42857142857142855
sg32
S'yellow'
p126
sba(icurlovision
Stone
p127
(dp128
g29
F0.875
sg30
F-0.875
sg31
F0.33928571428571425
sg32
S'red'
p129
sba(icurlovision
Stone
p130
(dp131
g29
F1.1964285714285714
sg30
F0.08928571428571427
sg31
F0.33928571428571425
sg32
S'red'
p132
sbasba(icurlovision
StoneLayout
p133
(dp134
g24
F0.4791666666666667
sg25
(lp135
(icurlovision
Stone
p136
(dp137
g29
F-1.7560975609756095
sg30
F0.2195121951219512
sg31
F0.47560975609756095
sg32
S'red'
p138
sba(icurlovision
Stone
p139
(dp140
g29
F4.097560975609756
sg30
F-0.36585365853658536
sg31
F0.3292682926829268
sg32
S'yellow'
p141
sba(icurlovision
Stone
p142
(dp143
g29
F11.524390243902438
sg30
F0.5853658536585366
sg31
F0.4390243902439024
sg32
S'yellow'
p144
sba(icurlovision
Stone
p145
(dp146
g29
F0.9512195121951219
sg30
F-0.8780487804878048
sg31
F0.3475609756097561
sg32
S'red'
p147
sba(icurlovision
Stone
p148
(dp149
g29
F4.280487804878049
sg30
F1.0609756097560974
sg31
F0.3475609756097561
sg32
S'red'
p150
sba(icurlovision
Stone
p151
(dp152
g29
F1.2439024390243902
sg30
F0.1097560975609756
sg31
F0.3475609756097561
sg32
S'red'
p153
sbasba(icurlovision
StoneLayout
p154
(dp155
g24
F0.4791666666666667
sg25
(lp156
(icurlovision
Stone
p157
(dp158
g29
F-3.214285714285714
sg30
F0.03571428571428571
sg31
F0.46428571428571425
sg32
S'red'
p159
sba(icurlovision
Stone
p160
(dp161
g29
F-2.5357142857142856
sg30
F6.392857142857142
sg31
F0.46428571428571425
sg32
S'red'
p162
sba(icurlovision
Stone
p163
(dp164
g29
F11.25
sg30
F0.5357142857142857
sg31
F0.4464285714285714
sg32
S'yellow'
p165
sba(icurlovision
Stone
p166
(dp167
g29
F4.178571428571428
sg30
F1.0357142857142856
sg31
F0.33928571428571425
sg32
S'red'
p168
sba(icurlovision
Stone
p169
(dp170
g29
F3.964285714285714
sg30
F-0.3214285714285714
sg31
F0.33928571428571425
sg32
S'yellow'
p171
sba(icurlovision
Stone
p172
(dp173
g29
F1.2142857142857142
sg30
F0.10714285714285714
sg31
F0.33928571428571425
sg32
S'red'
p174
sbasbasS'red_score'
p175
I2
sS'red_hammer'
p176
I1
sba(icurlovision
EndResult
p177
(dp178
g2
I1
sg9
(lp179
(I4
I5
tp180
a(I4
I4
tp181
a(I3
I4
tp182
a(I3
I3
tp183
a(I2
I3
tp184
a(I2
I2
tp185
a(I1
I2
tp186
a(I1
I1
tp187
a(I0
I1
tp188
asg19
I2
sg20
(lp189
(icurlovision
StoneLayout
p190
(dp191
g24
F0.4791666666666667
sg25
(lp192
(icurlovision
Stone
p193
(dp194
g29
F11.181818181818182
sg30
F0.6477272727272727
sg31
F0.4431818181818181
sg32
S'red'
p195
sba(icurlovision
Stone
p196
(dp197
g29
F10.159090909090908
sg30
F-0.5113636363636364
sg31
F0.28977272727272724
sg32
S'red'
p198
sbasba(icurlovision
StoneLayout
p199
(dp200
g24
F0.4791666666666667
sg25
(lp201
(icurlovision
Stone
p202
(dp203
g29
F10.883333333333333
sg30
F0.65
sg31
F0.43333333333333335
sg32
S'red'
p204
sba(icurlovision
Stone
p205
(dp206
g29
F9.85
sg30
F-0.45
sg31
F0.26666666666666666
sg32
S'red'
p207
sba(icurlovision
Stone
p208
(dp209
g29
F-1.5833333333333333
sg30
F0.016666666666666666
sg31
F0.3333333333333333
sg32
S'yellow'
p210
sba(icurlovision
Stone
p211
(dp212
g29
F5.816666666666666
sg30
F1.1166666666666667
sg31
F0.31666666666666665
sg32
S'yellow'
p213
sbasba(icurlovision
StoneLayout
p214
(dp215
g24
F0.4791666666666667
sg25
(lp216
(icurlovision
Stone
p217
(dp218
g29
F-0.7670454545454545
sg30
F0.32386363636363635
sg31
F0.30681818181818177
sg32
S'red'
p219
sba(icurlovision
Stone
p220
(dp221
g29
F-1.9602272727272725
sg30
F-0.05113636363636363
sg31
F0.4261363636363636
sg32
S'yellow'
p222
sba(icurlovision
Stone
p223
(dp224
g29
F9.835227272727272
sg30
F-0.49431818181818177
sg31
F0.2727272727272727
sg32
S'red'
p225
sba(icurlovision
Stone
p226
(dp227
g29
F10.823863636363635
sg30
F0.5965909090909091
sg31
F0.2727272727272727
sg32
S'red'
p228
sba(icurlovision
Stone
p229
(dp230
g29
F5.8125
sg30
F1.0738636363636362
sg31
F0.3409090909090909
sg32
S'yellow'
p231
sbasba(icurlovision
StoneLayout
p232
(dp233
g24
F0.4791666666666667
sg25
(lp234
(icurlovision
Stone
p235
(dp236
g29
F-1.9402173913043477
sg30
F-0.048913043478260865
sg31
F0.30978260869565216
sg32
S'yellow'
p237
sba(icurlovision
Stone
p238
(dp239
g29
F4.581521739130435
sg30
F6.701086956521739
sg31
F0.44021739130434784
sg32
S'yellow'
p240
sba(icurlovision
Stone
p241
(dp242
g29
F-0.7010869565217391
sg30
F0.27717391304347827
sg31
F0.34239130434782605
sg32
S'red'
p243
sba(icurlovision
Stone
p244
(dp245
g29
F5.853260869565217
sg30
F1.0923913043478262
sg31
F0.44021739130434784
sg32
S'yellow'
p246
sba(icurlovision
Stone
p247
(dp248
g29
F-1.0923913043478262
sg30
F4.71195652173913
sg31
F0.42391304347826086
sg32
S'red'
p249
sba(icurlovision
Stone
p250
(dp251
g29
F2.4293478260869565
sg30
F-4.875
sg31
F0.32608695652173914
sg32
S'red'
p252
sbasba(icurlovision
StoneLayout
p253
(dp254
g24
F0.4791666666666667
sg25
(lp255
(icurlovision
Stone
p256
(dp257
g29
F0.7222222222222222
sg30
F0.8333333333333333
sg31
F0.4583333333333333
sg32
S'red'
p258
sba(icurlovision
Stone
p259
(dp260
g29
F-0.7777777777777777
sg30
F0.3333333333333333
sg31
F0.3472222222222222
sg32
S'red'
p261
sba(icurlovision
Stone
p262
(dp263
g29
F6.027777777777778
sg30
F1.1666666666666665
sg31
F0.3194444444444444
sg32
S'yellow'
p264
sba(icurlovision
Stone
p265
(dp266
g29
F-2.0277777777777777
sg30
F4.5
sg31
F0.3333333333333333
sg32
S'red'
p267
sbasba(icurlovision
StoneLayout
p268
(dp269
g24
F0.4791666666666667
sg25
(lp270
(icurlovision
Stone
p271
(dp272
g29
F6.8798076923076925
sg30
F0.8509615384615385
sg31
F0.31730769230769235
sg32
S'yellow'
p273
sba(icurlovision
Stone
p274
(dp275
g29
F-0.7355769230769231
sg30
F0.3028846153846154
sg31
F0.46153846153846156
sg32
S'red'
p276
sba(icurlovision
Stone
p277
(dp278
g29
F0.764423076923077
sg30
F0.8509615384615385
sg31
F0.3605769230769231
sg32
S'red'
p279
sba(icurlovision
Stone
p280
(dp281
g29
F-2.0336538461538463
sg30
F4.5144230769230775
sg31
F0.34615384615384615
sg32
S'red'
p282
sbasba(icurlovision
StoneLayout
p283
(dp284
g24
F0.4791666666666667
sg25
(lp285
(icurlovision
Stone
p286
(dp287
g29
F6.929347826086956
sg30
F0.8641304347826086
sg31
F0.34239130434782605
sg32
S'yellow'
p288
sba(icurlovision
Stone
p289
(dp290
g29
F8.429347826086957
sg30
F-0.34239130434782605
sg31
F0.30978260869565216
sg32
S'red'
p291
sba(icurlovision
Stone
p292
(dp293
g29
F-2.0380434782608696
sg30
F-0.048913043478260865
sg31
F0.34239130434782605
sg32
S'yellow'
p294
sba(icurlovision
Stone
p295
(dp296
g29
F-0.7989130434782609
sg30
F0.34239130434782605
sg31
F0.27717391304347827
sg32
S'red'
p297
sba(icurlovision
Stone
p298
(dp299
g29
F0.733695652173913
sg30
F0.8315217391304348
sg31
F0.45652173913043476
sg32
S'red'
p300
sba(icurlovision
Stone
p301
(dp302
g29
F-2.0706521739130435
sg30
F4.548913043478261
sg31
F0.30978260869565216
sg32
S'red'
p303
sba(icurlovision
Stone
p304
(dp305
g29
F5.364130434782608
sg30
F1.483695652173913
sg31
F0.34239130434782605
sg32
S'yellow'
p306
sbasba(icurlovision
StoneLayout
p307
(dp308
g24
F0.4791666666666667
sg25
(lp309
(icurlovision
Stone
p310
(dp311
g29
F-2.106382978723404
sg30
F-1.1489361702127658
sg31
F0.33510638297872336
sg32
S'yellow'
p312
sba(icurlovision
Stone
p313
(dp314
g29
F8.23404255319149
sg30
F-0.3829787234042553
sg31
F0.28723404255319146
sg32
S'red'
p315
sba(icurlovision
Stone
p316
(dp317
g29
F6.829787234042553
sg30
F0.7978723404255319
sg31
F0.33510638297872336
sg32
S'yellow'
p318
sba(icurlovision
Stone
p319
(dp320
g29
F-0.7659574468085106
sg30
F0.3191489361702127
sg31
F0.44680851063829785
sg32
S'red'
p321
sba(icurlovision
Stone
p322
(dp323
g29
F0.7340425531914893
sg30
F0.8617021276595744
sg31
F0.351063829787234
sg32
S'red'
p324
sba(icurlovision
Stone
p325
(dp326
g29
F-2.0106382978723403
sg30
F4.5638297872340425
sg31
F0.33510638297872336
sg32
S'red'
p327
sbasba(icurlovision
StoneLayout
p328
(dp329
g24
F0.4791666666666667
sg25
(lp330
(icurlovision
Stone
p331
(dp332
g29
F-2.2010869565217392
sg30
F-1.2065217391304348
sg31
F0.34239130434782605
sg32
S'yellow'
p333
sba(icurlovision
Stone
p334
(dp335
g29
F6.994565217391304
sg30
F0.8152173913043478
sg31
F0.358695652173913
sg32
S'yellow'
p336
sba(icurlovision
Stone
p337
(dp338
g29
F-0.8315217391304348
sg30
F0.45652173913043476
sg31
F0.30978260869565216
sg32
S'red'
p339
sba(icurlovision
Stone
p340
(dp341
g29
F-1.2880434782608696
sg30
F-0.75
sg31
F0.45652173913043476
sg32
S'red'
p342
sba(icurlovision
Stone
p343
(dp344
g29
F8.46195652173913
sg30
F-0.3913043478260869
sg31
F0.47282608695652173
sg32
S'red'
p345
sba(icurlovision
Stone
p346
(dp347
g29
F-2.0380434782608696
sg30
F4.630434782608695
sg31
F0.358695652173913
sg32
S'red'
p348
sba(icurlovision
Stone
p349
(dp350
g29
F0.7989130434782609
sg30
F0.8804347826086957
sg31
F0.2934782608695652
sg32
S'red'
p351
sba(icurlovision
Stone
p352
(dp353
g29
F5.46195652173913
sg30
F1.434782608695652
sg31
F0.34239130434782605
sg32
S'yellow'
p354
sbasbasg175
I2
sg176
I0
sba(icurlovision
EndResult
p355
(dp356
g2
I2
sg9
(lp357
(I5
I4
tp358
a(I4
I4
tp359
a(I4
I3
tp360
a(I3
I3
tp361
a(I3
I2
tp362
a(I2
I2
tp363
a(I2
I1
tp364
a(I1
I1
tp365
a(I1
I0
tp366
asg19
I3
sg20
(lp367
(icurlovision
StoneLayout
p368
(dp369
g24
F0.4791666666666667
sg25
(lp370
(icurlovision
Stone
p371
(dp372
g29
F1.7616279069767442
sg30
F-0.01744186046511628
sg31
F0.3313953488372093
sg32
S'yellow'
p373
sba(icurlovision
Stone
p374
(dp375
g29
F10.831395348837209
sg30
F-0.05232558139534883
sg31
F0.436046511627907
sg32
S'yellow'
p376
sba(icurlovision
Stone
p377
(dp378
g29
F-1.622093023255814
sg30
F0.01744186046511628
sg31
F0.3488372093023256
sg32
S'red'
p379
sbasba(icurlovision
StoneLayout
p380
(dp381
g24
F0.4791666666666667
sg25
(lp382
(icurlovision
Stone
p383
(dp384
g29
F0.6136363636363635
sg30
F0.6136363636363635
sg31
F0.3409090909090909
sg32
S'yellow'
p385
sba(icurlovision
Stone
p386
(dp387
g29
F2.352272727272727
sg30
F-0.6818181818181818
sg31
F0.4261363636363636
sg32
S'red'
p388
sba(icurlovision
Stone
p389
(dp390
g29
F-1.534090909090909
sg30
F0.06818181818181818
sg31
F0.40909090909090906
sg32
S'red'
p391
sbasba(icurlovision
StoneLayout
p392
(dp393
g24
F0.4791666666666667
sg25
(lp394
(icurlovision
Stone
p395
(dp396
g29
F2.38953488372093
sg30
F-0.7151162790697674
sg31
F0.47093023255813954
sg32
S'red'
p397
sba(icurlovision
Stone
p398
(dp399
g29
F4.936046511627907
sg30
F0.19186046511627908
sg31
F0.313953488372093
sg32
S'yellow'
p400
sba(icurlovision
Stone
p401
(dp402
g29
F0.6453488372093024
sg30
F0.6104651162790697
sg31
F0.27906976744186046
sg32
S'yellow'
p403
sba(icurlovision
Stone
p404
(dp405
g29
F-1.6569767441860466
sg30
F-0.01744186046511628
sg31
F0.27906976744186046
sg32
S'red'
p406
sbasba(icurlovision
StoneLayout
p407
(dp408
g24
F0.4791666666666667
sg25
(lp409
(icurlovision
Stone
p410
(dp411
g29
F0.6136363636363635
sg30
F0.6136363636363635
sg31
F0.30681818181818177
sg32
S'yellow'
p412
sba(icurlovision
Stone
p413
(dp414
g29
F4.0227272727272725
sg30
F1.159090909090909
sg31
F0.3409090909090909
sg32
S'yellow'
p415
sba(icurlovision
Stone
p416
(dp417
g29
F10.568181818181817
sg30
F-0.06818181818181818
sg31
F0.4431818181818181
sg32
S'yellow'
p418
sba(icurlovision
Stone
p419
(dp420
g29
F2.215909090909091
sg30
F-0.5454545454545454
sg31
F0.30681818181818177
sg32
S'red'
p421
sba(icurlovision
Stone
p422
(dp423
g29
F-1.602272727272727
sg30
F0.03409090909090909
sg31
F0.28977272727272724
sg32
S'red'
p424
sba(icurlovision
Stone
p425
(dp426
g29
F-1.2954545454545454
sg30
F-3.954545454545454
sg31
F0.40909090909090906
sg32
S'red'
p427
sbasba(icurlovision
StoneLayout
p428
(dp429
g24
F0.4791666666666667
sg25
(lp430
(icurlovision
Stone
p431
(dp432
g29
F8.5
sg30
F-0.7692307692307693
sg31
F0.4807692307692308
sg32
S'yellow'
p433
sba(icurlovision
Stone
p434
(dp435
g29
F0.6923076923076923
sg30
F0.576923076923077
sg31
F0.4807692307692308
sg32
S'yellow'
p436
sba(icurlovision
Stone
p437
(dp438
g29
F4.307692307692308
sg30
F1.1923076923076923
sg31
F0.3653846153846154
sg32
S'yellow'
p439
sba(icurlovision
Stone
p440
(dp441
g29
F2.3846153846153846
sg30
F-0.6153846153846154
sg31
F0.4807692307692308
sg32
S'red'
p442
sba(icurlovision
Stone
p443
(dp444
g29
F-1.3461538461538463
sg30
F-4.307692307692308
sg31
F0.34615384615384615
sg32
S'red'
p445
sba(icurlovision
Stone
p446
(dp447
g29
F-1.653846153846154
sg30
F0.0
sg31
F0.4807692307692308
sg32
S'red'
p448
sbasba(icurlovision
StoneLayout
p449
(dp450
g24
F0.4791666666666667
sg25
(lp451
(icurlovision
Stone
p452
(dp453
g29
F10.732142857142856
sg30
F-0.10714285714285714
sg31
F0.42857142857142855
sg32
S'yellow'
p454
sba(icurlovision
Stone
p455
(dp456
g29
F2.732142857142857
sg30
F-1.5
sg31
F0.4464285714285714
sg32
S'yellow'
p457
sba(icurlovision
Stone
p458
(dp459
g29
F0.6607142857142857
sg30
F0.5714285714285714
sg31
F0.3214285714285714
sg32
S'yellow'
p460
sba(icurlovision
Stone
p461
(dp462
g29
F2.267857142857143
sg30
F-0.6071428571428571
sg31
F0.46428571428571425
sg32
S'red'
p463
sba(icurlovision
Stone
p464
(dp465
g29
F-1.3035714285714286
sg30
F-4.071428571428571
sg31
F0.2857142857142857
sg32
S'red'
p466
sba(icurlovision
Stone
p467
(dp468
g29
F-1.5892857142857142
sg30
F0.0
sg31
F0.33928571428571425
sg32
S'red'
p469
sbasba(icurlovision
StoneLayout
p470
(dp471
g24
F0.4791666666666667
sg25
(lp472
(icurlovision
Stone
p473
(dp474
g29
F-5.5
sg30
F6.928571428571428
sg31
F0.42857142857142855
sg32
S'yellow'
p475
sba(icurlovision
Stone
p476
(dp477
g29
F2.6785714285714284
sg30
F-1.4642857142857142
sg31
F0.3214285714285714
sg32
S'yellow'
p478
sba(icurlovision
Stone
p479
(dp480
g29
F-0.2857142857142857
sg30
F0.3571428571428571
sg31
F0.33928571428571425
sg32
S'yellow'
p481
sba(icurlovision
Stone
p482
(dp483
g29
F2.214285714285714
sg30
F-0.5357142857142857
sg31
F0.4464285714285714
sg32
S'red'
p484
sba(icurlovision
Stone
p485
(dp486
g29
F1.5
sg30
F0.8214285714285714
sg31
F0.3214285714285714
sg32
S'yellow'
p487
sba(icurlovision
Stone
p488
(dp489
g29
F-1.5714285714285714
sg30
F0.07142857142857142
sg31
F0.4107142857142857
sg32
S'red'
p490
sba(icurlovision
Stone
p491
(dp492
g29
F-1.2857142857142856
sg30
F-4.0
sg31
F0.26785714285714285
sg32
S'red'
p493
sbasba(icurlovision
StoneLayout
p494
(dp495
g24
F0.4791666666666667
sg25
(lp496
(icurlovision
Stone
p497
(dp498
g29
F-2.1627906976744184
sg30
F-2.7209302325581395
sg31
F0.3313953488372093
sg32
S'yellow'
p499
sba(icurlovision
Stone
p500
(dp501
g29
F-0.27906976744186046
sg30
F0.38372093023255816
sg31
F0.3313953488372093
sg32
S'yellow'
p502
sba(icurlovision
Stone
p503
(dp504
g29
F1.9534883720930232
sg30
F0.0
sg31
F0.45348837209302323
sg32
S'red'
p505
sba(icurlovision
Stone
p506
(dp507
g29
F-1.2906976744186047
sg30
F-4.046511627906977
sg31
F0.436046511627907
sg32
S'red'
p508
sba(icurlovision
Stone
p509
(dp510
g29
F-1.6395348837209303
sg30
F0.03488372093023256
sg31
F0.45348837209302323
sg32
S'red'
p511
sbasba(icurlovision
StoneLayout
p512
(dp513
g24
F0.4791666666666667
sg25
(lp514
(icurlovision
Stone
p515
(dp516
g29
F-1.744186046511628
sg30
F6.767441860465116
sg31
F0.41860465116279066
sg32
S'yellow'
p517
sba(icurlovision
Stone
p518
(dp519
g29
F-0.27906976744186046
sg30
F0.3488372093023256
sg31
F0.3313953488372093
sg32
S'yellow'
p520
sba(icurlovision
Stone
p521
(dp522
g29
F-5.5813953488372094
sg30
F6.941860465116279
sg31
F0.3313953488372093
sg32
S'yellow'
p523
sba(icurlovision
Stone
p524
(dp525
g29
F9.279069767441861
sg30
F-1.1162790697674418
sg31
F0.436046511627907
sg32
S'yellow'
p526
sba(icurlovision
Stone
p527
(dp528
g29
F-1.2906976744186047
sg30
F-4.011627906976744
sg31
F0.45348837209302323
sg32
S'red'
p529
sba(icurlovision
Stone
p530
(dp531
g29
F1.9186046511627908
sg30
F0.0
sg31
F0.436046511627907
sg32
S'red'
p532
sba(icurlovision
Stone
p533
(dp534
g29
F-1.569767441860465
sg30
F0.03488372093023256
sg31
F0.27906976744186046
sg32
S'red'
p535
sbasbasg175
I2
sg176
I1
sba(icurlovision
EndResult
p536
(dp537
g2
I2
sg9
(lp538
(I5
I4
tp539
a(I4
I3
tp540
a(I3
I3
tp541
a(I3
I2
tp542
a(I2
I2
tp543
a(I2
I1
tp544
a(I1
I1
tp545
a(I1
I0
tp546
asg19
I4
sg20
(lp547
(icurlovision
StoneLayout
p548
(dp549
g24
F0.4791666666666667
sg25
(lp550
(icurlovision
Stone
p551
(dp552
g29
F-0.6964285714285714
sg30
F0.125
sg31
F0.33928571428571425
sg32
S'yellow'
p553
sba(icurlovision
Stone
p554
(dp555
g29
F10.839285714285714
sg30
F-0.125
sg31
F0.42857142857142855
sg32
S'yellow'
p556
sba(icurlovision
Stone
p557
(dp558
g29
F-1.732142857142857
sg30
F-0.05357142857142857
sg31
F0.46428571428571425
sg32
S'red'
p559
sbasba(icurlovision
StoneLayout
p560
(dp561
g24
F0.4791666666666667
sg25
(lp562
(icurlovision
Stone
p563
(dp564
g29
F-0.875
sg30
F0.05357142857142857
sg31
F0.33928571428571425
sg32
S'yellow'
p565
sba(icurlovision
Stone
p566
(dp567
g29
F0.9107142857142857
sg30
F0.4464285714285714
sg31
F0.3214285714285714
sg32
S'yellow'
p568
sba(icurlovision
Stone
p569
(dp570
g29
F10.839285714285714
sg30
F-0.125
sg31
F0.4464285714285714
sg32
S'yellow'
p571
sba(icurlovision
Stone
p572
(dp573
g29
F-1.982142857142857
sg30
F-0.08928571428571427
sg31
F0.46428571428571425
sg32
S'red'
p574
sba(icurlovision
Stone
p575
(dp576
g29
F-0.5178571428571428
sg30
F1.0178571428571428
sg31
F0.3214285714285714
sg32
S'red'
p577
sbasba(icurlovision
StoneLayout
p578
(dp579
g24
F0.4791666666666667
sg25
(lp580
(icurlovision
Stone
p581
(dp582
g29
F-1.8109756097560974
sg30
F-6.23780487804878
sg31
F0.3475609756097561
sg32
S'yellow'
p583
sba(icurlovision
Stone
p584
(dp585
g29
F10.884146341463413
sg30
F0.018292682926829267
sg31
F0.40243902439024387
sg32
S'yellow'
p586
sba(icurlovision
Stone
p587
(dp588
g29
F-1.2987804878048779
sg30
F-1.0426829268292683
sg31
F0.47560975609756095
sg32
S'yellow'
p589
sba(icurlovision
Stone
p590
(dp591
g29
F-0.5670731707317073
sg30
F1.0060975609756098
sg31
F0.45731707317073167
sg32
S'red'
p592
sbasba(icurlovision
StoneLayout
p593
(dp594
g24
F0.4791666666666667
sg25
(lp595
(icurlovision
Stone
p596
(dp597
g29
F-1.7743902439024388
sg30
F-6.201219512195122
sg31
F0.3292682926829268
sg32
S'yellow'
p598
sba(icurlovision
Stone
p599
(dp600
g29
F-1.2621951219512195
sg30
F-1.0426829268292683
sg31
F0.3475609756097561
sg32
S'yellow'
p601
sba(icurlovision
Stone
p602
(dp603
g29
F10.920731707317072
sg30
F-0.0548780487804878
sg31
F0.4390243902439024
sg32
S'yellow'
p604
sba(icurlovision
Stone
p605
(dp606
g29
F-0.274390243902439
sg30
F-0.31097560975609756
sg31
F0.45731707317073167
sg32
S'yellow'
p607
sbasba(icurlovision
StoneLayout
p608
(dp609
g24
F0.4791666666666667
sg25
(lp610
(icurlovision
Stone
p611
(dp612
g29
F-0.7615384615384616
sg30
F-0.2076923076923077
sg31
F0.34615384615384615
sg32
S'yellow'
p613
sba(icurlovision
Stone
p614
(dp615
g29
F-1.8692307692307693
sg30
F-6.230769230769231
sg31
F0.33461538461538465
sg32
S'yellow'
p616
sba(icurlovision
Stone
p617
(dp618
g29
F-1.3615384615384616
sg30
F-1.1076923076923078
sg31
F0.34615384615384615
sg32
S'yellow'
p619
sba(icurlovision
Stone
p620
(dp621
g29
F0.5538461538461539
sg30
F0.16153846153846155
sg31
F0.34615384615384615
sg32
S'red'
p622
sbasba(icurlovision
StoneLayout
p623
(dp624
g24
F0.4791666666666667
sg25
(lp625
(icurlovision
Stone
p626
(dp627
g29
F0.7674418604651163
sg30
F-0.9418604651162791
sg31
F0.3313953488372093
sg32
S'yellow'
p628
sba(icurlovision
Stone
p629
(dp630
g29
F-1.3604651162790697
sg30
F-1.1511627906976745
sg31
F0.2965116279069767
sg32
S'yellow'
p631
sba(icurlovision
Stone
p632
(dp633
g29
F-1.7790697674418605
sg30
F-6.069767441860465
sg31
F0.45348837209302323
sg32
S'yellow'
p634
sba(icurlovision
Stone
p635
(dp636
g29
F10.674418604651162
sg30
F-0.10465116279069767
sg31
F0.436046511627907
sg32
S'yellow'
p637
sba(icurlovision
Stone
p638
(dp639
g29
F-0.41860465116279066
sg30
F0.8023255813953488
sg31
F0.313953488372093
sg32
S'red'
p640
sba(icurlovision
Stone
p641
(dp642
g29
F-0.7325581395348837
sg30
F-0.20930232558139533
sg31
F0.45348837209302323
sg32
S'yellow'
p643
sbasba(icurlovision
StoneLayout
p644
(dp645
g24
F0.4791666666666667
sg25
(lp646
(icurlovision
Stone
p647
(dp648
g29
F-2.4146341463414633
sg30
F-1.097560975609756
sg31
F0.45731707317073167
sg32
S'yellow'
p649
sba(icurlovision
Stone
p650
(dp651
g29
F-0.7682926829268292
sg30
F-2.9634146341463414
sg31
F0.45731707317073167
sg32
S'yellow'
p652
sba(icurlovision
Stone
p653
(dp654
g29
F1.7195121951219512
sg30
F-1.024390243902439
sg31
F0.25609756097560976
sg32
S'red'
p655
sba(icurlovision
Stone
p656
(dp657
g29
F-1.792682926829268
sg30
F-6.2195121951219505
sg31
F0.45731707317073167
sg32
S'yellow'
p658
sba(icurlovision
Stone
p659
(dp660
g29
F10.97560975609756
sg30
F-0.036585365853658534
sg31
F0.4390243902439024
sg32
S'yellow'
p661
sba(icurlovision
Stone
p662
(dp663
g29
F-0.4390243902439024
sg30
F0.8414634146341463
sg31
F0.25609756097560976
sg32
S'red'
p664
sbasba(icurlovision
StoneLayout
p665
(dp666
g24
F0.4791666666666667
sg25
(lp667
(icurlovision
Stone
p668
(dp669
g29
F-2.339285714285714
sg30
F-1.0357142857142856
sg31
F0.46428571428571425
sg32
S'yellow'
p670
sba(icurlovision
Stone
p671
(dp672
g29
F-1.2678571428571428
sg30
F-1.857142857142857
sg31
F0.3214285714285714
sg32
S'yellow'
p673
sba(icurlovision
Stone
p674
(dp675
g29
F-1.7678571428571428
sg30
F-6.0
sg31
F0.33928571428571425
sg32
S'yellow'
p676
sba(icurlovision
Stone
p677
(dp678
g29
F10.625
sg30
F-0.10714285714285714
sg31
F0.42857142857142855
sg32
S'yellow'
p679
sba(icurlovision
Stone
p680
(dp681
g29
F1.625
sg30
F-1.0
sg31
F0.33928571428571425
sg32
S'red'
p682
sba(icurlovision
Stone
p683
(dp684
g29
F-0.7678571428571428
sg30
F-2.8571428571428568
sg31
F0.4464285714285714
sg32
S'yellow'
p685
sbasbasg175
I3
sg176
I1
sba(icurlovision
EndResult
p686
(dp687
g2
I2
sg9
(lp688
(I4
I5
tp689
a(I4
I4
tp690
a(I3
I4
tp691
a(I3
I3
tp692
a(I2
I3
tp693
a(I2
I2
tp694
a(I1
I2
tp695
a(I1
I1
tp696
a(I0
I1
tp697
asg19
I5
sg20
(lp698
(icurlovision
StoneLayout
p699
(dp700
g24
F0.4791666666666667
sg25
(lp701
(icurlovision
Stone
p702
(dp703
g29
F16.083333333333332
sg30
F-0.25
sg31
F0.4375
sg32
S'red'
p704
sba(icurlovision
Stone
p705
(dp706
g29
F11.083333333333332
sg30
F-0.041666666666666664
sg31
F0.4583333333333333
sg32
S'red'
p707
sbasba(icurlovision
StoneLayout
p708
(dp709
g24
F0.4791666666666667
sg25
(lp710
(icurlovision
Stone
p711
(dp712
g29
F-1.6621621621621623
sg30
F-0.04054054054054054
sg31
F0.3445945945945946
sg32
S'yellow'
p713
sba(icurlovision
Stone
p714
(dp715
g29
F15.527027027027028
sg30
F-0.08108108108108109
sg31
F0.40540540540540543
sg32
S'red'
p716
sba(icurlovision
Stone
p717
(dp718
g29
F10.702702702702704
sg30
F0.08108108108108109
sg31
F0.4256756756756757
sg32
S'red'
p719
sba(icurlovision
Stone
p720
(dp721
g29
F-4.216216216216217
sg30
F-0.5270270270270271
sg31
F0.3445945945945946
sg32
S'yellow'
p722
sbasba(icurlovision
StoneLayout
p723
(dp724
g24
F0.4791666666666667
sg25
(lp725
(icurlovision
Stone
p726
(dp727
g29
F10.662162162162163
sg30
F-0.08108108108108109
sg31
F0.44594594594594594
sg32
S'red'
p728
sba(icurlovision
Stone
p729
(dp730
g29
F-1.6216216216216217
sg30
F0.0
sg31
F0.46621621621621623
sg32
S'yellow'
p731
sba(icurlovision
Stone
p732
(dp733
g29
F-4.175675675675676
sg30
F-0.44594594594594594
sg31
F0.3445945945945946
sg32
S'yellow'
p734
sba(icurlovision
Stone
p735
(dp736
g29
F15.445945945945947
sg30
F-0.28378378378378377
sg31
F0.44594594594594594
sg32
S'red'
p737
sba(icurlovision
Stone
p738
(dp739
g29
F-0.28378378378378377
sg30
F-0.5270270270270271
sg31
F0.32432432432432434
sg32
S'red'
p740
sbasba(icurlovision
StoneLayout
p741
(dp742
g24
F0.4791666666666667
sg25
(lp743
(icurlovision
Stone
p744
(dp745
g29
F10.958333333333332
sg30
F0.0
sg31
F0.4583333333333333
sg32
S'red'
p746
sba(icurlovision
Stone
p747
(dp748
g29
F-5.0
sg30
F-1.9583333333333333
sg31
F0.35416666666666663
sg32
S'yellow'
p749
sba(icurlovision
Stone
p750
(dp751
g29
F-5.0
sg30
F0.125
sg31
F0.3333333333333333
sg32
S'yellow'
p752
sba(icurlovision
Stone
p753
(dp754
g29
F-1.625
sg30
F-0.041666666666666664
sg31
F0.25
sg32
S'yellow'
p755
sba(icurlovision
Stone
p756
(dp757
g29
F-0.25
sg30
F-0.5
sg31
F0.4583333333333333
sg32
S'red'
p758
sbasba(icurlovision
StoneLayout
p759
(dp760
g24
F0.4791666666666667
sg25
(lp761
(icurlovision
Stone
p762
(dp763
g29
F10.621621621621623
sg30
F-0.04054054054054054
sg31
F0.4256756756756757
sg32
S'red'
p764
sba(icurlovision
Stone
p765
(dp766
g29
F-4.905405405405405
sg30
F-1.8243243243243243
sg31
F0.32432432432432434
sg32
S'yellow'
p767
sba(icurlovision
Stone
p768
(dp769
g29
F-4.905405405405405
sg30
F0.24324324324324326
sg31
F0.3445945945945946
sg32
S'yellow'
p770
sba(icurlovision
Stone
p771
(dp772
g29
F15.405405405405407
sg30
F-0.24324324324324326
sg31
F0.40540540540540543
sg32
S'red'
p773
sba(icurlovision
Stone
p774
(dp775
g29
F-4.337837837837838
sg30
F-0.5270270270270271
sg31
F0.46621621621621623
sg32
S'red'
p776
sba(icurlovision
Stone
p777
(dp778
g29
F-0.24324324324324326
sg30
F-0.44594594594594594
sg31
F0.46621621621621623
sg32
S'red'
p779
sbasba(icurlovision
StoneLayout
p780
(dp781
g24
F0.4791666666666667
sg25
(lp782
(icurlovision
Stone
p783
(dp784
g29
F10.662162162162163
sg30
F-0.08108108108108109
sg31
F0.44594594594594594
sg32
S'red'
p785
sba(icurlovision
Stone
p786
(dp787
g29
F0.6486486486486487
sg30
F-0.40540540540540543
sg31
F0.32432432432432434
sg32
S'yellow'
p788
sba(icurlovision
Stone
p789
(dp790
g29
F15.445945945945947
sg30
F-0.24324324324324326
sg31
F0.40540540540540543
sg32
S'red'
p791
sba(icurlovision
Stone
p792
(dp793
g29
F-4.905405405405405
sg30
F-1.864864864864865
sg31
F0.32432432432432434
sg32
S'yellow'
p794
sba(icurlovision
Stone
p795
(dp796
g29
F-4.864864864864865
sg30
F0.20270270270270271
sg31
F0.3445945945945946
sg32
S'yellow'
p797
sba(icurlovision
Stone
p798
(dp799
g29
F-0.8513513513513514
sg30
F-0.5675675675675675
sg31
F0.44594594594594594
sg32
S'red'
p800
sba(icurlovision
Stone
p801
(dp802
g29
F-4.337837837837838
sg30
F-0.6081081081081081
sg31
F0.44594594594594594
sg32
S'red'
p803
sbasba(icurlovision
StoneLayout
p804
(dp805
g24
F0.4791666666666667
sg25
(lp806
(icurlovision
Stone
p807
(dp808
g29
F10.682432432432433
sg30
F-0.02027027027027027
sg31
F0.26351351351351354
sg32
S'red'
p809
sba(icurlovision
Stone
p810
(dp811
g29
F15.466216216216218
sg30
F-0.22297297297297297
sg31
F0.40540540540540543
sg32
S'red'
p812
sba(icurlovision
Stone
p813
(dp814
g29
F-4.885135135135135
sg30
F0.22297297297297297
sg31
F0.32432432432432434
sg32
S'yellow'
p815
sba(icurlovision
Stone
p816
(dp817
g29
F0.668918918918919
sg30
F-0.38513513513513514
sg31
F0.32432432432432434
sg32
S'yellow'
p818
sba(icurlovision
Stone
p819
(dp820
g29
F-0.8716216216216217
sg30
F-0.5472972972972974
sg31
F0.44594594594594594
sg32
S'red'
p821
sba(icurlovision
Stone
p822
(dp823
g29
F-4.885135135135135
sg30
F-1.8851351351351353
sg31
F0.3445945945945946
sg32
S'yellow'
p824
sba(icurlovision
Stone
p825
(dp826
g29
F-4.3175675675675675
sg30
F-0.6283783783783784
sg31
F0.30405405405405406
sg32
S'red'
p827
sba(icurlovision
Stone
p828
(dp829
g29
F-1.6013513513513515
sg30
F0.7905405405405406
sg31
F0.46621621621621623
sg32
S'red'
p830
sbasba(icurlovision
StoneLayout
p831
(dp832
g24
F0.4791666666666667
sg25
(lp833
(icurlovision
Stone
p834
(dp835
g29
F15.445945945945947
sg30
F-0.24324324324324326
sg31
F0.40540540540540543
sg32
S'red'
p836
sba(icurlovision
Stone
p837
(dp838
g29
F10.621621621621623
sg30
F-0.04054054054054054
sg31
F0.44594594594594594
sg32
S'red'
p839
sba(icurlovision
Stone
p840
(dp841
g29
F-0.44594594594594594
sg30
F-2.4324324324324325
sg31
F0.46621621621621623
sg32
S'yellow'
p842
sba(icurlovision
Stone
p843
(dp844
g29
F-0.8918918918918919
sg30
F-0.6081081081081081
sg31
F0.46621621621621623
sg32
S'red'
p845
sba(icurlovision
Stone
p846
(dp847
g29
F-4.905405405405405
sg30
F0.20270270270270271
sg31
F0.3445945945945946
sg32
S'yellow'
p848
sba(icurlovision
Stone
p849
(dp850
g29
F-0.7297297297297298
sg30
F0.40540540540540543
sg31
F0.3445945945945946
sg32
S'yellow'
p851
sba(icurlovision
Stone
p852
(dp853
g29
F-3.0
sg30
F1.337837837837838
sg31
F0.46621621621621623
sg32
S'red'
p854
sba(icurlovision
Stone
p855
(dp856
g29
F-4.905405405405405
sg30
F-1.9054054054054055
sg31
F0.32432432432432434
sg32
S'yellow'
p857
sba(icurlovision
Stone
p858
(dp859
g29
F-4.297297297297297
sg30
F-0.6486486486486487
sg31
F0.32432432432432434
sg32
S'red'
p860
sbasba(icurlovision
StoneLayout
p861
(dp862
g24
F0.4791666666666667
sg25
(lp863
(icurlovision
Stone
p864
(dp865
g29
F-3.083333333333333
sg30
F-0.16666666666666666
sg31
F0.35416666666666663
sg32
S'yellow'
p866
sba(icurlovision
Stone
p867
(dp868
g29
F-0.4583333333333333
sg30
F-2.5
sg31
F0.3333333333333333
sg32
S'yellow'
p869
sba(icurlovision
Stone
p870
(dp871
g29
F-3.0416666666666665
sg30
F1.4166666666666665
sg31
F0.47916666666666663
sg32
S'red'
p872
sba(icurlovision
Stone
p873
(dp874
g29
F-5.041666666666666
sg30
F-1.9166666666666665
sg31
F0.35416666666666663
sg32
S'yellow'
p875
sba(icurlovision
Stone
p876
(dp877
g29
F10.958333333333332
sg30
F-0.08333333333333333
sg31
F0.4375
sg32
S'red'
p878
sba(icurlovision
Stone
p879
(dp880
g29
F15.875
sg30
F-0.29166666666666663
sg31
F0.41666666666666663
sg32
S'red'
p881
sba(icurlovision
Stone
p882
(dp883
g29
F-0.875
sg30
F-0.625
sg31
F0.3333333333333333
sg32
S'red'
p884
sba(icurlovision
Stone
p885
(dp886
g29
F-5.041666666666666
sg30
F0.25
sg31
F0.3125
sg32
S'yellow'
p887
sba(icurlovision
Stone
p888
(dp889
g29
F-4.416666666666666
sg30
F-0.625
sg31
F0.4583333333333333
sg32
S'red'
p890
sba(icurlovision
Stone
p891
(dp892
g29
F0.25
sg30
F0.3333333333333333
sg31
F0.2708333333333333
sg32
S'red'
p893
sbasbasg175
I5
sg176
I0
sba(icurlovision
EndResult
p894
(dp895
g2
I4
sg9
(lp896
(I4
I5
tp897
a(I3
I4
tp898
a(I0
I2
tp899
a(I1
I1
tp900
a(I0
I1
tp901
asg19
I6
sg20
(lp902
(icurlovision
StoneLayout
p903
(dp904
g24
F0.4791666666666667
sg25
(lp905
(icurlovision
Stone
p906
(dp907
g29
F-3.0697674418604652
sg30
F1.8837209302325582
sg31
F0.36627906976744184
sg32
S'red'
p908
sba(icurlovision
Stone
p909
(dp910
g29
F11.476744186046512
sg30
F3.7325581395348837
sg31
F0.45348837209302323
sg32
S'red'
p911
sba(icurlovision
Stone
p912
(dp913
g29
F2.686046511627907
sg30
F3.9069767441860463
sg31
F0.2965116279069767
sg32
S'yellow'
p914
sbasba(icurlovision
StoneLayout
p915
(dp916
g24
F0.4791666666666667
sg25
(lp917
(icurlovision
Stone
p918
(dp919
g29
F1.3833333333333333
sg30
F-1.9166666666666667
sg31
F0.3333333333333333
sg32
S'yellow'
p920
sba(icurlovision
Stone
p921
(dp922
g29
F-3.0166666666666666
sg30
F1.8499999999999999
sg31
F0.4666666666666667
sg32
S'red'
p923
sba(icurlovision
Stone
p924
(dp925
g29
F-0.9833333333333333
sg30
F6.15
sg31
F0.31666666666666665
sg32
S'yellow'
p926
sba(icurlovision
Stone
p927
(dp928
g29
F2.75
sg30
F2.783333333333333
sg31
F0.35
sg32
S'red'
p929
sba(icurlovision
Stone
p930
(dp931
g29
F7.983333333333333
sg30
F6.983333333333333
sg31
F0.3
sg32
S'red'
p932
sbasba(icurlovision
StoneLayout
p933
(dp934
g24
F0.4791666666666667
sg25
(lp935
(icurlovision
Stone
p936
(dp937
g29
F-3.043269230769231
sg30
F1.8605769230769231
sg31
F0.34615384615384615
sg32
S'red'
p938
sba(icurlovision
Stone
p939
(dp940
g29
F-1.0240384615384617
sg30
F6.1875
sg31
F0.44711538461538464
sg32
S'yellow'
p941
sba(icurlovision
Stone
p942
(dp943
g29
F2.7259615384615388
sg30
F2.841346153846154
sg31
F0.31730769230769235
sg32
S'red'
p944
sba(icurlovision
Stone
p945
(dp946
g29
F0.5048076923076923
sg30
F4.052884615384616
sg31
F0.4182692307692308
sg32
S'yellow'
p947
sbasba(icurlovision
StoneLayout
p948
(dp949
g24
F0.4791666666666667
sg25
(lp950
(icurlovision
Stone
p951
(dp952
g29
F7.852941176470588
sg30
F6.911764705882353
sg31
F0.27941176470588236
sg32
S'red'
p953
sba(icurlovision
Stone
p954
(dp955
g29
F-0.9705882352941176
sg30
F6.029411764705882
sg31
F0.3235294117647059
sg32
S'yellow'
p956
sba(icurlovision
Stone
p957
(dp958
g29
F-4.0
sg30
F4.205882352941177
sg31
F0.3235294117647059
sg32
S'red'
p959
sba(icurlovision
Stone
p960
(dp961
g29
F0.5294117647058824
sg30
F3.941176470588235
sg31
F0.3382352941176471
sg32
S'yellow'
p962
sba(icurlovision
Stone
p963
(dp964
g29
F3.5294117647058822
sg30
F2.941176470588235
sg31
F0.3088235294117647
sg32
S'yellow'
p965
sbasba(icurlovision
StoneLayout
p966
(dp967
g24
F0.4791666666666667
sg25
(lp968
(icurlovision
Stone
p969
(dp970
g29
F-4.044117647058823
sg30
F4.25
sg31
F0.3382352941176471
sg32
S'red'
p971
sba(icurlovision
Stone
p972
(dp973
g29
F7.985294117647059
sg30
F6.955882352941177
sg31
F0.3088235294117647
sg32
S'red'
p974
sba(icurlovision
Stone
p975
(dp976
g29
F-0.9558823529411764
sg30
F6.073529411764706
sg31
F0.3235294117647059
sg32
S'yellow'
p977
sba(icurlovision
Stone
p978
(dp979
g29
F3.8676470588235294
sg30
F3.926470588235294
sg31
F0.3382352941176471
sg32
S'red'
p980
sbasbasg175
I5
sg176
I0
sba(icurlovision
EndResult
p981
(dp982
g2
I4
sg9
(lp983
(I5
I4
tp984
a(I4
I4
tp985
a(I4
I3
tp986
a(I3
I3
tp987
a(I3
I2
tp988
a(I2
I2
tp989
a(I2
I1
tp990
a(I1
I1
tp991
a(I1
I0
tp992
asg19
I7
sg20
(lp993
(icurlovision
StoneLayout
p994
(dp995
g24
F0.4791666666666667
sg25
(lp996
(icurlovision
Stone
p997
(dp998
g29
F2.15
sg30
F0.15
sg31
F0.31666666666666665
sg32
S'yellow'
p999
sba(icurlovision
Stone
p1000
(dp1001
g29
F-1.6166666666666667
sg30
F0.016666666666666666
sg31
F0.31666666666666665
sg32
S'red'
p1002
sbasba(icurlovision
StoneLayout
p1003
(dp1004
g24
F0.4791666666666667
sg25
(lp1005
(icurlovision
Stone
p1006
(dp1007
g29
F2.1104651162790695
sg30
F0.1569767441860465
sg31
F0.3313953488372093
sg32
S'yellow'
p1008
sba(icurlovision
Stone
p1009
(dp1010
g29
F-0.05232558139534883
sg30
F-0.2965116279069767
sg31
F0.3313953488372093
sg32
S'red'
p1011
sba(icurlovision
Stone
p1012
(dp1013
g29
F-1.622093023255814
sg30
F-0.01744186046511628
sg31
F0.3488372093023256
sg32
S'red'
p1014
sba(icurlovision
Stone
p1015
(dp1016
g29
F10.238372093023255
sg30
F-6.122093023255814
sg31
F0.313953488372093
sg32
S'yellow'
p1017
sbasba(icurlovision
StoneLayout
p1018
(dp1019
g24
F0.4791666666666667
sg25
(lp1020
(icurlovision
Stone
p1021
(dp1022
g29
F2.9651162790697674
sg30
F0.3488372093023256
sg31
F0.45348837209302323
sg32
S'yellow'
p1023
sba(icurlovision
Stone
p1024
(dp1025
g29
F1.255813953488372
sg30
F-0.03488372093023256
sg31
F0.3313953488372093
sg32
S'yellow'
p1026
sba(icurlovision
Stone
p1027
(dp1028
g29
F-0.06976744186046512
sg30
F-0.27906976744186046
sg31
F0.45348837209302323
sg32
S'red'
p1029
sba(icurlovision
Stone
p1030
(dp1031
g29
F-1.569767441860465
sg30
F0.0
sg31
F0.2965116279069767
sg32
S'red'
p1032
sbasba(icurlovision
StoneLayout
p1033
(dp1034
g24
F0.4791666666666667
sg25
(lp1035
(icurlovision
Stone
p1036
(dp1037
g29
F3.0872093023255816
sg30
F0.3313953488372093
sg31
F0.47093023255813954
sg32
S'yellow'
p1038
sba(icurlovision
Stone
p1039
(dp1040
g29
F-0.01744186046511628
sg30
F-0.2965116279069767
sg31
F0.47093023255813954
sg32
S'red'
p1041
sba(icurlovision
Stone
p1042
(dp1043
g29
F1.1686046511627908
sg30
F0.05232558139534883
sg31
F0.3313953488372093
sg32
S'yellow'
p1044
sba(icurlovision
Stone
p1045
(dp1046
g29
F-1.6569767441860466
sg30
F-0.01744186046511628
sg31
F0.36627906976744184
sg32
S'red'
p1047
sba(icurlovision
Stone
p1048
(dp1049
g29
F1.7965116279069768
sg30
F-0.8895348837209303
sg31
F0.27906976744186046
sg32
S'red'
p1050
sbasba(icurlovision
StoneLayout
p1051
(dp1052
g24
F0.4791666666666667
sg25
(lp1053
(icurlovision
Stone
p1054
(dp1055
g29
F2.670731707317073
sg30
F-0.1097560975609756
sg31
F0.45731707317073167
sg32
S'yellow'
p1056
sba(icurlovision
Stone
p1057
(dp1058
g29
F1.170731707317073
sg30
F0.07317073170731707
sg31
F0.3292682926829268
sg32
S'yellow'
p1059
sba(icurlovision
Stone
p1060
(dp1061
g29
F-0.0
sg30
F-0.2926829268292683
sg31
F0.31097560975609756
sg32
S'red'
p1062
sba(icurlovision
Stone
p1063
(dp1064
g29
F-1.646341463414634
sg30
F0.036585365853658534
sg31
F0.45731707317073167
sg32
S'red'
p1065
sba(icurlovision
Stone
p1066
(dp1067
g29
F1.792682926829268
sg30
F-0.8414634146341463
sg31
F0.25609756097560976
sg32
S'red'
p1068
sbasba(icurlovision
StoneLayout
p1069
(dp1070
g24
F0.4791666666666667
sg25
(lp1071
(icurlovision
Stone
p1072
(dp1073
g29
F-1.255813953488372
sg30
F6.906976744186046
sg31
F0.436046511627907
sg32
S'yellow'
p1074
sba(icurlovision
Stone
p1075
(dp1076
g29
F-0.06976744186046512
sg30
F-0.313953488372093
sg31
F0.2616279069767442
sg32
S'red'
p1077
sba(icurlovision
Stone
p1078
(dp1079
g29
F-1.6744186046511627
sg30
F-0.03488372093023256
sg31
F0.45348837209302323
sg32
S'red'
p1080
sbasba(icurlovision
StoneLayout
p1081
(dp1082
g24
F0.4791666666666667
sg25
(lp1083
(icurlovision
Stone
p1084
(dp1085
g29
F-0.05232558139534883
sg30
F-0.27906976744186046
sg31
F0.3488372093023256
sg32
S'red'
p1086
sba(icurlovision
Stone
p1087
(dp1088
g29
F-1.5872093023255813
sg30
F0.0
sg31
F0.313953488372093
sg32
S'red'
p1089
sbasba(icurlovision
StoneLayout
p1090
(dp1091
g24
F0.4791666666666667
sg25
(lp1092
(icurlovision
Stone
p1093
(dp1094
g29
F-0.17857142857142855
sg30
F1.9285714285714284
sg31
F0.42857142857142855
sg32
S'yellow'
p1095
sba(icurlovision
Stone
p1096
(dp1097
g29
F3.214285714285714
sg30
F0.5357142857142857
sg31
F0.4464285714285714
sg32
S'red'
p1098
sba(icurlovision
Stone
p1099
(dp1100
g29
F-0.07142857142857142
sg30
F-0.2857142857142857
sg31
F0.33928571428571425
sg32
S'red'
p1101
sba(icurlovision
Stone
p1102
(dp1103
g29
F-1.607142857142857
sg30
F0.03571428571428571
sg31
F0.2857142857142857
sg32
S'red'
p1104
sbasba(icurlovision
StoneLayout
p1105
(dp1106
g24
F0.4791666666666667
sg25
(lp1107
(icurlovision
Stone
p1108
(dp1109
g29
F3.375
sg30
F0.5535714285714285
sg31
F0.4821428571428571
sg32
S'red'
p1110
sba(icurlovision
Stone
p1111
(dp1112
g29
F0.5892857142857143
sg30
F1.6607142857142856
sg31
F0.3571428571428571
sg32
S'yellow'
p1113
sba(icurlovision
Stone
p1114
(dp1115
g29
F11.089285714285714
sg30
F-0.017857142857142856
sg31
F0.33928571428571425
sg32
S'yellow'
p1116
sba(icurlovision
Stone
p1117
(dp1118
g29
F-0.08928571428571427
sg30
F-0.30357142857142855
sg31
F0.26785714285714285
sg32
S'red'
p1119
sba(icurlovision
Stone
p1120
(dp1121
g29
F2.589285714285714
sg30
F-0.23214285714285712
sg31
F0.33928571428571425
sg32
S'yellow'
p1122
sba(icurlovision
Stone
p1123
(dp1124
g29
F-1.6607142857142856
sg30
F-0.05357142857142857
sg31
F0.3214285714285714
sg32
S'red'
p1125
sbasbasg175
I8
sg176
I1
sba(icurlovision
EndResult
p1126
(dp1127
g2
I4
sg9
(lp1128
(I4
I4
tp1129
a(I3
I4
tp1130
a(I3
I3
tp1131
a(I2
I3
tp1132
a(I2
I2
tp1133
a(I1
I2
tp1134
asg19
I8
sg20
(lp1135
(icurlovision
StoneLayout
p1136
(dp1137
g24
F0.4791666666666667
sg25
(lp1138
(icurlovision
Stone
p1139
(dp1140
g29
F0.8372093023255813
sg30
F0.0
sg31
F0.3313953488372093
sg32
S'yellow'
p1141
sba(icurlovision
Stone
p1142
(dp1143
g29
F10.604651162790697
sg30
F-0.10465116279069767
sg31
F0.436046511627907
sg32
S'red'
p1144
sba(icurlovision
Stone
p1145
(dp1146
g29
F-0.6976744186046512
sg30
F0.20930232558139533
sg31
F0.27906976744186046
sg32
S'red'
p1147
sbasba(icurlovision
StoneLayout
p1148
(dp1149
g24
F0.4791666666666667
sg25
(lp1150
(icurlovision
Stone
p1151
(dp1152
g29
F0.8571428571428571
sg30
F0.0
sg31
F0.33928571428571425
sg32
S'yellow'
p1153
sba(icurlovision
Stone
p1154
(dp1155
g29
F10.714285714285714
sg30
F-0.10714285714285714
sg31
F0.42857142857142855
sg32
S'red'
p1156
sba(icurlovision
Stone
p1157
(dp1158
g29
F-0.7142857142857142
sg30
F0.17857142857142855
sg31
F0.26785714285714285
sg32
S'red'
p1159
sba(icurlovision
Stone
p1160
(dp1161
g29
F2.571428571428571
sg30
F0.21428571428571427
sg31
F0.4464285714285714
sg32
S'red'
p1162
sba(icurlovision
Stone
p1163
(dp1164
g29
F-2.0
sg30
F-0.07142857142857142
sg31
F0.33928571428571425
sg32
S'yellow'
p1165
sbasba(icurlovision
StoneLayout
p1166
(dp1167
g24
F0.4791666666666667
sg25
(lp1168
(icurlovision
Stone
p1169
(dp1170
g29
F2.6730769230769234
sg30
F0.25
sg31
F0.4807692307692308
sg32
S'red'
p1171
sba(icurlovision
Stone
p1172
(dp1173
g29
F12.211538461538462
sg30
F-0.13461538461538464
sg31
F0.3076923076923077
sg32
S'yellow'
p1174
sba(icurlovision
Stone
p1175
(dp1176
g29
F-2.1730769230769234
sg30
F-0.057692307692307696
sg31
F0.4807692307692308
sg32
S'yellow'
p1177
sba(icurlovision
Stone
p1178
(dp1179
g29
F0.9038461538461539
sg30
F0.019230769230769232
sg31
F0.3269230769230769
sg32
S'yellow'
p1180
sba(icurlovision
Stone
p1181
(dp1182
g29
F-0.7115384615384616
sg30
F0.21153846153846156
sg31
F0.2884615384615385
sg32
S'red'
p1183
sba(icurlovision
Stone
p1184
(dp1185
g29
F8.980769230769232
sg30
F0.21153846153846156
sg31
F0.46153846153846156
sg32
S'red'
p1186
sbasba(icurlovision
StoneLayout
p1187
(dp1188
g24
F0.4791666666666667
sg25
(lp1189
(icurlovision
Stone
p1190
(dp1191
g29
F3.5961538461538463
sg30
F-0.09615384615384616
sg31
F0.4807692307692308
sg32
S'red'
p1192
sba(icurlovision
Stone
p1193
(dp1194
g29
F0.9038461538461539
sg30
F0.019230769230769232
sg31
F0.34615384615384615
sg32
S'yellow'
p1195
sba(icurlovision
Stone
p1196
(dp1197
g29
F12.134615384615385
sg30
F-0.13461538461538464
sg31
F0.46153846153846156
sg32
S'yellow'
p1198
sba(icurlovision
Stone
p1199
(dp1200
g29
F-0.7115384615384616
sg30
F0.21153846153846156
sg31
F0.4807692307692308
sg32
S'red'
p1201
sba(icurlovision
Stone
p1202
(dp1203
g29
F8.942307692307693
sg30
F0.17307692307692307
sg31
F0.4807692307692308
sg32
S'red'
p1204
sba(icurlovision
Stone
p1205
(dp1206
g29
F2.019230769230769
sg30
F0.44230769230769235
sg31
F0.3076923076923077
sg32
S'red'
p1207
sbasba(icurlovision
StoneLayout
p1208
(dp1209
g24
F0.4791666666666667
sg25
(lp1210
(icurlovision
Stone
p1211
(dp1212
g29
F0.8392857142857142
sg30
F-0.017857142857142856
sg31
F0.3214285714285714
sg32
S'yellow'
p1213
sba(icurlovision
Stone
p1214
(dp1215
g29
F11.446428571428571
sg30
F-0.1607142857142857
sg31
F0.42857142857142855
sg32
S'yellow'
p1216
sba(icurlovision
Stone
p1217
(dp1218
g29
F3.125
sg30
F0.19642857142857142
sg31
F0.4464285714285714
sg32
S'red'
p1219
sba(icurlovision
Stone
p1220
(dp1221
g29
F-0.7321428571428571
sg30
F0.19642857142857142
sg31
F0.2857142857142857
sg32
S'red'
p1222
sba(icurlovision
Stone
p1223
(dp1224
g29
F1.875
sg30
F0.375
sg31
F0.33928571428571425
sg32
S'red'
p1225
sba(icurlovision
Stone
p1226
(dp1227
g29
F8.410714285714285
sg30
F0.1607142857142857
sg31
F0.42857142857142855
sg32
S'red'
p1228
sbasba(icurlovision
StoneLayout
p1229
(dp1230
g24
F0.4791666666666667
sg25
(lp1231
(icurlovision
Stone
p1232
(dp1233
g29
F2.807692307692308
sg30
F0.38461538461538464
sg31
F0.46153846153846156
sg32
S'red'
p1234
sba(icurlovision
Stone
p1235
(dp1236
g29
F-2.1153846153846154
sg30
F-0.11538461538461539
sg31
F0.46153846153846156
sg32
S'yellow'
p1237
sba(icurlovision
Stone
p1238
(dp1239
g29
F0.8461538461538463
sg30
F-0.038461538461538464
sg31
F0.3269230769230769
sg32
S'yellow'
p1240
sba(icurlovision
Stone
p1241
(dp1242
g29
F8.615384615384617
sg30
F0.11538461538461539
sg31
F0.46153846153846156
sg32
S'red'
p1243
sba(icurlovision
Stone
p1244
(dp1245
g29
F11.653846153846155
sg30
F-0.19230769230769232
sg31
F0.44230769230769235
sg32
S'yellow'
p1246
sba(icurlovision
Stone
p1247
(dp1248
g29
F4.0
sg30
F-0.2692307692307693
sg31
F0.34615384615384615
sg32
S'red'
p1249
sba(icurlovision
Stone
p1250
(dp1251
g29
F1.7692307692307694
sg30
F0.34615384615384615
sg31
F0.2692307692307693
sg32
S'red'
p1252
sba(icurlovision
Stone
p1253
(dp1254
g29
F-0.7692307692307693
sg30
F0.15384615384615385
sg31
F0.3076923076923077
sg32
S'red'
p1255
sbasbasg175
I8
sg176
I0
sbasS'version'
p1256
I20180812
sg175
I8
sS'metadata'
p1257
(icurlovision
MatchMetadata
p1258
(dp1259
S'team_name_red'
p1260
S'Unknown'
p1261
sS'event_name'
p1262
g1261
sS'gender'
p1263
g1261
sS'other_info'
p1264
g1261
sS'team_name_yel'
p1265
g1261
sS'date'
p1266
g1261
sbsb.