(icurlovision
MatchResult
p0
(dp1
S'yel_score'
p2
I4
sS'name'
p3
S"VideoLibrary/PyeongChang.Olympics.2018.curling.men's.round-robin.Sweden.v.USA.1080p.NBC.WEB-DL-FINFUNGUS.mp4"
p4
sS'end_results'
p5
(lp6
(icurlovision
EndResult
p7
(dp8
g2
I0
sS'stones_left'
p9
(lp10
(I8
I7
tp11
a(I7
I7
tp12
a(I7
I6
tp13
a(I6
I6
tp14
a(I6
I5
tp15
a(I5
I4
tp16
a(I4
I4
tp17
a(I4
I3
tp18
a(I3
I3
tp19
a(I3
I2
tp20
a(I2
I2
tp21
a(I2
I1
tp22
a(I1
I1
tp23
a(I1
I0
tp24
asS'end_num'
p25
I1
sS'stone_layouts'
p26
(lp27
(icurlovision
StoneLayout
p28
(dp29
S'stone_radius'
p30
F0.4791666666666667
sS'stones'
p31
(lp32
(icurlovision
Stone
p33
(dp34
S'y'
p35
F13.144736842105262
sS'x'
p36
F0.3157894736842105
sS'r'
p37
F0.43421052631578944
sS'color'
p38
S'yellow'
p39
sba(icurlovision
Stone
p40
(dp41
g35
F7.302631578947368
sg36
F5.605263157894736
sg37
F0.513157894736842
sg38
S'red'
p42
sbasba(icurlovision
StoneLayout
p43
(dp44
g30
F0.4791666666666667
sg31
(lp45
(icurlovision
Stone
p46
(dp47
g35
F13.32236842105263
sg36
F0.29605263157894735
sg37
F0.41447368421052627
sg38
S'yellow'
p48
sba(icurlovision
Stone
p49
(dp50
g35
F-4.519736842105263
sg36
F-5.940789473684211
sg37
F0.375
sg38
S'red'
p51
sbasba(icurlovision
StoneLayout
p52
(dp53
g30
F0.4791666666666667
sg31
(lp54
(icurlovision
Stone
p55
(dp56
g35
F13.41891891891892
sg36
F0.32432432432432434
sg37
F0.44594594594594594
sg38
S'yellow'
p57
sba(icurlovision
Stone
p58
(dp59
g35
F2.0675675675675675
sg36
F0.04054054054054054
sg37
F0.3648648648648649
sg38
S'yellow'
p60
sba(icurlovision
Stone
p61
(dp62
g35
F-6.081081081081082
sg36
F4.824324324324325
sg37
F0.3648648648648649
sg38
S'red'
p63
sbasba(icurlovision
StoneLayout
p64
(dp65
g30
F0.4791666666666667
sg31
(lp66
(icurlovision
Stone
p67
(dp68
g35
F2.5460526315789473
sg36
F0.7697368421052632
sg37
F0.4539473684210526
sg38
S'red'
p69
sba(icurlovision
Stone
p70
(dp71
g35
F0.6118421052631579
sg36
F-0.05921052631578947
sg37
F0.23684210526315788
sg38
S'yellow'
p72
sba(icurlovision
Stone
p73
(dp74
g35
F13.282894736842104
sg36
F0.3355263157894737
sg37
F0.4539473684210526
sg38
S'yellow'
p75
sbasba(icurlovision
StoneLayout
p76
(dp77
g30
F0.4791666666666667
sg31
(lp78
(icurlovision
Stone
p79
(dp80
g35
F2.4527027027027026
sg36
F0.9527027027027027
sg37
F0.46621621621621623
sg38
S'red'
p81
sba(icurlovision
Stone
p82
(dp83
g35
F0.6283783783783784
sg36
F-0.060810810810810814
sg37
F0.3445945945945946
sg38
S'yellow'
p84
sba(icurlovision
Stone
p85
(dp86
g35
F2.2094594594594597
sg36
F-0.26351351351351354
sg37
F0.32432432432432434
sg38
S'yellow'
p87
sba(icurlovision
Stone
p88
(dp89
g35
F13.47972972972973
sg36
F0.26351351351351354
sg37
F0.44594594594594594
sg38
S'yellow'
p90
sbasba(icurlovision
StoneLayout
p91
(dp92
g30
F0.4791666666666667
sg31
(lp93
(icurlovision
Stone
p94
(dp95
g35
F3.0592105263157894
sg36
F-0.375
sg37
F0.47368421052631576
sg38
S'red'
p96
sba(icurlovision
Stone
p97
(dp98
g35
F3.138157894736842
sg36
F1.7171052631578947
sg37
F0.3355263157894737
sg38
S'yellow'
p99
sba(icurlovision
Stone
p100
(dp101
g35
F1.0855263157894737
sg36
F-0.9276315789473684
sg37
F0.3355263157894737
sg38
S'yellow'
p102
sba(icurlovision
Stone
p103
(dp104
g35
F13.55921052631579
sg36
F0.29605263157894735
sg37
F0.43421052631578944
sg38
S'yellow'
p105
sba(icurlovision
Stone
p106
(dp107
g35
F12.019736842105262
sg36
F-6.888157894736842
sg37
F0.35526315789473684
sg38
S'yellow'
p108
sba(icurlovision
Stone
p109
(dp110
g35
F-4.3618421052631575
sg36
F1.006578947368421
sg37
F0.47368421052631576
sg38
S'red'
p111
sbasba(icurlovision
StoneLayout
p112
(dp113
g30
F0.4791666666666667
sg31
(lp114
(icurlovision
Stone
p115
(dp116
g35
F1.0540540540540542
sg36
F-0.9324324324324325
sg37
F0.44594594594594594
sg38
S'yellow'
p117
sba(icurlovision
Stone
p118
(dp119
g35
F3.040540540540541
sg36
F-0.3648648648648649
sg37
F0.3445945945945946
sg38
S'red'
p120
sba(icurlovision
Stone
p121
(dp122
g35
F3.7702702702702706
sg36
F0.972972972972973
sg37
F0.32432432432432434
sg38
S'red'
p123
sba(icurlovision
Stone
p124
(dp125
g35
F13.378378378378379
sg36
F0.28378378378378377
sg37
F0.44594594594594594
sg38
S'yellow'
p126
sba(icurlovision
Stone
p127
(dp128
g35
F-4.337837837837838
sg36
F0.972972972972973
sg37
F0.46621621621621623
sg38
S'red'
p129
sba(icurlovision
Stone
p130
(dp131
g35
F-4.54054054054054
sg36
F-1.337837837837838
sg37
F0.3445945945945946
sg38
S'red'
p132
sbasba(icurlovision
StoneLayout
p133
(dp134
g30
F0.4791666666666667
sg31
(lp135
(icurlovision
Stone
p136
(dp137
g35
F13.00657894736842
sg36
F0.21710526315789472
sg37
F0.39473684210526316
sg38
S'yellow'
p138
sba(icurlovision
Stone
p139
(dp140
g35
F3.69078947368421
sg36
F0.888157894736842
sg37
F0.3355263157894737
sg38
S'red'
p141
sba(icurlovision
Stone
p142
(dp143
g35
F3.4539473684210527
sg36
F-1.282894736842105
sg37
F0.43421052631578944
sg38
S'yellow'
p144
sba(icurlovision
Stone
p145
(dp146
g35
F-4.203947368421052
sg36
F0.9671052631578947
sg37
F0.3157894736842105
sg38
S'red'
p147
sba(icurlovision
Stone
p148
(dp149
g35
F-0.09868421052631579
sg36
F-1.8355263157894737
sg37
F0.43421052631578944
sg38
S'yellow'
p150
sbasba(icurlovision
StoneLayout
p151
(dp152
g30
F0.4791666666666667
sg31
(lp153
(icurlovision
Stone
p154
(dp155
g35
F3.7674418604651163
sg36
F0.9418604651162791
sg37
F0.3313953488372093
sg38
S'red'
p156
sba(icurlovision
Stone
p157
(dp158
g35
F0.20930232558139533
sg36
F-0.9767441860465116
sg37
F0.3313953488372093
sg38
S'yellow'
p159
sba(icurlovision
Stone
p160
(dp161
g35
F3.8372093023255816
sg36
F0.0
sg37
F0.3488372093023256
sg38
S'red'
p162
sba(icurlovision
Stone
p163
(dp164
g35
F-4.290697674418604
sg36
F0.9069767441860465
sg37
F0.3488372093023256
sg38
S'red'
p165
sba(icurlovision
Stone
p166
(dp167
g35
F-5.825581395348837
sg36
F-0.8023255813953488
sg37
F0.27906976744186046
sg38
S'red'
p168
sbasba(icurlovision
StoneLayout
p169
(dp170
g30
F0.4791666666666667
sg31
(lp171
(icurlovision
Stone
p172
(dp173
g35
F-0.375
sg36
F-1.006578947368421
sg37
F0.3355263157894737
sg38
S'yellow'
p174
sba(icurlovision
Stone
p175
(dp176
g35
F3.7302631578947367
sg36
F0.9671052631578947
sg37
F0.35526315789473684
sg38
S'red'
p177
sba(icurlovision
Stone
p178
(dp179
g35
F0.9671052631578947
sg36
F-0.4539473684210526
sg37
F0.3157894736842105
sg38
S'yellow'
p180
sba(icurlovision
Stone
p181
(dp182
g35
F13.203947368421051
sg36
F0.29605263157894735
sg37
F0.41447368421052627
sg38
S'yellow'
p183
sba(icurlovision
Stone
p184
(dp185
g35
F-4.322368421052631
sg36
F0.9276315789473684
sg37
F0.35526315789473684
sg38
S'red'
p186
sba(icurlovision
Stone
p187
(dp188
g35
F3.8092105263157894
sg36
F0.019736842105263157
sg37
F0.35526315789473684
sg38
S'red'
p189
sbasba(icurlovision
StoneLayout
p190
(dp191
g30
F0.4791666666666667
sg31
(lp192
(icurlovision
Stone
p193
(dp194
g35
F3.890625
sg36
F0.015625
sg37
F0.34375
sg38
S'red'
p195
sba(icurlovision
Stone
p196
(dp197
g35
F-0.359375
sg36
F-1.046875
sg37
F0.453125
sg38
S'yellow'
p198
sba(icurlovision
Stone
p199
(dp200
g35
F3.796875
sg36
F1.015625
sg37
F0.359375
sg38
S'red'
p201
sba(icurlovision
Stone
p202
(dp203
g35
F-4.359375
sg36
F0.953125
sg37
F0.359375
sg38
S'red'
p204
sba(icurlovision
Stone
p205
(dp206
g35
F-5.734375
sg36
F-1.109375
sg37
F0.375
sg38
S'red'
p207
sbasba(icurlovision
StoneLayout
p208
(dp209
g30
F0.4791666666666667
sg31
(lp210
(icurlovision
Stone
p211
(dp212
g35
F3.513157894736842
sg36
F0.11842105263157894
sg37
F0.3157894736842105
sg38
S'red'
p213
sba(icurlovision
Stone
p214
(dp215
g35
F3.631578947368421
sg36
F1.0657894736842104
sg37
F0.23684210526315788
sg38
S'red'
p216
sba(icurlovision
Stone
p217
(dp218
g35
F4.263157894736842
sg36
F-0.7894736842105263
sg37
F0.3157894736842105
sg38
S'yellow'
p219
sba(icurlovision
Stone
p220
(dp221
g35
F13.026315789473683
sg36
F0.3157894736842105
sg37
F0.41447368421052627
sg38
S'yellow'
p222
sba(icurlovision
Stone
p223
(dp224
g35
F-4.263157894736842
sg36
F0.9473684210526315
sg37
F0.375
sg38
S'red'
p225
sba(icurlovision
Stone
p226
(dp227
g35
F-0.35526315789473684
sg36
F-0.9473684210526315
sg37
F0.3157894736842105
sg38
S'yellow'
p228
sbasba(icurlovision
StoneLayout
p229
(dp230
g30
F0.4791666666666667
sg31
(lp231
(icurlovision
Stone
p232
(dp233
g35
F3.2872340425531914
sg36
F0.19148936170212766
sg37
F0.4627659574468085
sg38
S'red'
p234
sba(icurlovision
Stone
p235
(dp236
g35
F4.978723404255319
sg36
F-0.6063829787234042
sg37
F0.4308510638297872
sg38
S'red'
p237
sba(icurlovision
Stone
p238
(dp239
g35
F3.702127659574468
sg36
F1.180851063829787
sg37
F0.33510638297872336
sg38
S'red'
p240
sbasba(icurlovision
StoneLayout
p241
(dp242
g30
F0.4791666666666667
sg31
(lp243
(icurlovision
Stone
p244
(dp245
g35
F3.4375
sg36
F0.2625
sg37
F0.35000000000000003
sg38
S'red'
p246
sba(icurlovision
Stone
p247
(dp248
g35
F3.8875
sg36
F1.2625000000000002
sg37
F0.47500000000000003
sg38
S'red'
p249
sba(icurlovision
Stone
p250
(dp251
g35
F5.2625
sg36
F-0.5875
sg37
F0.35000000000000003
sg38
S'red'
p252
sbasbasS'red_score'
p253
I4
sS'red_hammer'
p254
I1
sba(icurlovision
EndResult
p255
(dp256
g2
I0
sg9
(lp257
(I7
I7
tp258
a(I5
I6
tp259
a(I5
I5
tp260
a(I4
I4
tp261
a(I2
I2
tp262
a(I1
I2
tp263
a(I1
I1
tp264
a(I0
I1
tp265
asg25
I2
sg26
(lp266
(icurlovision
StoneLayout
p267
(dp268
g30
F0.4791666666666667
sg31
(lp269
(icurlovision
Stone
p270
(dp271
g35
F11.817567567567568
sg36
F-2.97972972972973
sg37
F0.4256756756756757
sg38
S'yellow'
p272
sba(icurlovision
Stone
p273
(dp274
g35
F1.3175675675675675
sg36
F-0.10135135135135136
sg37
F0.46621621621621623
sg38
S'red'
p275
sbasba(icurlovision
StoneLayout
p276
(dp277
g30
F0.4791666666666667
sg31
(lp278
(icurlovision
Stone
p279
(dp280
g35
F1.076923076923077
sg36
F-3.1153846153846154
sg37
F0.3269230769230769
sg38
S'yellow'
p281
sba(icurlovision
Stone
p282
(dp283
g35
F1.3461538461538463
sg36
F-0.11538461538461539
sg37
F0.34615384615384615
sg38
S'red'
p284
sba(icurlovision
Stone
p285
(dp286
g35
F4.1923076923076925
sg36
F-0.2692307692307693
sg37
F0.3269230769230769
sg38
S'red'
p287
sba(icurlovision
Stone
p288
(dp289
g35
F11.26923076923077
sg36
F-5.115384615384616
sg37
F0.34615384615384615
sg38
S'yellow'
p290
sbasba(icurlovision
StoneLayout
p291
(dp292
g30
F0.4791666666666667
sg31
(lp293
(icurlovision
Stone
p294
(dp295
g35
F10.8125
sg36
F-3.9791666666666665
sg37
F0.4583333333333333
sg38
S'yellow'
p296
sba(icurlovision
Stone
p297
(dp298
g35
F1.1041666666666665
sg36
F-3.2291666666666665
sg37
F0.35416666666666663
sg38
S'yellow'
p299
sba(icurlovision
Stone
p300
(dp301
g35
F1.3958333333333333
sg36
F-0.10416666666666666
sg37
F0.4583333333333333
sg38
S'red'
p302
sba(icurlovision
Stone
p303
(dp304
g35
F4.395833333333333
sg36
F-0.2708333333333333
sg37
F0.25
sg38
S'red'
p305
sbasba(icurlovision
StoneLayout
p306
(dp307
g30
F0.4791666666666667
sg31
(lp308
(icurlovision
Stone
p309
(dp310
g35
F10.709302325581396
sg36
F-3.8372093023255816
sg37
F0.2616279069767442
sg38
S'yellow'
p311
sba(icurlovision
Stone
p312
(dp313
g35
F1.3604651162790697
sg36
F-0.06976744186046512
sg37
F0.45348837209302323
sg38
S'red'
p314
sba(icurlovision
Stone
p315
(dp316
g35
F1.6395348837209303
sg36
F-3.13953488372093
sg37
F0.3488372093023256
sg38
S'red'
p317
sba(icurlovision
Stone
p318
(dp319
g35
F4.255813953488372
sg36
F-0.20930232558139533
sg37
F0.3488372093023256
sg38
S'red'
p320
sba(icurlovision
Stone
p321
(dp322
g35
F2.8255813953488373
sg36
F-2.5813953488372094
sg37
F0.3313953488372093
sg38
S'yellow'
p323
sbasba(icurlovision
StoneLayout
p324
(dp325
g30
F0.4791666666666667
sg31
(lp326
(icurlovision
Stone
p327
(dp328
g35
F10.5
sg36
F3.307692307692308
sg37
F0.46153846153846156
sg38
S'yellow'
p329
sba(icurlovision
Stone
p330
(dp331
g35
F-2.730769230769231
sg36
F6.1923076923076925
sg37
F0.4807692307692308
sg38
S'red'
p332
sba(icurlovision
Stone
p333
(dp334
g35
F1.4615384615384617
sg36
F-3.4230769230769234
sg37
F0.34615384615384615
sg38
S'red'
p335
sba(icurlovision
Stone
p336
(dp337
g35
F3.8461538461538463
sg36
F-3.0
sg37
F0.3269230769230769
sg38
S'yellow'
p338
sbasba(icurlovision
StoneLayout
p339
(dp340
g30
F0.4791666666666667
sg31
(lp341
(icurlovision
Stone
p342
(dp343
g35
F-2.7333333333333334
sg36
F5.933333333333334
sg37
F0.45
sg38
S'red'
p344
sba(icurlovision
Stone
p345
(dp346
g35
F10.033333333333333
sg36
F3.3666666666666667
sg37
F0.45
sg38
S'yellow'
p347
sbasba(icurlovision
StoneLayout
p348
(dp349
g30
F0.4791666666666667
sg31
(lp350
(icurlovision
Stone
p351
(dp352
g35
F-2.7065217391304346
sg36
F6.081521739130435
sg37
F0.47282608695652173
sg38
S'red'
p353
sba(icurlovision
Stone
p354
(dp355
g35
F10.271739130434783
sg36
F3.244565217391304
sg37
F0.44021739130434784
sg38
S'yellow'
p356
sba(icurlovision
Stone
p357
(dp358
g35
F2.25
sg36
F-3.4402173913043477
sg37
F0.32608695652173914
sg38
S'yellow'
p359
sbasba(icurlovision
StoneLayout
p360
(dp361
g30
F0.4791666666666667
sg31
(lp362
(icurlovision
Stone
p363
(dp364
g35
F-2.685
sg36
F6.029999999999999
sg37
F0.315
sg38
S'red'
p365
sba(icurlovision
Stone
p366
(dp367
g35
F-0.40499999999999997
sg36
F3.15
sg37
F0.46499999999999997
sg38
S'red'
p368
sbasbasg253
I5
sg254
I0
sba(icurlovision
EndResult
p369
(dp370
g2
I1
sg9
(lp371
(I7
I8
tp372
a(I7
I7
tp373
a(I6
I7
tp374
a(I6
I6
tp375
a(I5
I5
tp376
a(I4
I5
tp377
a(I4
I4
tp378
a(I3
I4
tp379
a(I2
I3
tp380
a(I2
I2
tp381
a(I1
I2
tp382
a(I1
I1
tp383
a(I0
I1
tp384
asg25
I3
sg26
(lp385
(icurlovision
StoneLayout
p386
(dp387
g30
F0.4791666666666667
sg31
(lp388
(icurlovision
Stone
p389
(dp390
g35
F-5.112244897959184
sg36
F-0.36734693877551017
sg37
F0.336734693877551
sg38
S'red'
p391
sbasba(icurlovision
StoneLayout
p392
(dp393
g30
F0.4791666666666667
sg31
(lp394
sba(icurlovision
StoneLayout
p395
(dp396
g30
F0.4791666666666667
sg31
(lp397
(icurlovision
Stone
p398
(dp399
g35
F1.3557692307692308
sg36
F0.8798076923076924
sg37
F0.4759615384615385
sg38
S'red'
p400
sba(icurlovision
Stone
p401
(dp402
g35
F7.846153846153847
sg36
F0.6201923076923077
sg37
F0.44711538461538464
sg38
S'yellow'
p403
sba(icurlovision
Stone
p404
(dp405
g35
F-5.163461538461538
sg36
F-0.3605769230769231
sg37
F0.3605769230769231
sg38
S'red'
p406
sbasba(icurlovision
StoneLayout
p407
(dp408
g30
F0.4791666666666667
sg31
(lp409
(icurlovision
Stone
p410
(dp411
g35
F-2.5294117647058822
sg36
F0.6764705882352942
sg37
F0.45588235294117646
sg38
S'yellow'
p412
sba(icurlovision
Stone
p413
(dp414
g35
F7.735294117647059
sg36
F0.5882352941176471
sg37
F0.47058823529411764
sg38
S'yellow'
p415
sba(icurlovision
Stone
p416
(dp417
g35
F1.3823529411764706
sg36
F0.8529411764705882
sg37
F0.29411764705882354
sg38
S'red'
p418
sba(icurlovision
Stone
p419
(dp420
g35
F-5.088235294117647
sg36
F-0.3235294117647059
sg37
F0.3382352941176471
sg38
S'red'
p421
sbasba(icurlovision
StoneLayout
p422
(dp423
g30
F0.4791666666666667
sg31
(lp424
(icurlovision
Stone
p425
(dp426
g35
F-2.5290697674418605
sg36
F0.6627906976744186
sg37
F0.47093023255813954
sg38
S'yellow'
p427
sba(icurlovision
Stone
p428
(dp429
g35
F9.156976744186046
sg36
F-2.8255813953488373
sg37
F0.27906976744186046
sg38
S'yellow'
p430
sba(icurlovision
Stone
p431
(dp432
g35
F1.3081395348837208
sg36
F0.8023255813953488
sg37
F0.45348837209302323
sg38
S'red'
p433
sba(icurlovision
Stone
p434
(dp435
g35
F-5.040697674418604
sg36
F-0.41860465116279066
sg37
F0.2965116279069767
sg38
S'red'
p436
sbasba(icurlovision
StoneLayout
p437
(dp438
g30
F0.4791666666666667
sg31
(lp439
(icurlovision
Stone
p440
(dp441
g35
F-2.458333333333333
sg36
F0.6527777777777778
sg37
F0.3194444444444444
sg38
S'yellow'
p442
sba(icurlovision
Stone
p443
(dp444
g35
F-1.7638888888888888
sg36
F-6.180555555555555
sg37
F0.3333333333333333
sg38
S'yellow'
p445
sba(icurlovision
Stone
p446
(dp447
g35
F1.2916666666666665
sg36
F0.7916666666666666
sg37
F0.4444444444444444
sg38
S'red'
p448
sba(icurlovision
Stone
p449
(dp450
g35
F6.152777777777778
sg36
F3.2916666666666665
sg37
F0.3333333333333333
sg38
S'red'
p451
sba(icurlovision
Stone
p452
(dp453
g35
F-4.958333333333333
sg36
F-0.375
sg37
F0.3194444444444444
sg38
S'red'
p454
sbasba(icurlovision
StoneLayout
p455
(dp456
g30
F0.4791666666666667
sg31
(lp457
(icurlovision
Stone
p458
(dp459
g35
F-2.511627906976744
sg36
F0.6627906976744186
sg37
F0.3313953488372093
sg38
S'yellow'
p460
sba(icurlovision
Stone
p461
(dp462
g35
F10.151162790697674
sg36
F-1.3953488372093024
sg37
F0.436046511627907
sg38
S'yellow'
p463
sba(icurlovision
Stone
p464
(dp465
g35
F1.2906976744186047
sg36
F0.8023255813953488
sg37
F0.2616279069767442
sg38
S'red'
p466
sba(icurlovision
Stone
p467
(dp468
g35
F-5.023255813953488
sg36
F-0.3488372093023256
sg37
F0.2616279069767442
sg38
S'red'
p469
sbasba(icurlovision
StoneLayout
p470
(dp471
g30
F0.4791666666666667
sg31
(lp472
(icurlovision
Stone
p473
(dp474
g35
F-2.5555555555555554
sg36
F0.7083333333333333
sg37
F0.4722222222222222
sg38
S'yellow'
p475
sba(icurlovision
Stone
p476
(dp477
g35
F1.361111111111111
sg36
F0.875
sg37
F0.4722222222222222
sg38
S'red'
p478
sba(icurlovision
Stone
p479
(dp480
g35
F-5.194444444444444
sg36
F-0.375
sg37
F0.3333333333333333
sg38
S'red'
p481
sbasba(icurlovision
StoneLayout
p482
(dp483
g30
F0.4791666666666667
sg31
(lp484
(icurlovision
Stone
p485
(dp486
g35
F-2.3509615384615388
sg36
F0.75
sg37
F0.44711538461538464
sg38
S'yellow'
p487
sba(icurlovision
Stone
p488
(dp489
g35
F4.225961538461538
sg36
F6.2019230769230775
sg37
F0.4326923076923077
sg38
S'red'
p490
sba(icurlovision
Stone
p491
(dp492
g35
F1.2548076923076923
sg36
F0.8942307692307693
sg37
F0.44711538461538464
sg38
S'red'
p493
sba(icurlovision
Stone
p494
(dp495
g35
F-0.27403846153846156
sg36
F-4.932692307692308
sg37
F0.3317307692307693
sg38
S'yellow'
p496
sba(icurlovision
Stone
p497
(dp498
g35
F-4.802884615384616
sg36
F-0.31730769230769235
sg37
F0.3317307692307693
sg38
S'red'
p499
sbasba(icurlovision
StoneLayout
p500
(dp501
g30
F0.4791666666666667
sg31
(lp502
(icurlovision
Stone
p503
(dp504
g35
F-2.5125
sg36
F0.6875
sg37
F0.4625
sg38
S'yellow'
p505
sba(icurlovision
Stone
p506
(dp507
g35
F1.3375000000000001
sg36
F0.8375
sg37
F0.45
sg38
S'red'
p508
sba(icurlovision
Stone
p509
(dp510
g35
F0.1875
sg36
F0.037500000000000006
sg37
F0.325
sg38
S'yellow'
p511
sbasba(icurlovision
StoneLayout
p512
(dp513
g30
F0.4791666666666667
sg31
(lp514
(icurlovision
Stone
p515
(dp516
g35
F1.342741935483871
sg36
F0.8467741935483871
sg37
F0.3508064516129032
sg38
S'red'
p517
sba(icurlovision
Stone
p518
(dp519
g35
F-5.116935483870968
sg36
F-0.3870967741935484
sg37
F0.3629032258064516
sg38
S'red'
p520
sbasba(icurlovision
StoneLayout
p521
(dp522
g30
F0.4791666666666667
sg31
(lp523
(icurlovision
Stone
p524
(dp525
g35
F1.2142857142857142
sg36
F1.0
sg37
F0.34523809523809523
sg38
S'red'
p526
sba(icurlovision
Stone
p527
(dp528
g35
F-0.19047619047619047
sg36
F-0.38095238095238093
sg37
F0.3333333333333333
sg38
S'yellow'
p529
sba(icurlovision
Stone
p530
(dp531
g35
F-4.976190476190476
sg36
F-0.3571428571428571
sg37
F0.47619047619047616
sg38
S'red'
p532
sbasba(icurlovision
StoneLayout
p533
(dp534
g30
F0.4791666666666667
sg31
(lp535
(icurlovision
Stone
p536
(dp537
g35
F1.2136363636363636
sg36
F1.0227272727272727
sg37
F0.35454545454545455
sg38
S'red'
p538
sba(icurlovision
Stone
p539
(dp540
g35
F-5.140909090909091
sg36
F-0.3409090909090909
sg37
F0.3409090909090909
sg38
S'red'
p541
sbasbasg253
I5
sg254
I0
sba(icurlovision
EndResult
p542
(dp543
g2
I1
sg9
(lp544
(I6
I6
tp545
a(I6
I5
tp546
a(I5
I5
tp547
a(I5
I4
tp548
a(I4
I4
tp549
a(I3
I3
tp550
a(I3
I2
tp551
a(I2
I2
tp552
a(I2
I1
tp553
a(I1
I1
tp554
a(I1
I0
tp555
asg25
I4
sg26
(lp556
(icurlovision
StoneLayout
p557
(dp558
g30
F0.4791666666666667
sg31
(lp559
(icurlovision
Stone
p560
(dp561
g35
F1.1320754716981132
sg36
F0.5235849056603774
sg37
F0.41037735849056606
sg38
S'red'
p562
sbasba(icurlovision
StoneLayout
p563
(dp564
g30
F0.4791666666666667
sg31
(lp565
(icurlovision
Stone
p566
(dp567
g35
F8.006756756756758
sg36
F-0.02027027027027027
sg37
F0.32432432432432434
sg38
S'yellow'
p568
sba(icurlovision
Stone
p569
(dp570
g35
F2.6554054054054057
sg36
F-0.30405405405405406
sg37
F0.44594594594594594
sg38
S'yellow'
p571
sba(icurlovision
Stone
p572
(dp573
g35
F-1.3581081081081081
sg36
F0.02027027027027027
sg37
F0.44594594594594594
sg38
S'red'
p574
sba(icurlovision
Stone
p575
(dp576
g35
F-4.236486486486487
sg36
F-0.7094594594594595
sg37
F0.28378378378378377
sg38
S'red'
p577
sbasba(icurlovision
StoneLayout
p578
(dp579
g30
F0.4791666666666667
sg31
(lp580
(icurlovision
Stone
p581
(dp582
g35
F2.71875
sg36
F-0.28125
sg37
F0.46875
sg38
S'yellow'
p583
sba(icurlovision
Stone
p584
(dp585
g35
F8.21875
sg36
F0.09375
sg37
F0.3125
sg38
S'yellow'
p586
sba(icurlovision
Stone
p587
(dp588
g35
F-4.28125
sg36
F-0.78125
sg37
F0.359375
sg38
S'red'
p589
sba(icurlovision
Stone
p590
(dp591
g35
F-6.21875
sg36
F4.3125
sg37
F0.359375
sg38
S'yellow'
p592
sbasba(icurlovision
StoneLayout
p593
(dp594
g30
F0.4791666666666667
sg31
(lp595
sba(icurlovision
StoneLayout
p596
(dp597
g30
F0.4791666666666667
sg31
(lp598
(icurlovision
Stone
p599
(dp600
g35
F-1.4107142857142856
sg36
F0.017857142857142856
sg37
F0.46428571428571425
sg38
S'red'
p601
sba(icurlovision
Stone
p602
(dp603
g35
F2.732142857142857
sg36
F-0.26785714285714285
sg37
F0.46428571428571425
sg38
S'yellow'
p604
sba(icurlovision
Stone
p605
(dp606
g35
F8.267857142857142
sg36
F0.017857142857142856
sg37
F0.30357142857142855
sg38
S'yellow'
p607
sba(icurlovision
Stone
p608
(dp609
g35
F6.982142857142857
sg36
F-6.482142857142857
sg37
F0.2857142857142857
sg38
S'red'
p610
sba(icurlovision
Stone
p611
(dp612
g35
F-0.19642857142857142
sg36
F5.553571428571428
sg37
F0.3214285714285714
sg38
S'yellow'
p613
sba(icurlovision
Stone
p614
(dp615
g35
F-4.303571428571428
sg36
F-0.7678571428571428
sg37
F0.3571428571428571
sg38
S'red'
p616
sbasba(icurlovision
StoneLayout
p617
(dp618
g30
F0.4791666666666667
sg31
(lp619
(icurlovision
Stone
p620
(dp621
g35
F7.84090909090909
sg36
F0.08522727272727272
sg37
F0.3409090909090909
sg38
S'yellow'
p622
sba(icurlovision
Stone
p623
(dp624
g35
F2.590909090909091
sg36
F-0.2556818181818182
sg37
F0.32386363636363635
sg38
S'yellow'
p625
sba(icurlovision
Stone
p626
(dp627
g35
F-1.3295454545454544
sg36
F-0.017045454545454544
sg37
F0.3409090909090909
sg38
S'red'
p628
sba(icurlovision
Stone
p629
(dp630
g35
F-4.125
sg36
F-0.6988636363636364
sg37
F0.2727272727272727
sg38
S'red'
p631
sbasba(icurlovision
StoneLayout
p632
(dp633
g30
F0.4791666666666667
sg31
(lp634
(icurlovision
Stone
p635
(dp636
g35
F8.058510638297872
sg36
F1.180851063829787
sg37
F0.44680851063829785
sg38
S'yellow'
p637
sba(icurlovision
Stone
p638
(dp639
g35
F2.6968085106382977
sg36
F-0.2553191489361702
sg37
F0.4627659574468085
sg38
S'yellow'
p640
sba(icurlovision
Stone
p641
(dp642
g35
F-1.356382978723404
sg36
F-0.031914893617021274
sg37
F0.351063829787234
sg38
S'red'
p643
sba(icurlovision
Stone
p644
(dp645
g35
F7.803191489361701
sg36
F-0.19148936170212766
sg37
F0.33510638297872336
sg38
S'yellow'
p646
sba(icurlovision
Stone
p647
(dp648
g35
F-4.26063829787234
sg36
F-0.7659574468085106
sg37
F0.3191489361702127
sg38
S'red'
p649
sbasba(icurlovision
StoneLayout
p650
(dp651
g30
F0.4791666666666667
sg31
(lp652
(icurlovision
Stone
p653
(dp654
g35
F2.505681818181818
sg36
F-0.22159090909090906
sg37
F0.4431818181818181
sg38
S'yellow'
p655
sba(icurlovision
Stone
p656
(dp657
g35
F-1.346590909090909
sg36
F-0.017045454545454544
sg37
F0.32386363636363635
sg38
S'red'
p658
sba(icurlovision
Stone
p659
(dp660
g35
F-4.142045454545454
sg36
F-0.8352272727272727
sg37
F0.3409090909090909
sg38
S'red'
p661
sba(icurlovision
Stone
p662
(dp663
g35
F10.244318181818182
sg36
F-5.607954545454545
sg37
F0.4261363636363636
sg38
S'red'
p664
sbasba(icurlovision
StoneLayout
p665
(dp666
g30
F0.4791666666666667
sg31
(lp667
(icurlovision
Stone
p668
(dp669
g35
F2.5738636363636362
sg36
F-0.22159090909090906
sg37
F0.4602272727272727
sg38
S'yellow'
p670
sba(icurlovision
Stone
p671
(dp672
g35
F0.08522727272727272
sg36
F0.11931818181818181
sg37
F0.4602272727272727
sg38
S'yellow'
p673
sba(icurlovision
Stone
p674
(dp675
g35
F10.380681818181817
sg36
F-5.642045454545454
sg37
F0.4602272727272727
sg38
S'red'
p676
sba(icurlovision
Stone
p677
(dp678
g35
F-4.176136363636363
sg36
F-0.8352272727272727
sg37
F0.3409090909090909
sg38
S'red'
p679
sbasba(icurlovision
StoneLayout
p680
(dp681
g30
F0.4791666666666667
sg31
(lp682
(icurlovision
Stone
p683
(dp684
g35
F2.1409090909090907
sg36
F2.631818181818182
sg37
F0.3409090909090909
sg38
S'red'
p685
sba(icurlovision
Stone
p686
(dp687
g35
F-3.8863636363636362
sg36
F0.20454545454545453
sg37
F0.35454545454545455
sg38
S'red'
p688
sbasba(icurlovision
StoneLayout
p689
(dp690
g30
F0.4791666666666667
sg31
(lp691
(icurlovision
Stone
p692
(dp693
g35
F2.0625
sg36
F2.6125000000000003
sg37
F0.45
sg38
S'red'
p694
sba(icurlovision
Stone
p695
(dp696
g35
F3.0125
sg36
F-0.1125
sg37
F0.325
sg38
S'yellow'
p697
sba(icurlovision
Stone
p698
(dp699
g35
F-3.8875
sg36
F0.1375
sg37
F0.35000000000000003
sg38
S'red'
p700
sbasbasg253
I7
sg254
I1
sba(icurlovision
EndResult
p701
(dp702
g2
I2
sg9
(lp703
(I7
I8
tp704
a(I6
I6
tp705
a(I5
I6
tp706
a(I5
I5
tp707
a(I4
I5
tp708
a(I4
I4
tp709
a(I3
I4
tp710
a(I3
I3
tp711
a(I2
I3
tp712
a(I2
I2
tp713
a(I1
I2
tp714
a(I1
I1
tp715
a(I0
I1
tp716
asg25
I5
sg26
(lp717
(icurlovision
StoneLayout
p718
(dp719
g30
F0.4791666666666667
sg31
(lp720
(icurlovision
Stone
p721
(dp722
g35
F1.3363636363636362
sg36
F0.6272727272727272
sg37
F0.35454545454545455
sg38
S'red'
p723
sbasba(icurlovision
StoneLayout
p724
(dp725
g30
F0.4791666666666667
sg31
(lp726
(icurlovision
Stone
p727
(dp728
g35
F3.256578947368421
sg36
F-1.875
sg37
F0.3355263157894737
sg38
S'yellow'
p729
sba(icurlovision
Stone
p730
(dp731
g35
F12.532894736842104
sg36
F-1.5592105263157894
sg37
F0.23684210526315788
sg38
S'yellow'
p732
sba(icurlovision
Stone
p733
(dp734
g35
F0.17763157894736842
sg36
F1.006578947368421
sg37
F0.23684210526315788
sg38
S'red'
p735
sbasba(icurlovision
StoneLayout
p736
(dp737
g30
F0.4791666666666667
sg31
(lp738
(icurlovision
Stone
p739
(dp740
g35
F3.1793478260869565
sg36
F-1.858695652173913
sg37
F0.30978260869565216
sg38
S'yellow'
p741
sba(icurlovision
Stone
p742
(dp743
g35
F4.646739130434782
sg36
F6.326086956521739
sg37
F0.2934782608695652
sg38
S'red'
p744
sba(icurlovision
Stone
p745
(dp746
g35
F0.1793478260869565
sg36
F0.9456521739130435
sg37
F0.44021739130434784
sg38
S'red'
p747
sba(icurlovision
Stone
p748
(dp749
g35
F-3.016304347826087
sg36
F-4.33695652173913
sg37
F0.30978260869565216
sg38
S'yellow'
p750
sbasba(icurlovision
StoneLayout
p751
(dp752
g30
F0.4791666666666667
sg31
(lp753
(icurlovision
Stone
p754
(dp755
g35
F3.3040540540540544
sg36
F-1.9256756756756759
sg37
F0.3445945945945946
sg38
S'yellow'
p756
sba(icurlovision
Stone
p757
(dp758
g35
F0.22297297297297297
sg36
F0.9932432432432433
sg37
F0.3445945945945946
sg38
S'red'
p759
sba(icurlovision
Stone
p760
(dp761
g35
F15.101351351351353
sg36
F-1.8851351351351353
sg37
F0.44594594594594594
sg38
S'yellow'
p762
sbasba(icurlovision
StoneLayout
p763
(dp764
g30
F0.4791666666666667
sg31
(lp765
(icurlovision
Stone
p766
(dp767
g35
F3.3243243243243246
sg36
F-1.9054054054054055
sg37
F0.3445945945945946
sg38
S'yellow'
p768
sba(icurlovision
Stone
p769
(dp770
g35
F12.405405405405405
sg36
F4.702702702702703
sg37
F0.40540540540540543
sg38
S'red'
p771
sba(icurlovision
Stone
p772
(dp773
g35
F0.24324324324324326
sg36
F1.0135135135135136
sg37
F0.32432432432432434
sg38
S'red'
p774
sbasba(icurlovision
StoneLayout
p775
(dp776
g30
F0.4791666666666667
sg31
(lp777
(icurlovision
Stone
p778
(dp779
g35
F3.3
sg36
F-1.8937499999999998
sg37
F0.33749999999999997
sg38
S'yellow'
p780
sba(icurlovision
Stone
p781
(dp782
g35
F0.22499999999999998
sg36
F1.03125
sg37
F0.35625
sg38
S'red'
p783
sba(icurlovision
Stone
p784
(dp785
g35
F12.4125
sg36
F4.7437499999999995
sg37
F0.43124999999999997
sg38
S'red'
p786
sba(icurlovision
Stone
p787
(dp788
g35
F-1.9874999999999998
sg36
F5.26875
sg37
F0.31875
sg38
S'yellow'
p789
sbasba(icurlovision
StoneLayout
p790
(dp791
g30
F0.4791666666666667
sg31
(lp792
(icurlovision
Stone
p793
(dp794
g35
F0.20089285714285712
sg36
F1.0044642857142856
sg37
F0.45535714285714285
sg38
S'red'
p795
sba(icurlovision
Stone
p796
(dp797
g35
F-1.96875
sg36
F5.236607142857142
sg37
F0.36160714285714285
sg38
S'yellow'
p798
sba(icurlovision
Stone
p799
(dp800
g35
F-1.5401785714285714
sg36
F6.040178571428571
sg37
F0.30803571428571425
sg38
S'red'
p801
sbasba(icurlovision
StoneLayout
p802
(dp803
g30
F0.4791666666666667
sg31
(lp804
(icurlovision
Stone
p805
(dp806
g35
F0.23780487804878048
sg36
F1.0060975609756098
sg37
F0.45731707317073167
sg38
S'red'
p807
sba(icurlovision
Stone
p808
(dp809
g35
F-1.1890243902439024
sg36
F4.664634146341463
sg37
F0.3475609756097561
sg38
S'yellow'
p810
sba(icurlovision
Stone
p811
(dp812
g35
F12.347560975609756
sg36
F4.664634146341463
sg37
F0.4390243902439024
sg38
S'red'
p813
sba(icurlovision
Stone
p814
(dp815
g35
F-2.2865853658536586
sg36
F5.396341463414633
sg37
F0.3292682926829268
sg38
S'yellow'
p816
sba(icurlovision
Stone
p817
(dp818
g35
F-1.4451219512195121
sg36
F6.054878048780488
sg37
F0.2926829268292683
sg38
S'red'
p819
sbasba(icurlovision
StoneLayout
p820
(dp821
g30
F0.4791666666666667
sg31
(lp822
(icurlovision
Stone
p823
(dp824
g35
F12.5
sg36
F4.769230769230769
sg37
F0.44230769230769235
sg38
S'red'
p825
sba(icurlovision
Stone
p826
(dp827
g35
F0.23076923076923078
sg36
F1.0384615384615385
sg37
F0.34615384615384615
sg38
S'red'
p828
sba(icurlovision
Stone
p829
(dp830
g35
F-1.4615384615384617
sg36
F6.0769230769230775
sg37
F0.34615384615384615
sg38
S'red'
p831
sbasba(icurlovision
StoneLayout
p832
(dp833
g30
F0.4791666666666667
sg31
(lp834
(icurlovision
Stone
p835
(dp836
g35
F2.495192307692308
sg36
F0.7932692307692308
sg37
F0.44711538461538464
sg38
S'yellow'
p837
sba(icurlovision
Stone
p838
(dp839
g35
F0.1875
sg36
F0.9663461538461539
sg37
F0.34615384615384615
sg38
S'red'
p840
sba(icurlovision
Stone
p841
(dp842
g35
F-1.514423076923077
sg36
F5.899038461538462
sg37
F0.46153846153846156
sg38
S'red'
p843
sbasba(icurlovision
StoneLayout
p844
(dp845
g30
F0.4791666666666667
sg31
(lp846
(icurlovision
Stone
p847
(dp848
g35
F0.15517241379310345
sg36
F1.021551724137931
sg37
F0.34913793103448276
sg38
S'red'
p849
sba(icurlovision
Stone
p850
(dp851
g35
F1.6551724137931034
sg36
F2.9870689655172415
sg37
F0.4525862068965517
sg38
S'red'
p852
sba(icurlovision
Stone
p853
(dp854
g35
F-0.25862068965517243
sg36
F-0.7112068965517241
sg37
F0.33620689655172414
sg38
S'yellow'
p855
sba(icurlovision
Stone
p856
(dp857
g35
F-1.6810344827586208
sg36
F5.961206896551724
sg37
F0.46551724137931033
sg38
S'red'
p858
sbasba(icurlovision
StoneLayout
p859
(dp860
g30
F0.4791666666666667
sg31
(lp861
(icurlovision
Stone
p862
(dp863
g35
F0.1875
sg36
F1.0125
sg37
F0.46875
sg38
S'red'
p864
sba(icurlovision
Stone
p865
(dp866
g35
F12.375
sg36
F4.7625
sg37
F0.43124999999999997
sg38
S'red'
p867
sba(icurlovision
Stone
p868
(dp869
g35
F-0.4875
sg36
F5.0249999999999995
sg37
F0.3
sg38
S'yellow'
p870
sbasba(icurlovision
StoneLayout
p871
(dp872
g30
F0.4791666666666667
sg31
(lp873
(icurlovision
Stone
p874
(dp875
g35
F-0.47560975609756095
sg36
F3.402439024390244
sg37
F0.3475609756097561
sg38
S'red'
p876
sba(icurlovision
Stone
p877
(dp878
g35
F12.329268292682926
sg36
F4.682926829268292
sg37
F0.42073170731707316
sg38
S'red'
p879
sba(icurlovision
Stone
p880
(dp881
g35
F0.2195121951219512
sg36
F0.9878048780487805
sg37
F0.45731707317073167
sg38
S'red'
p882
sbasbasg253
I7
sg254
I0
sba(icurlovision
EndResult
p883
(dp884
g2
I2
sg9
(lp885
(I7
I7
tp886
a(I7
I6
tp887
a(I6
I6
tp888
a(I6
I5
tp889
a(I5
I5
tp890
a(I5
I4
tp891
a(I4
I4
tp892
a(I4
I3
tp893
a(I3
I3
tp894
a(I3
I2
tp895
a(I2
I1
tp896
a(I1
I1
tp897
a(I1
I0
tp898
asg25
I6
sg26
(lp899
(icurlovision
StoneLayout
p900
(dp901
g30
F0.4791666666666667
sg31
(lp902
(icurlovision
Stone
p903
(dp904
g35
F-1.9166666666666667
sg36
F-2.7333333333333334
sg37
F0.45
sg38
S'red'
p905
sba(icurlovision
Stone
p906
(dp907
g35
F9.983333333333333
sg36
F1.6666666666666667
sg37
F0.43333333333333335
sg38
S'yellow'
p908
sbasba(icurlovision
StoneLayout
p909
(dp910
g30
F0.4791666666666667
sg31
(lp911
(icurlovision
Stone
p912
(dp913
g35
F6.340909090909091
sg36
F-2.5568181818181817
sg37
F0.4602272727272727
sg38
S'yellow'
p914
sba(icurlovision
Stone
p915
(dp916
g35
F10.261363636363635
sg36
F1.7727272727272725
sg37
F0.3409090909090909
sg38
S'yellow'
p917
sba(icurlovision
Stone
p918
(dp919
g35
F-2.0454545454545454
sg36
F-2.8636363636363633
sg37
F0.4602272727272727
sg38
S'red'
p920
sbasba(icurlovision
StoneLayout
p921
(dp922
g30
F0.4791666666666667
sg31
(lp923
(icurlovision
Stone
p924
(dp925
g35
F1.0833333333333333
sg36
F1.6166666666666667
sg37
F0.31666666666666665
sg38
S'red'
p926
sba(icurlovision
Stone
p927
(dp928
g35
F6.15
sg36
F-2.4833333333333334
sg37
F0.35
sg38
S'yellow'
p929
sba(icurlovision
Stone
p930
(dp931
g35
F9.916666666666666
sg36
F1.75
sg37
F0.43333333333333335
sg38
S'yellow'
p932
sba(icurlovision
Stone
p933
(dp934
g35
F-2.05
sg36
F-2.783333333333333
sg37
F0.43333333333333335
sg38
S'red'
p935
sbasba(icurlovision
StoneLayout
p936
(dp937
g30
F0.4791666666666667
sg31
(lp938
(icurlovision
Stone
p939
(dp940
g35
F6.428571428571428
sg36
F-2.5535714285714284
sg37
F0.46428571428571425
sg38
S'yellow'
p941
sba(icurlovision
Stone
p942
(dp943
g35
F-2.107142857142857
sg36
F-1.9107142857142856
sg37
F0.3214285714285714
sg38
S'yellow'
p944
sba(icurlovision
Stone
p945
(dp946
g35
F10.285714285714285
sg36
F1.875
sg37
F0.4464285714285714
sg38
S'yellow'
p947
sba(icurlovision
Stone
p948
(dp949
g35
F1.0714285714285714
sg36
F1.5892857142857142
sg37
F0.26785714285714285
sg38
S'red'
p950
sba(icurlovision
Stone
p951
(dp952
g35
F-2.357142857142857
sg36
F-3.1607142857142856
sg37
F0.46428571428571425
sg38
S'red'
p953
sba(icurlovision
Stone
p954
(dp955
g35
F9.678571428571429
sg36
F-5.625
sg37
F0.3214285714285714
sg38
S'yellow'
p956
sbasba(icurlovision
StoneLayout
p957
(dp958
g30
F0.4791666666666667
sg31
(lp959
(icurlovision
Stone
p960
(dp961
g35
F-2.066326530612245
sg36
F-1.7908163265306123
sg37
F0.3214285714285714
sg38
S'yellow'
p962
sba(icurlovision
Stone
p963
(dp964
g35
F1.1173469387755102
sg36
F1.5765306122448979
sg37
F0.336734693877551
sg38
S'red'
p965
sba(icurlovision
Stone
p966
(dp967
g35
F-2.3418367346938775
sg36
F-3.0459183673469385
sg37
F0.336734693877551
sg38
S'red'
p968
sba(icurlovision
Stone
p969
(dp970
g35
F-3.9948979591836733
sg36
F-5.5561224489795915
sg37
F0.45918367346938777
sg38
S'yellow'
p971
sba(icurlovision
Stone
p972
(dp973
g35
F-6.321428571428571
sg36
F6.137755102040816
sg37
F0.29081632653061223
sg38
S'yellow'
p974
sbasba(icurlovision
StoneLayout
p975
(dp976
g30
F0.4791666666666667
sg31
(lp977
(icurlovision
Stone
p978
(dp979
g35
F-2.1
sg36
F-1.7999999999999998
sg37
F0.46875
sg38
S'yellow'
p980
sba(icurlovision
Stone
p981
(dp982
g35
F-2.3625
sg36
F-3.0749999999999997
sg37
F0.33749999999999997
sg38
S'red'
p983
sba(icurlovision
Stone
p984
(dp985
g35
F1.125
sg36
F1.6125
sg37
F0.44999999999999996
sg38
S'red'
p986
sba(icurlovision
Stone
p987
(dp988
g35
F10.424999999999999
sg36
F-2.25
sg37
F0.44999999999999996
sg38
S'yellow'
p989
sbasba(icurlovision
StoneLayout
p990
(dp991
g30
F0.4791666666666667
sg31
(lp992
(icurlovision
Stone
p993
(dp994
g35
F1.107142857142857
sg36
F1.607142857142857
sg37
F0.46428571428571425
sg38
S'red'
p995
sba(icurlovision
Stone
p996
(dp997
g35
F-2.142857142857143
sg36
F-1.8928571428571428
sg37
F0.33928571428571425
sg38
S'yellow'
p998
sba(icurlovision
Stone
p999
(dp1000
g35
F-2.4285714285714284
sg36
F-3.142857142857143
sg37
F0.46428571428571425
sg38
S'red'
p1001
sbasba(icurlovision
StoneLayout
p1002
(dp1003
g30
F0.4791666666666667
sg31
(lp1004
(icurlovision
Stone
p1005
(dp1006
g35
F1.0833333333333333
sg36
F1.611111111111111
sg37
F0.3472222222222222
sg38
S'red'
p1007
sba(icurlovision
Stone
p1008
(dp1009
g35
F-2.0555555555555554
sg36
F-1.861111111111111
sg37
F0.3194444444444444
sg38
S'yellow'
p1010
sba(icurlovision
Stone
p1011
(dp1012
g35
F-2.333333333333333
sg36
F-3.1666666666666665
sg37
F0.3472222222222222
sg38
S'red'
p1013
sbasba(icurlovision
StoneLayout
p1014
(dp1015
g30
F0.4791666666666667
sg31
(lp1016
(icurlovision
Stone
p1017
(dp1018
g35
F1.0694444444444444
sg36
F1.611111111111111
sg37
F0.3472222222222222
sg38
S'red'
p1019
sba(icurlovision
Stone
p1020
(dp1021
g35
F-2.208333333333333
sg36
F-3.083333333333333
sg37
F0.4444444444444444
sg38
S'red'
p1022
sba(icurlovision
Stone
p1023
(dp1024
g35
F-6.736111111111111
sg36
F-3.194444444444444
sg37
F0.3333333333333333
sg38
S'red'
p1025
sbasba(icurlovision
StoneLayout
p1026
(dp1027
g30
F0.4791666666666667
sg31
(lp1028
sba(icurlovision
StoneLayout
p1029
(dp1030
g30
F0.4791666666666667
sg31
(lp1031
(icurlovision
Stone
p1032
(dp1033
g35
F3.485294117647059
sg36
F0.6323529411764706
sg37
F0.3235294117647059
sg38
S'yellow'
p1034
sba(icurlovision
Stone
p1035
(dp1036
g35
F1.0441176470588236
sg36
F1.6029411764705883
sg37
F0.3382352941176471
sg38
S'red'
p1037
sba(icurlovision
Stone
p1038
(dp1039
g35
F-2.338235294117647
sg36
F-3.0735294117647056
sg37
F0.3235294117647059
sg38
S'red'
p1040
sbasba(icurlovision
StoneLayout
p1041
(dp1042
g30
F0.4791666666666667
sg31
(lp1043
(icurlovision
Stone
p1044
(dp1045
g35
F1.0833333333333333
sg36
F1.607142857142857
sg37
F0.3333333333333333
sg38
S'red'
p1046
sbasba(icurlovision
StoneLayout
p1047
(dp1048
g30
F0.4791666666666667
sg31
(lp1049
(icurlovision
Stone
p1050
(dp1051
g35
F1.0875000000000001
sg36
F1.6125
sg37
F0.47500000000000003
sg38
S'red'
p1052
sba(icurlovision
Stone
p1053
(dp1054
g35
F-2.3625000000000003
sg36
F-3.2125000000000004
sg37
F0.35000000000000003
sg38
S'red'
p1055
sbasbasg253
I8
sg254
I1
sba(icurlovision
EndResult
p1056
(dp1057
g2
I4
sg9
(lp1058
(I7
I8
tp1059
a(I7
I7
tp1060
a(I6
I7
tp1061
a(I6
I6
tp1062
a(I5
I6
tp1063
a(I5
I5
tp1064
a(I4
I4
tp1065
a(I3
I4
tp1066
a(I3
I3
tp1067
a(I2
I3
tp1068
a(I2
I2
tp1069
a(I1
I2
tp1070
a(I1
I1
tp1071
a(I0
I1
tp1072
asg25
I7
sg26
(lp1073
(icurlovision
StoneLayout
p1074
(dp1075
g30
F0.4791666666666667
sg31
(lp1076
(icurlovision
Stone
p1077
(dp1078
g35
F0.72
sg36
F-0.3
sg37
F0.32999999999999996
sg38
S'red'
p1079
sbasba(icurlovision
StoneLayout
p1080
(dp1081
g30
F0.4791666666666667
sg31
(lp1082
(icurlovision
Stone
p1083
(dp1084
g35
F10.142857142857142
sg36
F3.1785714285714284
sg37
F0.4464285714285714
sg38
S'yellow'
p1085
sba(icurlovision
Stone
p1086
(dp1087
g35
F0.5714285714285714
sg36
F-0.2857142857142857
sg37
F0.4821428571428571
sg38
S'red'
p1088
sbasba(icurlovision
StoneLayout
p1089
(dp1090
g30
F0.4791666666666667
sg31
(lp1091
(icurlovision
Stone
p1092
(dp1093
g35
F9.96195652173913
sg36
F3.1141304347826084
sg37
F0.44021739130434784
sg38
S'yellow'
p1094
sba(icurlovision
Stone
p1095
(dp1096
g35
F-1.1576086956521738
sg36
F-0.1793478260869565
sg37
F0.30978260869565216
sg38
S'red'
p1097
sba(icurlovision
Stone
p1098
(dp1099
g35
F1.483695652173913
sg36
F-0.1793478260869565
sg37
F0.32608695652173914
sg38
S'red'
p1100
sbasba(icurlovision
StoneLayout
p1101
(dp1102
g30
F0.4791666666666667
sg31
(lp1103
(icurlovision
Stone
p1104
(dp1105
g35
F-1.1739130434782608
sg36
F-0.19565217391304346
sg37
F0.45652173913043476
sg38
S'red'
p1106
sba(icurlovision
Stone
p1107
(dp1108
g35
F1.5652173913043477
sg36
F-0.2608695652173913
sg37
F0.27717391304347827
sg38
S'red'
p1109
sba(icurlovision
Stone
p1110
(dp1111
g35
F10.17391304347826
sg36
F3.1630434782608696
sg37
F0.44021739130434784
sg38
S'yellow'
p1112
sba(icurlovision
Stone
p1113
(dp1114
g35
F-3.5217391304347827
sg36
F3.391304347826087
sg37
F0.32608695652173914
sg38
S'yellow'
p1115
sbasba(icurlovision
StoneLayout
p1116
(dp1117
g30
F0.4791666666666667
sg31
(lp1118
(icurlovision
Stone
p1119
(dp1120
g35
F-1.161764705882353
sg36
F-0.1323529411764706
sg37
F0.3529411764705882
sg38
S'red'
p1121
sba(icurlovision
Stone
p1122
(dp1123
g35
F1.4852941176470589
sg36
F-0.22058823529411764
sg37
F0.4411764705882353
sg38
S'red'
p1124
sba(icurlovision
Stone
p1125
(dp1126
g35
F-3.426470588235294
sg36
F3.3088235294117645
sg37
F0.3382352941176471
sg38
S'yellow'
p1127
sbasba(icurlovision
StoneLayout
p1128
(dp1129
g30
F0.4791666666666667
sg31
(lp1130
(icurlovision
Stone
p1131
(dp1132
g35
F1.5
sg36
F-0.22159090909090906
sg37
F0.30681818181818177
sg38
S'red'
p1133
sba(icurlovision
Stone
p1134
(dp1135
g35
F-1.1931818181818181
sg36
F-0.15340909090909088
sg37
F0.3409090909090909
sg38
S'red'
p1136
sba(icurlovision
Stone
p1137
(dp1138
g35
F-3.5113636363636362
sg36
F3.3238636363636362
sg37
F0.30681818181818177
sg38
S'yellow'
p1139
sba(icurlovision
Stone
p1140
(dp1141
g35
F8.147727272727272
sg36
F2.7443181818181817
sg37
F0.40909090909090906
sg38
S'yellow'
p1142
sbasba(icurlovision
StoneLayout
p1143
(dp1144
g30
F0.4791666666666667
sg31
(lp1145
(icurlovision
Stone
p1146
(dp1147
g35
F-1.2142857142857142
sg36
F-0.21428571428571427
sg37
F0.46428571428571425
sg38
S'red'
p1148
sba(icurlovision
Stone
p1149
(dp1150
g35
F1.5357142857142856
sg36
F-0.21428571428571427
sg37
F0.3571428571428571
sg38
S'red'
p1151
sba(icurlovision
Stone
p1152
(dp1153
g35
F-3.5357142857142856
sg36
F3.392857142857143
sg37
F0.3571428571428571
sg38
S'yellow'
p1154
sba(icurlovision
Stone
p1155
(dp1156
g35
F11.571428571428571
sg36
F2.642857142857143
sg37
F0.26785714285714285
sg38
S'yellow'
p1157
sbasba(icurlovision
StoneLayout
p1158
(dp1159
g30
F0.4791666666666667
sg31
(lp1160
(icurlovision
Stone
p1161
(dp1162
g35
F-1.2083333333333333
sg36
F-0.18055555555555555
sg37
F0.3472222222222222
sg38
S'red'
p1163
sba(icurlovision
Stone
p1164
(dp1165
g35
F1.486111111111111
sg36
F-0.2361111111111111
sg37
F0.3055555555555555
sg38
S'red'
p1166
sba(icurlovision
Stone
p1167
(dp1168
g35
F9.263888888888888
sg36
F-2.513888888888889
sg37
F0.3333333333333333
sg38
S'red'
p1169
sba(icurlovision
Stone
p1170
(dp1171
g35
F-0.2361111111111111
sg36
F6.208333333333333
sg37
F0.3472222222222222
sg38
S'yellow'
p1172
sba(icurlovision
Stone
p1173
(dp1174
g35
F-3.513888888888889
sg36
F3.347222222222222
sg37
F0.3472222222222222
sg38
S'yellow'
p1175
sbasba(icurlovision
StoneLayout
p1176
(dp1177
g30
F0.4791666666666667
sg31
(lp1178
(icurlovision
Stone
p1179
(dp1180
g35
F-3.339622641509434
sg36
F-0.22641509433962265
sg37
F0.3537735849056604
sg38
S'red'
p1181
sba(icurlovision
Stone
p1182
(dp1183
g35
F2.4622641509433962
sg36
F-0.14150943396226415
sg37
F0.4669811320754717
sg38
S'yellow'
p1184
sba(icurlovision
Stone
p1185
(dp1186
g35
F-3.5377358490566038
sg36
F3.3962264150943398
sg37
F0.339622641509434
sg38
S'yellow'
p1187
sba(icurlovision
Stone
p1188
(dp1189
g35
F-0.2830188679245283
sg36
F-0.3113207547169811
sg37
F0.2971698113207547
sg38
S'red'
p1190
sbasba(icurlovision
StoneLayout
p1191
(dp1192
g30
F0.4791666666666667
sg31
(lp1193
(icurlovision
Stone
p1194
(dp1195
g35
F-3.2704918032786883
sg36
F-0.19672131147540983
sg37
F0.3319672131147541
sg38
S'red'
p1196
sba(icurlovision
Stone
p1197
(dp1198
g35
F-0.29508196721311475
sg36
F-0.2704918032786885
sg37
F0.3442622950819672
sg38
S'red'
p1199
sba(icurlovision
Stone
p1200
(dp1201
g35
F-3.4672131147540983
sg36
F3.3688524590163933
sg37
F0.3442622950819672
sg38
S'yellow'
p1202
sbasba(icurlovision
StoneLayout
p1203
(dp1204
g30
F0.4791666666666667
sg31
(lp1205
(icurlovision
Stone
p1206
(dp1207
g35
F-3.3
sg36
F-0.1909090909090909
sg37
F0.44999999999999996
sg38
S'red'
p1208
sba(icurlovision
Stone
p1209
(dp1210
g35
F0.2727272727272727
sg36
F0.43636363636363634
sg37
F0.32727272727272727
sg38
S'yellow'
p1211
sba(icurlovision
Stone
p1212
(dp1213
g35
F-3.4909090909090907
sg36
F3.381818181818182
sg37
F0.3409090909090909
sg38
S'yellow'
p1214
sba(icurlovision
Stone
p1215
(dp1216
g35
F-0.3
sg36
F-0.3
sg37
F0.44999999999999996
sg38
S'red'
p1217
sbasba(icurlovision
StoneLayout
p1218
(dp1219
g30
F0.4791666666666667
sg31
(lp1220
(icurlovision
Stone
p1221
(dp1222
g35
F-3.375
sg36
F-0.195
sg37
F0.48
sg38
S'red'
p1223
sba(icurlovision
Stone
p1224
(dp1225
g35
F-5.265
sg36
F1.815
sg37
F0.32999999999999996
sg38
S'yellow'
p1226
sbasba(icurlovision
StoneLayout
p1227
(dp1228
g30
F0.4791666666666667
sg31
(lp1229
(icurlovision
Stone
p1230
(dp1231
g35
F-3.7379032258064515
sg36
F-0.4475806451612903
sg37
F0.3629032258064516
sg38
S'red'
p1232
sba(icurlovision
Stone
p1233
(dp1234
g35
F-5.310483870967742
sg36
F1.8024193548387095
sg37
F0.3387096774193548
sg38
S'yellow'
p1235
sba(icurlovision
Stone
p1236
(dp1237
g35
F-3.3024193548387095
sg36
F0.907258064516129
sg37
F0.3387096774193548
sg38
S'yellow'
p1238
sbasba(icurlovision
StoneLayout
p1239
(dp1240
g30
F0.4791666666666667
sg31
(lp1241
(icurlovision
Stone
p1242
(dp1243
g35
F-4.192622950819672
sg36
F4.561475409836065
sg37
F0.4426229508196721
sg38
S'red'
p1244
sba(icurlovision
Stone
p1245
(dp1246
g35
F-3.651639344262295
sg36
F-0.4057377049180328
sg37
F0.319672131147541
sg38
S'red'
p1247
sba(icurlovision
Stone
p1248
(dp1249
g35
F-5.151639344262295
sg36
F1.7581967213114753
sg37
F0.3319672131147541
sg38
S'yellow'
p1250
sbasbasg253
I8
sg254
I0
sba(icurlovision
EndResult
p1251
(dp1252
g2
I4
sg9
(lp1253
(I7
I7
tp1254
a(I6
I5
tp1255
a(I5
I5
tp1256
a(I4
I4
tp1257
a(I4
I3
tp1258
a(I3
I3
tp1259
a(I3
I2
tp1260
a(I2
I2
tp1261
a(I2
I1
tp1262
a(I1
I1
tp1263
a(I1
I0
tp1264
asg25
I8
sg26
(lp1265
(icurlovision
StoneLayout
p1266
(dp1267
g30
F0.4791666666666667
sg31
(lp1268
(icurlovision
Stone
p1269
(dp1270
g35
F10.214285714285714
sg36
F-2.357142857142857
sg37
F0.42857142857142855
sg38
S'yellow'
p1271
sba(icurlovision
Stone
p1272
(dp1273
g35
F-5.857142857142857
sg36
F-2.571428571428571
sg37
F0.2857142857142857
sg38
S'red'
p1274
sbasba(icurlovision
StoneLayout
p1275
(dp1276
g30
F0.4791666666666667
sg31
(lp1277
(icurlovision
Stone
p1278
(dp1279
g35
F7.9875
sg36
F2.2125
sg37
F0.31875
sg38
S'yellow'
p1280
sba(icurlovision
Stone
p1281
(dp1282
g35
F-0.2625
sg36
F-3.7125
sg37
F0.33749999999999997
sg38
S'yellow'
p1283
sba(icurlovision
Stone
p1284
(dp1285
g35
F10.275
sg36
F-2.2875
sg37
F0.43124999999999997
sg38
S'yellow'
p1286
sba(icurlovision
Stone
p1287
(dp1288
g35
F-1.3125
sg36
F-3.1125
sg37
F0.44999999999999996
sg38
S'red'
p1289
sbasba(icurlovision
StoneLayout
p1290
(dp1291
g30
F0.4791666666666667
sg31
(lp1292
(icurlovision
Stone
p1293
(dp1294
g35
F-1.3035714285714286
sg36
F-3.089285714285714
sg37
F0.3214285714285714
sg38
S'red'
p1295
sba(icurlovision
Stone
p1296
(dp1297
g35
F1.5178571428571428
sg36
F5.517857142857142
sg37
F0.33928571428571425
sg38
S'yellow'
p1298
sba(icurlovision
Stone
p1299
(dp1300
g35
F-0.26785714285714285
sg36
F-3.696428571428571
sg37
F0.3214285714285714
sg38
S'yellow'
p1301
sbasba(icurlovision
StoneLayout
p1302
(dp1303
g30
F0.4791666666666667
sg31
(lp1304
(icurlovision
Stone
p1305
(dp1306
g35
F-0.1989795918367347
sg36
F-3.780612244897959
sg37
F0.336734693877551
sg38
S'yellow'
p1307
sba(icurlovision
Stone
p1308
(dp1309
g35
F-6.627551020408163
sg36
F4.362244897959184
sg37
F0.3214285714285714
sg38
S'yellow'
p1310
sbasba(icurlovision
StoneLayout
p1311
(dp1312
g30
F0.4791666666666667
sg31
(lp1313
(icurlovision
Stone
p1314
(dp1315
g35
F-1.3653846153846154
sg36
F-3.0961538461538463
sg37
F0.44230769230769235
sg38
S'red'
p1316
sba(icurlovision
Stone
p1317
(dp1318
g35
F11.403846153846155
sg36
F-3.1346153846153846
sg37
F0.42307692307692313
sg38
S'yellow'
p1319
sba(icurlovision
Stone
p1320
(dp1321
g35
F-0.3269230769230769
sg36
F-3.75
sg37
F0.2692307692307693
sg38
S'yellow'
p1322
sbasba(icurlovision
StoneLayout
p1323
(dp1324
g30
F0.4791666666666667
sg31
(lp1325
(icurlovision
Stone
p1326
(dp1327
g35
F-1.3499999999999999
sg36
F-3.21
sg37
F0.36
sg38
S'red'
p1328
sba(icurlovision
Stone
p1329
(dp1330
g35
F-0.27
sg36
F-3.8699999999999997
sg37
F0.345
sg38
S'yellow'
p1331
sba(icurlovision
Stone
p1332
(dp1333
g35
F-2.88
sg36
F-5.64
sg37
F0.345
sg38
S'red'
p1334
sbasba(icurlovision
StoneLayout
p1335
(dp1336
g30
F0.4791666666666667
sg31
(lp1337
(icurlovision
Stone
p1338
(dp1339
g35
F-1.3421052631578947
sg36
F-3.1973684210526314
sg37
F0.4539473684210526
sg38
S'red'
p1340
sba(icurlovision
Stone
p1341
(dp1342
g35
F14.052631578947368
sg36
F-3.0
sg37
F0.43421052631578944
sg38
S'yellow'
p1343
sba(icurlovision
Stone
p1344
(dp1345
g35
F-0.2763157894736842
sg36
F-3.907894736842105
sg37
F0.3355263157894737
sg38
S'yellow'
p1346
sbasba(icurlovision
StoneLayout
p1347
(dp1348
g30
F0.4791666666666667
sg31
(lp1349
(icurlovision
Stone
p1350
(dp1351
g35
F-0.2578125
sg36
F-3.6796875
sg37
F0.328125
sg38
S'yellow'
p1352
sbasba(icurlovision
StoneLayout
p1353
(dp1354
g30
F0.4791666666666667
sg31
(lp1355
(icurlovision
Stone
p1356
(dp1357
g35
F-1.3581081081081081
sg36
F-3.1824324324324325
sg37
F0.46621621621621623
sg38
S'red'
p1358
sba(icurlovision
Stone
p1359
(dp1360
g35
F-0.30405405405405406
sg36
F-3.831081081081081
sg37
F0.3445945945945946
sg38
S'yellow'
p1361
sba(icurlovision
Stone
p1362
(dp1363
g35
F12.66891891891892
sg36
F-3.0202702702702706
sg37
F0.30405405405405406
sg38
S'yellow'
p1364
sbasba(icurlovision
StoneLayout
p1365
(dp1366
g30
F0.4791666666666667
sg31
(lp1367
(icurlovision
Stone
p1368
(dp1369
g35
F-0.5491071428571428
sg36
F-3.84375
sg37
F0.3214285714285714
sg38
S'yellow'
p1370
sbasba(icurlovision
StoneLayout
p1371
(dp1372
g30
F0.4791666666666667
sg31
(lp1373
(icurlovision
Stone
p1374
(dp1375
g35
F-1.3223684210526314
sg36
F-3.177631578947368
sg37
F0.23684210526315788
sg38
S'red'
p1376
sba(icurlovision
Stone
p1377
(dp1378
g35
F-0.5723684210526315
sg36
F-2.269736842105263
sg37
F0.3355263157894737
sg38
S'yellow'
p1379
sba(icurlovision
Stone
p1380
(dp1381
g35
F0.6118421052631579
sg36
F-3.4934210526315788
sg37
F0.47368421052631576
sg38
S'red'
p1382
sba(icurlovision
Stone
p1383
(dp1384
g35
F-0.5328947368421052
sg36
F-3.8486842105263155
sg37
F0.3157894736842105
sg38
S'yellow'
p1385
sba(icurlovision
Stone
p1386
(dp1387
g35
F12.651315789473683
sg36
F-2.8223684210526314
sg37
F0.43421052631578944
sg38
S'yellow'
p1388
sbasbasg253
I8
sg254
I1
sbasS'version'
p1389
I20180812
sg253
I8
sS'metadata'
p1390
(icurlovision
MatchMetadata
p1391
(dp1392
S'team_name_red'
p1393
S'Unknown'
p1394
sS'event_name'
p1395
g1394
sS'gender'
p1396
g1394
sS'other_info'
p1397
g1394
sS'team_name_yel'
p1398
g1394
sS'date'
p1399
g1394
sbsb.