(icurlovision
MatchResult
p0
(dp1
S'yel_score'
p2
I8
sS'red_score'
p3
I8
sS'name'
p4
S"VideoLibrary/PyeongChang.Olympics.2018.curling.women's.round-robin.Denmark.v.Canada.1080p.NBC.WEB-DL-FINFUNGUS.mp4"
p5
sS'end_results'
p6
(lp7
(icurlovision
EndResult
p8
(dp9
g2
I0
sS'stones_left'
p10
(lp11
(I7
I8
tp12
a(I5
I6
tp13
a(I4
I4
tp14
a(I3
I4
tp15
a(I3
I3
tp16
a(I0
I1
tp17
asS'end_num'
p18
I1
sS'stone_layouts'
p19
(lp20
(icurlovision
StoneLayout
p21
(dp22
S'stone_radius'
p23
F0.4791666666666667
sS'stones'
p24
(lp25
(icurlovision
Stone
p26
(dp27
S'y'
p28
F2.2329545454545454
sS'x'
p29
F0.017045454545454544
sS'r'
p30
F0.3409090909090909
sS'color'
p31
S'red'
p32
sba(icurlovision
Stone
p33
(dp34
g28
F9.5625
sg29
F-12.596590909090908
sg30
F0.2727272727272727
sg31
S'yellow'
p35
sbasba(icurlovision
StoneLayout
p36
(dp37
g23
F0.4791666666666667
sg24
(lp38
(icurlovision
Stone
p39
(dp40
g28
F-1.0296610169491527
sg29
F3.3686440677966103
sg30
F0.4576271186440678
sg31
S'red'
p41
sba(icurlovision
Stone
p42
(dp43
g28
F-6.978813559322035
sg29
F4.055084745762712
sg30
F0.31779661016949157
sg31
S'yellow'
p44
sbasba(icurlovision
StoneLayout
p45
(dp46
g23
F0.4791666666666667
sg24
(lp47
(icurlovision
Stone
p48
(dp49
g28
F-6.092105263157895
sg29
F2.631578947368421
sg30
F0.3421052631578947
sg31
S'red'
p50
sba(icurlovision
Stone
p51
(dp52
g28
F-2.7236842105263155
sg29
F-3.026315789473684
sg30
F0.47368421052631576
sg31
S'yellow'
p53
sbasba(icurlovision
StoneLayout
p54
(dp55
g23
F0.4791666666666667
sg24
(lp56
(icurlovision
Stone
p57
(dp58
g28
F-2.5240384615384617
sg29
F0.9663461538461539
sg30
F0.34615384615384615
sg31
S'red'
p59
sbasba(icurlovision
StoneLayout
p60
(dp61
g23
F0.4791666666666667
sg24
(lp62
(icurlovision
Stone
p63
(dp64
g28
F-1.9500000000000002
sg29
F1.4125
sg30
F0.35000000000000003
sg31
S'yellow'
p65
sbasba(icurlovision
StoneLayout
p66
(dp67
g23
F0.4791666666666667
sg24
(lp68
(icurlovision
Stone
p69
(dp70
g28
F-4.568181818181818
sg29
F0.2318181818181818
sg30
F0.35454545454545455
sg31
S'red'
p71
sbasbasg3
I0
sS'red_hammer'
p72
I0
sba(icurlovision
EndResult
p73
(dp74
g2
I2
sg10
(lp75
(I7
I8
tp76
a(I6
I6
tp77
a(I2
I3
tp78
asg18
I2
sg19
(lp79
(icurlovision
StoneLayout
p80
(dp81
g23
F0.4791666666666667
sg24
(lp82
sba(icurlovision
StoneLayout
p83
(dp84
g23
F0.4791666666666667
sg24
(lp85
(icurlovision
Stone
p86
(dp87
g28
F3.1683673469387754
sg29
F-0.4744897959183673
sg30
F0.45918367346938777
sg31
S'red'
p88
sba(icurlovision
Stone
p89
(dp90
g28
F6.688775510204081
sg29
F3.0153061224489797
sg30
F0.336734693877551
sg31
S'yellow'
p91
sba(icurlovision
Stone
p92
(dp93
g28
F5.494897959183674
sg29
F1.086734693877551
sg30
F0.44387755102040816
sg31
S'yellow'
p94
sba(icurlovision
Stone
p95
(dp96
g28
F-5.311224489795919
sg29
F1.3010204081632653
sg30
F0.30612244897959184
sg31
S'red'
p97
sbasba(icurlovision
StoneLayout
p98
(dp99
g23
F0.4791666666666667
sg24
(lp100
(icurlovision
Stone
p101
(dp102
g28
F2.0625
sg29
F1.5576923076923077
sg30
F0.3317307692307693
sg31
S'red'
p103
sba(icurlovision
Stone
p104
(dp105
g28
F6.3894230769230775
sg29
F-2.5961538461538463
sg30
F0.4759615384615385
sg31
S'yellow'
p106
sba(icurlovision
Stone
p107
(dp108
g28
F6.533653846153847
sg29
F3.2596153846153846
sg30
F0.375
sg31
S'yellow'
p109
sba(icurlovision
Stone
p110
(dp111
g28
F2.0336538461538463
sg29
F7.384615384615385
sg30
F0.4759615384615385
sg31
S'red'
p112
sba(icurlovision
Stone
p113
(dp114
g28
F3.6490384615384617
sg29
F5.682692307692308
sg30
F0.3028846153846154
sg31
S'red'
p115
sbasbasg3
I0
sg72
I0
sba(icurlovision
EndResult
p116
(dp117
g2
I2
sg10
(lp118
(I6
I6
tp119
a(I5
I5
tp120
a(I5
I4
tp121
a(I4
I3
tp122
a(I2
I1
tp123
a(I1
I1
tp124
a(I1
I0
tp125
asg18
I3
sg19
(lp126
(icurlovision
StoneLayout
p127
(dp128
g23
F0.4791666666666667
sg24
(lp129
(icurlovision
Stone
p130
(dp131
g28
F7.377551020408163
sg29
F-1.010204081632653
sg30
F0.30612244897959184
sg31
S'yellow'
p132
sba(icurlovision
Stone
p133
(dp134
g28
F1.4693877551020407
sg29
F2.4489795918367347
sg30
F0.45918367346938777
sg31
S'red'
p135
sba(icurlovision
Stone
p136
(dp137
g28
F-6.0
sg29
F-1.530612244897959
sg30
F0.3214285714285714
sg31
S'yellow'
p138
sba(icurlovision
Stone
p139
(dp140
g28
F3.857142857142857
sg29
F-1.346938775510204
sg30
F0.3214285714285714
sg31
S'red'
p141
sbasba(icurlovision
StoneLayout
p142
(dp143
g23
F0.4791666666666667
sg24
(lp144
(icurlovision
Stone
p145
(dp146
g28
F3.9305555555555554
sg29
F-1.2916666666666665
sg30
F0.3333333333333333
sg31
S'red'
p147
sba(icurlovision
Stone
p148
(dp149
g28
F-5.986111111111111
sg29
F-1.6805555555555554
sg30
F0.3055555555555555
sg31
S'yellow'
p150
sba(icurlovision
Stone
p151
(dp152
g28
F2.1527777777777777
sg29
F4.680555555555555
sg30
F0.3194444444444444
sg31
S'red'
p153
sba(icurlovision
Stone
p154
(dp155
g28
F-6.763888888888888
sg29
F0.40277777777777773
sg30
F0.3055555555555555
sg31
S'yellow'
p156
sba(icurlovision
Stone
p157
(dp158
g28
F7.486111111111111
sg29
F-0.875
sg30
F0.4583333333333333
sg31
S'yellow'
p159
sba(icurlovision
Stone
p160
(dp161
g28
F2.9305555555555554
sg29
F7.180555555555555
sg30
F0.4305555555555555
sg31
S'red'
p162
sbasba(icurlovision
StoneLayout
p163
(dp164
g23
F0.4791666666666667
sg24
(lp165
(icurlovision
Stone
p166
(dp167
g28
F4.0
sg29
F-1.40625
sg30
F0.34375
sg31
S'red'
p168
sba(icurlovision
Stone
p169
(dp170
g28
F7.625
sg29
F-1.0
sg30
F0.328125
sg31
S'yellow'
p171
sba(icurlovision
Stone
p172
(dp173
g28
F2.59375
sg29
F4.375
sg30
F0.34375
sg31
S'yellow'
p174
sba(icurlovision
Stone
p175
(dp176
g28
F-6.15625
sg29
F-1.65625
sg30
F0.453125
sg31
S'yellow'
p177
sbasba(icurlovision
StoneLayout
p178
(dp179
g23
F0.4791666666666667
sg24
(lp180
(icurlovision
Stone
p181
(dp182
g28
F-4.370192307692308
sg29
F6.0144230769230775
sg30
F0.3317307692307693
sg31
S'yellow'
p183
sba(icurlovision
Stone
p184
(dp185
g28
F-6.072115384615385
sg29
F-1.5721153846153848
sg30
F0.44711538461538464
sg31
S'yellow'
p186
sba(icurlovision
Stone
p187
(dp188
g28
F3.966346153846154
sg29
F-1.3990384615384617
sg30
F0.31730769230769235
sg31
S'red'
p189
sba(icurlovision
Stone
p190
(dp191
g28
F7.543269230769231
sg29
F-1.0528846153846154
sg30
F0.44711538461538464
sg31
S'yellow'
p192
sbasba(icurlovision
StoneLayout
p193
(dp194
g23
F0.4791666666666667
sg24
(lp195
(icurlovision
Stone
p196
(dp197
g28
F-1.29
sg29
F0.18
sg30
F0.46499999999999997
sg31
S'yellow'
p198
sba(icurlovision
Stone
p199
(dp200
g28
F7.56
sg29
F-1.02
sg30
F0.32999999999999996
sg31
S'yellow'
p201
sba(icurlovision
Stone
p202
(dp203
g28
F-0.18
sg29
F6.72
sg30
F0.32999999999999996
sg31
S'yellow'
p204
sba(icurlovision
Stone
p205
(dp206
g28
F3.9899999999999998
sg29
F-1.41
sg30
F0.345
sg31
S'red'
p207
sba(icurlovision
Stone
p208
(dp209
g28
F-6.1499999999999995
sg29
F-1.6199999999999999
sg30
F0.315
sg31
S'yellow'
p210
sbasba(icurlovision
StoneLayout
p211
(dp212
g23
F0.4791666666666667
sg24
(lp213
(icurlovision
Stone
p214
(dp215
g28
F7.65625
sg29
F-1.0625
sg30
F0.34375
sg31
S'yellow'
p216
sba(icurlovision
Stone
p217
(dp218
g28
F4.0
sg29
F-1.4375
sg30
F0.34375
sg31
S'red'
p219
sba(icurlovision
Stone
p220
(dp221
g28
F-0.1875
sg29
F6.8125
sg30
F0.46875
sg31
S'yellow'
p222
sba(icurlovision
Stone
p223
(dp224
g28
F-6.25
sg29
F-1.65625
sg30
F0.328125
sg31
S'yellow'
p225
sba(icurlovision
Stone
p226
(dp227
g28
F-1.125
sg29
F-1.34375
sg30
F0.328125
sg31
S'red'
p228
sba(icurlovision
Stone
p229
(dp230
g28
F7.8125
sg29
F-7.8125
sg30
F0.296875
sg31
S'yellow'
p231
sbasba(icurlovision
StoneLayout
p232
(dp233
g23
F0.4791666666666667
sg24
(lp234
(icurlovision
Stone
p235
(dp236
g28
F-6.055555555555555
sg29
F-1.611111111111111
sg30
F0.4444444444444444
sg31
S'yellow'
p237
sba(icurlovision
Stone
p238
(dp239
g28
F-0.19444444444444442
sg29
F6.638888888888888
sg30
F0.4722222222222222
sg31
S'yellow'
p240
sba(icurlovision
Stone
p241
(dp242
g28
F-0.8888888888888888
sg29
F-0.2777777777777778
sg30
F0.4444444444444444
sg31
S'yellow'
p243
sba(icurlovision
Stone
p244
(dp245
g28
F3.9166666666666665
sg29
F-1.361111111111111
sg30
F0.4583333333333333
sg31
S'red'
p246
sba(icurlovision
Stone
p247
(dp248
g28
F7.527777777777778
sg29
F-0.9722222222222222
sg30
F0.4722222222222222
sg31
S'yellow'
p249
sba(icurlovision
Stone
p250
(dp251
g28
F-1.1944444444444444
sg29
F-1.4166666666666665
sg30
F0.4583333333333333
sg31
S'red'
p252
sbasbasg3
I3
sg72
I1
sba(icurlovision
EndResult
p253
(dp254
g2
I2
sg10
(lp255
(I7
I8
tp256
a(I5
I6
tp257
a(I4
I5
tp258
a(I4
I4
tp259
a(I3
I4
tp260
a(I3
I3
tp261
a(I2
I3
tp262
a(I2
I2
tp263
a(I1
I2
tp264
a(I1
I1
tp265
a(I0
I1
tp266
asg18
I4
sg19
(lp267
(icurlovision
StoneLayout
p268
(dp269
g23
F0.4791666666666667
sg24
(lp270
(icurlovision
Stone
p271
(dp272
g28
F9.25
sg29
F2.0972222222222223
sg30
F0.4305555555555555
sg31
S'yellow'
p273
sba(icurlovision
Stone
p274
(dp275
g28
F2.0
sg29
F0.3472222222222222
sg30
F0.4583333333333333
sg31
S'red'
p276
sbasba(icurlovision
StoneLayout
p277
(dp278
g23
F0.4791666666666667
sg24
(lp279
(icurlovision
Stone
p280
(dp281
g28
F1.5666666666666667
sg29
F0.4
sg30
F0.45
sg31
S'red'
p282
sba(icurlovision
Stone
p283
(dp284
g28
F-1.2
sg29
F-7.033333333333333
sg30
F0.31666666666666665
sg31
S'red'
p285
sba(icurlovision
Stone
p286
(dp287
g28
F9.666666666666666
sg29
F2.533333333333333
sg30
F0.2833333333333333
sg31
S'red'
p288
sba(icurlovision
Stone
p289
(dp290
g28
F2.6
sg29
F-5.966666666666667
sg30
F0.43333333333333335
sg31
S'red'
p291
sbasba(icurlovision
StoneLayout
p292
(dp293
g23
F0.4791666666666667
sg24
(lp294
(icurlovision
Stone
p295
(dp296
g28
F1.629310344827586
sg29
F0.41379310344827586
sg30
F0.34913793103448276
sg31
S'red'
p297
sba(icurlovision
Stone
p298
(dp299
g28
F9.543103448275861
sg29
F2.4827586206896552
sg30
F0.41379310344827586
sg31
S'red'
p300
sba(icurlovision
Stone
p301
(dp302
g28
F-0.5948275862068966
sg29
F3.0258620689655173
sg30
F0.46551724137931033
sg31
S'yellow'
p303
sbasba(icurlovision
StoneLayout
p304
(dp305
g23
F0.4791666666666667
sg24
(lp306
(icurlovision
Stone
p307
(dp308
g28
F-0.5625
sg29
F3.0721153846153846
sg30
F0.3317307692307693
sg31
S'yellow'
p309
sba(icurlovision
Stone
p310
(dp311
g28
F-1.2548076923076923
sg29
F-7.168269230769231
sg30
F0.3317307692307693
sg31
S'red'
p312
sba(icurlovision
Stone
p313
(dp314
g28
F1.6009615384615385
sg29
F0.4182692307692308
sg30
F0.46153846153846156
sg31
S'red'
p315
sba(icurlovision
Stone
p316
(dp317
g28
F4.370192307692308
sg29
F0.4182692307692308
sg30
F0.34615384615384615
sg31
S'yellow'
p318
sba(icurlovision
Stone
p319
(dp320
g28
F9.793269230769232
sg29
F2.581730769230769
sg30
F0.3028846153846154
sg31
S'red'
p321
sbasba(icurlovision
StoneLayout
p322
(dp323
g23
F0.4791666666666667
sg24
(lp324
(icurlovision
Stone
p325
(dp326
g28
F-0.5454545454545454
sg29
F2.9829545454545454
sg30
F0.4431818181818181
sg31
S'yellow'
p327
sba(icurlovision
Stone
p328
(dp329
g28
F-1.159090909090909
sg29
F-6.903409090909091
sg30
F0.4431818181818181
sg31
S'red'
p330
sba(icurlovision
Stone
p331
(dp332
g28
F1.159090909090909
sg29
F4.2102272727272725
sg30
F0.2727272727272727
sg31
S'red'
p333
sba(icurlovision
Stone
p334
(dp335
g28
F9.579545454545453
sg29
F2.505681818181818
sg30
F0.4431818181818181
sg31
S'red'
p336
sba(icurlovision
Stone
p337
(dp338
g28
F2.965909090909091
sg29
F7.2102272727272725
sg30
F0.2727272727272727
sg31
S'red'
p339
sbasba(icurlovision
StoneLayout
p340
(dp341
g23
F0.4791666666666667
sg24
(lp342
(icurlovision
Stone
p343
(dp344
g28
F-0.5833333333333334
sg29
F3.05
sg30
F0.4666666666666667
sg31
S'yellow'
p345
sba(icurlovision
Stone
p346
(dp347
g28
F-2.0166666666666666
sg29
F2.05
sg30
F0.45
sg31
S'yellow'
p348
sba(icurlovision
Stone
p349
(dp350
g28
F-1.1833333333333333
sg29
F-6.983333333333333
sg30
F0.3
sg31
S'red'
p351
sba(icurlovision
Stone
p352
(dp353
g28
F9.65
sg29
F2.55
sg30
F0.2833333333333333
sg31
S'red'
p354
sba(icurlovision
Stone
p355
(dp356
g28
F0.7833333333333333
sg29
F4.683333333333334
sg30
F0.35
sg31
S'red'
p357
sba(icurlovision
Stone
p358
(dp359
g28
F-5.683333333333334
sg29
F1.15
sg30
F0.26666666666666666
sg31
S'red'
p360
sbasba(icurlovision
StoneLayout
p361
(dp362
g23
F0.4791666666666667
sg24
(lp363
(icurlovision
Stone
p364
(dp365
g28
F-2.0454545454545454
sg29
F2.1136363636363633
sg30
F0.32386363636363635
sg31
S'yellow'
p366
sba(icurlovision
Stone
p367
(dp368
g28
F-1.227272727272727
sg29
F-7.09090909090909
sg30
F0.4602272727272727
sg31
S'red'
p369
sba(icurlovision
Stone
p370
(dp371
g28
F-0.6477272727272727
sg29
F3.1704545454545454
sg30
F0.3409090909090909
sg31
S'yellow'
p372
sba(icurlovision
Stone
p373
(dp374
g28
F9.75
sg29
F2.5568181818181817
sg30
F0.4602272727272727
sg31
S'red'
p375
sba(icurlovision
Stone
p376
(dp377
g28
F0.03409090909090909
sg29
F2.4204545454545454
sg30
F0.2727272727272727
sg31
S'red'
p378
sba(icurlovision
Stone
p379
(dp380
g28
F0.7840909090909091
sg29
F4.7727272727272725
sg30
F0.4431818181818181
sg31
S'red'
p381
sba(icurlovision
Stone
p382
(dp383
g28
F-4.9431818181818175
sg29
F5.386363636363636
sg30
F0.4602272727272727
sg31
S'red'
p384
sbasba(icurlovision
StoneLayout
p385
(dp386
g23
F0.4791666666666667
sg24
(lp387
(icurlovision
Stone
p388
(dp389
g28
F-1.9946808510638296
sg29
F2.0106382978723403
sg30
F0.33510638297872336
sg31
S'yellow'
p390
sba(icurlovision
Stone
p391
(dp392
g28
F-1.1329787234042552
sg29
F-6.989361702127659
sg30
F0.3031914893617021
sg31
S'red'
p393
sba(icurlovision
Stone
p394
(dp395
g28
F-0.6542553191489361
sg29
F3.0638297872340425
sg30
F0.33510638297872336
sg31
S'yellow'
p396
sba(icurlovision
Stone
p397
(dp398
g28
F9.622340425531915
sg29
F2.553191489361702
sg30
F0.4308510638297872
sg31
S'red'
p399
sba(icurlovision
Stone
p400
(dp401
g28
F1.4840425531914891
sg29
F4.212765957446808
sg30
F0.3191489361702127
sg31
S'yellow'
p402
sba(icurlovision
Stone
p403
(dp404
g28
F0.047872340425531915
sg29
F2.361702127659574
sg30
F0.3191489361702127
sg31
S'red'
p405
sbasba(icurlovision
StoneLayout
p406
(dp407
g23
F0.4791666666666667
sg24
(lp408
(icurlovision
Stone
p409
(dp410
g28
F-1.404255319148936
sg29
F2.712765957446808
sg30
F0.44680851063829785
sg31
S'yellow'
p411
sba(icurlovision
Stone
p412
(dp413
g28
F0.09574468085106383
sg29
F3.574468085106383
sg30
F0.44680851063829785
sg31
S'yellow'
p414
sba(icurlovision
Stone
p415
(dp416
g28
F9.734042553191488
sg29
F2.585106382978723
sg30
F0.4627659574468085
sg31
S'red'
p417
sba(icurlovision
Stone
p418
(dp419
g28
F-1.180851063829787
sg29
F-7.053191489361701
sg30
F0.44680851063829785
sg31
S'red'
p420
sba(icurlovision
Stone
p421
(dp422
g28
F-0.0
sg29
F2.3936170212765955
sg30
F0.33510638297872336
sg31
S'red'
p423
sba(icurlovision
Stone
p424
(dp425
g28
F-5.776595744680851
sg29
F-1.1489361702127658
sg30
F0.33510638297872336
sg31
S'yellow'
p426
sbasba(icurlovision
StoneLayout
p427
(dp428
g23
F0.4791666666666667
sg24
(lp429
(icurlovision
Stone
p430
(dp431
g28
F0.9204545454545454
sg29
F2.4886363636363633
sg30
F0.3409090909090909
sg31
S'yellow'
p432
sba(icurlovision
Stone
p433
(dp434
g28
F-2.352272727272727
sg29
F3.068181818181818
sg30
F0.28977272727272724
sg31
S'yellow'
p435
sba(icurlovision
Stone
p436
(dp437
g28
F0.10227272727272727
sg29
F3.6818181818181817
sg30
F0.32386363636363635
sg31
S'yellow'
p438
sba(icurlovision
Stone
p439
(dp440
g28
F-1.125
sg29
F-7.124999999999999
sg30
F0.28977272727272724
sg31
S'red'
p441
sba(icurlovision
Stone
p442
(dp443
g28
F9.818181818181817
sg29
F2.6590909090909087
sg30
F0.2727272727272727
sg31
S'red'
p444
sba(icurlovision
Stone
p445
(dp446
g28
F-0.5795454545454545
sg29
F2.3863636363636362
sg30
F0.2727272727272727
sg31
S'red'
p447
sba(icurlovision
Stone
p448
(dp449
g28
F-5.795454545454545
sg29
F-1.125
sg30
F0.3409090909090909
sg31
S'yellow'
p450
sbasba(icurlovision
StoneLayout
p451
(dp452
g23
F0.4791666666666667
sg24
(lp453
(icurlovision
Stone
p454
(dp455
g28
F0.9545454545454545
sg29
F2.4886363636363633
sg30
F0.4431818181818181
sg31
S'yellow'
p456
sba(icurlovision
Stone
p457
(dp458
g28
F-0.5454545454545454
sg29
F2.3863636363636362
sg30
F0.4602272727272727
sg31
S'red'
p459
sba(icurlovision
Stone
p460
(dp461
g28
F0.13636363636363635
sg29
F3.6477272727272725
sg30
F0.4602272727272727
sg31
S'yellow'
p462
sba(icurlovision
Stone
p463
(dp464
g28
F-1.227272727272727
sg29
F-7.227272727272727
sg30
F0.32386363636363635
sg31
S'red'
p465
sba(icurlovision
Stone
p466
(dp467
g28
F-2.352272727272727
sg29
F3.1363636363636362
sg30
F0.2727272727272727
sg31
S'yellow'
p468
sba(icurlovision
Stone
p469
(dp470
g28
F8.829545454545453
sg29
F2.8636363636363633
sg30
F0.4602272727272727
sg31
S'red'
p471
sba(icurlovision
Stone
p472
(dp473
g28
F10.670454545454545
sg29
F2.0454545454545454
sg30
F0.4602272727272727
sg31
S'red'
p474
sbasbasg3
I4
sg72
I0
sba(icurlovision
EndResult
p475
(dp476
g2
I6
sg10
(lp477
(I7
I7
tp478
a(I6
I7
tp479
a(I6
I6
tp480
a(I5
I6
tp481
a(I5
I5
tp482
a(I4
I4
tp483
a(I3
I4
tp484
a(I2
I3
tp485
a(I2
I2
tp486
a(I1
I2
tp487
a(I1
I1
tp488
asg18
I5
sg19
(lp489
(icurlovision
StoneLayout
p490
(dp491
g23
F0.4791666666666667
sg24
(lp492
(icurlovision
Stone
p493
(dp494
g28
F7.563829787234042
sg29
F-1.1648936170212765
sg30
F0.33510638297872336
sg31
S'red'
p495
sbasba(icurlovision
StoneLayout
p496
(dp497
g23
F0.4791666666666667
sg24
(lp498
(icurlovision
Stone
p499
(dp500
g28
F8.0
sg29
F2.171875
sg30
F0.28125
sg31
S'yellow'
p501
sba(icurlovision
Stone
p502
(dp503
g28
F7.46875
sg29
F-1.203125
sg30
F0.453125
sg31
S'red'
p504
sba(icurlovision
Stone
p505
(dp506
g28
F3.46875
sg29
F-0.390625
sg30
F0.453125
sg31
S'red'
p507
sba(icurlovision
Stone
p508
(dp509
g28
F2.28125
sg29
F-3.078125
sg30
F0.265625
sg31
S'red'
p510
sbasba(icurlovision
StoneLayout
p511
(dp512
g23
F0.4791666666666667
sg24
(lp513
(icurlovision
Stone
p514
(dp515
g28
F7.529999999999999
sg29
F-1.2
sg30
F0.44999999999999996
sg31
S'red'
p516
sba(icurlovision
Stone
p517
(dp518
g28
F-3.57
sg29
F-1.7999999999999998
sg30
F0.345
sg31
S'red'
p519
sba(icurlovision
Stone
p520
(dp521
g28
F8.07
sg29
F2.2199999999999998
sg30
F0.32999999999999996
sg31
S'yellow'
p522
sbasba(icurlovision
StoneLayout
p523
(dp524
g23
F0.4791666666666667
sg24
(lp525
(icurlovision
Stone
p526
(dp527
g28
F0.3676470588235294
sg29
F2.3823529411764706
sg30
F0.45588235294117646
sg31
S'yellow'
p528
sba(icurlovision
Stone
p529
(dp530
g28
F-3.5735294117647056
sg29
F-1.7941176470588236
sg30
F0.4852941176470588
sg31
S'red'
p531
sba(icurlovision
Stone
p532
(dp533
g28
F7.485294117647059
sg29
F-1.2352941176470589
sg30
F0.45588235294117646
sg31
S'red'
p534
sba(icurlovision
Stone
p535
(dp536
g28
F7.75
sg29
F-0.3529411764705882
sg30
F0.3088235294117647
sg31
S'red'
p537
sbasba(icurlovision
StoneLayout
p538
(dp539
g23
F0.4791666666666667
sg24
(lp540
(icurlovision
Stone
p541
(dp542
g28
F0.35
sg29
F2.25
sg30
F0.31666666666666665
sg31
S'yellow'
p543
sba(icurlovision
Stone
p544
(dp545
g28
F-3.4166666666666665
sg29
F-1.75
sg30
F0.45
sg31
S'red'
p546
sba(icurlovision
Stone
p547
(dp548
g28
F7.1499999999999995
sg29
F-1.2166666666666666
sg30
F0.3333333333333333
sg31
S'red'
p549
sba(icurlovision
Stone
p550
(dp551
g28
F7.416666666666667
sg29
F-0.35
sg30
F0.2833333333333333
sg31
S'red'
p552
sba(icurlovision
Stone
p553
(dp554
g28
F4.916666666666667
sg29
F-2.35
sg30
F0.31666666666666665
sg31
S'yellow'
p555
sba(icurlovision
Stone
p556
(dp557
g28
F8.883333333333333
sg29
F-4.216666666666667
sg30
F0.3
sg31
S'yellow'
p558
sbasba(icurlovision
StoneLayout
p559
(dp560
g23
F0.4791666666666667
sg24
(lp561
(icurlovision
Stone
p562
(dp563
g28
F-3.122448979591837
sg29
F-0.9336734693877551
sg30
F0.45918367346938777
sg31
S'yellow'
p564
sba(icurlovision
Stone
p565
(dp566
g28
F7.316326530612245
sg29
F-1.5153061224489797
sg30
F0.45918367346938777
sg31
S'red'
p567
sba(icurlovision
Stone
p568
(dp569
g28
F7.469387755102041
sg29
F-0.3520408163265306
sg30
F0.3214285714285714
sg31
S'red'
p570
sba(icurlovision
Stone
p571
(dp572
g28
F-3.5510204081632653
sg29
F-1.7908163265306123
sg30
F0.3214285714285714
sg31
S'red'
p573
sba(icurlovision
Stone
p574
(dp575
g28
F0.21428571428571427
sg29
F0.44387755102040816
sg30
F0.3214285714285714
sg31
S'red'
p576
sba(icurlovision
Stone
p577
(dp578
g28
F8.142857142857142
sg29
F-4.607142857142857
sg30
F0.2755102040816326
sg31
S'yellow'
p579
sbasba(icurlovision
StoneLayout
p580
(dp581
g23
F0.4791666666666667
sg24
(lp582
(icurlovision
Stone
p583
(dp584
g28
F7.561224489795918
sg29
F-0.3520408163265306
sg30
F0.336734693877551
sg31
S'red'
p585
sba(icurlovision
Stone
p586
(dp587
g28
F-3.0918367346938775
sg29
F-0.9336734693877551
sg30
F0.4744897959183673
sg31
S'yellow'
p588
sba(icurlovision
Stone
p589
(dp590
g28
F7.469387755102041
sg29
F-1.5459183673469388
sg30
F0.336734693877551
sg31
S'red'
p591
sba(icurlovision
Stone
p592
(dp593
g28
F1.193877551020408
sg29
F0.3826530612244898
sg30
F0.3520408163265306
sg31
S'red'
p594
sba(icurlovision
Stone
p595
(dp596
g28
F0.09183673469387754
sg29
F0.413265306122449
sg30
F0.4744897959183673
sg31
S'red'
p597
sba(icurlovision
Stone
p598
(dp599
g28
F-3.5510204081632653
sg29
F-1.7908163265306123
sg30
F0.3520408163265306
sg31
S'red'
p600
sbasba(icurlovision
StoneLayout
p601
(dp602
g23
F0.4791666666666667
sg24
(lp603
(icurlovision
Stone
p604
(dp605
g28
F-3.1176470588235294
sg29
F-0.9117647058823529
sg30
F0.4852941176470588
sg31
S'yellow'
p606
sba(icurlovision
Stone
p607
(dp608
g28
F7.0
sg29
F-0.7941176470588235
sg30
F0.3235294117647059
sg31
S'red'
p609
sba(icurlovision
Stone
p610
(dp611
g28
F0.29411764705882354
sg29
F0.4411764705882353
sg30
F0.47058823529411764
sg31
S'red'
p612
sba(icurlovision
Stone
p613
(dp614
g28
F7.617647058823529
sg29
F-1.6176470588235294
sg30
F0.3529411764705882
sg31
S'red'
p615
sba(icurlovision
Stone
p616
(dp617
g28
F-3.588235294117647
sg29
F-1.7647058823529411
sg30
F0.3382352941176471
sg31
S'red'
p618
sba(icurlovision
Stone
p619
(dp620
g28
F-6.38235294117647
sg29
F3.5
sg30
F0.4852941176470588
sg31
S'yellow'
p621
sba(icurlovision
Stone
p622
(dp623
g28
F5.147058823529412
sg29
F0.8823529411764706
sg30
F0.3529411764705882
sg31
S'red'
p624
sba(icurlovision
Stone
p625
(dp626
g28
F-3.6470588235294117
sg29
F1.4117647058823528
sg30
F0.3382352941176471
sg31
S'red'
p627
sbasba(icurlovision
StoneLayout
p628
(dp629
g23
F0.4791666666666667
sg24
(lp630
(icurlovision
Stone
p631
(dp632
g28
F-3.1875
sg29
F-0.9375
sg30
F0.3317307692307693
sg31
S'yellow'
p633
sba(icurlovision
Stone
p634
(dp635
g28
F6.966346153846154
sg29
F-0.8221153846153847
sg30
F0.31730769230769235
sg31
S'red'
p636
sba(icurlovision
Stone
p637
(dp638
g28
F7.600961538461539
sg29
F-1.6298076923076923
sg30
F0.46153846153846156
sg31
S'red'
p639
sba(icurlovision
Stone
p640
(dp641
g28
F-3.620192307692308
sg29
F-1.7740384615384617
sg30
F0.3317307692307693
sg31
S'red'
p642
sba(icurlovision
Stone
p643
(dp644
g28
F0.2451923076923077
sg29
F0.4182692307692308
sg30
F0.4759615384615385
sg31
S'red'
p645
sba(icurlovision
Stone
p646
(dp647
g28
F2.0625
sg29
F-4.399038461538462
sg30
F0.46153846153846156
sg31
S'yellow'
p648
sba(icurlovision
Stone
p649
(dp650
g28
F-6.5048076923076925
sg29
F3.5625
sg30
F0.3317307692307693
sg31
S'yellow'
p651
sba(icurlovision
Stone
p652
(dp653
g28
F-4.1394230769230775
sg29
F4.745192307692308
sg30
F0.4182692307692308
sg31
S'red'
p654
sbasba(icurlovision
StoneLayout
p655
(dp656
g23
F0.4791666666666667
sg24
(lp657
(icurlovision
Stone
p658
(dp659
g28
F-3.0721153846153846
sg29
F-0.9663461538461539
sg30
F0.46153846153846156
sg31
S'yellow'
p660
sba(icurlovision
Stone
p661
(dp662
g28
F6.706730769230769
sg29
F-0.7067307692307693
sg30
F0.3028846153846154
sg31
S'red'
p663
sba(icurlovision
Stone
p664
(dp665
g28
F-1.6298076923076923
sg29
F0.07211538461538462
sg30
F0.34615384615384615
sg31
S'red'
p666
sba(icurlovision
Stone
p667
(dp668
g28
F7.3125
sg29
F-1.4567307692307694
sg30
F0.3317307692307693
sg31
S'red'
p669
sba(icurlovision
Stone
p670
(dp671
g28
F-3.4759615384615388
sg29
F-1.8028846153846154
sg30
F0.3317307692307693
sg31
S'red'
p672
sba(icurlovision
Stone
p673
(dp674
g28
F2.0336538461538463
sg29
F-4.2548076923076925
sg30
F0.31730769230769235
sg31
S'yellow'
p675
sba(icurlovision
Stone
p676
(dp677
g28
F1.1105769230769231
sg29
F0.5913461538461539
sg30
F0.46153846153846156
sg31
S'red'
p678
sba(icurlovision
Stone
p679
(dp680
g28
F-6.302884615384616
sg29
F3.245192307692308
sg30
F0.4759615384615385
sg31
S'yellow'
p681
sbasba(icurlovision
StoneLayout
p682
(dp683
g23
F0.4791666666666667
sg24
(lp684
(icurlovision
Stone
p685
(dp686
g28
F-1.716346153846154
sg29
F1.716346153846154
sg30
F0.46153846153846156
sg31
S'red'
p687
sba(icurlovision
Stone
p688
(dp689
g28
F1.3701923076923077
sg29
F1.9471153846153848
sg30
F0.4759615384615385
sg31
S'yellow'
p690
sba(icurlovision
Stone
p691
(dp692
g28
F2.120192307692308
sg29
F-4.370192307692308
sg30
F0.3317307692307693
sg31
S'yellow'
p693
sba(icurlovision
Stone
p694
(dp695
g28
F7.6298076923076925
sg29
F-1.4855769230769231
sg30
F0.3317307692307693
sg31
S'red'
p696
sba(icurlovision
Stone
p697
(dp698
g28
F-5.091346153846154
sg29
F-0.4182692307692308
sg30
F0.34615384615384615
sg31
S'yellow'
p699
sba(icurlovision
Stone
p700
(dp701
g28
F-6.475961538461539
sg29
F3.389423076923077
sg30
F0.4903846153846154
sg31
S'yellow'
p702
sba(icurlovision
Stone
p703
(dp704
g28
F6.9375
sg29
F-0.7067307692307693
sg30
F0.46153846153846156
sg31
S'red'
p705
sba(icurlovision
Stone
p706
(dp707
g28
F-6.735576923076923
sg29
F-7.024038461538462
sg30
F0.3028846153846154
sg31
S'red'
p708
sbasbasg3
I4
sg72
I0
sba(icurlovision
EndResult
p709
(dp710
g2
I6
sg10
(lp711
(I5
I4
tp712
a(I3
I2
tp713
a(I1
I1
tp714
a(I1
I0
tp715
asg18
I6
sg19
(lp716
(icurlovision
StoneLayout
p717
(dp718
g23
F0.4791666666666667
sg24
(lp719
(icurlovision
Stone
p720
(dp721
g28
F1.076086956521739
sg29
F-0.9130434782608695
sg30
F0.44021739130434784
sg31
S'yellow'
p722
sba(icurlovision
Stone
p723
(dp724
g28
F9.880434782608695
sg29
F3.0
sg30
F0.45652173913043476
sg31
S'red'
p725
sbasba(icurlovision
StoneLayout
p726
(dp727
g23
F0.4791666666666667
sg24
(lp728
(icurlovision
Stone
p729
(dp730
g28
F-1.2443181818181817
sg29
F3.9715909090909087
sg30
F0.2727272727272727
sg31
S'red'
p731
sba(icurlovision
Stone
p732
(dp733
g28
F-1.2784090909090908
sg29
F2.2670454545454546
sg30
F0.30681818181818177
sg31
S'yellow'
p734
sba(icurlovision
Stone
p735
(dp736
g28
F10.517045454545453
sg29
F2.0625
sg30
F0.2727272727272727
sg31
S'yellow'
p737
sba(icurlovision
Stone
p738
(dp739
g28
F9.289772727272727
sg29
F3.6988636363636362
sg30
F0.47727272727272724
sg31
S'red'
p740
sba(icurlovision
Stone
p741
(dp742
g28
F-3.0852272727272725
sg29
F5.4375
sg30
F0.28977272727272724
sg31
S'red'
p743
sba(icurlovision
Stone
p744
(dp745
g28
F9.426136363636363
sg29
F-7.5852272727272725
sg30
F0.30681818181818177
sg31
S'yellow'
p746
sba(icurlovision
Stone
p747
(dp748
g28
F-5.3352272727272725
sg29
F-1.6874999999999998
sg30
F0.3579545454545454
sg31
S'red'
p749
sbasba(icurlovision
StoneLayout
p750
(dp751
g23
F0.4791666666666667
sg24
(lp752
(icurlovision
Stone
p753
(dp754
g28
F-1.2034883720930232
sg29
F3.9244186046511627
sg30
F0.45348837209302323
sg31
S'red'
p755
sba(icurlovision
Stone
p756
(dp757
g28
F-1.5174418604651163
sg29
F2.354651162790698
sg30
F0.3488372093023256
sg31
S'yellow'
p758
sba(icurlovision
Stone
p759
(dp760
g28
F9.296511627906977
sg29
F3.6802325581395348
sg30
F0.2965116279069767
sg31
S'red'
p761
sba(icurlovision
Stone
p762
(dp763
g28
F7.203488372093023
sg29
F1.7965116279069768
sg30
F0.3313953488372093
sg31
S'yellow'
p764
sba(icurlovision
Stone
p765
(dp766
g28
F10.44767441860465
sg29
F2.0406976744186047
sg30
F0.45348837209302323
sg31
S'yellow'
p767
sba(icurlovision
Stone
p768
(dp769
g28
F-0.6104651162790697
sg29
F2.5290697674418605
sg30
F0.3488372093023256
sg31
S'red'
p770
sba(icurlovision
Stone
p771
(dp772
g28
F-3.052325581395349
sg29
F5.3895348837209305
sg30
F0.4883720930232558
sg31
S'red'
p773
sba(icurlovision
Stone
p774
(dp775
g28
F-0.05232558139534883
sg29
F1.0988372093023255
sg30
F0.3488372093023256
sg31
S'red'
p776
sbasba(icurlovision
StoneLayout
p777
(dp778
g23
F0.4791666666666667
sg24
(lp779
(icurlovision
Stone
p780
(dp781
g28
F-1.7386363636363635
sg29
F2.539772727272727
sg30
F0.3409090909090909
sg31
S'yellow'
p782
sba(icurlovision
Stone
p783
(dp784
g28
F0.7159090909090908
sg29
F0.5625
sg30
F0.4602272727272727
sg31
S'yellow'
p785
sba(icurlovision
Stone
p786
(dp787
g28
F10.159090909090908
sg29
F1.9943181818181817
sg30
F0.28977272727272724
sg31
S'yellow'
p788
sba(icurlovision
Stone
p789
(dp790
g28
F6.954545454545454
sg29
F1.7556818181818181
sg30
F0.4261363636363636
sg31
S'yellow'
p791
sba(icurlovision
Stone
p792
(dp793
g28
F-1.1931818181818181
sg29
F3.8352272727272725
sg30
F0.3579545454545454
sg31
S'red'
p794
sba(icurlovision
Stone
p795
(dp796
g28
F9.0
sg29
F3.5624999999999996
sg30
F0.28977272727272724
sg31
S'red'
p797
sba(icurlovision
Stone
p798
(dp799
g28
F-0.5795454545454545
sg29
F2.4375
sg30
F0.4602272727272727
sg31
S'red'
p800
sba(icurlovision
Stone
p801
(dp802
g28
F-2.965909090909091
sg29
F5.232954545454545
sg30
F0.47727272727272724
sg31
S'red'
p803
sba(icurlovision
Stone
p804
(dp805
g28
F-4.7727272727272725
sg29
F0.9715909090909091
sg30
F0.2727272727272727
sg31
S'red'
p806
sbasbasg3
I6
sg72
I1
sba(icurlovision
EndResult
p807
(dp808
g2
I7
sg10
(lp809
(I5
I5
tp810
asg18
I7
sg19
(lp811
(icurlovision
StoneLayout
p812
(dp813
g23
F0.4791666666666667
sg24
(lp814
(icurlovision
Stone
p815
(dp816
g28
F-6.12
sg29
F0.39
sg30
F0.44999999999999996
sg31
S'red'
p817
sba(icurlovision
Stone
p818
(dp819
g28
F8.28
sg29
F-0.27
sg30
F0.44999999999999996
sg31
S'red'
p820
sba(icurlovision
Stone
p821
(dp822
g28
F0.9299999999999999
sg29
F-0.03
sg30
F0.345
sg31
S'red'
p823
sba(icurlovision
Stone
p824
(dp825
g28
F-1.08
sg29
F-0.57
sg30
F0.32999999999999996
sg31
S'yellow'
p826
sbasbasg3
I6
sg72
I-1
sba(icurlovision
EndResult
p827
(dp828
g2
I8
sg10
(lp829
(I6
I5
tp830
a(I4
I3
tp831
a(I2
I1
tp832
a(I1
I0
tp833
asg18
I8
sg19
(lp834
(icurlovision
StoneLayout
p835
(dp836
g23
F0.4791666666666667
sg24
(lp837
(icurlovision
Stone
p838
(dp839
g28
F4.0271739130434785
sg29
F-2.3315217391304346
sg30
F0.30978260869565216
sg31
S'yellow'
p840
sba(icurlovision
Stone
p841
(dp842
g28
F0.24456521739130435
sg29
F0.24456521739130435
sg30
F0.32608695652173914
sg31
S'yellow'
p843
sba(icurlovision
Stone
p844
(dp845
g28
F-8.03804347826087
sg29
F5.201086956521739
sg30
F0.30978260869565216
sg31
S'red'
p846
sbasba(icurlovision
StoneLayout
p847
(dp848
g23
F0.4791666666666667
sg24
(lp849
(icurlovision
Stone
p850
(dp851
g28
F1.375
sg29
F-1.0892857142857142
sg30
F0.4464285714285714
sg31
S'yellow'
p852
sba(icurlovision
Stone
p853
(dp854
g28
F3.946428571428571
sg29
F-2.3035714285714284
sg30
F0.42857142857142855
sg31
S'yellow'
p855
sba(icurlovision
Stone
p856
(dp857
g28
F10.982142857142856
sg29
F2.5535714285714284
sg30
F0.42857142857142855
sg31
S'yellow'
p858
sba(icurlovision
Stone
p859
(dp860
g28
F-3.0535714285714284
sg29
F-1.125
sg30
F0.3214285714285714
sg31
S'red'
p861
sbasba(icurlovision
StoneLayout
p862
(dp863
g23
F0.4791666666666667
sg24
(lp864
(icurlovision
Stone
p865
(dp866
g28
F7.098837209302325
sg29
F1.255813953488372
sg30
F0.436046511627907
sg31
S'red'
p867
sba(icurlovision
Stone
p868
(dp869
g28
F11.075581395348838
sg29
F2.686046511627907
sg30
F0.436046511627907
sg31
S'yellow'
p870
sba(icurlovision
Stone
p871
(dp872
g28
F3.994186046511628
sg29
F-2.3372093023255816
sg30
F0.313953488372093
sg31
S'yellow'
p873
sba(icurlovision
Stone
p874
(dp875
g28
F3.9244186046511627
sg29
F0.8023255813953488
sg30
F0.3313953488372093
sg31
S'yellow'
p876
sba(icurlovision
Stone
p877
(dp878
g28
F6.087209302325581
sg29
F-1.1860465116279069
sg30
F0.3313953488372093
sg31
S'red'
p879
sbasba(icurlovision
StoneLayout
p880
(dp881
g23
F0.4791666666666667
sg24
(lp882
(icurlovision
Stone
p883
(dp884
g28
F4.796052631578947
sg29
F-0.19736842105263158
sg30
F0.3355263157894737
sg31
S'yellow'
p885
sba(icurlovision
Stone
p886
(dp887
g28
F11.348684210526315
sg29
F2.7236842105263155
sg30
F0.43421052631578944
sg31
S'yellow'
p888
sba(icurlovision
Stone
p889
(dp890
g28
F7.322368421052631
sg29
F1.3026315789473684
sg30
F0.256578947368421
sg31
S'red'
p891
sba(icurlovision
Stone
p892
(dp893
g28
F3.8486842105263155
sg29
F2.013157894736842
sg30
F0.3157894736842105
sg31
S'yellow'
p894
sba(icurlovision
Stone
p895
(dp896
g28
F1.519736842105263
sg29
F13.302631578947368
sg30
F0.4539473684210526
sg31
S'red'
p897
sba(icurlovision
Stone
p898
(dp899
g28
F-7.0855263157894735
sg29
F1.0657894736842104
sg30
F0.2763157894736842
sg31
S'red'
p900
sbasbasg3
I6
sg72
I1
sba(icurlovision
EndResult
p901
(dp902
g2
I8
sg10
(lp903
(I7
I7
tp904
a(I6
I5
tp905
a(I5
I5
tp906
a(I3
I3
tp907
a(I3
I2
tp908
a(I2
I2
tp909
a(I2
I1
tp910
a(I1
I1
tp911
a(I1
I0
tp912
asg18
I9
sg19
(lp913
(icurlovision
StoneLayout
p914
(dp915
g23
F0.4791666666666667
sg24
(lp916
(icurlovision
Stone
p917
(dp918
g28
F0.5581395348837209
sg29
F-0.6627906976744186
sg30
F0.3313953488372093
sg31
S'yellow'
p919
sba(icurlovision
Stone
p920
(dp921
g28
F8.825581395348838
sg29
F-2.6511627906976742
sg30
F0.47093023255813954
sg31
S'red'
p922
sba(icurlovision
Stone
p923
(dp924
g28
F9.244186046511627
sg29
F-12.941860465116278
sg30
F0.2616279069767442
sg31
S'yellow'
p925
sbasba(icurlovision
StoneLayout
p926
(dp927
g23
F0.4791666666666667
sg24
(lp928
(icurlovision
Stone
p929
(dp930
g28
F5.478260869565217
sg29
F-3.1956521739130435
sg30
F0.44021739130434784
sg31
S'red'
p931
sba(icurlovision
Stone
p932
(dp933
g28
F0.5217391304347826
sg29
F-0.5869565217391304
sg30
F0.32608695652173914
sg31
S'yellow'
p934
sba(icurlovision
Stone
p935
(dp936
g28
F1.7934782608695652
sg29
F-0.45652173913043476
sg30
F0.32608695652173914
sg31
S'yellow'
p937
sba(icurlovision
Stone
p938
(dp939
g28
F5.576086956521739
sg29
F-6.293478260869565
sg30
F0.45652173913043476
sg31
S'red'
p940
sba(icurlovision
Stone
p941
(dp942
g28
F4.826086956521739
sg29
F4.663043478260869
sg30
F0.45652173913043476
sg31
S'yellow'
p943
sba(icurlovision
Stone
p944
(dp945
g28
F10.043478260869565
sg29
F-12.032608695652174
sg30
F0.30978260869565216
sg31
S'yellow'
p946
sbasba(icurlovision
StoneLayout
p947
(dp948
g23
F0.4791666666666667
sg24
(lp949
(icurlovision
Stone
p950
(dp951
g28
F10.4625
sg29
F-3.675
sg30
F0.44999999999999996
sg31
S'red'
p952
sba(icurlovision
Stone
p953
(dp954
g28
F0.6
sg29
F-0.6375
sg30
F0.33749999999999997
sg31
S'yellow'
p955
sba(icurlovision
Stone
p956
(dp957
g28
F1.9124999999999999
sg29
F-0.525
sg30
F0.33749999999999997
sg31
S'yellow'
p958
sbasba(icurlovision
StoneLayout
p959
(dp960
g23
F0.4791666666666667
sg24
(lp961
(icurlovision
Stone
p962
(dp963
g28
F1.4716981132075473
sg29
F-2.617924528301887
sg30
F0.4528301886792453
sg31
S'red'
p964
sba(icurlovision
Stone
p965
(dp966
g28
F1.3867924528301887
sg29
F-0.09905660377358491
sg30
F0.42452830188679247
sg31
S'yellow'
p967
sba(icurlovision
Stone
p968
(dp969
g28
F5.5754716981132075
sg29
F-3.410377358490566
sg30
F0.2971698113207547
sg31
S'red'
p970
sba(icurlovision
Stone
p971
(dp972
g28
F-6.39622641509434
sg29
F-1.0613207547169812
sg30
F0.32547169811320753
sg31
S'yellow'
p973
sba(icurlovision
Stone
p974
(dp975
g28
F-4.584905660377359
sg29
F-1.6839622641509435
sg30
F0.3537735849056604
sg31
S'red'
p976
sbasba(icurlovision
StoneLayout
p977
(dp978
g23
F0.4791666666666667
sg24
(lp979
(icurlovision
Stone
p980
(dp981
g28
F1.514423076923077
sg29
F-2.5673076923076925
sg30
F0.44711538461538464
sg31
S'red'
p982
sba(icurlovision
Stone
p983
(dp984
g28
F2.0048076923076925
sg29
F1.125
sg30
F0.46153846153846156
sg31
S'red'
p985
sba(icurlovision
Stone
p986
(dp987
g28
F-6.360576923076923
sg29
F-1.125
sg30
F0.31730769230769235
sg31
S'yellow'
p988
sba(icurlovision
Stone
p989
(dp990
g28
F-6.475961538461539
sg29
F-2.9711538461538463
sg30
F0.4759615384615385
sg31
S'yellow'
p991
sbasba(icurlovision
StoneLayout
p992
(dp993
g23
F0.4791666666666667
sg24
(lp994
(icurlovision
Stone
p995
(dp996
g28
F1.4711538461538463
sg29
F-2.6105769230769234
sg30
F0.44711538461538464
sg31
S'red'
p997
sba(icurlovision
Stone
p998
(dp999
g28
F-6.403846153846154
sg29
F-1.0240384615384617
sg30
F0.44711538461538464
sg31
S'yellow'
p1000
sba(icurlovision
Stone
p1001
(dp1002
g28
F2.0480769230769234
sg29
F1.0817307692307694
sg30
F0.4326923076923077
sg31
S'red'
p1003
sbasba(icurlovision
StoneLayout
p1004
(dp1005
g23
F0.4791666666666667
sg24
(lp1006
(icurlovision
Stone
p1007
(dp1008
g28
F1.5865384615384617
sg29
F-1.7596153846153848
sg30
F0.3317307692307693
sg31
S'yellow'
p1009
sba(icurlovision
Stone
p1010
(dp1011
g28
F1.3846153846153846
sg29
F-3.1730769230769234
sg30
F0.3317307692307693
sg31
S'red'
p1012
sba(icurlovision
Stone
p1013
(dp1014
g28
F-6.548076923076923
sg29
F-1.0384615384615385
sg30
F0.3317307692307693
sg31
S'yellow'
p1015
sbasba(icurlovision
StoneLayout
p1016
(dp1017
g23
F0.4791666666666667
sg24
(lp1018
(icurlovision
Stone
p1019
(dp1020
g28
F2.1634615384615388
sg29
F-2.5384615384615388
sg30
F0.46153846153846156
sg31
S'red'
p1021
sba(icurlovision
Stone
p1022
(dp1023
g28
F1.4134615384615385
sg29
F-3.0865384615384617
sg30
F0.46153846153846156
sg31
S'red'
p1024
sbasba(icurlovision
StoneLayout
p1025
(dp1026
g23
F0.4791666666666667
sg24
(lp1027
(icurlovision
Stone
p1028
(dp1029
g28
F1.5272727272727271
sg29
F-6.777272727272727
sg30
F0.4636363636363636
sg31
S'yellow'
p1030
sbasbasg3
I6
sg72
I1
sba(icurlovision
EndResult
p1031
(dp1032
g2
I8
sg10
(lp1033
(I7
I6
tp1034
a(I5
I4
tp1035
a(I4
I4
tp1036
a(I2
I2
tp1037
a(I2
I1
tp1038
a(I1
I0
tp1039
asg18
I10
sg19
(lp1040
(icurlovision
StoneLayout
p1041
(dp1042
g23
F0.4791666666666667
sg24
(lp1043
(icurlovision
Stone
p1044
(dp1045
g28
F1.3223684210526314
sg29
F0.1381578947368421
sg30
F0.4539473684210526
sg31
S'yellow'
p1046
sba(icurlovision
Stone
p1047
(dp1048
g28
F13.361842105263158
sg29
F2.427631578947368
sg30
F0.41447368421052627
sg31
S'red'
p1049
sba(icurlovision
Stone
p1050
(dp1051
g28
F3.69078947368421
sg29
F2.7828947368421053
sg30
F0.4539473684210526
sg31
S'red'
p1052
sba(icurlovision
Stone
p1053
(dp1054
g28
F-3.8092105263157894
sg29
F0.375
sg30
F0.43421052631578944
sg31
S'red'
p1055
sbasba(icurlovision
StoneLayout
p1056
(dp1057
g23
F0.4791666666666667
sg24
(lp1058
(icurlovision
Stone
p1059
(dp1060
g28
F1.1890243902439024
sg29
F-1.847560975609756
sg30
F0.4390243902439024
sg31
S'yellow'
p1061
sba(icurlovision
Stone
p1062
(dp1063
g28
F0.823170731707317
sg29
F3.6036585365853657
sg30
F0.3475609756097561
sg31
S'yellow'
p1064
sba(icurlovision
Stone
p1065
(dp1066
g28
F3.201219512195122
sg29
F-7.152439024390244
sg30
F0.25609756097560976
sg31
S'red'
p1067
sba(icurlovision
Stone
p1068
(dp1069
g28
F-7.042682926829268
sg29
F2.5792682926829267
sg30
F0.3292682926829268
sg31
S'yellow'
p1070
sbasba(icurlovision
StoneLayout
p1071
(dp1072
g23
F0.4791666666666667
sg24
(lp1073
(icurlovision
Stone
p1074
(dp1075
g28
F0.7151162790697674
sg29
F-2.145348837209302
sg30
F0.313953488372093
sg31
S'yellow'
p1076
sba(icurlovision
Stone
p1077
(dp1078
g28
F-1.5174418604651163
sg29
F4.4476744186046515
sg30
F0.313953488372093
sg31
S'yellow'
p1079
sba(icurlovision
Stone
p1080
(dp1081
g28
F-2.4593023255813953
sg29
F6.436046511627907
sg30
F0.45348837209302323
sg31
S'yellow'
p1082
sba(icurlovision
Stone
p1083
(dp1084
g28
F-4.1686046511627906
sg29
F5.424418604651163
sg30
F0.313953488372093
sg31
S'red'
p1085
sbasba(icurlovision
StoneLayout
p1086
(dp1087
g23
F0.4791666666666667
sg24
(lp1088
(icurlovision
Stone
p1089
(dp1090
g28
F1.5669642857142856
sg29
F-2.611607142857143
sg30
F0.46875
sg31
S'red'
p1091
sba(icurlovision
Stone
p1092
(dp1093
g28
F-1.4866071428571428
sg29
F4.566964285714286
sg30
F0.36160714285714285
sg31
S'yellow'
p1094
sba(icurlovision
Stone
p1095
(dp1096
g28
F3.46875
sg29
F4.486607142857142
sg30
F0.30803571428571425
sg31
S'red'
p1097
sbasba(icurlovision
StoneLayout
p1098
(dp1099
g23
F0.4791666666666667
sg24
(lp1100
(icurlovision
Stone
p1101
(dp1102
g28
F-1.4274193548387097
sg29
F3.508064516129032
sg30
F0.32661290322580644
sg31
S'yellow'
p1103
sba(icurlovision
Stone
p1104
(dp1105
g28
F-2.3951612903225805
sg29
F7.016129032258064
sg30
F0.32661290322580644
sg31
S'yellow'
p1106
sba(icurlovision
Stone
p1107
(dp1108
g28
F3.3387096774193545
sg29
F4.330645161290322
sg30
F0.32661290322580644
sg31
S'red'
p1109
sbasba(icurlovision
StoneLayout
p1110
(dp1111
g23
F0.4791666666666667
sg24
(lp1112
(icurlovision
Stone
p1113
(dp1114
g28
F-2.4489795918367347
sg29
F7.11734693877551
sg30
F0.45918367346938777
sg31
S'yellow'
p1115
sba(icurlovision
Stone
p1116
(dp1117
g28
F4.163265306122449
sg29
F4.270408163265306
sg30
F0.44387755102040816
sg31
S'yellow'
p1118
sba(icurlovision
Stone
p1119
(dp1120
g28
F-2.357142857142857
sg29
F3.780612244897959
sg30
F0.3520408163265306
sg31
S'yellow'
p1121
sba(icurlovision
Stone
p1122
(dp1123
g28
F-0.5510204081632653
sg29
F3.596938775510204
sg30
F0.3520408163265306
sg31
S'red'
p1124
sba(icurlovision
Stone
p1125
(dp1126
g28
F5.755102040816326
sg29
F-0.8724489795918368
sg30
F0.30612244897959184
sg31
S'red'
p1127
sbasbasg3
I8
sg72
I1
sba(icurlovision
EndResult
p1128
(dp1129
g2
I8
sg10
(lp1130
(I5
I6
tp1131
a(I0
I1
tp1132
asg18
I11
sg19
(lp1133
(icurlovision
StoneLayout
p1134
(dp1135
g23
F0.4791666666666667
sg24
(lp1136
(icurlovision
Stone
p1137
(dp1138
g28
F10.614130434782608
sg29
F1.3858695652173914
sg30
F0.45652173913043476
sg31
S'red'
p1139
sba(icurlovision
Stone
p1140
(dp1141
g28
F0.375
sg29
F-0.6032608695652174
sg30
F0.32608695652173914
sg31
S'yellow'
p1142
sba(icurlovision
Stone
p1143
(dp1144
g28
F9.96195652173913
sg29
F-0.7663043478260869
sg30
F0.45652173913043476
sg31
S'red'
p1145
sba(icurlovision
Stone
p1146
(dp1147
g28
F11.722826086956522
sg29
F-1.842391304347826
sg30
F0.44021739130434784
sg31
S'red'
p1148
sba(icurlovision
Stone
p1149
(dp1150
g28
F6.048913043478261
sg29
F-4.679347826086956
sg30
F0.358695652173913
sg31
S'red'
p1151
sbasba(icurlovision
StoneLayout
p1152
(dp1153
g23
F0.4791666666666667
sg24
(lp1154
(icurlovision
Stone
p1155
(dp1156
g28
F-2.25
sg29
F-1.107142857142857
sg30
F0.46428571428571425
sg31
S'yellow'
p1157
sba(icurlovision
Stone
p1158
(dp1159
g28
F8.857142857142856
sg29
F-1.5357142857142856
sg30
F0.4464285714285714
sg31
S'red'
p1160
sba(icurlovision
Stone
p1161
(dp1162
g28
F11.785714285714285
sg29
F-1.857142857142857
sg30
F0.4464285714285714
sg31
S'red'
p1163
sba(icurlovision
Stone
p1164
(dp1165
g28
F0.25
sg29
F-0.6071428571428571
sg30
F0.2857142857142857
sg31
S'red'
p1166
sbasbasg3
I8
sg72
I0
sbasb.