(icurlovision
MatchResult
p0
(dp1
S'yel_score'
p2
I7
sS'name'
p3
S"VideoLibrary/PyeongChang.Olympics.2018.curling.men's.round-robin.USA.v.Canada.1080p.NBC.WEB-DL-FINFUNGUS.mp4"
p4
sS'end_results'
p5
(lp6
(icurlovision
EndResult
p7
(dp8
g2
I0
sS'stones_left'
p9
(lp10
(I8
I7
tp11
a(I7
I7
tp12
a(I6
I6
tp13
a(I5
I5
tp14
a(I4
I4
tp15
a(I3
I3
tp16
a(I3
I2
tp17
a(I2
I2
tp18
a(I2
I1
tp19
a(I1
I1
tp20
a(I1
I0
tp21
asS'end_num'
p22
I1
sS'stone_layouts'
p23
(lp24
(icurlovision
StoneLayout
p25
(dp26
S'stone_radius'
p27
F0.4791666666666667
sS'stones'
p28
(lp29
(icurlovision
Stone
p30
(dp31
S'y'
p32
F10.597826086956522
sS'x'
p33
F-1.5489130434782608
sS'r'
p34
F0.42391304347826086
sS'color'
p35
S'yellow'
p36
sbasba(icurlovision
StoneLayout
p37
(dp38
g27
F0.4791666666666667
sg28
(lp39
(icurlovision
Stone
p40
(dp41
g32
F1.5625
sg33
F-1.671875
sg34
F0.453125
sg35
S'red'
p42
sba(icurlovision
Stone
p43
(dp44
g32
F10.59375
sg33
F-1.546875
sg34
F0.296875
sg35
S'yellow'
p45
sbasba(icurlovision
StoneLayout
p46
(dp47
g27
F0.4791666666666667
sg28
(lp48
(icurlovision
Stone
p49
(dp50
g32
F10.304347826086957
sg33
F-1.434782608695652
sg34
F0.27717391304347827
sg35
S'yellow'
p51
sba(icurlovision
Stone
p52
(dp53
g32
F1.1739130434782608
sg33
F3.260869565217391
sg34
F0.42391304347826086
sg35
S'red'
p54
sba(icurlovision
Stone
p55
(dp56
g32
F1.5326086956521738
sg33
F-1.6304347826086956
sg34
F0.45652173913043476
sg35
S'red'
p57
sba(icurlovision
Stone
p58
(dp59
g32
F4.923913043478261
sg33
F-1.108695652173913
sg34
F0.32608695652173914
sg35
S'yellow'
p60
sbasba(icurlovision
StoneLayout
p61
(dp62
g27
F0.4791666666666667
sg28
(lp63
(icurlovision
Stone
p64
(dp65
g32
F5.1
sg33
F-1.1166666666666667
sg34
F0.35
sg35
S'yellow'
p66
sba(icurlovision
Stone
p67
(dp68
g32
F10.666666666666666
sg33
F-1.5166666666666666
sg34
F0.45
sg35
S'yellow'
p69
sba(icurlovision
Stone
p70
(dp71
g32
F1.6
sg33
F-1.6833333333333333
sg34
F0.26666666666666666
sg35
S'red'
p72
sba(icurlovision
Stone
p73
(dp74
g32
F1.8
sg33
F3.683333333333333
sg34
F0.26666666666666666
sg35
S'red'
p75
sbasba(icurlovision
StoneLayout
p76
(dp77
g27
F0.4791666666666667
sg28
(lp78
(icurlovision
Stone
p79
(dp80
g32
F1.65
sg33
F-1.7999999999999998
sg34
F0.46875
sg35
S'red'
p81
sba(icurlovision
Stone
p82
(dp83
g32
F11.1
sg33
F-1.6875
sg34
F0.46875
sg35
S'yellow'
p84
sba(icurlovision
Stone
p85
(dp86
g32
F-0.22499999999999998
sg33
F-0.7875
sg34
F0.46875
sg35
S'yellow'
p87
sba(icurlovision
Stone
p88
(dp89
g32
F5.0249999999999995
sg33
F-1.5
sg34
F0.31875
sg35
S'yellow'
p90
sba(icurlovision
Stone
p91
(dp92
g32
F-7.0874999999999995
sg33
F1.65
sg34
F0.4875
sg35
S'red'
p93
sbasba(icurlovision
StoneLayout
p94
(dp95
g27
F0.4791666666666667
sg28
(lp96
(icurlovision
Stone
p97
(dp98
g32
F-0.21428571428571427
sg33
F-0.75
sg34
F0.25
sg35
S'yellow'
p99
sba(icurlovision
Stone
p100
(dp101
g32
F7.642857142857142
sg33
F5.178571428571428
sg34
F0.4464285714285714
sg35
S'red'
p102
sba(icurlovision
Stone
p103
(dp104
g32
F2.107142857142857
sg33
F-0.9642857142857142
sg34
F0.33928571428571425
sg35
S'yellow'
p105
sba(icurlovision
Stone
p106
(dp107
g32
F4.821428571428571
sg33
F-1.4285714285714284
sg34
F0.30357142857142855
sg35
S'yellow'
p108
sba(icurlovision
Stone
p109
(dp110
g32
F1.5714285714285714
sg33
F-1.7142857142857142
sg34
F0.25
sg35
S'red'
p111
sbasba(icurlovision
StoneLayout
p112
(dp113
g27
F0.4791666666666667
sg28
(lp114
(icurlovision
Stone
p115
(dp116
g32
F2.125
sg33
F-0.9464285714285714
sg34
F0.4464285714285714
sg35
S'yellow'
p117
sba(icurlovision
Stone
p118
(dp119
g32
F-0.23214285714285712
sg33
F-0.7678571428571428
sg34
F0.33928571428571425
sg35
S'yellow'
p120
sba(icurlovision
Stone
p121
(dp122
g32
F7.625
sg33
F5.160714285714286
sg34
F0.42857142857142855
sg35
S'red'
p123
sba(icurlovision
Stone
p124
(dp125
g32
F14.053571428571427
sg33
F-0.875
sg34
F0.4107142857142857
sg35
S'yellow'
p126
sba(icurlovision
Stone
p127
(dp128
g32
F1.5892857142857142
sg33
F-1.6964285714285714
sg34
F0.33928571428571425
sg35
S'red'
p129
sba(icurlovision
Stone
p130
(dp131
g32
F4.875
sg33
F-1.4464285714285714
sg34
F0.39285714285714285
sg35
S'yellow'
p132
sbasba(icurlovision
StoneLayout
p133
(dp134
g27
F0.4791666666666667
sg28
(lp135
(icurlovision
Stone
p136
(dp137
g32
F7.636363636363636
sg33
F5.181818181818182
sg34
F0.4261363636363636
sg35
S'red'
p138
sba(icurlovision
Stone
p139
(dp140
g32
F-0.20454545454545453
sg33
F-0.7159090909090908
sg34
F0.4602272727272727
sg35
S'yellow'
p141
sba(icurlovision
Stone
p142
(dp143
g32
F2.1477272727272725
sg33
F-0.9545454545454545
sg34
F0.32386363636363635
sg35
S'yellow'
p144
sba(icurlovision
Stone
p145
(dp146
g32
F14.079545454545453
sg33
F-0.8181818181818181
sg34
F0.4261363636363636
sg35
S'yellow'
p147
sba(icurlovision
Stone
p148
(dp149
g32
F1.6363636363636362
sg33
F-1.7045454545454544
sg34
F0.2727272727272727
sg35
S'red'
p150
sba(icurlovision
Stone
p151
(dp152
g32
F4.840909090909091
sg33
F-1.3977272727272727
sg34
F0.30681818181818177
sg35
S'yellow'
p153
sba(icurlovision
Stone
p154
(dp155
g32
F-1.534090909090909
sg33
F-0.06818181818181818
sg34
F0.30681818181818177
sg35
S'red'
p156
sbasba(icurlovision
StoneLayout
p157
(dp158
g27
F0.4791666666666667
sg28
(lp159
sba(icurlovision
StoneLayout
p160
(dp161
g27
F0.4791666666666667
sg28
(lp162
(icurlovision
Stone
p163
(dp164
g32
F-0.20121951219512194
sg33
F-0.7134146341463414
sg34
F0.3292682926829268
sg35
S'yellow'
p165
sba(icurlovision
Stone
p166
(dp167
g32
F14.103658536585366
sg33
F-0.8597560975609756
sg34
F0.42073170731707316
sg35
S'yellow'
p168
sba(icurlovision
Stone
p169
(dp170
g32
F7.701219512195122
sg33
F5.213414634146341
sg34
F0.4390243902439024
sg35
S'red'
p171
sba(icurlovision
Stone
p172
(dp173
g32
F2.1402439024390243
sg33
F-0.9329268292682926
sg34
F0.31097560975609756
sg35
S'yellow'
p174
sba(icurlovision
Stone
p175
(dp176
g32
F0.23780487804878048
sg33
F0.12804878048780488
sg34
F0.3475609756097561
sg35
S'red'
p177
sba(icurlovision
Stone
p178
(dp179
g32
F4.884146341463414
sg33
F-1.4085365853658536
sg34
F0.31097560975609756
sg35
S'yellow'
p180
sba(icurlovision
Stone
p181
(dp182
g32
F1.6646341463414633
sg33
F-1.6646341463414633
sg34
F0.31097560975609756
sg35
S'red'
p183
sbasba(icurlovision
StoneLayout
p184
(dp185
g27
F0.4791666666666667
sg28
(lp186
(icurlovision
Stone
p187
(dp188
g32
F-1.053191489361702
sg33
F-1.4680851063829785
sg34
F0.44680851063829785
sg35
S'yellow'
p189
sba(icurlovision
Stone
p190
(dp191
g32
F7.148936170212766
sg33
F4.914893617021276
sg34
F0.4148936170212766
sg35
S'red'
p192
sba(icurlovision
Stone
p193
(dp194
g32
F13.180851063829786
sg33
F-0.702127659574468
sg34
F0.3670212765957446
sg35
S'yellow'
p195
sba(icurlovision
Stone
p196
(dp197
g32
F1.053191489361702
sg33
F0.2553191489361702
sg34
F0.3031914893617021
sg35
S'yellow'
p198
sba(icurlovision
Stone
p199
(dp200
g32
F4.531914893617021
sg33
F-1.276595744680851
sg34
F0.3031914893617021
sg35
S'yellow'
p201
sba(icurlovision
Stone
p202
(dp203
g32
F1.4680851063829785
sg33
F-1.5638297872340425
sg34
F0.44680851063829785
sg35
S'red'
p204
sba(icurlovision
Stone
p205
(dp206
g32
F1.978723404255319
sg33
F-0.8936170212765957
sg34
F0.33510638297872336
sg35
S'yellow'
p207
sba(icurlovision
Stone
p208
(dp209
g32
F-1.3723404255319147
sg33
F0.7659574468085106
sg34
F0.351063829787234
sg35
S'red'
p210
sbasbasS'red_score'
p211
I1
sS'red_hammer'
p212
I1
sba(icurlovision
EndResult
p213
(dp214
g2
I2
sg9
(lp215
(I7
I7
tp216
a(I6
I7
tp217
a(I5
I6
tp218
a(I5
I5
tp219
a(I4
I5
tp220
a(I4
I4
tp221
a(I3
I4
tp222
a(I3
I3
tp223
a(I2
I3
tp224
a(I1
I1
tp225
asg22
I2
sg23
(lp226
(icurlovision
StoneLayout
p227
(dp228
g27
F0.4791666666666667
sg28
(lp229
(icurlovision
Stone
p230
(dp231
g32
F0.5921052631578947
sg33
F-0.039473684210526314
sg34
F0.256578947368421
sg35
S'red'
p232
sba(icurlovision
Stone
p233
(dp234
g32
F15.078947368421051
sg33
F-3.2368421052631575
sg34
F0.43421052631578944
sg35
S'yellow'
p235
sbasba(icurlovision
StoneLayout
p236
(dp237
g27
F0.4791666666666667
sg28
(lp238
(icurlovision
Stone
p239
(dp240
g32
F15.121621621621623
sg33
F-3.2432432432432434
sg34
F0.4256756756756757
sg35
S'yellow'
p241
sba(icurlovision
Stone
p242
(dp243
g32
F4.905405405405405
sg33
F0.7702702702702703
sg34
F0.32432432432432434
sg35
S'red'
p244
sba(icurlovision
Stone
p245
(dp246
g32
F0.5675675675675675
sg33
F-0.04054054054054054
sg34
F0.26351351351351354
sg35
S'red'
p247
sbasba(icurlovision
StoneLayout
p248
(dp249
g27
F0.4791666666666667
sg28
(lp250
(icurlovision
Stone
p251
(dp252
g32
F3.7884615384615388
sg33
F3.6730769230769234
sg34
F0.44230769230769235
sg35
S'red'
p253
sba(icurlovision
Stone
p254
(dp255
g32
F15.134615384615385
sg33
F-3.25
sg34
F0.42307692307692313
sg35
S'yellow'
p256
sba(icurlovision
Stone
p257
(dp258
g32
F0.5576923076923077
sg33
F-0.019230769230769232
sg34
F0.25
sg35
S'red'
p259
sbasba(icurlovision
StoneLayout
p260
(dp261
g27
F0.4791666666666667
sg28
(lp262
(icurlovision
Stone
p263
(dp264
g32
F4.333333333333333
sg33
F4.625
sg34
F0.35416666666666663
sg35
S'yellow'
p265
sba(icurlovision
Stone
p266
(dp267
g32
F15.5
sg33
F-3.2916666666666665
sg34
F0.41666666666666663
sg35
S'yellow'
p268
sba(icurlovision
Stone
p269
(dp270
g32
F0.5833333333333333
sg33
F0.0
sg34
F0.25
sg35
S'red'
p271
sbasba(icurlovision
StoneLayout
p272
(dp273
g27
F0.4791666666666667
sg28
(lp274
(icurlovision
Stone
p275
(dp276
g32
F15.157894736842104
sg33
F-3.1973684210526314
sg34
F0.41447368421052627
sg35
S'yellow'
p277
sba(icurlovision
Stone
p278
(dp279
g32
F0.5921052631578947
sg33
F-1.263157894736842
sg34
F0.4539473684210526
sg35
S'red'
p280
sba(icurlovision
Stone
p281
(dp282
g32
F0.5921052631578947
sg33
F0.0
sg34
F0.4539473684210526
sg35
S'red'
p283
sbasba(icurlovision
StoneLayout
p284
(dp285
g27
F0.4791666666666667
sg28
(lp286
(icurlovision
Stone
p287
(dp288
g32
F15.0
sg33
F-3.230769230769231
sg34
F0.40384615384615385
sg35
S'yellow'
p289
sba(icurlovision
Stone
p290
(dp291
g32
F2.076923076923077
sg33
F-2.1153846153846154
sg34
F0.3076923076923077
sg35
S'yellow'
p292
sba(icurlovision
Stone
p293
(dp294
g32
F-4.307692307692308
sg33
F-5.269230769230769
sg34
F0.3269230769230769
sg35
S'red'
p295
sbasba(icurlovision
StoneLayout
p296
(dp297
g27
F0.4791666666666667
sg28
(lp298
(icurlovision
Stone
p299
(dp300
g32
F14.940789473684209
sg33
F-3.177631578947368
sg34
F0.41447368421052627
sg35
S'yellow'
p301
sba(icurlovision
Stone
p302
(dp303
g32
F2.8223684210526314
sg33
F-2.3486842105263155
sg34
F0.43421052631578944
sg35
S'red'
p304
sbasba(icurlovision
StoneLayout
p305
(dp306
g27
F0.4791666666666667
sg28
(lp307
(icurlovision
Stone
p308
(dp309
g32
F15.196428571428571
sg33
F-3.267857142857143
sg34
F0.4107142857142857
sg35
S'yellow'
p310
sba(icurlovision
Stone
p311
(dp312
g32
F3.446428571428571
sg33
F-1.4107142857142856
sg34
F0.4464285714285714
sg35
S'yellow'
p313
sbasba(icurlovision
StoneLayout
p314
(dp315
g27
F0.4791666666666667
sg28
(lp316
(icurlovision
Stone
p317
(dp318
g32
F14.859375
sg33
F-3.15625
sg34
F0.40625
sg35
S'yellow'
p319
sba(icurlovision
Stone
p320
(dp321
g32
F8.609375
sg33
F-0.375
sg34
F0.40625
sg35
S'yellow'
p322
sba(icurlovision
Stone
p323
(dp324
g32
F3.734375
sg33
F0.0
sg34
F0.453125
sg35
S'red'
p325
sba(icurlovision
Stone
p326
(dp327
g32
F14.328125
sg33
F-6.15625
sg34
F0.28125
sg35
S'yellow'
p328
sbasba(icurlovision
StoneLayout
p329
(dp330
g27
F0.4791666666666667
sg28
(lp331
(icurlovision
Stone
p332
(dp333
g32
F14.804347826086957
sg33
F-3.1956521739130435
sg34
F0.4076086956521739
sg35
S'yellow'
p334
sba(icurlovision
Stone
p335
(dp336
g32
F3.4239130434782608
sg33
F-3.4565217391304346
sg34
F0.44021739130434784
sg35
S'yellow'
p337
sba(icurlovision
Stone
p338
(dp339
g32
F2.3478260869565215
sg33
F-3.684782608695652
sg34
F0.32608695652173914
sg35
S'yellow'
p340
sbasbasg211
I1
sg212
I0
sba(icurlovision
EndResult
p341
(dp342
g2
I2
sg9
(lp343
(I7
I7
tp344
a(I6
I6
tp345
a(I6
I5
tp346
a(I5
I5
tp347
a(I5
I4
tp348
a(I4
I4
tp349
a(I4
I3
tp350
a(I3
I3
tp351
a(I3
I2
tp352
a(I2
I2
tp353
a(I2
I1
tp354
a(I1
I1
tp355
a(I1
I0
tp356
asg22
I3
sg23
(lp357
(icurlovision
StoneLayout
p358
(dp359
g27
F0.4791666666666667
sg28
(lp360
(icurlovision
Stone
p361
(dp362
g32
F11.30921052631579
sg33
F-3.177631578947368
sg34
F0.4539473684210526
sg35
S'red'
p363
sba(icurlovision
Stone
p364
(dp365
g32
F13.164473684210526
sg33
F0.09868421052631579
sg34
F0.43421052631578944
sg35
S'yellow'
p366
sbasba(icurlovision
StoneLayout
p367
(dp368
g27
F0.4791666666666667
sg28
(lp369
(icurlovision
Stone
p370
(dp371
g32
F7.8510638297872335
sg33
F-0.9574468085106382
sg34
F0.33510638297872336
sg35
S'yellow'
p372
sba(icurlovision
Stone
p373
(dp374
g32
F12.51063829787234
sg33
F0.1276595744680851
sg34
F0.4148936170212766
sg35
S'yellow'
p375
sba(icurlovision
Stone
p376
(dp377
g32
F10.75531914893617
sg33
F-2.9680851063829783
sg34
F0.4148936170212766
sg35
S'red'
p378
sba(icurlovision
Stone
p379
(dp380
g32
F1.4999999999999998
sg33
F-0.351063829787234
sg34
F0.3031914893617021
sg35
S'red'
p381
sbasba(icurlovision
StoneLayout
p382
(dp383
g27
F0.4791666666666667
sg28
(lp384
(icurlovision
Stone
p385
(dp386
g32
F11.13586956521739
sg33
F-3.0815217391304346
sg34
F0.44021739130434784
sg35
S'red'
p387
sba(icurlovision
Stone
p388
(dp389
g32
F8.13586956521739
sg33
F-0.9945652173913043
sg34
F0.32608695652173914
sg35
S'yellow'
p390
sba(icurlovision
Stone
p391
(dp392
g32
F2.4293478260869565
sg33
F-0.1467391304347826
sg34
F0.30978260869565216
sg35
S'yellow'
p393
sba(icurlovision
Stone
p394
(dp395
g32
F13.027173913043478
sg33
F0.1467391304347826
sg34
F0.32608695652173914
sg35
S'yellow'
p396
sba(icurlovision
Stone
p397
(dp398
g32
F0.8315217391304348
sg33
F-0.6684782608695652
sg34
F0.34239130434782605
sg35
S'red'
p399
sbasba(icurlovision
StoneLayout
p400
(dp401
g27
F0.4791666666666667
sg28
(lp402
(icurlovision
Stone
p403
(dp404
g32
F7.84375
sg33
F-0.9375
sg34
F0.421875
sg35
S'yellow'
p405
sba(icurlovision
Stone
p406
(dp407
g32
F3.25
sg33
F-0.03125
sg34
F0.453125
sg35
S'red'
p408
sba(icurlovision
Stone
p409
(dp410
g32
F10.8125
sg33
F-2.96875
sg34
F0.4375
sg35
S'red'
p411
sba(icurlovision
Stone
p412
(dp413
g32
F0.09375
sg33
F-0.9375
sg34
F0.359375
sg35
S'red'
p414
sba(icurlovision
Stone
p415
(dp416
g32
F12.5625
sg33
F0.15625
sg34
F0.421875
sg35
S'yellow'
p417
sba(icurlovision
Stone
p418
(dp419
g32
F1.5625
sg33
F-0.125
sg34
F0.296875
sg35
S'yellow'
p420
sbasba(icurlovision
StoneLayout
p421
(dp422
g27
F0.4791666666666667
sg28
(lp423
(icurlovision
Stone
p424
(dp425
g32
F7.809782608695652
sg33
F-0.9619565217391304
sg34
F0.42391304347826086
sg35
S'yellow'
p426
sba(icurlovision
Stone
p427
(dp428
g32
F3.0815217391304346
sg33
F-0.016304347826086956
sg34
F0.32608695652173914
sg35
S'red'
p429
sba(icurlovision
Stone
p430
(dp431
g32
F10.679347826086957
sg33
F-2.9510869565217392
sg34
F0.42391304347826086
sg35
S'red'
p432
sba(icurlovision
Stone
p433
(dp434
g32
F4.0271739130434785
sg33
F-0.5380434782608695
sg34
F0.30978260869565216
sg35
S'yellow'
p435
sba(icurlovision
Stone
p436
(dp437
g32
F12.440217391304348
sg33
F0.1467391304347826
sg34
F0.4076086956521739
sg35
S'yellow'
p438
sba(icurlovision
Stone
p439
(dp440
g32
F1.5489130434782608
sg33
F-0.1467391304347826
sg34
F0.30978260869565216
sg35
S'yellow'
p441
sba(icurlovision
Stone
p442
(dp443
g32
F0.11413043478260869
sg33
F-0.9619565217391304
sg34
F0.44021739130434784
sg35
S'red'
p444
sbasba(icurlovision
StoneLayout
p445
(dp446
g27
F0.4791666666666667
sg28
(lp447
(icurlovision
Stone
p448
(dp449
g32
F8.021739130434783
sg33
F-1.0108695652173914
sg34
F0.44021739130434784
sg35
S'yellow'
p450
sba(icurlovision
Stone
p451
(dp452
g32
F2.7065217391304346
sg33
F-0.2608695652173913
sg34
F0.44021739130434784
sg35
S'red'
p453
sba(icurlovision
Stone
p454
(dp455
g32
F1.5652173913043477
sg33
F-0.13043478260869565
sg34
F0.32608695652173914
sg35
S'yellow'
p456
sba(icurlovision
Stone
p457
(dp458
g32
F3.0978260869565215
sg33
F1.5652173913043477
sg34
F0.45652173913043476
sg35
S'red'
p459
sba(icurlovision
Stone
p460
(dp461
g32
F10.989130434782608
sg33
F-3.032608695652174
sg34
F0.42391304347826086
sg35
S'red'
p462
sba(icurlovision
Stone
p463
(dp464
g32
F0.09782608695652173
sg33
F-0.9782608695652174
sg34
F0.358695652173913
sg35
S'red'
p465
sba(icurlovision
Stone
p466
(dp467
g32
F12.815217391304348
sg33
F0.13043478260869565
sg34
F0.42391304347826086
sg35
S'yellow'
p468
sba(icurlovision
Stone
p469
(dp470
g32
F3.9782608695652173
sg33
F-0.75
sg34
F0.32608695652173914
sg35
S'yellow'
p471
sbasba(icurlovision
StoneLayout
p472
(dp473
g27
F0.4791666666666667
sg28
(lp474
(icurlovision
Stone
p475
(dp476
g32
F8.2875
sg33
F-1.0875
sg34
F0.44999999999999996
sg35
S'yellow'
p477
sba(icurlovision
Stone
p478
(dp479
g32
F11.362499999999999
sg33
F-3.1875
sg34
F0.44999999999999996
sg35
S'red'
p480
sba(icurlovision
Stone
p481
(dp482
g32
F13.237499999999999
sg33
F0.11249999999999999
sg34
F0.3
sg35
S'yellow'
p483
sba(icurlovision
Stone
p484
(dp485
g32
F1.6125
sg33
F-0.1875
sg34
F0.33749999999999997
sg35
S'yellow'
p486
sba(icurlovision
Stone
p487
(dp488
g32
F3.7125
sg33
F0.075
sg34
F0.33749999999999997
sg35
S'yellow'
p489
sba(icurlovision
Stone
p490
(dp491
g32
F2.475
sg33
F-0.5625
sg34
F0.46875
sg35
S'red'
p492
sba(icurlovision
Stone
p493
(dp494
g32
F0.11249999999999999
sg33
F-1.05
sg34
F0.35625
sg35
S'red'
p495
sba(icurlovision
Stone
p496
(dp497
g32
F4.1625
sg33
F-0.75
sg34
F0.375
sg35
S'yellow'
p498
sbasba(icurlovision
StoneLayout
p499
(dp500
g27
F0.4791666666666667
sg28
(lp501
(icurlovision
Stone
p502
(dp503
g32
F6.796875
sg33
F3.015625
sg34
F0.421875
sg35
S'red'
p504
sba(icurlovision
Stone
p505
(dp506
g32
F1.578125
sg33
F-0.140625
sg34
F0.328125
sg35
S'yellow'
p507
sba(icurlovision
Stone
p508
(dp509
g32
F10.984375
sg33
F-2.984375
sg34
F0.4375
sg35
S'red'
p510
sba(icurlovision
Stone
p511
(dp512
g32
F12.734375
sg33
F0.171875
sg34
F0.421875
sg35
S'yellow'
p513
sba(icurlovision
Stone
p514
(dp515
g32
F3.578125
sg33
F0.109375
sg34
F0.328125
sg35
S'yellow'
p516
sba(icurlovision
Stone
p517
(dp518
g32
F2.421875
sg33
F-0.515625
sg34
F0.34375
sg35
S'red'
p519
sba(icurlovision
Stone
p520
(dp521
g32
F0.078125
sg33
F-0.984375
sg34
F0.34375
sg35
S'red'
p522
sba(icurlovision
Stone
p523
(dp524
g32
F4.015625
sg33
F-0.734375
sg34
F0.328125
sg35
S'yellow'
p525
sba(icurlovision
Stone
p526
(dp527
g32
F6.265625
sg33
F-0.796875
sg34
F0.328125
sg35
S'yellow'
p528
sbasba(icurlovision
StoneLayout
p529
(dp530
g27
F0.4791666666666667
sg28
(lp531
(icurlovision
Stone
p532
(dp533
g32
F10.766666666666666
sg33
F-2.933333333333333
sg34
F0.43333333333333335
sg35
S'red'
p534
sba(icurlovision
Stone
p535
(dp536
g32
F3.2333333333333334
sg33
F0.3
sg34
F0.4166666666666667
sg35
S'yellow'
p537
sba(icurlovision
Stone
p538
(dp539
g32
F1.5333333333333332
sg33
F-0.13333333333333333
sg34
F0.31666666666666665
sg35
S'yellow'
p540
sba(icurlovision
Stone
p541
(dp542
g32
F12.533333333333333
sg33
F0.16666666666666666
sg34
F0.4166666666666667
sg35
S'yellow'
p543
sba(icurlovision
Stone
p544
(dp545
g32
F6.633333333333333
sg33
F3.0
sg34
F0.31666666666666665
sg35
S'red'
p546
sba(icurlovision
Stone
p547
(dp548
g32
F3.033333333333333
sg33
F-1.1
sg34
F0.43333333333333335
sg35
S'yellow'
p549
sba(icurlovision
Stone
p550
(dp551
g32
F4.766666666666667
sg33
F-0.5
sg34
F0.3
sg35
S'yellow'
p552
sba(icurlovision
Stone
p553
(dp554
g32
F2.4
sg33
F-0.4666666666666667
sg34
F0.36666666666666664
sg35
S'red'
p555
sbasba(icurlovision
StoneLayout
p556
(dp557
g27
F0.4791666666666667
sg28
(lp558
(icurlovision
Stone
p559
(dp560
g32
F6.967105263157895
sg33
F3.138157894736842
sg34
F0.4539473684210526
sg35
S'red'
p561
sba(icurlovision
Stone
p562
(dp563
g32
F1.9539473684210524
sg33
F-1.9539473684210524
sg34
F0.3355263157894737
sg35
S'yellow'
p564
sba(icurlovision
Stone
p565
(dp566
g32
F2.427631578947368
sg33
F-0.4934210526315789
sg34
F0.3355263157894737
sg35
S'red'
p567
sba(icurlovision
Stone
p568
(dp569
g32
F11.269736842105262
sg33
F-3.0986842105263155
sg34
F0.4539473684210526
sg35
S'red'
p570
sba(icurlovision
Stone
p571
(dp572
g32
F3.9671052631578947
sg33
F-0.7302631578947368
sg34
F0.3355263157894737
sg35
S'yellow'
p573
sba(icurlovision
Stone
p574
(dp575
g32
F13.164473684210526
sg33
F0.21710526315789472
sg34
F0.41447368421052627
sg35
S'yellow'
p576
sba(icurlovision
Stone
p577
(dp578
g32
F1.5986842105263157
sg33
F-0.1381578947368421
sg34
F0.256578947368421
sg35
S'yellow'
p579
sba(icurlovision
Stone
p580
(dp581
g32
F0.09868421052631579
sg33
F-0.9671052631578947
sg34
F0.47368421052631576
sg35
S'red'
p582
sba(icurlovision
Stone
p583
(dp584
g32
F4.519736842105263
sg33
F-2.901315789473684
sg34
F0.35526315789473684
sg35
S'red'
p585
sbasba(icurlovision
StoneLayout
p586
(dp587
g27
F0.4791666666666667
sg28
(lp588
(icurlovision
Stone
p589
(dp590
g32
F1.875
sg33
F-1.9107142857142856
sg34
F0.4464285714285714
sg35
S'yellow'
p591
sba(icurlovision
Stone
p592
(dp593
g32
F6.732142857142857
sg33
F2.9821428571428568
sg34
F0.42857142857142855
sg35
S'red'
p594
sba(icurlovision
Stone
p595
(dp596
g32
F10.910714285714285
sg33
F-3.017857142857143
sg34
F0.42857142857142855
sg35
S'red'
p597
sba(icurlovision
Stone
p598
(dp599
g32
F3.839285714285714
sg33
F-0.7321428571428571
sg34
F0.3214285714285714
sg35
S'yellow'
p600
sba(icurlovision
Stone
p601
(dp602
g32
F-0.375
sg33
F-1.375
sg34
F0.4464285714285714
sg35
S'red'
p603
sba(icurlovision
Stone
p604
(dp605
g32
F-3.517857142857143
sg33
F3.7321428571428568
sg34
F0.3214285714285714
sg35
S'yellow'
p606
sba(icurlovision
Stone
p607
(dp608
g32
F2.339285714285714
sg33
F-0.5535714285714285
sg34
F0.4464285714285714
sg35
S'red'
p609
sba(icurlovision
Stone
p610
(dp611
g32
F0.9107142857142857
sg33
F-0.6607142857142857
sg34
F0.33928571428571425
sg35
S'yellow'
p612
sba(icurlovision
Stone
p613
(dp614
g32
F12.732142857142856
sg33
F0.1607142857142857
sg34
F0.42857142857142855
sg35
S'yellow'
p615
sba(icurlovision
Stone
p616
(dp617
g32
F4.375
sg33
F-2.875
sg34
F0.25
sg35
S'red'
p618
sbasba(icurlovision
StoneLayout
p619
(dp620
g27
F0.4791666666666667
sg28
(lp621
(icurlovision
Stone
p622
(dp623
g32
F11.089285714285714
sg33
F-3.0357142857142856
sg34
F0.42857142857142855
sg35
S'red'
p624
sba(icurlovision
Stone
p625
(dp626
g32
F3.9107142857142856
sg33
F-0.6785714285714285
sg34
F0.3214285714285714
sg35
S'yellow'
p627
sba(icurlovision
Stone
p628
(dp629
g32
F0.9464285714285714
sg33
F-0.6071428571428571
sg34
F0.3214285714285714
sg35
S'yellow'
p630
sba(icurlovision
Stone
p631
(dp632
g32
F2.767857142857143
sg33
F-1.607142857142857
sg34
F0.33928571428571425
sg35
S'red'
p633
sba(icurlovision
Stone
p634
(dp635
g32
F6.8392857142857135
sg33
F3.0357142857142856
sg34
F0.25
sg35
S'red'
p636
sba(icurlovision
Stone
p637
(dp638
g32
F2.375
sg33
F-0.5357142857142857
sg34
F0.4464285714285714
sg35
S'red'
p639
sba(icurlovision
Stone
p640
(dp641
g32
F12.910714285714285
sg33
F0.17857142857142855
sg34
F0.30357142857142855
sg35
S'yellow'
p642
sba(icurlovision
Stone
p643
(dp644
g32
F4.482142857142857
sg33
F-2.892857142857143
sg34
F0.3214285714285714
sg35
S'red'
p645
sba(icurlovision
Stone
p646
(dp647
g32
F-3.589285714285714
sg33
F3.821428571428571
sg34
F0.33928571428571425
sg35
S'yellow'
p648
sba(icurlovision
Stone
p649
(dp650
g32
F-0.4107142857142857
sg33
F-1.357142857142857
sg34
F0.3571428571428571
sg35
S'red'
p651
sbasba(icurlovision
StoneLayout
p652
(dp653
g27
F0.4791666666666667
sg28
(lp654
(icurlovision
Stone
p655
(dp656
g32
F2.696428571428571
sg33
F-1.607142857142857
sg34
F0.33928571428571425
sg35
S'red'
p657
sba(icurlovision
Stone
p658
(dp659
g32
F6.660714285714286
sg33
F2.964285714285714
sg34
F0.42857142857142855
sg35
S'red'
p660
sba(icurlovision
Stone
p661
(dp662
g32
F14.160714285714285
sg33
F-1.607142857142857
sg34
F0.4107142857142857
sg35
S'yellow'
p663
sba(icurlovision
Stone
p664
(dp665
g32
F10.767857142857142
sg33
F-2.964285714285714
sg34
F0.42857142857142855
sg35
S'red'
p666
sba(icurlovision
Stone
p667
(dp668
g32
F3.8035714285714284
sg33
F-0.6785714285714285
sg34
F0.3214285714285714
sg35
S'yellow'
p669
sba(icurlovision
Stone
p670
(dp671
g32
F12.553571428571427
sg33
F0.14285714285714285
sg34
F0.30357142857142855
sg35
S'yellow'
p672
sba(icurlovision
Stone
p673
(dp674
g32
F0.9464285714285714
sg33
F-0.6071428571428571
sg34
F0.2857142857142857
sg35
S'yellow'
p675
sba(icurlovision
Stone
p676
(dp677
g32
F-0.375
sg33
F-1.357142857142857
sg34
F0.3214285714285714
sg35
S'red'
p678
sba(icurlovision
Stone
p679
(dp680
g32
F2.339285714285714
sg33
F-0.5357142857142857
sg34
F0.42857142857142855
sg35
S'red'
p681
sba(icurlovision
Stone
p682
(dp683
g32
F4.267857142857142
sg33
F-2.8571428571428568
sg34
F0.39285714285714285
sg35
S'red'
p684
sbasbasg211
I3
sg212
I1
sba(icurlovision
EndResult
p685
(dp686
g2
I3
sg9
(lp687
(I7
I8
tp688
a(I6
I7
tp689
a(I6
I6
tp690
a(I5
I5
tp691
a(I4
I5
tp692
a(I4
I4
tp693
a(I3
I4
tp694
a(I3
I3
tp695
a(I2
I3
tp696
a(I2
I2
tp697
a(I1
I2
tp698
a(I1
I1
tp699
a(I0
I1
tp700
asg22
I4
sg23
(lp701
(icurlovision
StoneLayout
p702
(dp703
g27
F0.4791666666666667
sg28
(lp704
(icurlovision
Stone
p705
(dp706
g32
F1.8954545454545453
sg33
F1.1045454545454545
sg34
F0.32727272727272727
sg35
S'red'
p707
sbasba(icurlovision
StoneLayout
p708
(dp709
g27
F0.4791666666666667
sg28
(lp710
(icurlovision
Stone
p711
(dp712
g32
F13.255102040816325
sg33
F0.6122448979591837
sg34
F0.413265306122449
sg35
S'red'
p713
sba(icurlovision
Stone
p714
(dp715
g32
F11.66326530612245
sg33
F-3.0
sg34
F0.42857142857142855
sg35
S'yellow'
p716
sba(icurlovision
Stone
p717
(dp718
g32
F1.316326530612245
sg33
F1.316326530612245
sg34
F0.44387755102040816
sg35
S'red'
p719
sbasba(icurlovision
StoneLayout
p720
(dp721
g27
F0.4791666666666667
sg28
(lp722
(icurlovision
Stone
p723
(dp724
g32
F12.229166666666666
sg33
F-3.1041666666666665
sg34
F0.4375
sg35
S'yellow'
p725
sba(icurlovision
Stone
p726
(dp727
g32
F1.9791666666666665
sg33
F0.5625
sg34
F0.29166666666666663
sg35
S'yellow'
p728
sba(icurlovision
Stone
p729
(dp730
g32
F13.895833333333332
sg33
F0.6875
sg34
F0.25
sg35
S'red'
p731
sba(icurlovision
Stone
p732
(dp733
g32
F-5.104166666666666
sg33
F2.4791666666666665
sg34
F0.25
sg35
S'red'
p734
sba(icurlovision
Stone
p735
(dp736
g32
F-5.020833333333333
sg33
F-0.35416666666666663
sg34
F0.2708333333333333
sg35
S'red'
p737
sbasba(icurlovision
StoneLayout
p738
(dp739
g27
F0.4791666666666667
sg28
(lp740
(icurlovision
Stone
p741
(dp742
g32
F2.8010204081632653
sg33
F0.6887755102040816
sg34
F0.44387755102040816
sg35
S'yellow'
p743
sba(icurlovision
Stone
p744
(dp745
g32
F1.913265306122449
sg33
F0.596938775510204
sg34
F0.3214285714285714
sg35
S'yellow'
p746
sba(icurlovision
Stone
p747
(dp748
g32
F12.994897959183673
sg33
F0.7193877551020408
sg34
F0.3979591836734694
sg35
S'red'
p749
sba(icurlovision
Stone
p750
(dp751
g32
F11.494897959183673
sg33
F-2.8316326530612246
sg34
F0.413265306122449
sg35
S'yellow'
p752
sbasba(icurlovision
StoneLayout
p753
(dp754
g27
F0.4791666666666667
sg28
(lp755
(icurlovision
Stone
p756
(dp757
g32
F2.8902439024390243
sg33
F0.6951219512195121
sg34
F0.3475609756097561
sg35
S'yellow'
p758
sba(icurlovision
Stone
p759
(dp760
g32
F-0.18292682926829268
sg33
F0.5121951219512195
sg34
F0.3475609756097561
sg35
S'yellow'
p761
sba(icurlovision
Stone
p762
(dp763
g32
F-2.3048780487804876
sg33
F-0.14634146341463414
sg34
F0.4390243902439024
sg35
S'red'
p764
sba(icurlovision
Stone
p765
(dp766
g32
F11.890243902439023
sg33
F-3.0365853658536586
sg34
F0.42073170731707316
sg35
S'yellow'
p767
sba(icurlovision
Stone
p768
(dp769
g32
F13.5
sg33
F0.6219512195121951
sg34
F0.42073170731707316
sg35
S'red'
p770
sba(icurlovision
Stone
p771
(dp772
g32
F3.8048780487804876
sg33
F0.6219512195121951
sg34
F0.3475609756097561
sg35
S'red'
p773
sbasba(icurlovision
StoneLayout
p774
(dp775
g27
F0.4791666666666667
sg28
(lp776
(icurlovision
Stone
p777
(dp778
g32
F-2.27027027027027
sg33
F2.4729729729729732
sg34
F0.46621621621621623
sg35
S'yellow'
p779
sba(icurlovision
Stone
p780
(dp781
g32
F2.8783783783783785
sg33
F0.6891891891891893
sg34
F0.46621621621621623
sg35
S'yellow'
p782
sba(icurlovision
Stone
p783
(dp784
g32
F-2.27027027027027
sg33
F-0.08108108108108109
sg34
F0.32432432432432434
sg35
S'red'
p785
sba(icurlovision
Stone
p786
(dp787
g32
F13.5
sg33
F0.7297297297297298
sg34
F0.28378378378378377
sg35
S'red'
p788
sba(icurlovision
Stone
p789
(dp790
g32
F11.837837837837839
sg33
F-3.040540540540541
sg34
F0.26351351351351354
sg35
S'yellow'
p791
sba(icurlovision
Stone
p792
(dp793
g32
F3.7702702702702706
sg33
F0.6486486486486487
sg34
F0.3445945945945946
sg35
S'red'
p794
sba(icurlovision
Stone
p795
(dp796
g32
F0.28378378378378377
sg33
F-0.972972972972973
sg34
F0.26351351351351354
sg35
S'red'
p797
sbasba(icurlovision
StoneLayout
p798
(dp799
g27
F0.4791666666666667
sg28
(lp800
(icurlovision
Stone
p801
(dp802
g32
F-2.310810810810811
sg33
F2.4729729729729732
sg34
F0.44594594594594594
sg35
S'yellow'
p803
sba(icurlovision
Stone
p804
(dp805
g32
F3.7702702702702706
sg33
F0.8513513513513514
sg34
F0.44594594594594594
sg35
S'red'
p806
sba(icurlovision
Stone
p807
(dp808
g32
F-4.5
sg33
F1.4594594594594597
sg34
F0.30405405405405406
sg35
S'yellow'
p809
sba(icurlovision
Stone
p810
(dp811
g32
F13.540540540540542
sg33
F0.8918918918918919
sg34
F0.44594594594594594
sg35
S'red'
p812
sba(icurlovision
Stone
p813
(dp814
g32
F11.95945945945946
sg33
F-2.8783783783783785
sg34
F0.44594594594594594
sg35
S'yellow'
p815
sba(icurlovision
Stone
p816
(dp817
g32
F2.837837837837838
sg33
F-1.7837837837837838
sg34
F0.44594594594594594
sg35
S'red'
p818
sbasba(icurlovision
StoneLayout
p819
(dp820
g27
F0.4791666666666667
sg28
(lp821
(icurlovision
Stone
p822
(dp823
g32
F-2.2884615384615388
sg33
F2.480769230769231
sg34
F0.3269230769230769
sg35
S'yellow'
p824
sba(icurlovision
Stone
p825
(dp826
g32
F11.75
sg33
F-2.903846153846154
sg34
F0.44230769230769235
sg35
S'yellow'
p827
sba(icurlovision
Stone
p828
(dp829
g32
F13.365384615384617
sg33
F0.75
sg34
F0.42307692307692313
sg35
S'red'
p830
sba(icurlovision
Stone
p831
(dp832
g32
F-2.2884615384615388
sg33
F-0.13461538461538464
sg34
F0.3076923076923077
sg35
S'red'
p833
sba(icurlovision
Stone
p834
(dp835
g32
F-4.403846153846154
sg33
F1.4807692307692308
sg34
F0.34615384615384615
sg35
S'yellow'
p836
sba(icurlovision
Stone
p837
(dp838
g32
F0.5576923076923077
sg33
F-0.5576923076923077
sg34
F0.3269230769230769
sg35
S'yellow'
p839
sba(icurlovision
Stone
p840
(dp841
g32
F0.25
sg33
F3.9423076923076925
sg34
F0.46153846153846156
sg35
S'red'
p842
sba(icurlovision
Stone
p843
(dp844
g32
F2.1346153846153846
sg33
F-3.1730769230769234
sg34
F0.3653846153846154
sg35
S'red'
p845
sbasba(icurlovision
StoneLayout
p846
(dp847
g27
F0.4791666666666667
sg28
(lp848
(icurlovision
Stone
p849
(dp850
g32
F-2.289473684210526
sg33
F2.526315789473684
sg34
F0.3355263157894737
sg35
S'yellow'
p851
sba(icurlovision
Stone
p852
(dp853
g32
F13.5
sg33
F0.7105263157894737
sg34
F0.43421052631578944
sg35
S'red'
p854
sba(icurlovision
Stone
p855
(dp856
g32
F0.3157894736842105
sg33
F4.026315789473684
sg34
F0.47368421052631576
sg35
S'red'
p857
sba(icurlovision
Stone
p858
(dp859
g32
F11.921052631578947
sg33
F-3.0
sg34
F0.43421052631578944
sg35
S'yellow'
p860
sba(icurlovision
Stone
p861
(dp862
g32
F-2.289473684210526
sg33
F-0.07894736842105263
sg34
F0.3355263157894737
sg35
S'red'
p863
sba(icurlovision
Stone
p864
(dp865
g32
F0.5526315789473684
sg33
F1.381578947368421
sg34
F0.3355263157894737
sg35
S'red'
p866
sba(icurlovision
Stone
p867
(dp868
g32
F2.131578947368421
sg33
F-3.1973684210526314
sg34
F0.43421052631578944
sg35
S'red'
p869
sba(icurlovision
Stone
p870
(dp871
g32
F-4.4605263157894735
sg33
F1.5394736842105263
sg34
F0.3157894736842105
sg35
S'yellow'
p872
sbasba(icurlovision
StoneLayout
p873
(dp874
g27
F0.4791666666666667
sg28
(lp875
(icurlovision
Stone
p876
(dp877
g32
F13.5
sg33
F0.6538461538461539
sg34
F0.42307692307692313
sg35
S'red'
p878
sba(icurlovision
Stone
p879
(dp880
g32
F1.3461538461538463
sg33
F1.8076923076923077
sg34
F0.44230769230769235
sg35
S'yellow'
p881
sba(icurlovision
Stone
p882
(dp883
g32
F-2.3461538461538463
sg33
F-0.15384615384615385
sg34
F0.2884615384615385
sg35
S'red'
p884
sba(icurlovision
Stone
p885
(dp886
g32
F11.884615384615385
sg33
F-3.0384615384615388
sg34
F0.44230769230769235
sg35
S'yellow'
p887
sba(icurlovision
Stone
p888
(dp889
g32
F0.3076923076923077
sg33
F4.0
sg34
F0.25
sg35
S'red'
p890
sba(icurlovision
Stone
p891
(dp892
g32
F-2.307692307692308
sg33
F2.4615384615384617
sg34
F0.3269230769230769
sg35
S'yellow'
p893
sba(icurlovision
Stone
p894
(dp895
g32
F2.153846153846154
sg33
F-3.2692307692307696
sg34
F0.2692307692307693
sg35
S'red'
p896
sba(icurlovision
Stone
p897
(dp898
g32
F-4.461538461538462
sg33
F1.4615384615384617
sg34
F0.2884615384615385
sg35
S'yellow'
p899
sbasba(icurlovision
StoneLayout
p900
(dp901
g27
F0.4791666666666667
sg28
(lp902
(icurlovision
Stone
p903
(dp904
g32
F-2.3541666666666665
sg33
F2.5625
sg34
F0.3333333333333333
sg35
S'yellow'
p905
sba(icurlovision
Stone
p906
(dp907
g32
F2.270833333333333
sg33
F2.0625
sg34
F0.47916666666666663
sg35
S'red'
p908
sba(icurlovision
Stone
p909
(dp910
g32
F13.8125
sg33
F0.6875
sg34
F0.41666666666666663
sg35
S'red'
p911
sba(icurlovision
Stone
p912
(dp913
g32
F12.1875
sg33
F-3.0625
sg34
F0.4375
sg35
S'yellow'
p914
sba(icurlovision
Stone
p915
(dp916
g32
F-2.3541666666666665
sg33
F-0.10416666666666666
sg34
F0.3333333333333333
sg35
S'red'
p917
sba(icurlovision
Stone
p918
(dp919
g32
F0.2708333333333333
sg33
F4.104166666666666
sg34
F0.47916666666666663
sg35
S'red'
p920
sba(icurlovision
Stone
p921
(dp922
g32
F-4.395833333333333
sg33
F-0.22916666666666666
sg34
F0.3333333333333333
sg35
S'yellow'
p923
sba(icurlovision
Stone
p924
(dp925
g32
F2.1875
sg33
F-3.3541666666666665
sg34
F0.3125
sg35
S'red'
p926
sbasba(icurlovision
StoneLayout
p927
(dp928
g27
F0.4791666666666667
sg28
(lp929
(icurlovision
Stone
p930
(dp931
g32
F-2.25
sg33
F2.4375
sg34
F0.46875
sg35
S'yellow'
p932
sba(icurlovision
Stone
p933
(dp934
g32
F2.2125
sg33
F1.95
sg34
F0.44999999999999996
sg35
S'red'
p935
sba(icurlovision
Stone
p936
(dp937
g32
F13.4625
sg33
F0.6749999999999999
sg34
F0.43124999999999997
sg35
S'red'
p938
sba(icurlovision
Stone
p939
(dp940
g32
F-4.2375
sg33
F-0.22499999999999998
sg34
F0.46875
sg35
S'yellow'
p941
sba(icurlovision
Stone
p942
(dp943
g32
F11.85
sg33
F-3.0375
sg34
F0.28125
sg35
S'yellow'
p944
sba(icurlovision
Stone
p945
(dp946
g32
F-2.5875
sg33
F-0.15
sg34
F0.46875
sg35
S'red'
p947
sba(icurlovision
Stone
p948
(dp949
g32
F-1.5374999999999999
sg33
F0.44999999999999996
sg34
F0.33749999999999997
sg35
S'yellow'
p950
sba(icurlovision
Stone
p951
(dp952
g32
F2.1374999999999997
sg33
F-3.2624999999999997
sg34
F0.24375
sg35
S'red'
p953
sba(icurlovision
Stone
p954
(dp955
g32
F0.3
sg33
F3.9375
sg34
F0.31875
sg35
S'red'
p956
sbasba(icurlovision
StoneLayout
p957
(dp958
g27
F0.4791666666666667
sg28
(lp959
(icurlovision
Stone
p960
(dp961
g32
F-2.3092105263157894
sg33
F2.506578947368421
sg34
F0.47368421052631576
sg35
S'yellow'
p962
sba(icurlovision
Stone
p963
(dp964
g32
F-2.625
sg33
F-0.1381578947368421
sg34
F0.3355263157894737
sg35
S'red'
p965
sba(icurlovision
Stone
p966
(dp967
g32
F2.269736842105263
sg33
F2.0328947368421053
sg34
F0.3355263157894737
sg35
S'red'
p968
sba(icurlovision
Stone
p969
(dp970
g32
F12.05921052631579
sg33
F-3.0592105263157894
sg34
F0.3355263157894737
sg35
S'yellow'
p971
sba(icurlovision
Stone
p972
(dp973
g32
F13.63815789473684
sg33
F0.6907894736842105
sg34
F0.43421052631578944
sg35
S'red'
p974
sba(icurlovision
Stone
p975
(dp976
g32
F-2.7828947368421053
sg33
F-2.7434210526315788
sg34
F0.47368421052631576
sg35
S'red'
p977
sba(icurlovision
Stone
p978
(dp979
g32
F-4.3618421052631575
sg33
F-0.21710526315789472
sg34
F0.35526315789473684
sg35
S'yellow'
p980
sba(icurlovision
Stone
p981
(dp982
g32
F2.1907894736842106
sg33
F-3.256578947368421
sg34
F0.2763157894736842
sg35
S'red'
p983
sba(icurlovision
Stone
p984
(dp985
g32
F0.29605263157894735
sg33
F4.006578947368421
sg34
F0.47368421052631576
sg35
S'red'
p986
sbasbasg211
I3
sg212
I0
sba(icurlovision
EndResult
p987
(dp988
g2
I3
sg9
(lp989
(I7
I7
tp990
a(I7
I6
tp991
a(I6
I6
tp992
a(I5
I5
tp993
a(I5
I4
tp994
a(I4
I4
tp995
a(I4
I3
tp996
a(I3
I3
tp997
a(I3
I2
tp998
a(I2
I2
tp999
a(I2
I1
tp1000
a(I1
I1
tp1001
asg22
I5
sg23
(lp1002
(icurlovision
StoneLayout
p1003
(dp1004
g27
F0.4791666666666667
sg28
(lp1005
(icurlovision
Stone
p1006
(dp1007
g32
F10.813953488372093
sg33
F-0.41860465116279066
sg34
F0.47093023255813954
sg35
S'yellow'
p1008
sba(icurlovision
Stone
p1009
(dp1010
g32
F-4.77906976744186
sg33
F-1.7093023255813953
sg34
F0.47093023255813954
sg35
S'red'
p1011
sbasba(icurlovision
StoneLayout
p1012
(dp1013
g27
F0.4791666666666667
sg28
(lp1014
(icurlovision
Stone
p1015
(dp1016
g32
F10.767857142857142
sg33
F-0.4464285714285714
sg34
F0.4464285714285714
sg35
S'yellow'
p1017
sba(icurlovision
Stone
p1018
(dp1019
g32
F-6.375
sg33
F1.8035714285714284
sg34
F0.2857142857142857
sg35
S'yellow'
p1020
sbasba(icurlovision
StoneLayout
p1021
(dp1022
g27
F0.4791666666666667
sg28
(lp1023
(icurlovision
Stone
p1024
(dp1025
g32
F-6.401162790697675
sg33
F1.7616279069767442
sg34
F0.436046511627907
sg35
S'yellow'
p1026
sba(icurlovision
Stone
p1027
(dp1028
g32
F10.691860465116278
sg33
F-0.47093023255813954
sg34
F0.47093023255813954
sg35
S'yellow'
p1029
sba(icurlovision
Stone
p1030
(dp1031
g32
F1.4825581395348837
sg33
F-0.47093023255813954
sg34
F0.2441860465116279
sg35
S'red'
p1032
sbasba(icurlovision
StoneLayout
p1033
(dp1034
g27
F0.4791666666666667
sg28
(lp1035
(icurlovision
Stone
p1036
(dp1037
g32
F-6.283333333333333
sg33
F1.75
sg34
F0.3333333333333333
sg35
S'yellow'
p1038
sba(icurlovision
Stone
p1039
(dp1040
g32
F10.483333333333333
sg33
F-0.48333333333333334
sg34
F0.45
sg35
S'yellow'
p1041
sba(icurlovision
Stone
p1042
(dp1043
g32
F2.95
sg33
F-0.6166666666666667
sg34
F0.31666666666666665
sg35
S'red'
p1044
sba(icurlovision
Stone
p1045
(dp1046
g32
F2.183333333333333
sg33
F-0.05
sg34
F0.45
sg35
S'yellow'
p1047
sba(icurlovision
Stone
p1048
(dp1049
g32
F1.05
sg33
F-0.7166666666666667
sg34
F0.3333333333333333
sg35
S'red'
p1050
sba(icurlovision
Stone
p1051
(dp1052
g32
F8.816666666666666
sg33
F-5.116666666666666
sg34
F0.3
sg35
S'yellow'
p1053
sbasba(icurlovision
StoneLayout
p1054
(dp1055
g27
F0.4791666666666667
sg28
(lp1056
(icurlovision
Stone
p1057
(dp1058
g32
F-6.453488372093023
sg33
F1.7790697674418605
sg34
F0.45348837209302323
sg35
S'yellow'
p1059
sba(icurlovision
Stone
p1060
(dp1061
g32
F10.848837209302326
sg33
F-0.45348837209302323
sg34
F0.47093023255813954
sg35
S'yellow'
p1062
sba(icurlovision
Stone
p1063
(dp1064
g32
F3.0
sg33
F0.5930232558139534
sg34
F0.45348837209302323
sg35
S'yellow'
p1065
sba(icurlovision
Stone
p1066
(dp1067
g32
F2.895348837209302
sg33
F-0.8023255813953488
sg34
F0.27906976744186046
sg35
S'red'
p1068
sba(icurlovision
Stone
p1069
(dp1070
g32
F2.302325581395349
sg33
F-0.03488372093023256
sg34
F0.3488372093023256
sg35
S'yellow'
p1071
sba(icurlovision
Stone
p1072
(dp1073
g32
F1.0813953488372092
sg33
F-0.7325581395348837
sg34
F0.27906976744186046
sg35
S'red'
p1074
sbasba(icurlovision
StoneLayout
p1075
(dp1076
g27
F0.4791666666666667
sg28
(lp1077
(icurlovision
Stone
p1078
(dp1079
g32
F1.691860465116279
sg33
F1.5174418604651163
sg34
F0.45348837209302323
sg35
S'yellow'
p1080
sba(icurlovision
Stone
p1081
(dp1082
g32
F-6.436046511627907
sg33
F1.7965116279069768
sg34
F0.4883720930232558
sg35
S'yellow'
p1083
sba(icurlovision
Stone
p1084
(dp1085
g32
F2.5290697674418605
sg33
F-1.0988372093023255
sg34
F0.45348837209302323
sg35
S'red'
p1086
sba(icurlovision
Stone
p1087
(dp1088
g32
F1.7616279069767442
sg33
F-0.05232558139534883
sg34
F0.2965116279069767
sg35
S'yellow'
p1089
sba(icurlovision
Stone
p1090
(dp1091
g32
F10.796511627906977
sg33
F-0.436046511627907
sg34
F0.45348837209302323
sg35
S'yellow'
p1092
sba(icurlovision
Stone
p1093
(dp1094
g32
F3.6802325581395348
sg33
F-0.4011627906976744
sg34
F0.313953488372093
sg35
S'red'
p1095
sba(icurlovision
Stone
p1096
(dp1097
g32
F1.0290697674418605
sg33
F-0.8197674418604651
sg34
F0.3488372093023256
sg35
S'red'
p1098
sbasba(icurlovision
StoneLayout
p1099
(dp1100
g27
F0.4791666666666667
sg28
(lp1101
(icurlovision
Stone
p1102
(dp1103
g32
F2.5
sg33
F-1.0666666666666667
sg34
F0.4666666666666667
sg35
S'red'
p1104
sba(icurlovision
Stone
p1105
(dp1106
g32
F1.6666666666666667
sg33
F1.4666666666666666
sg34
F0.4666666666666667
sg35
S'yellow'
p1107
sba(icurlovision
Stone
p1108
(dp1109
g32
F1.7333333333333334
sg33
F0.0
sg34
F0.3333333333333333
sg35
S'yellow'
p1110
sba(icurlovision
Stone
p1111
(dp1112
g32
F1.0
sg33
F-0.8333333333333334
sg34
F0.35
sg35
S'red'
p1113
sba(icurlovision
Stone
p1114
(dp1115
g32
F3.5666666666666664
sg33
F-0.43333333333333335
sg34
F0.31666666666666665
sg35
S'red'
p1116
sba(icurlovision
Stone
p1117
(dp1118
g32
F3.6999999999999997
sg33
F0.4666666666666667
sg34
F0.3
sg35
S'yellow'
p1119
sba(icurlovision
Stone
p1120
(dp1121
g32
F10.966666666666667
sg33
F0.06666666666666667
sg34
F0.4166666666666667
sg35
S'red'
p1122
sba(icurlovision
Stone
p1123
(dp1124
g32
F5.266666666666667
sg33
F-0.8333333333333334
sg34
F0.3333333333333333
sg35
S'yellow'
p1125
sbasba(icurlovision
StoneLayout
p1126
(dp1127
g27
F0.4791666666666667
sg28
(lp1128
(icurlovision
Stone
p1129
(dp1130
g32
F1.6914893617021276
sg33
F1.4680851063829785
sg34
F0.3191489361702127
sg35
S'yellow'
p1131
sba(icurlovision
Stone
p1132
(dp1133
g32
F0.351063829787234
sg33
F-6.76595744680851
sg34
F0.3191489361702127
sg35
S'yellow'
p1134
sba(icurlovision
Stone
p1135
(dp1136
g32
F2.457446808510638
sg33
F-1.0851063829787233
sg34
F0.3191489361702127
sg35
S'red'
p1137
sba(icurlovision
Stone
p1138
(dp1139
g32
F11.138297872340425
sg33
F0.15957446808510636
sg34
F0.4308510638297872
sg35
S'red'
p1140
sba(icurlovision
Stone
p1141
(dp1142
g32
F3.702127659574468
sg33
F0.5106382978723404
sg34
F0.44680851063829785
sg35
S'yellow'
p1143
sba(icurlovision
Stone
p1144
(dp1145
g32
F2.585106382978723
sg33
F0.1276595744680851
sg34
F0.4627659574468085
sg35
S'red'
p1146
sba(icurlovision
Stone
p1147
(dp1148
g32
F1.0212765957446808
sg33
F-0.8297872340425532
sg34
F0.33510638297872336
sg35
S'red'
p1149
sbasba(icurlovision
StoneLayout
p1150
(dp1151
g27
F0.4791666666666667
sg28
(lp1152
(icurlovision
Stone
p1153
(dp1154
g32
F1.691860465116279
sg33
F1.4825581395348837
sg34
F0.47093023255813954
sg35
S'yellow'
p1155
sba(icurlovision
Stone
p1156
(dp1157
g32
F2.5988372093023258
sg33
F0.0872093023255814
sg34
F0.313953488372093
sg35
S'red'
p1158
sba(icurlovision
Stone
p1159
(dp1160
g32
F3.7151162790697674
sg33
F0.47093023255813954
sg34
F0.436046511627907
sg35
S'yellow'
p1161
sba(icurlovision
Stone
p1162
(dp1163
g32
F11.215116279069766
sg33
F0.12209302325581395
sg34
F0.436046511627907
sg35
S'red'
p1164
sba(icurlovision
Stone
p1165
(dp1166
g32
F0.05232558139534883
sg33
F-4.238372093023256
sg34
F0.27906976744186046
sg35
S'red'
p1167
sba(icurlovision
Stone
p1168
(dp1169
g32
F3.3313953488372094
sg33
F-0.9941860465116279
sg34
F0.2965116279069767
sg35
S'yellow'
p1170
sbasba(icurlovision
StoneLayout
p1171
(dp1172
g27
F0.4791666666666667
sg28
(lp1173
(icurlovision
Stone
p1174
(dp1175
g32
F2.652439024390244
sg33
F0.09146341463414634
sg34
F0.45731707317073167
sg35
S'red'
p1176
sba(icurlovision
Stone
p1177
(dp1178
g32
F0.0548780487804878
sg33
F-4.335365853658536
sg34
F0.47560975609756095
sg35
S'red'
p1179
sba(icurlovision
Stone
p1180
(dp1181
g32
F1.6646341463414633
sg33
F1.4817073170731707
sg34
F0.45731707317073167
sg35
S'yellow'
p1182
sba(icurlovision
Stone
p1183
(dp1184
g32
F3.201219512195122
sg33
F1.4817073170731707
sg34
F0.45731707317073167
sg35
S'yellow'
p1185
sba(icurlovision
Stone
p1186
(dp1187
g32
F11.396341463414634
sg33
F0.1646341463414634
sg34
F0.4390243902439024
sg35
S'red'
p1188
sba(icurlovision
Stone
p1189
(dp1190
g32
F4.079268292682927
sg33
F-0.3841463414634146
sg34
F0.45731707317073167
sg35
S'red'
p1191
sbasba(icurlovision
StoneLayout
p1192
(dp1193
g27
F0.4791666666666667
sg28
(lp1194
(icurlovision
Stone
p1195
(dp1196
g32
F1.6964285714285714
sg33
F1.482142857142857
sg34
F0.33928571428571425
sg35
S'yellow'
p1197
sba(icurlovision
Stone
p1198
(dp1199
g32
F3.2321428571428568
sg33
F1.5178571428571428
sg34
F0.33928571428571425
sg35
S'yellow'
p1200
sba(icurlovision
Stone
p1201
(dp1202
g32
F1.5535714285714284
sg33
F-0.8035714285714285
sg34
F0.33928571428571425
sg35
S'yellow'
p1203
sba(icurlovision
Stone
p1204
(dp1205
g32
F11.410714285714285
sg33
F0.1607142857142857
sg34
F0.4464285714285714
sg35
S'red'
p1206
sba(icurlovision
Stone
p1207
(dp1208
g32
F2.6607142857142856
sg33
F0.08928571428571427
sg34
F0.46428571428571425
sg35
S'red'
p1209
sba(icurlovision
Stone
p1210
(dp1211
g32
F0.08928571428571427
sg33
F-4.339285714285714
sg34
F0.46428571428571425
sg35
S'red'
p1212
sba(icurlovision
Stone
p1213
(dp1214
g32
F4.125
sg33
F-0.375
sg34
F0.3571428571428571
sg35
S'red'
p1215
sbasba(icurlovision
StoneLayout
p1216
(dp1217
g27
F0.4791666666666667
sg28
(lp1218
(icurlovision
Stone
p1219
(dp1220
g32
F3.208333333333333
sg33
F1.5138888888888888
sg34
F0.3333333333333333
sg35
S'yellow'
p1221
sba(icurlovision
Stone
p1222
(dp1223
g32
F2.6527777777777777
sg33
F0.09722222222222221
sg34
F0.3472222222222222
sg35
S'red'
p1224
sba(icurlovision
Stone
p1225
(dp1226
g32
F1.6805555555555554
sg33
F1.486111111111111
sg34
F0.4722222222222222
sg35
S'yellow'
p1227
sba(icurlovision
Stone
p1228
(dp1229
g32
F1.486111111111111
sg33
F-0.7916666666666666
sg34
F0.3472222222222222
sg35
S'yellow'
p1230
sba(icurlovision
Stone
p1231
(dp1232
g32
F4.041666666666666
sg33
F-0.375
sg34
F0.3611111111111111
sg35
S'red'
p1233
sba(icurlovision
Stone
p1234
(dp1235
g32
F0.041666666666666664
sg33
F-4.319444444444445
sg34
F0.3194444444444444
sg35
S'red'
p1236
sbasbasg211
I4
sg212
I1
sba(icurlovision
EndResult
p1237
(dp1238
g2
I3
sg9
(lp1239
(I7
I8
tp1240
a(I5
I6
tp1241
a(I5
I5
tp1242
a(I4
I5
tp1243
a(I4
I4
tp1244
a(I3
I4
tp1245
a(I3
I3
tp1246
a(I2
I3
tp1247
a(I2
I2
tp1248
a(I1
I2
tp1249
a(I1
I1
tp1250
a(I0
I1
tp1251
asg22
I6
sg23
(lp1252
(icurlovision
StoneLayout
p1253
(dp1254
g27
F0.4791666666666667
sg28
(lp1255
(icurlovision
Stone
p1256
(dp1257
g32
F1.4825581395348837
sg33
F0.8546511627906976
sg34
F0.2616279069767442
sg35
S'red'
p1258
sbasba(icurlovision
StoneLayout
p1259
(dp1260
g27
F0.4791666666666667
sg28
(lp1261
(icurlovision
Stone
p1262
(dp1263
g32
F10.18421052631579
sg33
F-3.552631578947368
sg34
F0.43421052631578944
sg35
S'yellow'
p1264
sba(icurlovision
Stone
p1265
(dp1266
g32
F7.184210526315789
sg33
F0.11842105263157894
sg34
F0.3157894736842105
sg35
S'red'
p1267
sba(icurlovision
Stone
p1268
(dp1269
g32
F0.8289473684210525
sg33
F-0.7894736842105263
sg34
F0.47368421052631576
sg35
S'yellow'
p1270
sbasba(icurlovision
StoneLayout
p1271
(dp1272
g27
F0.4791666666666667
sg28
(lp1273
sba(icurlovision
StoneLayout
p1274
(dp1275
g27
F0.4791666666666667
sg28
(lp1276
(icurlovision
Stone
p1277
(dp1278
g32
F7.053571428571428
sg33
F2.1607142857142856
sg34
F0.2857142857142857
sg35
S'yellow'
p1279
sba(icurlovision
Stone
p1280
(dp1281
g32
F10.089285714285714
sg33
F-3.517857142857143
sg34
F0.4464285714285714
sg35
S'yellow'
p1282
sba(icurlovision
Stone
p1283
(dp1284
g32
F11.053571428571429
sg33
F0.6607142857142857
sg34
F0.42857142857142855
sg35
S'red'
p1285
sba(icurlovision
Stone
p1286
(dp1287
g32
F1.0178571428571428
sg33
F0.7678571428571428
sg34
F0.30357142857142855
sg35
S'red'
p1288
sbasba(icurlovision
StoneLayout
p1289
(dp1290
g27
F0.4791666666666667
sg28
(lp1291
(icurlovision
Stone
p1292
(dp1293
g32
F7.0
sg33
F2.142857142857143
sg34
F0.3571428571428571
sg35
S'yellow'
p1294
sba(icurlovision
Stone
p1295
(dp1296
g32
F10.0
sg33
F-3.5
sg34
F0.4464285714285714
sg35
S'yellow'
p1297
sba(icurlovision
Stone
p1298
(dp1299
g32
F11.392857142857142
sg33
F-0.39285714285714285
sg34
F0.33928571428571425
sg35
S'yellow'
p1300
sba(icurlovision
Stone
p1301
(dp1302
g32
F-0.07142857142857142
sg33
F-1.0714285714285714
sg34
F0.46428571428571425
sg35
S'red'
p1303
sbasba(icurlovision
StoneLayout
p1304
(dp1305
g27
F0.4791666666666667
sg28
(lp1306
(icurlovision
Stone
p1307
(dp1308
g32
F6.933333333333334
sg33
F2.0666666666666664
sg34
F0.45
sg35
S'yellow'
p1309
sba(icurlovision
Stone
p1310
(dp1311
g32
F-0.06666666666666667
sg33
F-1.1
sg34
F0.26666666666666666
sg35
S'red'
p1312
sba(icurlovision
Stone
p1313
(dp1314
g32
F9.9
sg33
F-3.5
sg34
F0.43333333333333335
sg35
S'yellow'
p1315
sba(icurlovision
Stone
p1316
(dp1317
g32
F11.233333333333333
sg33
F-0.4
sg34
F0.43333333333333335
sg35
S'yellow'
p1318
sba(icurlovision
Stone
p1319
(dp1320
g32
F5.566666666666666
sg33
F-0.6333333333333333
sg34
F0.35
sg35
S'red'
p1321
sbasba(icurlovision
StoneLayout
p1322
(dp1323
g27
F0.4791666666666667
sg28
(lp1324
(icurlovision
Stone
p1325
(dp1326
g32
F-1.225609756097561
sg33
F2.451219512195122
sg34
F0.45731707317073167
sg35
S'red'
p1327
sba(icurlovision
Stone
p1328
(dp1329
g32
F12.201219512195122
sg33
F-0.14634146341463414
sg34
F0.45731707317073167
sg35
S'yellow'
p1330
sba(icurlovision
Stone
p1331
(dp1332
g32
F10.189024390243901
sg33
F-3.621951219512195
sg34
F0.36585365853658536
sg35
S'yellow'
p1333
sba(icurlovision
Stone
p1334
(dp1335
g32
F7.115853658536585
sg33
F2.1585365853658534
sg34
F0.3292682926829268
sg35
S'yellow'
p1336
sba(icurlovision
Stone
p1337
(dp1338
g32
F6.530487804878049
sg33
F-0.6585365853658536
sg34
F0.45731707317073167
sg35
S'yellow'
p1339
sbasba(icurlovision
StoneLayout
p1340
(dp1341
g27
F0.4791666666666667
sg28
(lp1342
(icurlovision
Stone
p1343
(dp1344
g32
F6.390625
sg33
F2.359375
sg34
F0.4375
sg35
S'yellow'
p1345
sba(icurlovision
Stone
p1346
(dp1347
g32
F-1.203125
sg33
F2.453125
sg34
F0.328125
sg35
S'red'
p1348
sba(icurlovision
Stone
p1349
(dp1350
g32
F6.421875
sg33
F-0.609375
sg34
F0.453125
sg35
S'yellow'
p1351
sba(icurlovision
Stone
p1352
(dp1353
g32
F11.984375
sg33
F-0.109375
sg34
F0.4375
sg35
S'yellow'
p1354
sba(icurlovision
Stone
p1355
(dp1356
g32
F9.984375
sg33
F-3.484375
sg34
F0.359375
sg35
S'yellow'
p1357
sba(icurlovision
Stone
p1358
(dp1359
g32
F6.703125
sg33
F0.484375
sg34
F0.4375
sg35
S'red'
p1360
sbasba(icurlovision
StoneLayout
p1361
(dp1362
g27
F0.4791666666666667
sg28
(lp1363
(icurlovision
Stone
p1364
(dp1365
g32
F-1.2
sg33
F2.4
sg34
F0.45
sg35
S'red'
p1366
sba(icurlovision
Stone
p1367
(dp1368
g32
F7.166666666666667
sg33
F-0.5666666666666667
sg34
F0.3
sg35
S'yellow'
p1369
sba(icurlovision
Stone
p1370
(dp1371
g32
F6.566666666666666
sg33
F0.5
sg34
F0.43333333333333335
sg35
S'red'
p1372
sba(icurlovision
Stone
p1373
(dp1374
g32
F6.266666666666667
sg33
F2.3666666666666667
sg34
F0.4166666666666667
sg35
S'yellow'
p1375
sba(icurlovision
Stone
p1376
(dp1377
g32
F9.733333333333333
sg33
F-3.3666666666666667
sg34
F0.4166666666666667
sg35
S'yellow'
p1378
sba(icurlovision
Stone
p1379
(dp1380
g32
F0.4666666666666667
sg33
F-0.8
sg34
F0.35
sg35
S'yellow'
p1381
sba(icurlovision
Stone
p1382
(dp1383
g32
F11.7
sg33
F-0.1
sg34
F0.3333333333333333
sg35
S'yellow'
p1384
sbasba(icurlovision
StoneLayout
p1385
(dp1386
g27
F0.4791666666666667
sg28
(lp1387
(icurlovision
Stone
p1388
(dp1389
g32
F6.296875
sg33
F2.328125
sg34
F0.4375
sg35
S'yellow'
p1390
sba(icurlovision
Stone
p1391
(dp1392
g32
F-1.203125
sg33
F2.390625
sg34
F0.453125
sg35
S'red'
p1393
sba(icurlovision
Stone
p1394
(dp1395
g32
F9.859375
sg33
F-3.453125
sg34
F0.296875
sg35
S'yellow'
p1396
sba(icurlovision
Stone
p1397
(dp1398
g32
F7.203125
sg33
F-0.578125
sg34
F0.4375
sg35
S'yellow'
p1399
sba(icurlovision
Stone
p1400
(dp1401
g32
F0.109375
sg33
F-0.703125
sg34
F0.328125
sg35
S'yellow'
p1402
sba(icurlovision
Stone
p1403
(dp1404
g32
F6.609375
sg33
F0.453125
sg34
F0.28125
sg35
S'red'
p1405
sba(icurlovision
Stone
p1406
(dp1407
g32
F1.265625
sg33
F-1.203125
sg34
F0.453125
sg35
S'red'
p1408
sba(icurlovision
Stone
p1409
(dp1410
g32
F11.859375
sg33
F-0.140625
sg34
F0.390625
sg35
S'yellow'
p1411
sbasba(icurlovision
StoneLayout
p1412
(dp1413
g27
F0.4791666666666667
sg28
(lp1414
(icurlovision
Stone
p1415
(dp1416
g32
F-1.2127659574468084
sg33
F2.4255319148936167
sg34
F0.4627659574468085
sg35
S'red'
p1417
sba(icurlovision
Stone
p1418
(dp1419
g32
F6.702127659574468
sg33
F0.5106382978723404
sg34
F0.44680851063829785
sg35
S'red'
p1420
sba(icurlovision
Stone
p1421
(dp1422
g32
F6.382978723404255
sg33
F2.4255319148936167
sg34
F0.3031914893617021
sg35
S'yellow'
p1423
sba(icurlovision
Stone
p1424
(dp1425
g32
F1.851063829787234
sg33
F-0.4787234042553191
sg34
F0.33510638297872336
sg35
S'yellow'
p1426
sba(icurlovision
Stone
p1427
(dp1428
g32
F0.1276595744680851
sg33
F-0.6702127659574467
sg34
F0.4627659574468085
sg35
S'yellow'
p1429
sba(icurlovision
Stone
p1430
(dp1431
g32
F9.925531914893616
sg33
F-3.4468085106382977
sg34
F0.4627659574468085
sg35
S'yellow'
p1432
sba(icurlovision
Stone
p1433
(dp1434
g32
F7.276595744680851
sg33
F-0.5425531914893617
sg34
F0.351063829787234
sg35
S'yellow'
p1435
sba(icurlovision
Stone
p1436
(dp1437
g32
F1.1489361702127658
sg33
F-1.2127659574468084
sg34
F0.4627659574468085
sg35
S'red'
p1438
sba(icurlovision
Stone
p1439
(dp1440
g32
F11.936170212765957
sg33
F-0.06382978723404255
sg34
F0.28723404255319146
sg35
S'yellow'
p1441
sbasba(icurlovision
StoneLayout
p1442
(dp1443
g27
F0.4791666666666667
sg28
(lp1444
(icurlovision
Stone
p1445
(dp1446
g32
F6.470930232558139
sg33
F2.38953488372093
sg34
F0.45348837209302323
sg35
S'yellow'
p1447
sba(icurlovision
Stone
p1448
(dp1449
g32
F-2.9127906976744184
sg33
F1.3430232558139534
sg34
F0.47093023255813954
sg35
S'yellow'
p1450
sba(icurlovision
Stone
p1451
(dp1452
g32
F1.9011627906976745
sg33
F-0.5058139534883721
sg34
F0.3313953488372093
sg35
S'yellow'
p1453
sba(icurlovision
Stone
p1454
(dp1455
g32
F7.412790697674419
sg33
F-0.6104651162790697
sg34
F0.3488372093023256
sg35
S'yellow'
p1456
sba(icurlovision
Stone
p1457
(dp1458
g32
F-1.2383720930232558
sg33
F2.4593023255813953
sg34
F0.47093023255813954
sg35
S'red'
p1459
sba(icurlovision
Stone
p1460
(dp1461
g32
F6.819767441860465
sg33
F0.47093023255813954
sg34
F0.2616279069767442
sg35
S'red'
p1462
sba(icurlovision
Stone
p1463
(dp1464
g32
F0.9941860465116279
sg33
F-1.0290697674418605
sg34
F0.45348837209302323
sg35
S'red'
p1465
sba(icurlovision
Stone
p1466
(dp1467
g32
F10.098837209302326
sg33
F-3.5406976744186047
sg34
F0.3488372093023256
sg35
S'yellow'
p1468
sba(icurlovision
Stone
p1469
(dp1470
g32
F12.122093023255815
sg33
F-0.1569767441860465
sg34
F0.38372093023255816
sg35
S'yellow'
p1471
sbasbasg211
I5
sg212
I0
sba(icurlovision
EndResult
p1472
(dp1473
g2
I4
sg9
(lp1474
(I7
I7
tp1475
a(I6
I6
tp1476
a(I5
I5
tp1477
a(I4
I5
tp1478
a(I4
I4
tp1479
a(I3
I4
tp1480
a(I3
I3
tp1481
a(I2
I3
tp1482
a(I2
I2
tp1483
a(I1
I2
tp1484
a(I1
I1
tp1485
a(I0
I1
tp1486
asg22
I7
sg23
(lp1487
(icurlovision
StoneLayout
p1488
(dp1489
g27
F0.4791666666666667
sg28
(lp1490
(icurlovision
Stone
p1491
(dp1492
g32
F12.091463414634145
sg33
F2.670731707317073
sg34
F0.3475609756097561
sg35
S'yellow'
p1493
sba(icurlovision
Stone
p1494
(dp1495
g32
F-0.6768292682926829
sg33
F-0.7682926829268292
sg34
F0.3475609756097561
sg35
S'red'
p1496
sbasba(icurlovision
StoneLayout
p1497
(dp1498
g27
F0.4791666666666667
sg28
(lp1499
(icurlovision
Stone
p1500
(dp1501
g32
F-1.8238636363636362
sg33
F3.5624999999999996
sg34
F0.4602272727272727
sg35
S'yellow'
p1502
sba(icurlovision
Stone
p1503
(dp1504
g32
F11.8125
sg33
F2.7102272727272725
sg34
F0.4431818181818181
sg35
S'yellow'
p1505
sba(icurlovision
Stone
p1506
(dp1507
g32
F-0.6647727272727272
sg33
F-0.7670454545454545
sg34
F0.47727272727272724
sg35
S'red'
p1508
sba(icurlovision
Stone
p1509
(dp1510
g32
F-2.642045454545454
sg33
F-4.039772727272727
sg34
F0.3579545454545454
sg35
S'red'
p1511
sbasba(icurlovision
StoneLayout
p1512
(dp1513
g27
F0.4791666666666667
sg28
(lp1514
(icurlovision
Stone
p1515
(dp1516
g32
F-1.875
sg33
F3.578125
sg34
F0.34375
sg35
S'yellow'
p1517
sba(icurlovision
Stone
p1518
(dp1519
g32
F9.4375
sg33
F3.046875
sg34
F0.296875
sg35
S'yellow'
p1520
sba(icurlovision
Stone
p1521
(dp1522
g32
F-0.6875
sg33
F-0.734375
sg34
F0.46875
sg35
S'red'
p1523
sba(icurlovision
Stone
p1524
(dp1525
g32
F-2.625
sg33
F-4.015625
sg34
F0.34375
sg35
S'red'
p1526
sbasba(icurlovision
StoneLayout
p1527
(dp1528
g27
F0.4791666666666667
sg28
(lp1529
(icurlovision
Stone
p1530
(dp1531
g32
F-1.8080357142857142
sg33
F3.508928571428571
sg34
F0.3482142857142857
sg35
S'yellow'
p1532
sba(icurlovision
Stone
p1533
(dp1534
g32
F-0.6294642857142857
sg33
F-0.7232142857142857
sg34
F0.3214285714285714
sg35
S'red'
p1535
sbasba(icurlovision
StoneLayout
p1536
(dp1537
g27
F0.4791666666666667
sg28
(lp1538
(icurlovision
Stone
p1539
(dp1540
g32
F12.607142857142856
sg33
F2.714285714285714
sg34
F0.42857142857142855
sg35
S'yellow'
p1541
sba(icurlovision
Stone
p1542
(dp1543
g32
F-1.7857142857142856
sg33
F3.464285714285714
sg34
F0.3214285714285714
sg35
S'yellow'
p1544
sba(icurlovision
Stone
p1545
(dp1546
g32
F-2.571428571428571
sg33
F-3.892857142857143
sg34
F0.3214285714285714
sg35
S'red'
p1547
sba(icurlovision
Stone
p1548
(dp1549
g32
F-0.6428571428571428
sg33
F-0.75
sg34
F0.3571428571428571
sg35
S'red'
p1550
sbasba(icurlovision
StoneLayout
p1551
(dp1552
g27
F0.4791666666666667
sg28
(lp1553
(icurlovision
Stone
p1554
(dp1555
g32
F-4.05
sg33
F5.15625
sg34
F0.44999999999999996
sg35
S'yellow'
p1556
sba(icurlovision
Stone
p1557
(dp1558
g32
F12.9
sg33
F2.7937499999999997
sg34
F0.44999999999999996
sg35
S'yellow'
p1559
sba(icurlovision
Stone
p1560
(dp1561
g32
F-2.5875
sg33
F-3.95625
sg34
F0.35625
sg35
S'red'
p1562
sba(icurlovision
Stone
p1563
(dp1564
g32
F-0.6375
sg33
F-0.73125
sg34
F0.33749999999999997
sg35
S'red'
p1565
sba(icurlovision
Stone
p1566
(dp1567
g32
F-5.1375
sg33
F0.13125
sg34
F0.28125
sg35
S'red'
p1568
sbasba(icurlovision
StoneLayout
p1569
(dp1570
g27
F0.4791666666666667
sg28
(lp1571
(icurlovision
Stone
p1572
(dp1573
g32
F-4.03125
sg33
F5.1187499999999995
sg34
F0.44999999999999996
sg35
S'yellow'
p1574
sba(icurlovision
Stone
p1575
(dp1576
g32
F12.80625
sg33
F2.7937499999999997
sg34
F0.4125
sg35
S'yellow'
p1577
sba(icurlovision
Stone
p1578
(dp1579
g32
F-2.56875
sg33
F-3.95625
sg34
F0.24375
sg35
S'red'
p1580
sba(icurlovision
Stone
p1581
(dp1582
g32
F-0.61875
sg33
F-0.73125
sg34
F0.33749999999999997
sg35
S'red'
p1583
sba(icurlovision
Stone
p1584
(dp1585
g32
F2.4187499999999997
sg33
F3.20625
sg34
F0.31875
sg35
S'yellow'
p1586
sba(icurlovision
Stone
p1587
(dp1588
g32
F-5.1187499999999995
sg33
F0.13125
sg34
F0.2625
sg35
S'red'
p1589
sbasba(icurlovision
StoneLayout
p1590
(dp1591
g27
F0.4791666666666667
sg28
(lp1592
(icurlovision
Stone
p1593
(dp1594
g32
F-4.019230769230769
sg33
F5.173076923076923
sg34
F0.34615384615384615
sg35
S'yellow'
p1595
sba(icurlovision
Stone
p1596
(dp1597
g32
F-2.557692307692308
sg33
F-3.903846153846154
sg34
F0.46153846153846156
sg35
S'red'
p1598
sba(icurlovision
Stone
p1599
(dp1600
g32
F12.75
sg33
F2.75
sg34
F0.42307692307692313
sg35
S'yellow'
p1601
sba(icurlovision
Stone
p1602
(dp1603
g32
F0.6346153846153847
sg33
F0.13461538461538464
sg34
F0.3269230769230769
sg35
S'red'
p1604
sba(icurlovision
Stone
p1605
(dp1606
g32
F-0.6346153846153847
sg33
F-0.75
sg34
F0.46153846153846156
sg35
S'red'
p1607
sba(icurlovision
Stone
p1608
(dp1609
g32
F-5.134615384615385
sg33
F0.17307692307692307
sg34
F0.34615384615384615
sg35
S'red'
p1610
sbasba(icurlovision
StoneLayout
p1611
(dp1612
g27
F0.4791666666666667
sg28
(lp1613
(icurlovision
Stone
p1614
(dp1615
g32
F-4.1625
sg33
F5.2875
sg34
F0.46875
sg35
S'yellow'
p1616
sba(icurlovision
Stone
p1617
(dp1618
g32
F13.2
sg33
F2.85
sg34
F0.43124999999999997
sg35
S'yellow'
p1619
sba(icurlovision
Stone
p1620
(dp1621
g32
F1.6125
sg33
F0.0375
sg34
F0.31875
sg35
S'yellow'
p1622
sba(icurlovision
Stone
p1623
(dp1624
g32
F-1.7625
sg33
F0.1875
sg34
F0.46875
sg35
S'red'
p1625
sba(icurlovision
Stone
p1626
(dp1627
g32
F-2.6625
sg33
F-4.125
sg34
F0.33749999999999997
sg35
S'red'
p1628
sbasba(icurlovision
StoneLayout
p1629
(dp1630
g27
F0.4791666666666667
sg28
(lp1631
(icurlovision
Stone
p1632
(dp1633
g32
F-4.038461538461538
sg33
F5.153846153846154
sg34
F0.46153846153846156
sg35
S'yellow'
p1634
sba(icurlovision
Stone
p1635
(dp1636
g32
F12.884615384615385
sg33
F2.807692307692308
sg34
F0.44230769230769235
sg35
S'yellow'
p1637
sba(icurlovision
Stone
p1638
(dp1639
g32
F-1.7307692307692308
sg33
F0.19230769230769232
sg34
F0.3653846153846154
sg35
S'red'
p1640
sba(icurlovision
Stone
p1641
(dp1642
g32
F-2.5384615384615388
sg33
F-3.9615384615384617
sg34
F0.46153846153846156
sg35
S'red'
p1643
sba(icurlovision
Stone
p1644
(dp1645
g32
F-0.6153846153846154
sg33
F-0.7692307692307693
sg34
F0.3269230769230769
sg35
S'red'
p1646
sba(icurlovision
Stone
p1647
(dp1648
g32
F-5.115384615384616
sg33
F0.15384615384615385
sg34
F0.3269230769230769
sg35
S'red'
p1649
sbasba(icurlovision
StoneLayout
p1650
(dp1651
g27
F0.4791666666666667
sg28
(lp1652
(icurlovision
Stone
p1653
(dp1654
g32
F-3.99375
sg33
F5.1187499999999995
sg34
F0.33749999999999997
sg35
S'yellow'
p1655
sba(icurlovision
Stone
p1656
(dp1657
g32
F-1.70625
sg33
F0.20625
sg34
F0.44999999999999996
sg35
S'red'
p1658
sba(icurlovision
Stone
p1659
(dp1660
g32
F12.69375
sg33
F2.75625
sg34
F0.33749999999999997
sg35
S'yellow'
p1661
sba(icurlovision
Stone
p1662
(dp1663
g32
F-2.53125
sg33
F-3.8812499999999996
sg34
F0.31875
sg35
S'red'
p1664
sba(icurlovision
Stone
p1665
(dp1666
g32
F-0.73125
sg33
F0.88125
sg34
F0.44999999999999996
sg35
S'yellow'
p1667
sba(icurlovision
Stone
p1668
(dp1669
g32
F-0.61875
sg33
F-0.73125
sg34
F0.33749999999999997
sg35
S'red'
p1670
sba(icurlovision
Stone
p1671
(dp1672
g32
F-5.08125
sg33
F0.13125
sg34
F0.2625
sg35
S'red'
p1673
sbasba(icurlovision
StoneLayout
p1674
(dp1675
g27
F0.4791666666666667
sg28
(lp1676
(icurlovision
Stone
p1677
(dp1678
g32
F-4.06875
sg33
F5.175
sg34
F0.44999999999999996
sg35
S'yellow'
p1679
sba(icurlovision
Stone
p1680
(dp1681
g32
F12.88125
sg33
F2.8125
sg34
F0.43124999999999997
sg35
S'yellow'
p1682
sba(icurlovision
Stone
p1683
(dp1684
g32
F-2.56875
sg33
F-3.9749999999999996
sg34
F0.33749999999999997
sg35
S'red'
p1685
sba(icurlovision
Stone
p1686
(dp1687
g32
F-0.65625
sg33
F-0.75
sg34
F0.35625
sg35
S'red'
p1688
sba(icurlovision
Stone
p1689
(dp1690
g32
F-5.15625
sg33
F0.11249999999999999
sg34
F0.3
sg35
S'red'
p1691
sbasbasg211
I5
sg212
I0
sba(icurlovision
EndResult
p1692
(dp1693
g2
I5
sg9
(lp1694
(I8
I7
tp1695
a(I7
I6
tp1696
a(I6
I6
tp1697
a(I6
I5
tp1698
a(I5
I5
tp1699
a(I3
I3
tp1700
a(I3
I2
tp1701
a(I2
I2
tp1702
a(I2
I1
tp1703
a(I1
I1
tp1704
a(I1
I0
tp1705
asg22
I8
sg23
(lp1706
(icurlovision
StoneLayout
p1707
(dp1708
g27
F0.4791666666666667
sg28
(lp1709
(icurlovision
Stone
p1710
(dp1711
g32
F14.901315789473683
sg33
F-0.375
sg34
F0.3157894736842105
sg35
S'yellow'
p1712
sbasba(icurlovision
StoneLayout
p1713
(dp1714
g27
F0.4791666666666667
sg28
(lp1715
(icurlovision
Stone
p1716
(dp1717
g32
F8.284090909090908
sg33
F-5.181818181818182
sg34
F0.4261363636363636
sg35
S'yellow'
p1718
sba(icurlovision
Stone
p1719
(dp1720
g32
F7.159090909090908
sg33
F0.03409090909090909
sg34
F0.32386363636363635
sg35
S'yellow'
p1721
sba(icurlovision
Stone
p1722
(dp1723
g32
F11.897727272727272
sg33
F3.5113636363636362
sg34
F0.4602272727272727
sg35
S'red'
p1724
sbasba(icurlovision
StoneLayout
p1725
(dp1726
g27
F0.4791666666666667
sg28
(lp1727
(icurlovision
Stone
p1728
(dp1729
g32
F8.316666666666666
sg33
F-5.15
sg34
F0.43333333333333335
sg35
S'yellow'
p1730
sba(icurlovision
Stone
p1731
(dp1732
g32
F1.8166666666666667
sg33
F0.35
sg34
F0.3333333333333333
sg35
S'yellow'
p1733
sba(icurlovision
Stone
p1734
(dp1735
g32
F11.85
sg33
F3.55
sg34
F0.43333333333333335
sg35
S'red'
p1736
sba(icurlovision
Stone
p1737
(dp1738
g32
F7.983333333333333
sg33
F0.016666666666666666
sg34
F0.43333333333333335
sg35
S'red'
p1739
sbasba(icurlovision
StoneLayout
p1740
(dp1741
g27
F0.4791666666666667
sg28
(lp1742
(icurlovision
Stone
p1743
(dp1744
g32
F8.202127659574467
sg33
F-5.026595744680851
sg34
F0.4308510638297872
sg35
S'yellow'
p1745
sba(icurlovision
Stone
p1746
(dp1747
g32
F11.680851063829786
sg33
F3.462765957446808
sg34
F0.4308510638297872
sg35
S'red'
p1748
sba(icurlovision
Stone
p1749
(dp1750
g32
F7.914893617021276
sg33
F0.015957446808510637
sg34
F0.4308510638297872
sg35
S'red'
p1751
sba(icurlovision
Stone
p1752
(dp1753
g32
F13.755319148936168
sg33
F0.047872340425531915
sg34
F0.4148936170212766
sg35
S'yellow'
p1754
sba(icurlovision
Stone
p1755
(dp1756
g32
F1.8191489361702127
sg33
F0.3670212765957446
sg34
F0.33510638297872336
sg35
S'yellow'
p1757
sbasba(icurlovision
StoneLayout
p1758
(dp1759
g27
F0.4791666666666667
sg28
(lp1760
(icurlovision
Stone
p1761
(dp1762
g32
F8.093023255813954
sg33
F-5.058139534883721
sg34
F0.3488372093023256
sg35
S'yellow'
p1763
sba(icurlovision
Stone
p1764
(dp1765
g32
F7.813953488372093
sg33
F-0.03488372093023256
sg34
F0.436046511627907
sg35
S'red'
p1766
sba(icurlovision
Stone
p1767
(dp1768
g32
F11.581395348837209
sg33
F3.4186046511627906
sg34
F0.436046511627907
sg35
S'red'
p1769
sba(icurlovision
Stone
p1770
(dp1771
g32
F9.80232558139535
sg33
F6.453488372093023
sg34
F0.41860465116279066
sg35
S'red'
p1772
sba(icurlovision
Stone
p1773
(dp1774
g32
F1.744186046511628
sg33
F0.3488372093023256
sg34
F0.3313953488372093
sg35
S'yellow'
p1775
sbasba(icurlovision
StoneLayout
p1776
(dp1777
g27
F0.4791666666666667
sg28
(lp1778
(icurlovision
Stone
p1779
(dp1780
g32
F8.23404255319149
sg33
F-5.074468085106383
sg34
F0.4627659574468085
sg35
S'yellow'
p1781
sba(icurlovision
Stone
p1782
(dp1783
g32
F6.8936170212765955
sg33
F-5.680851063829786
sg34
F0.44680851063829785
sg35
S'yellow'
p1784
sba(icurlovision
Stone
p1785
(dp1786
g32
F9.063829787234042
sg33
F0.3191489361702127
sg34
F0.3191489361702127
sg35
S'yellow'
p1787
sba(icurlovision
Stone
p1788
(dp1789
g32
F11.77659574468085
sg33
F3.5425531914893615
sg34
F0.4308510638297872
sg35
S'red'
p1790
sba(icurlovision
Stone
p1791
(dp1792
g32
F1.7872340425531914
sg33
F0.3829787234042553
sg34
F0.33510638297872336
sg35
S'yellow'
p1793
sba(icurlovision
Stone
p1794
(dp1795
g32
F1.180851063829787
sg33
F3.829787234042553
sg34
F0.351063829787234
sg35
S'red'
p1796
sba(icurlovision
Stone
p1797
(dp1798
g32
F11.074468085106382
sg33
F-6.25531914893617
sg34
F0.28723404255319146
sg35
S'yellow'
p1799
sbasba(icurlovision
StoneLayout
p1800
(dp1801
g27
F0.4791666666666667
sg28
(lp1802
(icurlovision
Stone
p1803
(dp1804
g32
F8.325
sg33
F-5.1375
sg34
F0.43124999999999997
sg35
S'yellow'
p1805
sba(icurlovision
Stone
p1806
(dp1807
g32
F6.975
sg33
F-5.7375
sg34
F0.33749999999999997
sg35
S'yellow'
p1808
sba(icurlovision
Stone
p1809
(dp1810
g32
F1.8375
sg33
F0.33749999999999997
sg34
F0.44999999999999996
sg35
S'yellow'
p1811
sba(icurlovision
Stone
p1812
(dp1813
g32
F11.8125
sg33
F3.525
sg34
F0.43124999999999997
sg35
S'red'
p1814
sba(icurlovision
Stone
p1815
(dp1816
g32
F1.2375
sg33
F3.8249999999999997
sg34
F0.35625
sg35
S'red'
p1817
sba(icurlovision
Stone
p1818
(dp1819
g32
F12.45
sg33
F0.33749999999999997
sg34
F0.4125
sg35
S'yellow'
p1820
sbasba(icurlovision
StoneLayout
p1821
(dp1822
g27
F0.4791666666666667
sg28
(lp1823
(icurlovision
Stone
p1824
(dp1825
g32
F8.466666666666667
sg33
F-5.3
sg34
F0.35
sg35
S'yellow'
p1826
sba(icurlovision
Stone
p1827
(dp1828
g32
F9.266666666666666
sg33
F0.3
sg34
F0.2833333333333333
sg35
S'yellow'
p1829
sba(icurlovision
Stone
p1830
(dp1831
g32
F12.1
sg33
F3.6
sg34
F0.45
sg35
S'red'
p1832
sba(icurlovision
Stone
p1833
(dp1834
g32
F7.1
sg33
F-5.866666666666666
sg34
F0.3333333333333333
sg35
S'yellow'
p1835
sba(icurlovision
Stone
p1836
(dp1837
g32
F1.8333333333333333
sg33
F0.36666666666666664
sg34
F0.4666666666666667
sg35
S'yellow'
p1838
sbasba(icurlovision
StoneLayout
p1839
(dp1840
g27
F0.4791666666666667
sg28
(lp1841
(icurlovision
Stone
p1842
(dp1843
g32
F8.218085106382977
sg33
F-5.026595744680851
sg34
F0.44680851063829785
sg35
S'yellow'
p1844
sba(icurlovision
Stone
p1845
(dp1846
g32
F6.877659574468084
sg33
F-5.632978723404255
sg34
F0.4308510638297872
sg35
S'yellow'
p1847
sba(icurlovision
Stone
p1848
(dp1849
g32
F11.696808510638297
sg33
F3.462765957446808
sg34
F0.4308510638297872
sg35
S'red'
p1850
sba(icurlovision
Stone
p1851
(dp1852
g32
F12.239361702127658
sg33
F0.2712765957446808
sg34
F0.39893617021276595
sg35
S'yellow'
p1853
sba(icurlovision
Stone
p1854
(dp1855
g32
F8.984042553191488
sg33
F0.33510638297872336
sg34
F0.2712765957446808
sg35
S'yellow'
p1856
sba(icurlovision
Stone
p1857
(dp1858
g32
F1.8351063829787233
sg33
F0.3670212765957446
sg34
F0.3191489361702127
sg35
S'yellow'
p1859
sbasba(icurlovision
StoneLayout
p1860
(dp1861
g27
F0.4791666666666667
sg28
(lp1862
(icurlovision
Stone
p1863
(dp1864
g32
F8.38953488372093
sg33
F-5.1104651162790695
sg34
F0.436046511627907
sg35
S'yellow'
p1865
sba(icurlovision
Stone
p1866
(dp1867
g32
F7.063953488372093
sg33
F-5.703488372093023
sg34
F0.45348837209302323
sg35
S'yellow'
p1868
sba(icurlovision
Stone
p1869
(dp1870
g32
F9.191860465116278
sg33
F0.36627906976744184
sg34
F0.27906976744186046
sg35
S'yellow'
p1871
sba(icurlovision
Stone
p1872
(dp1873
g32
F11.877906976744185
sg33
F3.5755813953488373
sg34
F0.436046511627907
sg35
S'red'
p1874
sba(icurlovision
Stone
p1875
(dp1876
g32
F1.7965116279069768
sg33
F0.36627906976744184
sg34
F0.36627906976744184
sg35
S'yellow'
p1877
sbasba(icurlovision
StoneLayout
p1878
(dp1879
g27
F0.4791666666666667
sg28
(lp1880
(icurlovision
Stone
p1881
(dp1882
g32
F2.638392857142857
sg33
F-0.17410714285714285
sg34
F0.4821428571428571
sg35
S'yellow'
p1883
sba(icurlovision
Stone
p1884
(dp1885
g32
F7.191964285714286
sg33
F-5.9330357142857135
sg34
F0.29464285714285715
sg35
S'yellow'
p1886
sba(icurlovision
Stone
p1887
(dp1888
g32
F1.2991071428571428
sg33
F0.6294642857142857
sg34
F0.36160714285714285
sg35
S'yellow'
p1889
sba(icurlovision
Stone
p1890
(dp1891
g32
F8.584821428571429
sg33
F-5.34375
sg34
F0.3482142857142857
sg35
S'yellow'
p1892
sba(icurlovision
Stone
p1893
(dp1894
g32
F9.415178571428571
sg33
F0.33482142857142855
sg34
F0.36160714285714285
sg35
S'yellow'
p1895
sbasbasg211
I5
sg212
I1
sba(icurlovision
EndResult
p1896
(dp1897
g2
I5
sg9
(lp1898
(I7
I7
tp1899
a(I7
I6
tp1900
a(I6
I6
tp1901
a(I6
I5
tp1902
a(I5
I5
tp1903
a(I5
I4
tp1904
a(I4
I4
tp1905
a(I4
I3
tp1906
a(I3
I3
tp1907
a(I3
I2
tp1908
a(I2
I2
tp1909
a(I2
I1
tp1910
a(I1
I1
tp1911
a(I1
I0
tp1912
asg22
I9
sg23
(lp1913
(icurlovision
StoneLayout
p1914
(dp1915
g27
F0.4791666666666667
sg28
(lp1916
(icurlovision
Stone
p1917
(dp1918
g32
F13.424999999999999
sg33
F4.1625
sg34
F0.4125
sg35
S'red'
p1919
sba(icurlovision
Stone
p1920
(dp1921
g32
F9.5625
sg33
F-6.3
sg34
F0.44999999999999996
sg35
S'yellow'
p1922
sbasba(icurlovision
StoneLayout
p1923
(dp1924
g27
F0.4791666666666667
sg28
(lp1925
(icurlovision
Stone
p1926
(dp1927
g32
F13.424999999999999
sg33
F4.1625
sg34
F0.4125
sg35
S'red'
p1928
sba(icurlovision
Stone
p1929
(dp1930
g32
F9.6
sg33
F-6.3
sg34
F0.43124999999999997
sg35
S'yellow'
p1931
sbasba(icurlovision
StoneLayout
p1932
(dp1933
g27
F0.4791666666666667
sg28
(lp1934
(icurlovision
Stone
p1935
(dp1936
g32
F6.574468085106383
sg33
F-3.6382978723404253
sg34
F0.3031914893617021
sg35
S'yellow'
p1937
sba(icurlovision
Stone
p1938
(dp1939
g32
F9.574468085106382
sg33
F-6.287234042553191
sg34
F0.44680851063829785
sg35
S'yellow'
p1940
sba(icurlovision
Stone
p1941
(dp1942
g32
F13.468085106382977
sg33
F4.180851063829787
sg34
F0.4308510638297872
sg35
S'red'
p1943
sba(icurlovision
Stone
p1944
(dp1945
g32
F2.7446808510638294
sg33
F5.3936170212765955
sg34
F0.4627659574468085
sg35
S'red'
p1946
sbasba(icurlovision
StoneLayout
p1947
(dp1948
g27
F0.4791666666666667
sg28
(lp1949
(icurlovision
Stone
p1950
(dp1951
g32
F6.5892857142857135
sg33
F-3.696428571428571
sg34
F0.4464285714285714
sg35
S'yellow'
p1952
sba(icurlovision
Stone
p1953
(dp1954
g32
F13.517857142857142
sg33
F4.196428571428571
sg34
F0.42857142857142855
sg35
S'red'
p1955
sba(icurlovision
Stone
p1956
(dp1957
g32
F9.660714285714285
sg33
F-6.3392857142857135
sg34
F0.42857142857142855
sg35
S'yellow'
p1958
sba(icurlovision
Stone
p1959
(dp1960
g32
F1.232142857142857
sg33
F4.446428571428571
sg34
F0.4464285714285714
sg35
S'yellow'
p1961
sba(icurlovision
Stone
p1962
(dp1963
g32
F2.267857142857143
sg33
F5.125
sg34
F0.25
sg35
S'red'
p1964
sba(icurlovision
Stone
p1965
(dp1966
g32
F12.125
sg33
F-5.553571428571428
sg34
F0.33928571428571425
sg35
S'yellow'
p1967
sbasba(icurlovision
StoneLayout
p1968
(dp1969
g27
F0.4791666666666667
sg28
(lp1970
(icurlovision
Stone
p1971
(dp1972
g32
F6.628378378378379
sg33
F-3.7094594594594597
sg34
F0.44594594594594594
sg35
S'yellow'
p1973
sba(icurlovision
Stone
p1974
(dp1975
g32
F9.70945945945946
sg33
F-6.385135135135135
sg34
F0.44594594594594594
sg35
S'yellow'
p1976
sba(icurlovision
Stone
p1977
(dp1978
g32
F2.25
sg33
F5.25
sg34
F0.26351351351351354
sg35
S'red'
p1979
sba(icurlovision
Stone
p1980
(dp1981
g32
F13.601351351351353
sg33
F4.277027027027027
sg34
F0.4256756756756757
sg35
S'red'
p1982
sba(icurlovision
Stone
p1983
(dp1984
g32
F-6.587837837837839
sg33
F-1.8040540540540542
sg34
F0.32432432432432434
sg35
S'red'
p1985
sbasba(icurlovision
StoneLayout
p1986
(dp1987
g27
F0.4791666666666667
sg28
(lp1988
(icurlovision
Stone
p1989
(dp1990
g32
F13.662162162162163
sg33
F4.378378378378379
sg34
F0.4256756756756757
sg35
S'red'
p1991
sba(icurlovision
Stone
p1992
(dp1993
g32
F-6.5675675675675675
sg33
F-1.864864864864865
sg34
F0.4864864864864865
sg35
S'red'
p1994
sba(icurlovision
Stone
p1995
(dp1996
g32
F9.81081081081081
sg33
F-6.364864864864865
sg34
F0.44594594594594594
sg35
S'yellow'
p1997
sba(icurlovision
Stone
p1998
(dp1999
g32
F6.6891891891891895
sg33
F-3.6891891891891895
sg34
F0.44594594594594594
sg35
S'yellow'
p2000
sba(icurlovision
Stone
p2001
(dp2002
g32
F2.22972972972973
sg33
F5.22972972972973
sg34
F0.3445945945945946
sg35
S'red'
p2003
sba(icurlovision
Stone
p2004
(dp2005
g32
F3.6486486486486487
sg33
F4.297297297297297
sg34
F0.46621621621621623
sg35
S'yellow'
p2006
sbasba(icurlovision
StoneLayout
p2007
(dp2008
g27
F0.4791666666666667
sg28
(lp2009
(icurlovision
Stone
p2010
(dp2011
g32
F6.648648648648649
sg33
F-3.6891891891891895
sg34
F0.44594594594594594
sg35
S'yellow'
p2012
sba(icurlovision
Stone
p2013
(dp2014
g32
F-6.527027027027027
sg33
F-1.8243243243243243
sg34
F0.4864864864864865
sg35
S'red'
p2015
sba(icurlovision
Stone
p2016
(dp2017
g32
F13.540540540540542
sg33
F4.297297297297297
sg34
F0.40540540540540543
sg35
S'red'
p2018
sba(icurlovision
Stone
p2019
(dp2020
g32
F9.72972972972973
sg33
F-6.324324324324325
sg34
F0.44594594594594594
sg35
S'yellow'
p2021
sba(icurlovision
Stone
p2022
(dp2023
g32
F3.6486486486486487
sg33
F4.297297297297297
sg34
F0.46621621621621623
sg35
S'yellow'
p2024
sba(icurlovision
Stone
p2025
(dp2026
g32
F2.27027027027027
sg33
F5.1891891891891895
sg34
F0.3445945945945946
sg35
S'red'
p2027
sba(icurlovision
Stone
p2028
(dp2029
g32
F-3.3243243243243246
sg33
F-1.7837837837837838
sg34
F0.46621621621621623
sg35
S'red'
p2030
sbasba(icurlovision
StoneLayout
p2031
(dp2032
g27
F0.4791666666666667
sg28
(lp2033
(icurlovision
Stone
p2034
(dp2035
g32
F6.608108108108109
sg33
F-3.6891891891891895
sg34
F0.32432432432432434
sg35
S'yellow'
p2036
sba(icurlovision
Stone
p2037
(dp2038
g32
F9.608108108108109
sg33
F-6.364864864864865
sg34
F0.44594594594594594
sg35
S'yellow'
p2039
sba(icurlovision
Stone
p2040
(dp2041
g32
F-6.486486486486487
sg33
F-1.7837837837837838
sg34
F0.46621621621621623
sg35
S'red'
p2042
sba(icurlovision
Stone
p2043
(dp2044
g32
F13.5
sg33
F4.216216216216217
sg34
F0.4256756756756757
sg35
S'red'
p2045
sba(icurlovision
Stone
p2046
(dp2047
g32
F-1.337837837837838
sg33
F-1.1756756756756757
sg34
F0.3445945945945946
sg35
S'yellow'
p2048
sba(icurlovision
Stone
p2049
(dp2050
g32
F-3.3243243243243246
sg33
F-1.7432432432432434
sg34
F0.32432432432432434
sg35
S'red'
p2051
sba(icurlovision
Stone
p2052
(dp2053
g32
F2.9594594594594597
sg33
F4.581081081081082
sg34
F0.26351351351351354
sg35
S'yellow'
p2054
sbasba(icurlovision
StoneLayout
p2055
(dp2056
g27
F0.4791666666666667
sg28
(lp2057
(icurlovision
Stone
p2058
(dp2059
g32
F6.513157894736842
sg33
F-3.6710526315789473
sg34
F0.4539473684210526
sg35
S'yellow'
p2060
sba(icurlovision
Stone
p2061
(dp2062
g32
F9.592105263157894
sg33
F-6.315789473684211
sg34
F0.43421052631578944
sg35
S'yellow'
p2063
sba(icurlovision
Stone
p2064
(dp2065
g32
F-6.473684210526315
sg33
F-1.776315789473684
sg34
F0.4539473684210526
sg35
S'red'
p2066
sba(icurlovision
Stone
p2067
(dp2068
g32
F13.460526315789473
sg33
F4.184210526315789
sg34
F0.41447368421052627
sg35
S'red'
p2069
sba(icurlovision
Stone
p2070
(dp2071
g32
F-1.3421052631578947
sg33
F-1.1842105263157894
sg34
F0.47368421052631576
sg35
S'yellow'
p2072
sba(icurlovision
Stone
p2073
(dp2074
g32
F-3.31578947368421
sg33
F-1.776315789473684
sg34
F0.3355263157894737
sg35
S'red'
p2075
sba(icurlovision
Stone
p2076
(dp2077
g32
F-1.381578947368421
sg33
F-0.19736842105263158
sg34
F0.43421052631578944
sg35
S'red'
p2078
sbasba(icurlovision
StoneLayout
p2079
(dp2080
g27
F0.4791666666666667
sg28
(lp2081
(icurlovision
Stone
p2082
(dp2083
g32
F9.825
sg33
F-6.4875
sg34
F0.44999999999999996
sg35
S'yellow'
p2084
sba(icurlovision
Stone
p2085
(dp2086
g32
F-1.3875
sg33
F-1.2375
sg34
F0.33749999999999997
sg35
S'yellow'
p2087
sba(icurlovision
Stone
p2088
(dp2089
g32
F6.7124999999999995
sg33
F-3.7874999999999996
sg34
F0.44999999999999996
sg35
S'yellow'
p2090
sba(icurlovision
Stone
p2091
(dp2092
g32
F13.8375
sg33
F4.3125
sg34
F0.3
sg35
S'red'
p2093
sba(icurlovision
Stone
p2094
(dp2095
g32
F-3.4125
sg33
F-1.8375
sg34
F0.375
sg35
S'red'
p2096
sba(icurlovision
Stone
p2097
(dp2098
g32
F0.1875
sg33
F-0.44999999999999996
sg34
F0.31875
sg35
S'yellow'
p2099
sba(icurlovision
Stone
p2100
(dp2101
g32
F-1.425
sg33
F-0.15
sg34
F0.2625
sg35
S'red'
p2102
sbasba(icurlovision
StoneLayout
p2103
(dp2104
g27
F0.4791666666666667
sg28
(lp2105
(icurlovision
Stone
p2106
(dp2107
g32
F6.648648648648649
sg33
F-3.72972972972973
sg34
F0.28378378378378377
sg35
S'yellow'
p2108
sba(icurlovision
Stone
p2109
(dp2110
g32
F9.68918918918919
sg33
F-6.364864864864865
sg34
F0.44594594594594594
sg35
S'yellow'
p2111
sba(icurlovision
Stone
p2112
(dp2113
g32
F-1.3783783783783785
sg33
F-1.2162162162162162
sg34
F0.46621621621621623
sg35
S'yellow'
p2114
sba(icurlovision
Stone
p2115
(dp2116
g32
F-6.527027027027027
sg33
F-1.7837837837837838
sg34
F0.46621621621621623
sg35
S'red'
p2117
sba(icurlovision
Stone
p2118
(dp2119
g32
F13.621621621621623
sg33
F4.256756756756757
sg34
F0.4256756756756757
sg35
S'red'
p2120
sba(icurlovision
Stone
p2121
(dp2122
g32
F-3.364864864864865
sg33
F-1.7837837837837838
sg34
F0.28378378378378377
sg35
S'red'
p2123
sba(icurlovision
Stone
p2124
(dp2125
g32
F1.0945945945945947
sg33
F-0.5270270270270271
sg34
F0.46621621621621623
sg35
S'red'
p2126
sba(icurlovision
Stone
p2127
(dp2128
g32
F-0.5270270270270271
sg33
F-0.4864864864864865
sg34
F0.46621621621621623
sg35
S'yellow'
p2129
sba(icurlovision
Stone
p2130
(dp2131
g32
F-4.824324324324325
sg33
F1.0945945945945947
sg34
F0.32432432432432434
sg35
S'red'
p2132
sbasba(icurlovision
StoneLayout
p2133
(dp2134
g27
F0.4791666666666667
sg28
(lp2135
(icurlovision
Stone
p2136
(dp2137
g32
F6.6118421052631575
sg33
F-3.7105263157894735
sg34
F0.43421052631578944
sg35
S'yellow'
p2138
sba(icurlovision
Stone
p2139
(dp2140
g32
F13.598684210526315
sg33
F4.223684210526316
sg34
F0.43421052631578944
sg35
S'red'
p2141
sba(icurlovision
Stone
p2142
(dp2143
g32
F9.572368421052632
sg33
F-0.9868421052631579
sg34
F0.43421052631578944
sg35
S'yellow'
p2144
sba(icurlovision
Stone
p2145
(dp2146
g32
F-0.5328947368421052
sg33
F-0.47368421052631576
sg34
F0.47368421052631576
sg35
S'yellow'
p2147
sba(icurlovision
Stone
p2148
(dp2149
g32
F-1.3618421052631577
sg33
F-1.2236842105263157
sg34
F0.3355263157894737
sg35
S'yellow'
p2150
sba(icurlovision
Stone
p2151
(dp2152
g32
F9.730263157894736
sg33
F-6.394736842105263
sg34
F0.43421052631578944
sg35
S'yellow'
p2153
sba(icurlovision
Stone
p2154
(dp2155
g32
F-6.532894736842105
sg33
F-1.776315789473684
sg34
F0.3157894736842105
sg35
S'red'
p2156
sba(icurlovision
Stone
p2157
(dp2158
g32
F-3.3355263157894735
sg33
F-1.8157894736842104
sg34
F0.2763157894736842
sg35
S'red'
p2159
sba(icurlovision
Stone
p2160
(dp2161
g32
F1.0855263157894737
sg33
F-0.513157894736842
sg34
F0.47368421052631576
sg35
S'red'
p2162
sba(icurlovision
Stone
p2163
(dp2164
g32
F-4.8355263157894735
sg33
F1.1052631578947367
sg34
F0.256578947368421
sg35
S'red'
p2165
sbasba(icurlovision
StoneLayout
p2166
(dp2167
g27
F0.4791666666666667
sg28
(lp2168
(icurlovision
Stone
p2169
(dp2170
g32
F6.5
sg33
F-3.576923076923077
sg34
F0.44230769230769235
sg35
S'yellow'
p2171
sba(icurlovision
Stone
p2172
(dp2173
g32
F-1.576923076923077
sg33
F-1.2692307692307694
sg34
F0.46153846153846156
sg35
S'yellow'
p2174
sba(icurlovision
Stone
p2175
(dp2176
g32
F9.346153846153847
sg33
F-0.8846153846153847
sg34
F0.42307692307692313
sg35
S'yellow'
p2177
sba(icurlovision
Stone
p2178
(dp2179
g32
F9.538461538461538
sg33
F-6.153846153846154
sg34
F0.44230769230769235
sg35
S'yellow'
p2180
sba(icurlovision
Stone
p2181
(dp2182
g32
F-1.153846153846154
sg33
F-0.15384615384615385
sg34
F0.3269230769230769
sg35
S'yellow'
p2183
sba(icurlovision
Stone
p2184
(dp2185
g32
F0.15384615384615385
sg33
F-1.1923076923076923
sg34
F0.34615384615384615
sg35
S'red'
p2186
sba(icurlovision
Stone
p2187
(dp2188
g32
F13.26923076923077
sg33
F4.1923076923076925
sg34
F0.3076923076923077
sg35
S'red'
p2189
sba(icurlovision
Stone
p2190
(dp2191
g32
F-3.2692307692307696
sg33
F-1.7692307692307694
sg34
F0.34615384615384615
sg35
S'red'
p2192
sba(icurlovision
Stone
p2193
(dp2194
g32
F1.7692307692307694
sg33
F0.19230769230769232
sg34
F0.46153846153846156
sg35
S'red'
p2195
sba(icurlovision
Stone
p2196
(dp2197
g32
F-4.730769230769231
sg33
F1.0384615384615385
sg34
F0.3076923076923077
sg35
S'red'
p2198
sba(icurlovision
Stone
p2199
(dp2200
g32
F-6.346153846153847
sg33
F-1.8076923076923077
sg34
F0.44230769230769235
sg35
S'red'
p2201
sbasba(icurlovision
StoneLayout
p2202
(dp2203
g27
F0.4791666666666667
sg28
(lp2204
(icurlovision
Stone
p2205
(dp2206
g32
F6.788461538461539
sg33
F-3.826923076923077
sg34
F0.34615384615384615
sg35
S'yellow'
p2207
sba(icurlovision
Stone
p2208
(dp2209
g32
F-1.7115384615384617
sg33
F-1.3653846153846154
sg34
F0.4807692307692308
sg35
S'yellow'
p2210
sba(icurlovision
Stone
p2211
(dp2212
g32
F9.326923076923077
sg33
F-0.5961538461538461
sg34
F0.2884615384615385
sg35
S'yellow'
p2213
sba(icurlovision
Stone
p2214
(dp2215
g32
F0.13461538461538464
sg33
F-1.2884615384615385
sg34
F0.4807692307692308
sg35
S'red'
p2216
sba(icurlovision
Stone
p2217
(dp2218
g32
F13.903846153846155
sg33
F4.3269230769230775
sg34
F0.44230769230769235
sg35
S'red'
p2219
sba(icurlovision
Stone
p2220
(dp2221
g32
F10.134615384615385
sg33
F-1.903846153846154
sg34
F0.46153846153846156
sg35
S'yellow'
p2222
sba(icurlovision
Stone
p2223
(dp2224
g32
F9.942307692307693
sg33
F-6.519230769230769
sg34
F0.44230769230769235
sg35
S'yellow'
p2225
sba(icurlovision
Stone
p2226
(dp2227
g32
F-1.25
sg33
F-0.13461538461538464
sg34
F0.34615384615384615
sg35
S'yellow'
p2228
sba(icurlovision
Stone
p2229
(dp2230
g32
F-3.4423076923076925
sg33
F-1.826923076923077
sg34
F0.3269230769230769
sg35
S'red'
p2231
sba(icurlovision
Stone
p2232
(dp2233
g32
F1.826923076923077
sg33
F0.21153846153846156
sg34
F0.34615384615384615
sg35
S'red'
p2234
sba(icurlovision
Stone
p2235
(dp2236
g32
F-4.9423076923076925
sg33
F1.1346153846153846
sg34
F0.3076923076923077
sg35
S'red'
p2237
sbasbasg211
I7
sg212
I1
sba(icurlovision
EndResult
p2238
(dp2239
g2
I7
sg9
(lp2240
(I7
I8
tp2241
a(I7
I7
tp2242
a(I6
I7
tp2243
a(I6
I6
tp2244
a(I5
I6
tp2245
a(I5
I5
tp2246
a(I4
I5
tp2247
a(I4
I4
tp2248
a(I3
I3
tp2249
a(I2
I3
tp2250
a(I2
I2
tp2251
a(I1
I2
tp2252
a(I1
I1
tp2253
a(I0
I1
tp2254
asg22
I10
sg23
(lp2255
(icurlovision
StoneLayout
p2256
(dp2257
g27
F0.4791666666666667
sg28
(lp2258
(icurlovision
Stone
p2259
(dp2260
g32
F0.18292682926829268
sg33
F0.548780487804878
sg34
F0.47560975609756095
sg35
S'red'
p2261
sbasba(icurlovision
StoneLayout
p2262
(dp2263
g27
F0.4791666666666667
sg28
(lp2264
(icurlovision
Stone
p2265
(dp2266
g32
F9.953125
sg33
F-3.296875
sg34
F0.453125
sg35
S'yellow'
p2267
sba(icurlovision
Stone
p2268
(dp2269
g32
F0.140625
sg33
F0.515625
sg34
F0.28125
sg35
S'red'
p2270
sbasba(icurlovision
StoneLayout
p2271
(dp2272
g27
F0.4791666666666667
sg28
(lp2273
(icurlovision
Stone
p2274
(dp2275
g32
F9.861702127659573
sg33
F-3.2872340425531914
sg34
F0.44680851063829785
sg35
S'yellow'
p2276
sba(icurlovision
Stone
p2277
(dp2278
g32
F4.148936170212766
sg33
F-0.09574468085106383
sg34
F0.351063829787234
sg35
S'red'
p2279
sba(icurlovision
Stone
p2280
(dp2281
g32
F0.15957446808510636
sg33
F0.5425531914893617
sg34
F0.3191489361702127
sg35
S'red'
p2282
sbasba(icurlovision
StoneLayout
p2283
(dp2284
g27
F0.4791666666666667
sg28
(lp2285
(icurlovision
Stone
p2286
(dp2287
g32
F1.0290697674418605
sg33
F-3.7151162790697674
sg34
F0.3488372093023256
sg35
S'yellow'
p2288
sba(icurlovision
Stone
p2289
(dp2290
g32
F10.273255813953488
sg33
F-3.3662790697674416
sg34
F0.2965116279069767
sg35
S'yellow'
p2291
sba(icurlovision
Stone
p2292
(dp2293
g32
F0.19186046511627908
sg33
F0.5406976744186046
sg34
F0.36627906976744184
sg35
S'red'
p2294
sba(icurlovision
Stone
p2295
(dp2296
g32
F4.343023255813954
sg33
F-0.0872093023255814
sg34
F0.2616279069767442
sg35
S'red'
p2297
sbasba(icurlovision
StoneLayout
p2298
(dp2299
g27
F0.4791666666666667
sg28
(lp2300
(icurlovision
Stone
p2301
(dp2302
g32
F9.982142857142856
sg33
F-3.3035714285714284
sg34
F0.4464285714285714
sg35
S'yellow'
p2303
sba(icurlovision
Stone
p2304
(dp2305
g32
F1.0178571428571428
sg33
F-3.625
sg34
F0.25
sg35
S'yellow'
p2306
sba(icurlovision
Stone
p2307
(dp2308
g32
F0.125
sg33
F0.5535714285714285
sg34
F0.46428571428571425
sg35
S'red'
p2309
sba(icurlovision
Stone
p2310
(dp2311
g32
F4.232142857142857
sg33
F-0.05357142857142857
sg34
F0.33928571428571425
sg35
S'red'
p2312
sbasba(icurlovision
StoneLayout
p2313
(dp2314
g27
F0.4791666666666667
sg28
(lp2315
(icurlovision
Stone
p2316
(dp2317
g32
F10.125
sg33
F-3.342391304347826
sg34
F0.27717391304347827
sg35
S'yellow'
p2318
sba(icurlovision
Stone
p2319
(dp2320
g32
F0.9945652173913043
sg33
F0.11413043478260869
sg34
F0.45652173913043476
sg35
S'yellow'
p2321
sba(icurlovision
Stone
p2322
(dp2323
g32
F1.0271739130434783
sg33
F-3.668478260869565
sg34
F0.30978260869565216
sg35
S'yellow'
p2324
sba(icurlovision
Stone
p2325
(dp2326
g32
F-0.048913043478260865
sg33
F0.5380434782608695
sg34
F0.45652173913043476
sg35
S'red'
p2327
sba(icurlovision
Stone
p2328
(dp2329
g32
F4.2228260869565215
sg33
F-0.11413043478260869
sg34
F0.34239130434782605
sg35
S'red'
p2330
sba(icurlovision
Stone
p2331
(dp2332
g32
F9.472826086956522
sg33
F-4.7771739130434785
sg34
F0.2934782608695652
sg35
S'yellow'
p2333
sbasba(icurlovision
StoneLayout
p2334
(dp2335
g27
F0.4791666666666667
sg28
(lp2336
(icurlovision
Stone
p2337
(dp2338
g32
F1.076086956521739
sg33
F-3.668478260869565
sg34
F0.32608695652173914
sg35
S'yellow'
p2339
sba(icurlovision
Stone
p2340
(dp2341
g32
F1.0108695652173914
sg33
F0.11413043478260869
sg34
F0.30978260869565216
sg35
S'yellow'
p2342
sba(icurlovision
Stone
p2343
(dp2344
g32
F-5.608695652173913
sg33
F-6.831521739130435
sg34
F0.32608695652173914
sg35
S'yellow'
p2345
sba(icurlovision
Stone
p2346
(dp2347
g32
F4.206521739130435
sg33
F0.016304347826086956
sg34
F0.32608695652173914
sg35
S'red'
p2348
sba(icurlovision
Stone
p2349
(dp2350
g32
F-0.09782608695652173
sg33
F0.5706521739130435
sg34
F0.358695652173913
sg35
S'red'
p2351
sba(icurlovision
Stone
p2352
(dp2353
g32
F-0.16304347826086957
sg33
F6.733695652173913
sg34
F0.4891304347826087
sg35
S'red'
p2354
sbasba(icurlovision
StoneLayout
p2355
(dp2356
g27
F0.4791666666666667
sg28
(lp2357
(icurlovision
Stone
p2358
(dp2359
g32
F1.0
sg33
F0.1
sg34
F0.3333333333333333
sg35
S'yellow'
p2360
sba(icurlovision
Stone
p2361
(dp2362
g32
F-0.06666666666666667
sg33
F0.5666666666666667
sg34
F0.4666666666666667
sg35
S'red'
p2363
sba(icurlovision
Stone
p2364
(dp2365
g32
F10.133333333333333
sg33
F-3.3333333333333335
sg34
F0.35
sg35
S'yellow'
p2366
sba(icurlovision
Stone
p2367
(dp2368
g32
F1.0
sg33
F-3.6666666666666665
sg34
F0.31666666666666665
sg35
S'yellow'
p2369
sba(icurlovision
Stone
p2370
(dp2371
g32
F4.266666666666667
sg33
F-0.06666666666666667
sg34
F0.35
sg35
S'red'
p2372
sba(icurlovision
Stone
p2373
(dp2374
g32
F10.3
sg33
F-5.7
sg34
F0.3
sg35
S'yellow'
p2375
sbasba(icurlovision
StoneLayout
p2376
(dp2377
g27
F0.4791666666666667
sg28
(lp2378
(icurlovision
Stone
p2379
(dp2380
g32
F1.0
sg33
F-3.6470588235294117
sg34
F0.45588235294117646
sg35
S'yellow'
p2381
sba(icurlovision
Stone
p2382
(dp2383
g32
F0.7647058823529411
sg33
F0.11764705882352941
sg34
F0.3382352941176471
sg35
S'yellow'
p2384
sba(icurlovision
Stone
p2385
(dp2386
g32
F7.235294117647059
sg33
F2.764705882352941
sg34
F0.47058823529411764
sg35
S'red'
p2387
sba(icurlovision
Stone
p2388
(dp2389
g32
F4.794117647058823
sg33
F0.6470588235294118
sg34
F0.47058823529411764
sg35
S'yellow'
p2390
sba(icurlovision
Stone
p2391
(dp2392
g32
F-3.264705882352941
sg33
F2.411764705882353
sg34
F0.3529411764705882
sg35
S'red'
p2393
sba(icurlovision
Stone
p2394
(dp2395
g32
F-2.0
sg33
F-3.941176470588235
sg34
F0.3529411764705882
sg35
S'red'
p2396
sbasba(icurlovision
StoneLayout
p2397
(dp2398
g27
F0.4791666666666667
sg28
(lp2399
(icurlovision
Stone
p2400
(dp2401
g32
F7.222222222222221
sg33
F2.7777777777777777
sg34
F0.4583333333333333
sg35
S'red'
p2402
sba(icurlovision
Stone
p2403
(dp2404
g32
F1.0277777777777777
sg33
F-3.6666666666666665
sg34
F0.3472222222222222
sg35
S'yellow'
p2405
sba(icurlovision
Stone
p2406
(dp2407
g32
F5.722222222222222
sg33
F0.611111111111111
sg34
F0.3333333333333333
sg35
S'red'
p2408
sba(icurlovision
Stone
p2409
(dp2410
g32
F-3.2777777777777777
sg33
F2.4166666666666665
sg34
F0.3611111111111111
sg35
S'red'
p2411
sba(icurlovision
Stone
p2412
(dp2413
g32
F-1.972222222222222
sg33
F-3.972222222222222
sg34
F0.3472222222222222
sg35
S'red'
p2414
sbasba(icurlovision
StoneLayout
p2415
(dp2416
g27
F0.4791666666666667
sg28
(lp2417
(icurlovision
Stone
p2418
(dp2419
g32
F-3.3173076923076925
sg33
F0.14423076923076925
sg34
F0.46153846153846156
sg35
S'yellow'
p2420
sba(icurlovision
Stone
p2421
(dp2422
g32
F7.125
sg33
F2.769230769230769
sg34
F0.46153846153846156
sg35
S'red'
p2423
sba(icurlovision
Stone
p2424
(dp2425
g32
F0.9807692307692308
sg33
F-3.605769230769231
sg34
F0.46153846153846156
sg35
S'yellow'
p2426
sba(icurlovision
Stone
p2427
(dp2428
g32
F-3.2884615384615388
sg33
F2.451923076923077
sg34
F0.3317307692307693
sg35
S'red'
p2429
sba(icurlovision
Stone
p2430
(dp2431
g32
F-1.9903846153846154
sg33
F-3.951923076923077
sg34
F0.3605769230769231
sg35
S'red'
p2432
sba(icurlovision
Stone
p2433
(dp2434
g32
F5.653846153846154
sg33
F0.6346153846153847
sg34
F0.46153846153846156
sg35
S'red'
p2435
sbasba(icurlovision
StoneLayout
p2436
(dp2437
g27
F0.4791666666666667
sg28
(lp2438
(icurlovision
Stone
p2439
(dp2440
g32
F1.005
sg33
F-3.645
sg34
F0.345
sg35
S'yellow'
p2441
sba(icurlovision
Stone
p2442
(dp2443
g32
F7.215
sg33
F2.775
sg34
F0.435
sg35
S'red'
p2444
sba(icurlovision
Stone
p2445
(dp2446
g32
F-5.444999999999999
sg33
F-3.435
sg34
F0.44999999999999996
sg35
S'red'
p2447
sba(icurlovision
Stone
p2448
(dp2449
g32
F-1.9949999999999999
sg33
F-3.945
sg34
F0.44999999999999996
sg35
S'red'
p2450
sba(icurlovision
Stone
p2451
(dp2452
g32
F5.685
sg33
F0.6749999999999999
sg34
F0.44999999999999996
sg35
S'red'
p2453
sba(icurlovision
Stone
p2454
(dp2455
g32
F-3.255
sg33
F2.445
sg34
F0.32999999999999996
sg35
S'red'
p2456
sbasba(icurlovision
StoneLayout
p2457
(dp2458
g27
F0.4791666666666667
sg28
(lp2459
(icurlovision
Stone
p2460
(dp2461
g32
F-3.208333333333333
sg33
F-0.06944444444444445
sg34
F0.3194444444444444
sg35
S'yellow'
p2462
sba(icurlovision
Stone
p2463
(dp2464
g32
F-5.347222222222222
sg33
F-3.4027777777777777
sg34
F0.4722222222222222
sg35
S'red'
p2465
sba(icurlovision
Stone
p2466
(dp2467
g32
F7.208333333333333
sg33
F2.763888888888889
sg34
F0.3472222222222222
sg35
S'red'
p2468
sba(icurlovision
Stone
p2469
(dp2470
g32
F0.986111111111111
sg33
F-3.597222222222222
sg34
F0.4583333333333333
sg35
S'yellow'
p2471
sba(icurlovision
Stone
p2472
(dp2473
g32
F-1.986111111111111
sg33
F-3.9027777777777777
sg34
F0.3472222222222222
sg35
S'red'
p2474
sba(icurlovision
Stone
p2475
(dp2476
g32
F-3.208333333333333
sg33
F2.375
sg34
F0.4444444444444444
sg35
S'red'
p2477
sba(icurlovision
Stone
p2478
(dp2479
g32
F5.708333333333333
sg33
F0.6805555555555555
sg34
F0.41666666666666663
sg35
S'red'
p2480
sbasba(icurlovision
StoneLayout
p2481
(dp2482
g27
F0.4791666666666667
sg28
(lp2483
(icurlovision
Stone
p2484
(dp2485
g32
F-5.485294117647059
sg33
F-3.5294117647058822
sg34
F0.4852941176470588
sg35
S'red'
p2486
sba(icurlovision
Stone
p2487
(dp2488
g32
F-2.338235294117647
sg33
F-0.11764705882352941
sg34
F0.4852941176470588
sg35
S'red'
p2489
sba(icurlovision
Stone
p2490
(dp2491
g32
F7.25
sg33
F2.764705882352941
sg34
F0.45588235294117646
sg35
S'red'
p2492
sba(icurlovision
Stone
p2493
(dp2494
g32
F1.0441176470588236
sg33
F-3.735294117647059
sg34
F0.3382352941176471
sg35
S'yellow'
p2495
sba(icurlovision
Stone
p2496
(dp2497
g32
F-2.014705882352941
sg33
F-4.0
sg34
F0.3235294117647059
sg35
S'red'
p2498
sba(icurlovision
Stone
p2499
(dp2500
g32
F-3.338235294117647
sg33
F2.411764705882353
sg34
F0.3529411764705882
sg35
S'red'
p2501
sba(icurlovision
Stone
p2502
(dp2503
g32
F5.75
sg33
F0.6176470588235294
sg34
F0.47058823529411764
sg35
S'red'
p2504
sbasbasg211
I7
sg212
I0
sba(icurlovision
EndResult
p2505
(dp2506
g2
I7
sg9
(lp2507
(I8
I7
tp2508
a(I7
I7
tp2509
a(I5
I5
tp2510
a(I5
I4
tp2511
a(I4
I3
tp2512
a(I3
I3
tp2513
a(I3
I2
tp2514
a(I2
I2
tp2515
a(I2
I1
tp2516
a(I1
I1
tp2517
a(I1
I0
tp2518
asg22
I11
sg23
(lp2519
(icurlovision
StoneLayout
p2520
(dp2521
g27
F0.4791666666666667
sg28
(lp2522
(icurlovision
Stone
p2523
(dp2524
g32
F7.25
sg33
F0.55
sg34
F0.3
sg35
S'yellow'
p2525
sbasba(icurlovision
StoneLayout
p2526
(dp2527
g27
F0.4791666666666667
sg28
(lp2528
(icurlovision
Stone
p2529
(dp2530
g32
F7.455
sg33
F0.525
sg34
F0.36
sg35
S'yellow'
p2531
sbasba(icurlovision
StoneLayout
p2532
(dp2533
g27
F0.4791666666666667
sg28
(lp2534
(icurlovision
Stone
p2535
(dp2536
g32
F-1.163265306122449
sg33
F-1.3010204081632653
sg34
F0.336734693877551
sg35
S'yellow'
p2537
sba(icurlovision
Stone
p2538
(dp2539
g32
F-1.4693877551020407
sg33
F5.892857142857142
sg34
F0.3520408163265306
sg35
S'red'
p2540
sba(icurlovision
Stone
p2541
(dp2542
g32
F5.081632653061225
sg33
F-1.8214285714285714
sg34
F0.30612244897959184
sg35
S'yellow'
p2543
sbasba(icurlovision
StoneLayout
p2544
(dp2545
g27
F0.4791666666666667
sg28
(lp2546
(icurlovision
Stone
p2547
(dp2548
g32
F-1.1511627906976745
sg33
F-1.255813953488372
sg34
F0.313953488372093
sg35
S'yellow'
p2549
sba(icurlovision
Stone
p2550
(dp2551
g32
F-1.3953488372093024
sg33
F5.720930232558139
sg34
F0.3313953488372093
sg35
S'red'
p2552
sba(icurlovision
Stone
p2553
(dp2554
g32
F4.988372093023256
sg33
F-1.7790697674418605
sg34
F0.313953488372093
sg35
S'yellow'
p2555
sba(icurlovision
Stone
p2556
(dp2557
g32
F11.965116279069766
sg33
F-0.8372093023255813
sg34
F0.41860465116279066
sg35
S'yellow'
p2558
sbasba(icurlovision
StoneLayout
p2559
(dp2560
g27
F0.4791666666666667
sg28
(lp2561
(icurlovision
Stone
p2562
(dp2563
g32
F-1.1785714285714286
sg33
F-1.357142857142857
sg34
F0.3214285714285714
sg35
S'yellow'
p2564
sba(icurlovision
Stone
p2565
(dp2566
g32
F-1.4642857142857142
sg33
F5.928571428571428
sg34
F0.3214285714285714
sg35
S'red'
p2567
sba(icurlovision
Stone
p2568
(dp2569
g32
F13.107142857142856
sg33
F-0.5357142857142857
sg34
F0.2857142857142857
sg35
S'red'
p2570
sba(icurlovision
Stone
p2571
(dp2572
g32
F5.7142857142857135
sg33
F-0.5
sg34
F0.3214285714285714
sg35
S'yellow'
p2573
sbasba(icurlovision
StoneLayout
p2574
(dp2575
g27
F0.4791666666666667
sg28
(lp2576
(icurlovision
Stone
p2577
(dp2578
g32
F11.926829268292682
sg33
F-3.8048780487804876
sg34
F0.4390243902439024
sg35
S'red'
p2579
sba(icurlovision
Stone
p2580
(dp2581
g32
F-1.2073170731707317
sg33
F-1.2804878048780488
sg34
F0.3475609756097561
sg35
S'yellow'
p2582
sba(icurlovision
Stone
p2583
(dp2584
g32
F-1.5
sg33
F5.890243902439024
sg34
F0.31097560975609756
sg35
S'red'
p2585
sba(icurlovision
Stone
p2586
(dp2587
g32
F5.597560975609756
sg33
F-0.47560975609756095
sg34
F0.3292682926829268
sg35
S'yellow'
p2588
sbasba(icurlovision
StoneLayout
p2589
(dp2590
g27
F0.4791666666666667
sg28
(lp2591
(icurlovision
Stone
p2592
(dp2593
g32
F12.16875
sg33
F-3.9187499999999997
sg34
F0.43124999999999997
sg35
S'red'
p2594
sba(icurlovision
Stone
p2595
(dp2596
g32
F-1.21875
sg33
F-1.33125
sg34
F0.31875
sg35
S'yellow'
p2597
sba(icurlovision
Stone
p2598
(dp2599
g32
F-1.48125
sg33
F5.94375
sg34
F0.33749999999999997
sg35
S'red'
p2600
sba(icurlovision
Stone
p2601
(dp2602
g32
F11.94375
sg33
F-0.7687499999999999
sg34
F0.44999999999999996
sg35
S'yellow'
p2603
sba(icurlovision
Stone
p2604
(dp2605
g32
F5.6812499999999995
sg33
F-0.50625
sg34
F0.33749999999999997
sg35
S'yellow'
p2606
sbasba(icurlovision
StoneLayout
p2607
(dp2608
g27
F0.4791666666666667
sg28
(lp2609
(icurlovision
Stone
p2610
(dp2611
g32
F2.0795454545454546
sg33
F-4.465909090909091
sg34
F0.4261363636363636
sg35
S'yellow'
p2612
sba(icurlovision
Stone
p2613
(dp2614
g32
F-1.125
sg33
F-1.2613636363636362
sg34
F0.32386363636363635
sg35
S'yellow'
p2615
sba(icurlovision
Stone
p2616
(dp2617
g32
F-1.4318181818181817
sg33
F5.727272727272727
sg34
F0.32386363636363635
sg35
S'red'
p2618
sba(icurlovision
Stone
p2619
(dp2620
g32
F11.147727272727272
sg33
F-2.965909090909091
sg34
F0.4431818181818181
sg35
S'red'
p2621
sba(icurlovision
Stone
p2622
(dp2623
g32
F11.693181818181817
sg33
F-3.715909090909091
sg34
F0.4602272727272727
sg35
S'red'
p2624
sbasba(icurlovision
StoneLayout
p2625
(dp2626
g27
F0.4791666666666667
sg28
(lp2627
(icurlovision
Stone
p2628
(dp2629
g32
F2.15625
sg33
F-4.70625
sg34
F0.33749999999999997
sg35
S'yellow'
p2630
sba(icurlovision
Stone
p2631
(dp2632
g32
F-1.21875
sg33
F-1.36875
sg34
F0.33749999999999997
sg35
S'yellow'
p2633
sba(icurlovision
Stone
p2634
(dp2635
g32
F-1.48125
sg33
F5.98125
sg34
F0.28125
sg35
S'red'
p2636
sba(icurlovision
Stone
p2637
(dp2638
g32
F14.19375
sg33
F-0.43124999999999997
sg34
F0.43124999999999997
sg35
S'yellow'
p2639
sba(icurlovision
Stone
p2640
(dp2641
g32
F12.13125
sg33
F-3.8812499999999996
sg34
F0.2625
sg35
S'red'
p2642
sba(icurlovision
Stone
p2643
(dp2644
g32
F11.60625
sg33
F-3.05625
sg34
F0.44999999999999996
sg35
S'red'
p2645
sbasba(icurlovision
StoneLayout
p2646
(dp2647
g27
F0.4791666666666667
sg28
(lp2648
(icurlovision
Stone
p2649
(dp2650
g32
F-0.7697368421052632
sg33
F-2.3092105263157894
sg34
F0.47368421052631576
sg35
S'red'
p2651
sba(icurlovision
Stone
p2652
(dp2653
g32
F12.05921052631579
sg33
F-3.8486842105263155
sg34
F0.2763157894736842
sg35
S'red'
p2654
sba(icurlovision
Stone
p2655
(dp2656
g32
F-1.4407894736842104
sg33
F5.940789473684211
sg34
F0.256578947368421
sg35
S'red'
p2657
sba(icurlovision
Stone
p2658
(dp2659
g32
F2.1907894736842106
sg33
F-4.638157894736842
sg34
F0.4539473684210526
sg35
S'yellow'
p2660
sba(icurlovision
Stone
p2661
(dp2662
g32
F11.546052631578947
sg33
F-3.0592105263157894
sg34
F0.2763157894736842
sg35
S'red'
p2663
sba(icurlovision
Stone
p2664
(dp2665
g32
F14.111842105263158
sg33
F-0.4539473684210526
sg34
F0.43421052631578944
sg35
S'yellow'
p2666
sbasba(icurlovision
StoneLayout
p2667
(dp2668
g27
F0.4791666666666667
sg28
(lp2669
(icurlovision
Stone
p2670
(dp2671
g32
F2.142857142857143
sg33
F-4.607142857142857
sg34
F0.3214285714285714
sg35
S'yellow'
p2672
sba(icurlovision
Stone
p2673
(dp2674
g32
F-0.8214285714285714
sg33
F-2.25
sg34
F0.3214285714285714
sg35
S'red'
p2675
sba(icurlovision
Stone
p2676
(dp2677
g32
F0.10714285714285714
sg33
F-1.2142857142857142
sg34
F0.30357142857142855
sg35
S'yellow'
p2678
sba(icurlovision
Stone
p2679
(dp2680
g32
F11.928571428571427
sg33
F-3.8571428571428568
sg34
F0.25
sg35
S'red'
p2681
sba(icurlovision
Stone
p2682
(dp2683
g32
F-1.4642857142857142
sg33
F5.892857142857142
sg34
F0.4464285714285714
sg35
S'red'
p2684
sba(icurlovision
Stone
p2685
(dp2686
g32
F14.0
sg33
F-0.39285714285714285
sg34
F0.33928571428571425
sg35
S'yellow'
p2687
sba(icurlovision
Stone
p2688
(dp2689
g32
F11.428571428571427
sg33
F-3.0357142857142856
sg34
F0.2857142857142857
sg35
S'red'
p2690
sbasbasg211
I7
sg212
I1
sbasS'version'
p2691
I20180812
sg211
I7
sS'metadata'
p2692
(icurlovision
MatchMetadata
p2693
(dp2694
S'team_name_red'
p2695
S'Unknown'
p2696
sS'event_name'
p2697
g2696
sS'gender'
p2698
g2696
sS'other_info'
p2699
g2696
sS'team_name_yel'
p2700
g2696
sS'date'
p2701
g2696
sbsb.