(icurlovision
MatchResult
p0
(dp1
S'yel_score'
p2
I33
sS'name'
p3
S"VideoLibrary/PyeongChang.Olympics.2018.curling.men's.round-robin.Canada.v.Sweden.1080p.NBC.WEB-DL-FINFUNGUS.mp4"
p4
sS'end_results'
p5
(lp6
(icurlovision
EndResult
p7
(dp8
g2
I0
sS'stones_left'
p9
(lp10
(I8
I7
tp11
a(I7
I7
tp12
a(I6
I6
tp13
a(I6
I5
tp14
a(I5
I4
tp15
a(I4
I3
tp16
a(I3
I3
tp17
a(I3
I2
tp18
a(I2
I2
tp19
a(I2
I1
tp20
a(I1
I1
tp21
a(I1
I0
tp22
asS'end_num'
p23
I1
sS'stone_layouts'
p24
(lp25
(icurlovision
StoneLayout
p26
(dp27
S'stone_radius'
p28
F0.4791666666666667
sS'stones'
p29
(lp30
(icurlovision
Stone
p31
(dp32
S'y'
p33
F9.482142857142856
sS'x'
p34
F-0.625
sS'r'
p35
F0.4464285714285714
sS'color'
p36
S'yellow'
p37
sbasba(icurlovision
StoneLayout
p38
(dp39
g28
F0.4791666666666667
sg29
(lp40
(icurlovision
Stone
p41
(dp42
g33
F9.472826086956522
sg34
F-0.6032608695652174
sg35
F0.358695652173913
sg36
S'yellow'
p43
sba(icurlovision
Stone
p44
(dp45
g33
F1.2554347826086956
sg34
F-2.005434782608696
sg35
F0.32608695652173914
sg36
S'red'
p46
sbasba(icurlovision
StoneLayout
p47
(dp48
g28
F0.4791666666666667
sg29
(lp49
(icurlovision
Stone
p50
(dp51
g33
F3.0174418604651163
sg34
F-1.9534883720930232
sg35
F0.436046511627907
sg36
S'red'
p52
sba(icurlovision
Stone
p53
(dp54
g33
F9.296511627906977
sg34
F-0.627906976744186
sg35
F0.41860465116279066
sg36
S'yellow'
p55
sbasba(icurlovision
StoneLayout
p56
(dp57
g28
F0.4791666666666667
sg29
(lp58
(icurlovision
Stone
p59
(dp60
g33
F9.359375
sg34
F-0.640625
sg35
F0.4375
sg36
S'yellow'
p61
sba(icurlovision
Stone
p62
(dp63
g33
F3.828125
sg34
F-1.515625
sg35
F0.328125
sg36
S'yellow'
p64
sbasba(icurlovision
StoneLayout
p65
(dp66
g28
F0.4791666666666667
sg29
(lp67
(icurlovision
Stone
p68
(dp69
g33
F9.633333333333333
sg34
F-0.6666666666666666
sg35
F0.45
sg36
S'yellow'
p70
sba(icurlovision
Stone
p71
(dp72
g33
F5.566666666666666
sg34
F-2.1666666666666665
sg35
F0.31666666666666665
sg36
S'yellow'
p73
sba(icurlovision
Stone
p74
(dp75
g33
F9.533333333333333
sg34
F-5.933333333333334
sg35
F0.3
sg36
S'yellow'
p76
sbasba(icurlovision
StoneLayout
p77
(dp78
g28
F0.4791666666666667
sg29
(lp79
(icurlovision
Stone
p80
(dp81
g33
F9.53804347826087
sg34
F-0.6032608695652174
sg35
F0.34239130434782605
sg36
S'yellow'
p82
sba(icurlovision
Stone
p83
(dp84
g33
F2.8532608695652173
sg34
F-2.135869565217391
sg35
F0.32608695652173914
sg36
S'yellow'
p85
sbasba(icurlovision
StoneLayout
p86
(dp87
g28
F0.4791666666666667
sg29
(lp88
(icurlovision
Stone
p89
(dp90
g33
F9.574468085106382
sg34
F-0.6063829787234042
sg35
F0.351063829787234
sg36
S'yellow'
p91
sba(icurlovision
Stone
p92
(dp93
g33
F1.7553191489361701
sg34
F-0.031914893617021274
sg35
F0.351063829787234
sg36
S'yellow'
p94
sbasba(icurlovision
StoneLayout
p95
(dp96
g28
F0.4791666666666667
sg29
(lp97
(icurlovision
Stone
p98
(dp99
g33
F10.043478260869565
sg34
F-0.048913043478260865
sg35
F0.44021739130434784
sg36
S'yellow'
p100
sba(icurlovision
Stone
p101
(dp102
g33
F-6.423913043478261
sg34
F4.614130434782608
sg35
F0.27717391304347827
sg36
S'red'
p103
sbasba(icurlovision
StoneLayout
p104
(dp105
g28
F0.4791666666666667
sg29
(lp106
sba(icurlovision
StoneLayout
p107
(dp108
g28
F0.4791666666666667
sg29
(lp109
(icurlovision
Stone
p110
(dp111
g33
F2.859375
sg34
F1.390625
sg35
F0.328125
sg36
S'yellow'
p112
sbasba(icurlovision
StoneLayout
p113
(dp114
g28
F0.4791666666666667
sg29
(lp115
(icurlovision
Stone
p116
(dp117
g33
F3.8197674418604652
sg34
F1.377906976744186
sg35
F0.3488372093023256
sg36
S'red'
p118
sbasba(icurlovision
StoneLayout
p119
(dp120
g28
F0.4791666666666667
sg29
(lp121
(icurlovision
Stone
p122
(dp123
g33
F4.395
sg34
F0.495
sg35
F0.345
sg36
S'yellow'
p124
sbasbasS'red_score'
p125
I0
sS'red_hammer'
p126
I1
sba(icurlovision
EndResult
p127
(dp128
g2
I0
sg9
(lp129
(I8
I7
tp130
a(I7
I6
tp131
a(I6
I6
tp132
a(I5
I4
tp133
a(I4
I3
tp134
a(I3
I3
tp135
a(I3
I2
tp136
a(I2
I2
tp137
a(I2
I1
tp138
a(I1
I1
tp139
a(I1
I0
tp140
asg23
I2
sg24
(lp141
(icurlovision
StoneLayout
p142
(dp143
g28
F0.4791666666666667
sg29
(lp144
(icurlovision
Stone
p145
(dp146
g33
F1.578125
sg34
F-0.328125
sg35
F0.34375
sg36
S'yellow'
p147
sbasba(icurlovision
StoneLayout
p148
(dp149
g28
F0.4791666666666667
sg29
(lp150
(icurlovision
Stone
p151
(dp152
g33
F11.396739130434783
sg34
F2.657608695652174
sg35
F0.44021739130434784
sg36
S'red'
p153
sba(icurlovision
Stone
p154
(dp155
g33
F5.070652173913043
sg34
F-0.5706521739130435
sg35
F0.30978260869565216
sg36
S'yellow'
p156
sba(icurlovision
Stone
p157
(dp158
g33
F1.5815217391304348
sg34
F-0.34239130434782605
sg35
F0.47282608695652173
sg36
S'yellow'
p159
sbasba(icurlovision
StoneLayout
p160
(dp161
g28
F0.4791666666666667
sg29
(lp162
(icurlovision
Stone
p163
(dp164
g33
F11.494565217391305
sg34
F2.657608695652174
sg35
F0.44021739130434784
sg36
S'red'
p165
sba(icurlovision
Stone
p166
(dp167
g33
F5.625
sg34
F0.24456521739130435
sg35
F0.34239130434782605
sg36
S'red'
p168
sbasba(icurlovision
StoneLayout
p169
(dp170
g28
F0.4791666666666667
sg29
(lp171
(icurlovision
Stone
p172
(dp173
g33
F7.2228260869565215
sg34
F0.7663043478260869
sg35
F0.45652173913043476
sg36
S'red'
p174
sba(icurlovision
Stone
p175
(dp176
g33
F0.30978260869565216
sg34
F0.5380434782608695
sg35
F0.34239130434782605
sg36
S'yellow'
p177
sba(icurlovision
Stone
p178
(dp179
g33
F11.592391304347826
sg34
F2.6902173913043477
sg35
F0.44021739130434784
sg36
S'red'
p180
sba(icurlovision
Stone
p181
(dp182
g33
F10.28804347826087
sg34
F-5.592391304347826
sg35
F0.2934782608695652
sg36
S'yellow'
p183
sbasba(icurlovision
StoneLayout
p184
(dp185
g28
F0.4791666666666667
sg29
(lp186
(icurlovision
Stone
p187
(dp188
g33
F7.25
sg34
F0.75
sg35
F0.4666666666666667
sg36
S'red'
p189
sba(icurlovision
Stone
p190
(dp191
g33
F2.0166666666666666
sg34
F-0.21666666666666667
sg35
F0.3333333333333333
sg36
S'yellow'
p192
sba(icurlovision
Stone
p193
(dp194
g33
F-0.2833333333333333
sg34
F0.6833333333333333
sg35
F0.3333333333333333
sg36
S'yellow'
p195
sba(icurlovision
Stone
p196
(dp197
g33
F0.75
sg34
F0.21666666666666667
sg35
F0.26666666666666666
sg36
S'red'
p198
sba(icurlovision
Stone
p199
(dp200
g33
F11.583333333333334
sg34
F2.683333333333333
sg35
F0.45
sg36
S'red'
p201
sba(icurlovision
Stone
p202
(dp203
g33
F10.483333333333333
sg34
F-6.55
sg35
F0.3
sg36
S'yellow'
p204
sbasba(icurlovision
StoneLayout
p205
(dp206
g28
F0.4791666666666667
sg29
(lp207
(icurlovision
Stone
p208
(dp209
g33
F1.9891304347826086
sg34
F-0.19565217391304346
sg35
F0.32608695652173914
sg36
S'yellow'
p210
sba(icurlovision
Stone
p211
(dp212
g33
F0.717391304347826
sg34
F0.19565217391304346
sg35
F0.32608695652173914
sg36
S'red'
p213
sba(icurlovision
Stone
p214
(dp215
g33
F2.282608695652174
sg34
F-3.0
sg35
F0.32608695652173914
sg36
S'red'
p216
sba(icurlovision
Stone
p217
(dp218
g33
F-0.2608695652173913
sg34
F0.6847826086956521
sg35
F0.34239130434782605
sg36
S'yellow'
p219
sba(icurlovision
Stone
p220
(dp221
g33
F11.315217391304348
sg34
F2.608695652173913
sg35
F0.45652173913043476
sg36
S'red'
p222
sba(icurlovision
Stone
p223
(dp224
g33
F5.119565217391304
sg34
F2.608695652173913
sg35
F0.30978260869565216
sg36
S'red'
p225
sbasba(icurlovision
StoneLayout
p226
(dp227
g28
F0.4791666666666667
sg29
(lp228
(icurlovision
Stone
p229
(dp230
g33
F11.494186046511627
sg34
F2.703488372093023
sg35
F0.436046511627907
sg36
S'red'
p231
sba(icurlovision
Stone
p232
(dp233
g33
F-0.2616279069767442
sg34
F0.6802325581395349
sg35
F0.313953488372093
sg36
S'yellow'
p234
sba(icurlovision
Stone
p235
(dp236
g33
F0.7848837209302325
sg34
F0.2616279069767442
sg35
F0.313953488372093
sg36
S'red'
p237
sba(icurlovision
Stone
p238
(dp239
g33
F2.0406976744186047
sg34
F-0.19186046511627908
sg35
F0.3313953488372093
sg36
S'yellow'
p240
sba(icurlovision
Stone
p241
(dp242
g33
F3.1569767441860463
sg34
F-2.877906976744186
sg35
F0.45348837209302323
sg36
S'yellow'
p243
sba(icurlovision
Stone
p244
(dp245
g33
F5.215116279069767
sg34
F2.633720930232558
sg35
F0.41860465116279066
sg36
S'red'
p246
sbasba(icurlovision
StoneLayout
p247
(dp248
g28
F0.4791666666666667
sg29
(lp249
(icurlovision
Stone
p250
(dp251
g33
F11.651162790697674
sg34
F2.755813953488372
sg35
F0.45348837209302323
sg36
S'red'
p252
sba(icurlovision
Stone
p253
(dp254
g33
F3.697674418604651
sg34
F2.0930232558139537
sg35
F0.47093023255813954
sg36
S'red'
p255
sba(icurlovision
Stone
p256
(dp257
g33
F5.267441860465116
sg34
F2.686046511627907
sg35
F0.2616279069767442
sg36
S'red'
p258
sba(icurlovision
Stone
p259
(dp260
g33
F1.7093023255813953
sg34
F0.20930232558139533
sg35
F0.3488372093023256
sg36
S'yellow'
p261
sba(icurlovision
Stone
p262
(dp263
g33
F0.5930232558139534
sg34
F0.27906976744186046
sg35
F0.2616279069767442
sg36
S'red'
p264
sbasba(icurlovision
StoneLayout
p265
(dp266
g28
F0.4791666666666667
sg29
(lp267
(icurlovision
Stone
p268
(dp269
g33
F11.21590909090909
sg34
F2.625
sg35
F0.4431818181818181
sg36
S'red'
p270
sba(icurlovision
Stone
p271
(dp272
g33
F0.5454545454545454
sg34
F0.30681818181818177
sg35
F0.4602272727272727
sg36
S'red'
p273
sba(icurlovision
Stone
p274
(dp275
g33
F10.261363636363635
sg34
F0.06818181818181818
sg35
F0.2727272727272727
sg36
S'yellow'
p276
sba(icurlovision
Stone
p277
(dp278
g33
F1.602272727272727
sg34
F0.23863636363636362
sg35
F0.4602272727272727
sg36
S'yellow'
p279
sba(icurlovision
Stone
p280
(dp281
g33
F5.045454545454545
sg34
F2.590909090909091
sg35
F0.32386363636363635
sg36
S'red'
p282
sba(icurlovision
Stone
p283
(dp284
g33
F3.579545454545454
sg34
F2.0113636363636362
sg35
F0.3409090909090909
sg36
S'red'
p285
sbasba(icurlovision
StoneLayout
p286
(dp287
g28
F0.4791666666666667
sg29
(lp288
(icurlovision
Stone
p289
(dp290
g33
F0.5425531914893617
sg34
F0.28723404255319146
sg35
F0.3191489361702127
sg36
S'red'
p291
sba(icurlovision
Stone
p292
(dp293
g33
F11.297872340425531
sg34
F2.6170212765957444
sg35
F0.28723404255319146
sg36
S'red'
p294
sba(icurlovision
Stone
p295
(dp296
g33
F4.691489361702128
sg34
F6.095744680851063
sg35
F0.28723404255319146
sg36
S'red'
p297
sba(icurlovision
Stone
p298
(dp299
g33
F5.042553191489361
sg34
F2.553191489361702
sg35
F0.3031914893617021
sg36
S'red'
p300
sba(icurlovision
Stone
p301
(dp302
g33
F1.627659574468085
sg34
F0.19148936170212766
sg35
F0.33510638297872336
sg36
S'yellow'
p303
sba(icurlovision
Stone
p304
(dp305
g33
F-4.691489361702128
sg34
F-6.574468085106383
sg35
F0.4787234042553191
sg36
S'yellow'
p306
sba(icurlovision
Stone
p307
(dp308
g33
F3.606382978723404
sg34
F2.0106382978723403
sg35
F0.4308510638297872
sg36
S'red'
p309
sbasba(icurlovision
StoneLayout
p310
(dp311
g28
F0.4791666666666667
sg29
(lp312
(icurlovision
Stone
p313
(dp314
g33
F0.6195652173913043
sg34
F0.32608695652173914
sg35
F0.47282608695652173
sg36
S'red'
p315
sba(icurlovision
Stone
p316
(dp317
g33
F9.391304347826086
sg34
F0.13043478260869565
sg35
F0.45652173913043476
sg36
S'yellow'
p318
sba(icurlovision
Stone
p319
(dp320
g33
F1.7608695652173914
sg34
F0.22826086956521738
sg35
F0.4891304347826087
sg36
S'yellow'
p321
sba(icurlovision
Stone
p322
(dp323
g33
F11.902173913043478
sg34
F2.7717391304347827
sg35
F0.45652173913043476
sg36
S'red'
p324
sba(icurlovision
Stone
p325
(dp326
g33
F3.8152173913043477
sg34
F2.119565217391304
sg35
F0.45652173913043476
sg36
S'red'
p327
sba(icurlovision
Stone
p328
(dp329
g33
F5.380434782608695
sg34
F2.7391304347826084
sg35
F0.30978260869565216
sg36
S'red'
p330
sbasbasg125
I2
sg126
I1
sba(icurlovision
EndResult
p331
(dp332
g2
I0
sg9
(lp333
(I7
I7
tp334
a(I6
I6
tp335
a(I5
I6
tp336
a(I5
I5
tp337
a(I4
I5
tp338
a(I4
I4
tp339
a(I3
I4
tp340
a(I3
I3
tp341
a(I2
I3
tp342
a(I2
I2
tp343
a(I1
I2
tp344
a(I1
I1
tp345
a(I0
I1
tp346
asg23
I3
sg24
(lp347
(icurlovision
StoneLayout
p348
(dp349
g28
F0.4791666666666667
sg29
(lp350
(icurlovision
Stone
p351
(dp352
g33
F11.346153846153847
sg34
F-2.807692307692308
sg35
F0.44230769230769235
sg36
S'yellow'
p353
sba(icurlovision
Stone
p354
(dp355
g33
F0.5384615384615385
sg34
F-0.11538461538461539
sg35
F0.34615384615384615
sg36
S'red'
p356
sbasba(icurlovision
StoneLayout
p357
(dp358
g28
F0.4791666666666667
sg29
(lp359
(icurlovision
Stone
p360
(dp361
g33
F0.7819148936170213
sg34
F-2.8882978723404253
sg35
F0.4627659574468085
sg36
S'yellow'
p362
sba(icurlovision
Stone
p363
(dp364
g33
F11.28191489361702
sg34
F-2.7925531914893615
sg35
F0.4627659574468085
sg36
S'yellow'
p365
sba(icurlovision
Stone
p366
(dp367
g33
F6.654255319148936
sg34
F-0.07978723404255318
sg35
F0.4308510638297872
sg36
S'red'
p368
sba(icurlovision
Stone
p369
(dp370
g33
F0.5585106382978723
sg34
F-0.175531914893617
sg35
F0.44680851063829785
sg36
S'red'
p371
sbasba(icurlovision
StoneLayout
p372
(dp373
g28
F0.4791666666666667
sg29
(lp374
(icurlovision
Stone
p375
(dp376
g33
F0.7638888888888888
sg34
F-2.847222222222222
sg35
F0.4444444444444444
sg36
S'yellow'
p377
sba(icurlovision
Stone
p378
(dp379
g33
F6.625
sg34
F-0.06944444444444445
sg35
F0.4583333333333333
sg36
S'red'
p380
sba(icurlovision
Stone
p381
(dp382
g33
F0.5416666666666666
sg34
F-0.125
sg35
F0.4583333333333333
sg36
S'red'
p383
sbasba(icurlovision
StoneLayout
p384
(dp385
g28
F0.4791666666666667
sg29
(lp386
(icurlovision
Stone
p387
(dp388
g33
F0.7358490566037736
sg34
F-2.702830188679245
sg35
F0.2971698113207547
sg36
S'yellow'
p389
sba(icurlovision
Stone
p390
(dp391
g33
F6.452830188679245
sg34
F-0.014150943396226415
sg35
F0.4528301886792453
sg36
S'red'
p392
sba(icurlovision
Stone
p393
(dp394
g33
F1.0188679245283019
sg34
F0.7216981132075472
sg35
F0.32547169811320753
sg36
S'yellow'
p395
sba(icurlovision
Stone
p396
(dp397
g33
F0.02830188679245283
sg34
F-0.49528301886792453
sg35
F0.4386792452830189
sg36
S'red'
p398
sbasba(icurlovision
StoneLayout
p399
(dp400
g28
F0.4791666666666667
sg29
(lp401
(icurlovision
Stone
p402
(dp403
g33
F6.8125
sg34
F-0.03125
sg35
F0.46875
sg36
S'red'
p404
sba(icurlovision
Stone
p405
(dp406
g33
F1.03125
sg34
F0.84375
sg35
F0.46875
sg36
S'yellow'
p407
sba(icurlovision
Stone
p408
(dp409
g33
F1.875
sg34
F0.0
sg35
F0.28125
sg36
S'red'
p410
sba(icurlovision
Stone
p411
(dp412
g33
F-1.25
sg34
F0.15625
sg35
F0.3125
sg36
S'red'
p413
sba(icurlovision
Stone
p414
(dp415
g33
F8.65625
sg34
F-4.75
sg35
F0.28125
sg36
S'yellow'
p416
sbasba(icurlovision
StoneLayout
p417
(dp418
g28
F0.4791666666666667
sg29
(lp419
(icurlovision
Stone
p420
(dp421
g33
F6.555555555555555
sg34
F-0.027777777777777776
sg35
F0.3333333333333333
sg36
S'red'
p422
sba(icurlovision
Stone
p423
(dp424
g33
F1.8055555555555554
sg34
F1.25
sg35
F0.4444444444444444
sg36
S'yellow'
p425
sba(icurlovision
Stone
p426
(dp427
g33
F1.5555555555555554
sg34
F-0.3055555555555555
sg35
F0.3194444444444444
sg36
S'red'
p428
sba(icurlovision
Stone
p429
(dp430
g33
F0.9722222222222222
sg34
F0.7777777777777777
sg35
F0.3194444444444444
sg36
S'yellow'
p431
sba(icurlovision
Stone
p432
(dp433
g33
F-1.1111111111111112
sg34
F0.16666666666666666
sg35
F0.4444444444444444
sg36
S'red'
p434
sbasba(icurlovision
StoneLayout
p435
(dp436
g28
F0.4791666666666667
sg29
(lp437
(icurlovision
Stone
p438
(dp439
g33
F6.650943396226415
sg34
F-0.05660377358490566
sg35
F0.4528301886792453
sg36
S'red'
p440
sba(icurlovision
Stone
p441
(dp442
g33
F2.3207547169811322
sg34
F0.19811320754716982
sg35
F0.339622641509434
sg36
S'red'
p443
sba(icurlovision
Stone
p444
(dp445
g33
F-0.339622641509434
sg34
F0.2830188679245283
sg35
F0.32547169811320753
sg36
S'yellow'
p446
sba(icurlovision
Stone
p447
(dp448
g33
F1.4716981132075473
sg34
F-0.339622641509434
sg35
F0.3113207547169811
sg36
S'red'
p449
sbasba(icurlovision
StoneLayout
p450
(dp451
g28
F0.4791666666666667
sg29
(lp452
(icurlovision
Stone
p453
(dp454
g33
F4.7109375
sg34
F-0.65625
sg35
F0.375
sg36
S'red'
p455
sba(icurlovision
Stone
p456
(dp457
g33
F1.078125
sg34
F-0.421875
sg35
F0.3984375
sg36
S'red'
p458
sba(icurlovision
Stone
p459
(dp460
g33
F0.421875
sg34
F-0.890625
sg35
F0.36328125
sg36
S'red'
p461
sba(icurlovision
Stone
p462
(dp463
g33
F-1.078125
sg34
F-0.375
sg35
F0.41015625
sg36
S'yellow'
p464
sba(icurlovision
Stone
p465
(dp466
g33
F3.3046875
sg34
F-1.40625
sg35
F0.3515625
sg36
S'yellow'
p467
sbasba(icurlovision
StoneLayout
p468
(dp469
g28
F0.4791666666666667
sg29
(lp470
(icurlovision
Stone
p471
(dp472
g33
F-3.3173076923076925
sg34
F5.3798076923076925
sg35
F0.4903846153846154
sg36
S'red'
p473
sba(icurlovision
Stone
p474
(dp475
g33
F7.009615384615385
sg34
F1.1682692307692308
sg35
F0.44711538461538464
sg36
S'red'
p476
sba(icurlovision
Stone
p477
(dp478
g33
F-0.375
sg34
F0.27403846153846156
sg35
F0.31730769230769235
sg36
S'yellow'
p479
sba(icurlovision
Stone
p480
(dp481
g33
F2.307692307692308
sg34
F0.2451923076923077
sg35
F0.3317307692307693
sg36
S'red'
p482
sba(icurlovision
Stone
p483
(dp484
g33
F1.4711538461538463
sg34
F-0.3605769230769231
sg35
F0.3028846153846154
sg36
S'red'
p485
sba(icurlovision
Stone
p486
(dp487
g33
F-4.759615384615385
sg34
F-2.8990384615384617
sg35
F0.3028846153846154
sg36
S'yellow'
p488
sbasba(icurlovision
StoneLayout
p489
(dp490
g28
F0.4791666666666667
sg29
(lp491
(icurlovision
Stone
p492
(dp493
g33
F2.4166666666666665
sg34
F-1.4444444444444444
sg35
F0.4444444444444444
sg36
S'yellow'
p494
sba(icurlovision
Stone
p495
(dp496
g33
F-3.444444444444444
sg34
F5.444444444444444
sg35
F0.3472222222222222
sg36
S'red'
p497
sba(icurlovision
Stone
p498
(dp499
g33
F7.166666666666666
sg34
F1.1666666666666665
sg35
F0.4583333333333333
sg36
S'red'
p500
sba(icurlovision
Stone
p501
(dp502
g33
F-0.3611111111111111
sg34
F0.2777777777777778
sg35
F0.3194444444444444
sg36
S'yellow'
p503
sbasba(icurlovision
StoneLayout
p504
(dp505
g28
F0.4791666666666667
sg29
(lp506
(icurlovision
Stone
p507
(dp508
g33
F-5.184782608695652
sg34
F4.239130434782608
sg35
F0.44021739130434784
sg36
S'yellow'
p509
sba(icurlovision
Stone
p510
(dp511
g33
F6.945652173913043
sg34
F1.141304347826087
sg35
F0.44021739130434784
sg36
S'red'
p512
sbasba(icurlovision
StoneLayout
p513
(dp514
g28
F0.4791666666666667
sg29
(lp515
(icurlovision
Stone
p516
(dp517
g33
F-5.31
sg34
F4.38
sg35
F0.44999999999999996
sg36
S'yellow'
p518
sba(icurlovision
Stone
p519
(dp520
g33
F7.17
sg34
F1.17
sg35
F0.44999999999999996
sg36
S'red'
p521
sbasba(icurlovision
StoneLayout
p522
(dp523
g28
F0.4791666666666667
sg29
(lp524
(icurlovision
Stone
p525
(dp526
g33
F-5.359375
sg34
F4.4375
sg35
F0.453125
sg36
S'yellow'
p527
sba(icurlovision
Stone
p528
(dp529
g33
F1.234375
sg34
F-1.9375
sg35
F0.46875
sg36
S'red'
p530
sba(icurlovision
Stone
p531
(dp532
g33
F7.890625
sg34
F1.625
sg35
F0.46875
sg36
S'red'
p533
sbasbasg125
I2
sg126
I0
sba(icurlovision
EndResult
p534
(dp535
g2
I0
sg9
(lp536
(I7
I7
tp537
a(I5
I6
tp538
a(I5
I5
tp539
a(I4
I5
tp540
a(I4
I4
tp541
a(I3
I4
tp542
a(I3
I3
tp543
a(I2
I3
tp544
a(I2
I2
tp545
a(I1
I2
tp546
a(I1
I1
tp547
a(I0
I1
tp548
asg23
I4
sg24
(lp549
(icurlovision
StoneLayout
p550
(dp551
g28
F0.4791666666666667
sg29
(lp552
(icurlovision
Stone
p553
(dp554
g33
F0.1683673469387755
sg34
F-0.07653061224489796
sg35
F0.3214285714285714
sg36
S'red'
p555
sba(icurlovision
Stone
p556
(dp557
g33
F7.821428571428571
sg34
F-0.10714285714285714
sg35
F0.42857142857142855
sg36
S'red'
p558
sbasba(icurlovision
StoneLayout
p559
(dp560
g28
F0.4791666666666667
sg29
(lp561
(icurlovision
Stone
p562
(dp563
g33
F8.833333333333334
sg34
F-2.7333333333333334
sg35
F0.45
sg36
S'yellow'
p564
sba(icurlovision
Stone
p565
(dp566
g33
F7.766666666666667
sg34
F-0.1
sg35
F0.4
sg36
S'red'
p567
sba(icurlovision
Stone
p568
(dp569
g33
F1.0666666666666667
sg34
F0.06666666666666667
sg35
F0.31666666666666665
sg36
S'yellow'
p570
sba(icurlovision
Stone
p571
(dp572
g33
F2.0666666666666664
sg34
F0.06666666666666667
sg35
F0.35
sg36
S'red'
p573
sba(icurlovision
Stone
p574
(dp575
g33
F0.1
sg34
F-0.03333333333333333
sg35
F0.4666666666666667
sg36
S'red'
p576
sba(icurlovision
Stone
p577
(dp578
g33
F-4.133333333333333
sg34
F4.366666666666666
sg35
F0.26666666666666666
sg36
S'yellow'
p579
sbasba(icurlovision
StoneLayout
p580
(dp581
g28
F0.4791666666666667
sg29
(lp582
(icurlovision
Stone
p583
(dp584
g33
F-2.8043478260869565
sg34
F0.4891304347826087
sg35
F0.47282608695652173
sg36
S'yellow'
p585
sba(icurlovision
Stone
p586
(dp587
g33
F9.130434782608695
sg34
F-2.8369565217391304
sg35
F0.47282608695652173
sg36
S'yellow'
p588
sba(icurlovision
Stone
p589
(dp590
g33
F8.021739130434783
sg34
F-0.09782608695652173
sg35
F0.47282608695652173
sg36
S'red'
p591
sba(icurlovision
Stone
p592
(dp593
g33
F1.108695652173913
sg34
F0.06521739130434782
sg35
F0.34239130434782605
sg36
S'yellow'
p594
sba(icurlovision
Stone
p595
(dp596
g33
F2.119565217391304
sg34
F0.03260869565217391
sg35
F0.34239130434782605
sg36
S'red'
p597
sba(icurlovision
Stone
p598
(dp599
g33
F0.13043478260869565
sg34
F-0.06521739130434782
sg35
F0.32608695652173914
sg36
S'red'
p600
sba(icurlovision
Stone
p601
(dp602
g33
F9.16304347826087
sg34
F-4.760869565217392
sg35
F0.30978260869565216
sg36
S'yellow'
p603
sbasba(icurlovision
StoneLayout
p604
(dp605
g28
F0.4791666666666667
sg29
(lp606
(icurlovision
Stone
p607
(dp608
g33
F-2.7446808510638294
sg34
F0.4627659574468085
sg35
F0.33510638297872336
sg36
S'yellow'
p609
sba(icurlovision
Stone
p610
(dp611
g33
F2.936170212765957
sg34
F0.07978723404255318
sg35
F0.4627659574468085
sg36
S'red'
p612
sba(icurlovision
Stone
p613
(dp614
g33
F0.9893617021276595
sg34
F0.047872340425531915
sg35
F0.3031914893617021
sg36
S'yellow'
p615
sba(icurlovision
Stone
p616
(dp617
g33
F-0.19148936170212766
sg34
F-0.11170212765957446
sg35
F0.3191489361702127
sg36
S'red'
p618
sba(icurlovision
Stone
p619
(dp620
g33
F8.904255319148936
sg34
F-2.7606382978723403
sg35
F0.4308510638297872
sg36
S'yellow'
p621
sba(icurlovision
Stone
p622
(dp623
g33
F7.787234042553191
sg34
F-0.11170212765957446
sg35
F0.3031914893617021
sg36
S'red'
p624
sba(icurlovision
Stone
p625
(dp626
g33
F1.978723404255319
sg34
F0.015957446808510637
sg35
F0.33510638297872336
sg36
S'red'
p627
sbasba(icurlovision
StoneLayout
p628
(dp629
g28
F0.4791666666666667
sg29
(lp630
(icurlovision
Stone
p631
(dp632
g33
F-2.770408163265306
sg34
F0.413265306122449
sg35
F0.336734693877551
sg36
S'yellow'
p633
sba(icurlovision
Stone
p634
(dp635
g33
F8.678571428571429
sg34
F-0.04591836734693877
sg35
F0.29081632653061223
sg36
S'yellow'
p636
sba(icurlovision
Stone
p637
(dp638
g33
F2.4948979591836733
sg34
F1.2091836734693877
sg35
F0.45918367346938777
sg36
S'red'
p639
sba(icurlovision
Stone
p640
(dp641
g33
F9.01530612244898
sg34
F-2.8316326530612246
sg35
F0.44387755102040816
sg36
S'yellow'
p642
sba(icurlovision
Stone
p643
(dp644
g33
F0.3826530612244898
sg34
F0.596938775510204
sg35
F0.3214285714285714
sg36
S'yellow'
p645
sba(icurlovision
Stone
p646
(dp647
g33
F2.188775510204082
sg34
F-3.4744897959183674
sg35
F0.3520408163265306
sg36
S'red'
p648
sba(icurlovision
Stone
p649
(dp650
g33
F1.8826530612244898
sg34
F0.015306122448979591
sg35
F0.45918367346938777
sg36
S'red'
p651
sbasba(icurlovision
StoneLayout
p652
(dp653
g28
F0.4791666666666667
sg29
(lp654
(icurlovision
Stone
p655
(dp656
g33
F8.385
sg34
F0.105
sg35
F0.44999999999999996
sg36
S'yellow'
p657
sba(icurlovision
Stone
p658
(dp659
g33
F8.685
sg34
F-2.565
sg35
F0.44999999999999996
sg36
S'yellow'
p660
sba(icurlovision
Stone
p661
(dp662
g33
F2.025
sg34
F-3.165
sg35
F0.435
sg36
S'red'
p663
sba(icurlovision
Stone
p664
(dp665
g33
F1.035
sg34
F1.155
sg35
F0.345
sg36
S'red'
p666
sba(icurlovision
Stone
p667
(dp668
g33
F1.785
sg34
F0.16499999999999998
sg35
F0.315
sg36
S'red'
p669
sbasba(icurlovision
StoneLayout
p670
(dp671
g28
F0.4791666666666667
sg29
(lp672
(icurlovision
Stone
p673
(dp674
g33
F1.1323529411764706
sg34
F1.0441176470588236
sg35
F0.3529411764705882
sg36
S'red'
p675
sba(icurlovision
Stone
p676
(dp677
g33
F9.073529411764707
sg34
F-2.838235294117647
sg35
F0.47058823529411764
sg36
S'yellow'
p678
sba(icurlovision
Stone
p679
(dp680
g33
F1.8970588235294117
sg34
F0.014705882352941176
sg35
F0.3382352941176471
sg36
S'red'
p681
sbasba(icurlovision
StoneLayout
p682
(dp683
g28
F0.4791666666666667
sg29
(lp684
(icurlovision
Stone
p685
(dp686
g33
F9.323863636363635
sg34
F-2.914772727272727
sg35
F0.4602272727272727
sg36
S'yellow'
p687
sba(icurlovision
Stone
p688
(dp689
g33
F1.1761363636363635
sg34
F1.0738636363636362
sg35
F0.47727272727272724
sg36
S'red'
p690
sba(icurlovision
Stone
p691
(dp692
g33
F10.482954545454545
sg34
F-0.22159090909090906
sg35
F0.4602272727272727
sg36
S'red'
p693
sba(icurlovision
Stone
p694
(dp695
g33
F1.9602272727272725
sg34
F0.05113636363636363
sg35
F0.3579545454545454
sg36
S'red'
p696
sbasba(icurlovision
StoneLayout
p697
(dp698
g28
F0.4791666666666667
sg29
(lp699
(icurlovision
Stone
p700
(dp701
g33
F9.0
sg34
F-2.7906976744186047
sg35
F0.436046511627907
sg36
S'yellow'
p702
sba(icurlovision
Stone
p703
(dp704
g33
F10.674418604651162
sg34
F0.20930232558139533
sg35
F0.45348837209302323
sg36
S'yellow'
p705
sba(icurlovision
Stone
p706
(dp707
g33
F-5.546511627906977
sg34
F-5.1976744186046515
sg35
F0.3488372093023256
sg36
S'red'
p708
sbasba(icurlovision
StoneLayout
p709
(dp710
g28
F0.4791666666666667
sg29
(lp711
(icurlovision
Stone
p712
(dp713
g33
F8.921875
sg34
F-2.765625
sg35
F0.453125
sg36
S'yellow'
p714
sba(icurlovision
Stone
p715
(dp716
g33
F10.578125
sg34
F0.234375
sg35
F0.421875
sg36
S'yellow'
p717
sba(icurlovision
Stone
p718
(dp719
g33
F2.328125
sg34
F0.515625
sg35
F0.453125
sg36
S'red'
p720
sbasba(icurlovision
StoneLayout
p721
(dp722
g28
F0.4791666666666667
sg29
(lp723
(icurlovision
Stone
p724
(dp725
g33
F9.017045454545453
sg34
F-2.8125
sg35
F0.4602272727272727
sg36
S'yellow'
p726
sba(icurlovision
Stone
p727
(dp728
g33
F11.369318181818182
sg34
F-0.1875
sg35
F0.30681818181818177
sg36
S'yellow'
p729
sbasba(icurlovision
StoneLayout
p730
(dp731
g28
F0.4791666666666667
sg29
(lp732
(icurlovision
Stone
p733
(dp734
g33
F11.2
sg34
F-0.13333333333333333
sg35
F0.45
sg36
S'yellow'
p735
sba(icurlovision
Stone
p736
(dp737
g33
F8.9
sg34
F-2.7666666666666666
sg35
F0.45
sg36
S'yellow'
p738
sba(icurlovision
Stone
p739
(dp740
g33
F2.433333333333333
sg34
F0.26666666666666666
sg35
F0.4666666666666667
sg36
S'red'
p741
sbasbasg125
I2
sg126
I0
sba(icurlovision
EndResult
p742
(dp743
g2
I2
sg9
(lp744
(I6
I6
tp745
a(I5
I6
tp746
a(I5
I5
tp747
a(I4
I5
tp748
a(I4
I4
tp749
a(I3
I4
tp750
a(I3
I3
tp751
a(I2
I3
tp752
a(I2
I2
tp753
a(I1
I2
tp754
a(I1
I1
tp755
a(I0
I1
tp756
asg23
I5
sg24
(lp757
(icurlovision
StoneLayout
p758
(dp759
g28
F0.4791666666666667
sg29
(lp760
(icurlovision
Stone
p761
(dp762
g33
F7.353260869565217
sg34
F-1.3858695652173914
sg35
F0.47282608695652173
sg36
S'red'
p763
sba(icurlovision
Stone
p764
(dp765
g33
F10.320652173913043
sg34
F2.625
sg35
F0.45652173913043476
sg36
S'yellow'
p766
sba(icurlovision
Stone
p767
(dp768
g33
F1.0271739130434783
sg34
F-1.125
sg35
F0.47282608695652173
sg36
S'red'
p769
sba(icurlovision
Stone
p770
(dp771
g33
F2.168478260869565
sg34
F-0.6358695652173912
sg35
F0.34239130434782605
sg36
S'yellow'
p772
sbasba(icurlovision
StoneLayout
p773
(dp774
g28
F0.4791666666666667
sg29
(lp775
(icurlovision
Stone
p776
(dp777
g33
F7.141304347826087
sg34
F-1.3369565217391304
sg35
F0.44021739130434784
sg36
S'red'
p778
sba(icurlovision
Stone
p779
(dp780
g33
F1.858695652173913
sg34
F-0.8152173913043478
sg35
F0.32608695652173914
sg36
S'yellow'
p781
sba(icurlovision
Stone
p782
(dp783
g33
F9.945652173913043
sg34
F2.543478260869565
sg35
F0.44021739130434784
sg36
S'yellow'
p784
sba(icurlovision
Stone
p785
(dp786
g33
F0.5217391304347826
sg34
F-1.2391304347826086
sg35
F0.32608695652173914
sg36
S'red'
p787
sba(icurlovision
Stone
p788
(dp789
g33
F1.9239130434782608
sg34
F0.717391304347826
sg35
F0.30978260869565216
sg36
S'red'
p790
sbasba(icurlovision
StoneLayout
p791
(dp792
g28
F0.4791666666666667
sg29
(lp793
(icurlovision
Stone
p794
(dp795
g33
F10.01086956521739
sg34
F2.559782608695652
sg35
F0.44021739130434784
sg36
S'yellow'
p796
sba(icurlovision
Stone
p797
(dp798
g33
F7.173913043478261
sg34
F-1.3206521739130435
sg35
F0.44021739130434784
sg36
S'red'
p799
sba(icurlovision
Stone
p800
(dp801
g33
F1.891304347826087
sg34
F-0.7989130434782609
sg35
F0.34239130434782605
sg36
S'yellow'
p802
sba(icurlovision
Stone
p803
(dp804
g33
F4.010869565217392
sg34
F-0.24456521739130435
sg35
F0.32608695652173914
sg36
S'yellow'
p805
sba(icurlovision
Stone
p806
(dp807
g33
F1.9891304347826086
sg34
F0.7010869565217391
sg35
F0.34239130434782605
sg36
S'red'
p808
sba(icurlovision
Stone
p809
(dp810
g33
F0.5543478260869565
sg34
F-1.2228260869565217
sg35
F0.45652173913043476
sg36
S'red'
p811
sbasba(icurlovision
StoneLayout
p812
(dp813
g28
F0.4791666666666667
sg29
(lp814
(icurlovision
Stone
p815
(dp816
g33
F6.574468085106383
sg34
F-2.0265957446808507
sg35
F0.4627659574468085
sg36
S'red'
p817
sba(icurlovision
Stone
p818
(dp819
g33
F2.8723404255319145
sg34
F-1.2606382978723403
sg35
F0.44680851063829785
sg36
S'yellow'
p820
sba(icurlovision
Stone
p821
(dp822
g33
F9.893617021276595
sg34
F2.50531914893617
sg35
F0.351063829787234
sg36
S'yellow'
p823
sba(icurlovision
Stone
p824
(dp825
g33
F-1.978723404255319
sg34
F6.335106382978723
sg35
F0.44680851063829785
sg36
S'red'
p826
sba(icurlovision
Stone
p827
(dp828
g33
F1.8191489361702127
sg34
F-0.7819148936170213
sg35
F0.3191489361702127
sg36
S'yellow'
p829
sba(icurlovision
Stone
p830
(dp831
g33
F0.5425531914893617
sg34
F-1.228723404255319
sg35
F0.351063829787234
sg36
S'red'
p832
sba(icurlovision
Stone
p833
(dp834
g33
F1.9148936170212765
sg34
F0.6861702127659574
sg35
F0.44680851063829785
sg36
S'red'
p835
sbasba(icurlovision
StoneLayout
p836
(dp837
g28
F0.4791666666666667
sg29
(lp838
(icurlovision
Stone
p839
(dp840
g33
F0.75
sg34
F-2.8977272727272725
sg35
F0.4431818181818181
sg36
S'yellow'
p841
sba(icurlovision
Stone
p842
(dp843
g33
F-1.977272727272727
sg34
F6.306818181818182
sg35
F0.3409090909090909
sg36
S'red'
p844
sba(icurlovision
Stone
p845
(dp846
g33
F9.71590909090909
sg34
F2.4886363636363633
sg35
F0.4261363636363636
sg36
S'yellow'
p847
sba(icurlovision
Stone
p848
(dp849
g33
F3.1363636363636362
sg34
F-0.03409090909090909
sg35
F0.28977272727272724
sg36
S'yellow'
p850
sba(icurlovision
Stone
p851
(dp852
g33
F6.511363636363636
sg34
F-1.977272727272727
sg35
F0.32386363636363635
sg36
S'red'
p853
sba(icurlovision
Stone
p854
(dp855
g33
F1.534090909090909
sg34
F-0.6477272727272727
sg35
F0.28977272727272724
sg36
S'yellow'
p856
sba(icurlovision
Stone
p857
(dp858
g33
F0.47727272727272724
sg34
F-1.159090909090909
sg35
F0.4261363636363636
sg36
S'red'
p859
sba(icurlovision
Stone
p860
(dp861
g33
F1.909090909090909
sg34
F0.75
sg35
F0.2727272727272727
sg36
S'red'
p862
sba(icurlovision
Stone
p863
(dp864
g33
F9.34090909090909
sg34
F-6.034090909090908
sg35
F0.30681818181818177
sg36
S'yellow'
p865
sbasba(icurlovision
StoneLayout
p866
(dp867
g28
F0.4791666666666667
sg29
(lp868
(icurlovision
Stone
p869
(dp870
g33
F3.1914893617021276
sg34
F-0.09574468085106383
sg35
F0.3191489361702127
sg36
S'yellow'
p871
sba(icurlovision
Stone
p872
(dp873
g33
F-2.0106382978723403
sg34
F6.3510638297872335
sg35
F0.44680851063829785
sg36
S'red'
p874
sba(icurlovision
Stone
p875
(dp876
g33
F9.893617021276595
sg34
F2.5212765957446805
sg35
F0.44680851063829785
sg36
S'yellow'
p877
sba(icurlovision
Stone
p878
(dp879
g33
F6.031914893617021
sg34
F-5.074468085106383
sg35
F0.351063829787234
sg36
S'red'
p880
sba(icurlovision
Stone
p881
(dp882
g33
F0.2553191489361702
sg34
F-2.1382978723404253
sg35
F0.44680851063829785
sg36
S'red'
p883
sba(icurlovision
Stone
p884
(dp885
g33
F-5.8085106382978715
sg34
F-5.968085106382978
sg35
F0.4627659574468085
sg36
S'yellow'
p886
sba(icurlovision
Stone
p887
(dp888
g33
F0.5106382978723404
sg34
F-1.180851063829787
sg35
F0.351063829787234
sg36
S'red'
p889
sba(icurlovision
Stone
p890
(dp891
g33
F1.9468085106382977
sg34
F0.6702127659574467
sg35
F0.351063829787234
sg36
S'red'
p892
sba(icurlovision
Stone
p893
(dp894
g33
F8.936170212765957
sg34
F-5.680851063829786
sg35
F0.28723404255319146
sg36
S'yellow'
p895
sbasba(icurlovision
StoneLayout
p896
(dp897
g28
F0.4791666666666667
sg29
(lp898
(icurlovision
Stone
p899
(dp900
g33
F-2.05
sg34
F6.466666666666667
sg35
F0.4666666666666667
sg36
S'red'
p901
sba(icurlovision
Stone
p902
(dp903
g33
F6.116666666666666
sg34
F-5.166666666666667
sg35
F0.45
sg36
S'red'
p904
sba(icurlovision
Stone
p905
(dp906
g33
F10.116666666666667
sg34
F2.6
sg35
F0.45
sg36
S'yellow'
p907
sba(icurlovision
Stone
p908
(dp909
g33
F0.25
sg34
F-2.1666666666666665
sg35
F0.4666666666666667
sg36
S'red'
p910
sba(icurlovision
Stone
p911
(dp912
g33
F1.15
sg34
F-1.9
sg35
F0.4666666666666667
sg36
S'yellow'
p913
sba(icurlovision
Stone
p914
(dp915
g33
F3.216666666666667
sg34
F-0.1
sg35
F0.4666666666666667
sg36
S'yellow'
p916
sba(icurlovision
Stone
p917
(dp918
g33
F1.95
sg34
F0.7
sg35
F0.35
sg36
S'red'
p919
sba(icurlovision
Stone
p920
(dp921
g33
F-5.216666666666667
sg34
F0.23333333333333334
sg35
F0.36666666666666664
sg36
S'red'
p922
sbasba(icurlovision
StoneLayout
p923
(dp924
g28
F0.4791666666666667
sg29
(lp925
(icurlovision
Stone
p926
(dp927
g33
F2.329787234042553
sg34
F-6.957446808510638
sg35
F0.33510638297872336
sg36
S'yellow'
p928
sba(icurlovision
Stone
p929
(dp930
g33
F-2.074468085106383
sg34
F6.446808510638298
sg35
F0.3191489361702127
sg36
S'red'
p931
sba(icurlovision
Stone
p932
(dp933
g33
F10.117021276595743
sg34
F2.553191489361702
sg35
F0.3670212765957446
sg36
S'yellow'
p934
sba(icurlovision
Stone
p935
(dp936
g33
F6.063829787234042
sg34
F-5.138297872340425
sg35
F0.4627659574468085
sg36
S'red'
p937
sba(icurlovision
Stone
p938
(dp939
g33
F-4.819148936170213
sg34
F1.3085106382978722
sg35
F0.351063829787234
sg36
S'yellow'
p940
sba(icurlovision
Stone
p941
(dp942
g33
F1.978723404255319
sg34
F0.6702127659574467
sg35
F0.3191489361702127
sg36
S'red'
p943
sbasba(icurlovision
StoneLayout
p944
(dp945
g28
F0.4791666666666667
sg29
(lp946
(icurlovision
Stone
p947
(dp948
g33
F2.216666666666667
sg34
F-6.683333333333334
sg35
F0.45
sg36
S'yellow'
p949
sba(icurlovision
Stone
p950
(dp951
g33
F-2.0166666666666666
sg34
F6.216666666666667
sg35
F0.45
sg36
S'red'
p952
sba(icurlovision
Stone
p953
(dp954
g33
F9.75
sg34
F2.4833333333333334
sg35
F0.31666666666666665
sg36
S'yellow'
p955
sba(icurlovision
Stone
p956
(dp957
g33
F0.11666666666666667
sg34
F4.583333333333333
sg35
F0.4166666666666667
sg36
S'yellow'
p958
sba(icurlovision
Stone
p959
(dp960
g33
F-4.616666666666666
sg34
F1.2833333333333332
sg35
F0.35
sg36
S'yellow'
p961
sba(icurlovision
Stone
p962
(dp963
g33
F5.85
sg34
F-4.916666666666667
sg35
F0.45
sg36
S'red'
p964
sbasba(icurlovision
StoneLayout
p965
(dp966
g28
F0.4791666666666667
sg29
(lp967
(icurlovision
Stone
p968
(dp969
g33
F6.125
sg34
F-5.053571428571428
sg35
F0.4464285714285714
sg36
S'red'
p970
sba(icurlovision
Stone
p971
(dp972
g33
F10.053571428571429
sg34
F2.625
sg35
F0.4464285714285714
sg36
S'yellow'
p973
sba(icurlovision
Stone
p974
(dp975
g33
F2.339285714285714
sg34
F-6.910714285714286
sg35
F0.2857142857142857
sg36
S'yellow'
p976
sba(icurlovision
Stone
p977
(dp978
g33
F-4.875
sg34
F1.3035714285714286
sg35
F0.33928571428571425
sg36
S'yellow'
p979
sba(icurlovision
Stone
p980
(dp981
g33
F0.7678571428571428
sg34
F4.196428571428571
sg35
F0.4464285714285714
sg36
S'red'
p982
sba(icurlovision
Stone
p983
(dp984
g33
F-2.1607142857142856
sg34
F6.410714285714286
sg35
F0.46428571428571425
sg36
S'red'
p985
sbasba(icurlovision
StoneLayout
p986
(dp987
g28
F0.4791666666666667
sg29
(lp988
(icurlovision
Stone
p989
(dp990
g33
F2.233695652173913
sg34
F-6.733695652173913
sg35
F0.32608695652173914
sg36
S'yellow'
p991
sba(icurlovision
Stone
p992
(dp993
g33
F5.885869565217392
sg34
F-4.907608695652174
sg35
F0.44021739130434784
sg36
S'red'
p994
sba(icurlovision
Stone
p995
(dp996
g33
F-2.0706521739130435
sg34
F6.244565217391304
sg35
F0.45652173913043476
sg36
S'red'
p997
sba(icurlovision
Stone
p998
(dp999
g33
F9.766304347826086
sg34
F2.494565217391304
sg35
F0.44021739130434784
sg36
S'yellow'
p1000
sba(icurlovision
Stone
p1001
(dp1002
g33
F-4.679347826086956
sg34
F1.2554347826086956
sg35
F0.358695652173913
sg36
S'yellow'
p1003
sba(icurlovision
Stone
p1004
(dp1005
g33
F1.6467391304347825
sg34
F3.9293478260869565
sg35
F0.32608695652173914
sg36
S'yellow'
p1006
sbasba(icurlovision
StoneLayout
p1007
(dp1008
g28
F0.4791666666666667
sg29
(lp1009
(icurlovision
Stone
p1010
(dp1011
g33
F2.318181818181818
sg34
F-6.920454545454545
sg35
F0.4431818181818181
sg36
S'yellow'
p1012
sba(icurlovision
Stone
p1013
(dp1014
g33
F6.0681818181818175
sg34
F-5.079545454545454
sg35
F0.32386363636363635
sg36
S'red'
p1015
sba(icurlovision
Stone
p1016
(dp1017
g33
F-2.0795454545454546
sg34
F6.4431818181818175
sg35
F0.30681818181818177
sg36
S'red'
p1018
sba(icurlovision
Stone
p1019
(dp1020
g33
F10.022727272727272
sg34
F2.5227272727272725
sg35
F0.4431818181818181
sg36
S'yellow'
p1021
sba(icurlovision
Stone
p1022
(dp1023
g33
F-4.840909090909091
sg34
F1.2954545454545454
sg35
F0.3409090909090909
sg36
S'yellow'
p1024
sbasbasg125
I2
sg126
I0
sba(icurlovision
EndResult
p1025
(dp1026
g2
I4
sg9
(lp1027
(I8
I7
tp1028
a(I7
I7
tp1029
a(I6
I5
tp1030
a(I5
I5
tp1031
a(I5
I4
tp1032
a(I4
I4
tp1033
a(I4
I3
tp1034
a(I3
I3
tp1035
a(I3
I2
tp1036
a(I2
I2
tp1037
a(I2
I1
tp1038
a(I1
I1
tp1039
a(I1
I0
tp1040
asg23
I6
sg24
(lp1041
(icurlovision
StoneLayout
p1042
(dp1043
g28
F0.4791666666666667
sg29
(lp1044
(icurlovision
Stone
p1045
(dp1046
g33
F2.8125
sg34
F-0.53125
sg35
F0.46875
sg36
S'yellow'
p1047
sbasba(icurlovision
StoneLayout
p1048
(dp1049
g28
F0.4791666666666667
sg29
(lp1050
(icurlovision
Stone
p1051
(dp1052
g33
F2.682692307692308
sg34
F-0.4903846153846154
sg35
F0.2884615384615385
sg36
S'yellow'
p1053
sba(icurlovision
Stone
p1054
(dp1055
g33
F8.192307692307693
sg34
F3.0865384615384617
sg35
F0.46153846153846156
sg36
S'red'
p1056
sbasba(icurlovision
StoneLayout
p1057
(dp1058
g28
F0.4791666666666667
sg29
(lp1059
(icurlovision
Stone
p1060
(dp1061
g33
F-3.225
sg34
F-0.135
sg35
F0.46499999999999997
sg36
S'yellow'
p1062
sba(icurlovision
Stone
p1063
(dp1064
g33
F8.205
sg34
F-0.435
sg35
F0.44999999999999996
sg36
S'yellow'
p1065
sba(icurlovision
Stone
p1066
(dp1067
g33
F3.315
sg34
F0.255
sg35
F0.345
sg36
S'red'
p1068
sba(icurlovision
Stone
p1069
(dp1070
g33
F8.385
sg34
F3.165
sg35
F0.3
sg36
S'red'
p1071
sba(icurlovision
Stone
p1072
(dp1073
g33
F2.265
sg34
F-0.765
sg35
F0.46499999999999997
sg36
S'yellow'
p1074
sba(icurlovision
Stone
p1075
(dp1076
g33
F-3.435
sg34
F1.845
sg35
F0.3
sg36
S'red'
p1077
sbasba(icurlovision
StoneLayout
p1078
(dp1079
g28
F0.4791666666666667
sg29
(lp1080
(icurlovision
Stone
p1081
(dp1082
g33
F-3.309782608695652
sg34
F-0.1467391304347826
sg35
F0.47282608695652173
sg36
S'yellow'
p1083
sba(icurlovision
Stone
p1084
(dp1085
g33
F8.266304347826086
sg34
F-0.44021739130434784
sg35
F0.47282608695652173
sg36
S'yellow'
p1086
sba(icurlovision
Stone
p1087
(dp1088
g33
F2.2989130434782608
sg34
F0.21195652173913043
sg35
F0.47282608695652173
sg36
S'red'
p1089
sba(icurlovision
Stone
p1090
(dp1091
g33
F-0.47282608695652173
sg34
F-3.5706521739130435
sg35
F0.32608695652173914
sg36
S'yellow'
p1092
sba(icurlovision
Stone
p1093
(dp1094
g33
F8.46195652173913
sg34
F3.1793478260869565
sg35
F0.45652173913043476
sg36
S'red'
p1095
sba(icurlovision
Stone
p1096
(dp1097
g33
F0.24456521739130435
sg34
F4.353260869565217
sg35
F0.32608695652173914
sg36
S'red'
p1098
sbasba(icurlovision
StoneLayout
p1099
(dp1100
g28
F0.4791666666666667
sg29
(lp1101
(icurlovision
Stone
p1102
(dp1103
g33
F8.315217391304348
sg34
F-0.45652173913043476
sg35
F0.358695652173913
sg36
S'yellow'
p1104
sba(icurlovision
Stone
p1105
(dp1106
g33
F-0.45652173913043476
sg34
F-3.5869565217391304
sg35
F0.4891304347826087
sg36
S'yellow'
p1107
sba(icurlovision
Stone
p1108
(dp1109
g33
F-3.260869565217391
sg34
F-0.16304347826086957
sg35
F0.32608695652173914
sg36
S'yellow'
p1110
sba(icurlovision
Stone
p1111
(dp1112
g33
F8.51086956521739
sg34
F3.1956521739130435
sg35
F0.45652173913043476
sg36
S'red'
p1113
sba(icurlovision
Stone
p1114
(dp1115
g33
F1.0108695652173914
sg34
F4.728260869565217
sg35
F0.34239130434782605
sg36
S'yellow'
p1116
sba(icurlovision
Stone
p1117
(dp1118
g33
F-0.7826086956521738
sg34
F4.793478260869565
sg35
F0.358695652173913
sg36
S'red'
p1119
sba(icurlovision
Stone
p1120
(dp1121
g33
F8.771739130434783
sg34
F-5.608695652173913
sg35
F0.2934782608695652
sg36
S'yellow'
p1122
sbasba(icurlovision
StoneLayout
p1123
(dp1124
g28
F0.4791666666666667
sg29
(lp1125
(icurlovision
Stone
p1126
(dp1127
g33
F-0.4891304347826087
sg34
F-3.4565217391304346
sg35
F0.47282608695652173
sg36
S'yellow'
p1128
sba(icurlovision
Stone
p1129
(dp1130
g33
F-3.1956521739130435
sg34
F-0.16304347826086957
sg35
F0.45652173913043476
sg36
S'yellow'
p1131
sba(icurlovision
Stone
p1132
(dp1133
g33
F8.021739130434783
sg34
F-0.42391304347826086
sg35
F0.358695652173913
sg36
S'yellow'
p1134
sba(icurlovision
Stone
p1135
(dp1136
g33
F7.728260869565217
sg34
F3.4565217391304346
sg35
F0.44021739130434784
sg36
S'red'
p1137
sba(icurlovision
Stone
p1138
(dp1139
g33
F8.380434782608695
sg34
F2.152173913043478
sg35
F0.44021739130434784
sg36
S'red'
p1140
sba(icurlovision
Stone
p1141
(dp1142
g33
F0.9782608695652174
sg34
F4.5978260869565215
sg35
F0.32608695652173914
sg36
S'yellow'
p1143
sba(icurlovision
Stone
p1144
(dp1145
g33
F-0.7826086956521738
sg34
F4.630434782608695
sg35
F0.44021739130434784
sg36
S'red'
p1146
sbasba(icurlovision
StoneLayout
p1147
(dp1148
g28
F0.4791666666666667
sg29
(lp1149
(icurlovision
Stone
p1150
(dp1151
g33
F7.930851063829786
sg34
F3.574468085106383
sg35
F0.4627659574468085
sg36
S'red'
p1152
sba(icurlovision
Stone
p1153
(dp1154
g33
F-3.2393617021276593
sg34
F-0.1276595744680851
sg35
F0.4627659574468085
sg36
S'yellow'
p1155
sba(icurlovision
Stone
p1156
(dp1157
g33
F8.632978723404255
sg34
F2.202127659574468
sg35
F0.44680851063829785
sg36
S'red'
p1158
sba(icurlovision
Stone
p1159
(dp1160
g33
F-0.4627659574468085
sg34
F-3.5106382978723403
sg35
F0.33510638297872336
sg36
S'yellow'
p1161
sba(icurlovision
Stone
p1162
(dp1163
g33
F8.186170212765957
sg34
F-0.4148936170212766
sg35
F0.351063829787234
sg36
S'yellow'
p1164
sba(icurlovision
Stone
p1165
(dp1166
g33
F1.0053191489361701
sg34
F4.723404255319148
sg35
F0.3191489361702127
sg36
S'yellow'
p1167
sba(icurlovision
Stone
p1168
(dp1169
g33
F1.7074468085106382
sg34
F-0.5744680851063829
sg35
F0.3031914893617021
sg36
S'yellow'
p1170
sba(icurlovision
Stone
p1171
(dp1172
g33
F-0.7819148936170213
sg34
F4.75531914893617
sg35
F0.3191489361702127
sg36
S'red'
p1173
sbasba(icurlovision
StoneLayout
p1174
(dp1175
g28
F0.4791666666666667
sg29
(lp1176
(icurlovision
Stone
p1177
(dp1178
g33
F-3.230769230769231
sg34
F-0.14423076923076925
sg35
F0.34615384615384615
sg36
S'yellow'
p1179
sba(icurlovision
Stone
p1180
(dp1181
g33
F-0.4903846153846154
sg34
F-3.4615384615384617
sg35
F0.46153846153846156
sg36
S'yellow'
p1182
sba(icurlovision
Stone
p1183
(dp1184
g33
F7.788461538461539
sg34
F3.4903846153846154
sg35
F0.44711538461538464
sg36
S'red'
p1185
sba(icurlovision
Stone
p1186
(dp1187
g33
F-0.7788461538461539
sg34
F4.644230769230769
sg35
F0.44711538461538464
sg36
S'red'
p1188
sba(icurlovision
Stone
p1189
(dp1190
g33
F0.028846153846153848
sg34
F4.096153846153847
sg35
F0.46153846153846156
sg36
S'yellow'
p1191
sba(icurlovision
Stone
p1192
(dp1193
g33
F8.480769230769232
sg34
F2.1634615384615388
sg35
F0.3317307692307693
sg36
S'red'
p1194
sba(icurlovision
Stone
p1195
(dp1196
g33
F0.8942307692307693
sg34
F5.105769230769231
sg35
F0.3317307692307693
sg36
S'yellow'
p1197
sba(icurlovision
Stone
p1198
(dp1199
g33
F8.826923076923077
sg34
F-0.46153846153846156
sg35
F0.44711538461538464
sg36
S'red'
p1200
sbasba(icurlovision
StoneLayout
p1201
(dp1202
g28
F0.4791666666666667
sg29
(lp1203
(icurlovision
Stone
p1204
(dp1205
g33
F-3.3166666666666664
sg34
F-0.16666666666666666
sg35
F0.35
sg36
S'yellow'
p1206
sba(icurlovision
Stone
p1207
(dp1208
g33
F0.95
sg34
F5.2
sg35
F0.48333333333333334
sg36
S'yellow'
p1209
sba(icurlovision
Stone
p1210
(dp1211
g33
F7.983333333333333
sg34
F3.5666666666666664
sg35
F0.4666666666666667
sg36
S'red'
p1212
sba(icurlovision
Stone
p1213
(dp1214
g33
F0.016666666666666666
sg34
F4.2
sg35
F0.4666666666666667
sg36
S'yellow'
p1215
sba(icurlovision
Stone
p1216
(dp1217
g33
F6.75
sg34
F-2.433333333333333
sg35
F0.4666666666666667
sg36
S'yellow'
p1218
sba(icurlovision
Stone
p1219
(dp1220
g33
F-0.45
sg34
F-3.5666666666666664
sg35
F0.35
sg36
S'yellow'
p1221
sba(icurlovision
Stone
p1222
(dp1223
g33
F8.683333333333334
sg34
F2.1666666666666665
sg35
F0.2833333333333333
sg36
S'red'
p1224
sba(icurlovision
Stone
p1225
(dp1226
g33
F-0.7833333333333333
sg34
F4.8
sg35
F0.35
sg36
S'red'
p1227
sba(icurlovision
Stone
p1228
(dp1229
g33
F8.75
sg34
F-0.1
sg35
F0.4666666666666667
sg36
S'red'
p1230
sbasba(icurlovision
StoneLayout
p1231
(dp1232
g28
F0.4791666666666667
sg29
(lp1233
(icurlovision
Stone
p1234
(dp1235
g33
F-3.244565217391304
sg34
F-0.16304347826086957
sg35
F0.32608695652173914
sg36
S'yellow'
p1236
sba(icurlovision
Stone
p1237
(dp1238
g33
F7.842391304347826
sg34
F3.4891304347826084
sg35
F0.32608695652173914
sg36
S'red'
p1239
sba(icurlovision
Stone
p1240
(dp1241
g33
F0.016304347826086956
sg34
F4.108695652173913
sg35
F0.45652173913043476
sg36
S'yellow'
p1242
sba(icurlovision
Stone
p1243
(dp1244
g33
F-0.5054347826086957
sg34
F-3.4891304347826084
sg35
F0.45652173913043476
sg36
S'yellow'
p1245
sba(icurlovision
Stone
p1246
(dp1247
g33
F0.9293478260869565
sg34
F5.119565217391304
sg35
F0.44021739130434784
sg36
S'yellow'
p1248
sba(icurlovision
Stone
p1249
(dp1250
g33
F6.603260869565217
sg34
F-2.4130434782608696
sg35
F0.34239130434782605
sg36
S'yellow'
p1251
sba(icurlovision
Stone
p1252
(dp1253
g33
F8.494565217391305
sg34
F2.152173913043478
sg35
F0.45652173913043476
sg36
S'red'
p1254
sba(icurlovision
Stone
p1255
(dp1256
g33
F-0.7663043478260869
sg34
F4.663043478260869
sg35
F0.358695652173913
sg36
S'red'
p1257
sba(icurlovision
Stone
p1258
(dp1259
g33
F8.559782608695652
sg34
F-0.13043478260869565
sg35
F0.44021739130434784
sg36
S'red'
p1260
sba(icurlovision
Stone
p1261
(dp1262
g33
F0.21195652173913043
sg34
F0.6195652173913043
sg35
F0.32608695652173914
sg36
S'red'
p1263
sbasba(icurlovision
StoneLayout
p1264
(dp1265
g28
F0.4791666666666667
sg29
(lp1266
(icurlovision
Stone
p1267
(dp1268
g33
F6.715116279069767
sg34
F-2.38953488372093
sg35
F0.47093023255813954
sg36
S'yellow'
p1269
sba(icurlovision
Stone
p1270
(dp1271
g33
F-3.296511627906977
sg34
F-0.1569767441860465
sg35
F0.47093023255813954
sg36
S'yellow'
p1272
sba(icurlovision
Stone
p1273
(dp1274
g33
F0.01744186046511628
sg34
F4.203488372093023
sg35
F0.45348837209302323
sg36
S'yellow'
p1275
sba(icurlovision
Stone
p1276
(dp1277
g33
F-0.47093023255813954
sg34
F-3.5406976744186047
sg35
F0.47093023255813954
sg36
S'yellow'
p1278
sba(icurlovision
Stone
p1279
(dp1280
g33
F7.936046511627907
sg34
F3.5755813953488373
sg35
F0.45348837209302323
sg36
S'red'
p1281
sba(icurlovision
Stone
p1282
(dp1283
g33
F8.598837209302326
sg34
F2.1802325581395348
sg35
F0.45348837209302323
sg36
S'red'
p1284
sba(icurlovision
Stone
p1285
(dp1286
g33
F0.9244186046511628
sg34
F0.01744186046511628
sg35
F0.47093023255813954
sg36
S'yellow'
p1287
sba(icurlovision
Stone
p1288
(dp1289
g33
F0.9244186046511628
sg34
F5.25
sg35
F0.3313953488372093
sg36
S'yellow'
p1290
sba(icurlovision
Stone
p1291
(dp1292
g33
F-0.7848837209302325
sg34
F4.796511627906977
sg35
F0.45348837209302323
sg36
S'red'
p1293
sba(icurlovision
Stone
p1294
(dp1295
g33
F8.703488372093023
sg34
F-0.05232558139534883
sg35
F0.45348837209302323
sg36
S'red'
p1296
sbasba(icurlovision
StoneLayout
p1297
(dp1298
g28
F0.4791666666666667
sg29
(lp1299
(icurlovision
Stone
p1300
(dp1301
g33
F-3.201923076923077
sg34
F-0.14423076923076925
sg35
F0.46153846153846156
sg36
S'yellow'
p1302
sba(icurlovision
Stone
p1303
(dp1304
g33
F-0.4903846153846154
sg34
F-3.432692307692308
sg35
F0.46153846153846156
sg36
S'yellow'
p1305
sba(icurlovision
Stone
p1306
(dp1307
g33
F-0.0
sg34
F4.096153846153847
sg35
F0.44711538461538464
sg36
S'yellow'
p1308
sba(icurlovision
Stone
p1309
(dp1310
g33
F7.759615384615385
sg34
F3.5192307692307696
sg35
F0.44711538461538464
sg36
S'red'
p1311
sba(icurlovision
Stone
p1312
(dp1313
g33
F8.451923076923077
sg34
F2.1923076923076925
sg35
F0.3317307692307693
sg36
S'red'
p1314
sba(icurlovision
Stone
p1315
(dp1316
g33
F1.6442307692307694
sg34
F0.6057692307692308
sg35
F0.44711538461538464
sg36
S'red'
p1317
sba(icurlovision
Stone
p1318
(dp1319
g33
F0.8942307692307693
sg34
F5.0769230769230775
sg35
F0.3028846153846154
sg36
S'yellow'
p1320
sba(icurlovision
Stone
p1321
(dp1322
g33
F6.461538461538462
sg34
F-2.4230769230769234
sg35
F0.4326923076923077
sg36
S'yellow'
p1323
sba(icurlovision
Stone
p1324
(dp1325
g33
F-0.7788461538461539
sg34
F4.673076923076923
sg35
F0.34615384615384615
sg36
S'red'
p1326
sba(icurlovision
Stone
p1327
(dp1328
g33
F8.509615384615385
sg34
F-0.057692307692307696
sg35
F0.4326923076923077
sg36
S'red'
p1329
sba(icurlovision
Stone
p1330
(dp1331
g33
F0.40384615384615385
sg34
F-0.08653846153846154
sg35
F0.3028846153846154
sg36
S'yellow'
p1332
sbasba(icurlovision
StoneLayout
p1333
(dp1334
g28
F0.4791666666666667
sg29
(lp1335
(icurlovision
Stone
p1336
(dp1337
g33
F-0.016304347826086956
sg34
F4.141304347826087
sg35
F0.32608695652173914
sg36
S'yellow'
p1338
sba(icurlovision
Stone
p1339
(dp1340
g33
F-3.277173913043478
sg34
F-0.13043478260869565
sg35
F0.34239130434782605
sg36
S'yellow'
p1341
sba(icurlovision
Stone
p1342
(dp1343
g33
F0.8967391304347826
sg34
F5.1521739130434785
sg35
F0.32608695652173914
sg36
S'yellow'
p1344
sba(icurlovision
Stone
p1345
(dp1346
g33
F6.505434782608695
sg34
F-2.4130434782608696
sg35
F0.32608695652173914
sg36
S'yellow'
p1347
sba(icurlovision
Stone
p1348
(dp1349
g33
F-0.5054347826086957
sg34
F-3.4565217391304346
sg35
F0.45652173913043476
sg36
S'yellow'
p1350
sba(icurlovision
Stone
p1351
(dp1352
g33
F-0.016304347826086956
sg34
F0.06521739130434782
sg35
F0.45652173913043476
sg36
S'yellow'
p1353
sba(icurlovision
Stone
p1354
(dp1355
g33
F1.2554347826086956
sg34
F-0.2934782608695652
sg35
F0.44021739130434784
sg36
S'yellow'
p1356
sba(icurlovision
Stone
p1357
(dp1358
g33
F7.777173913043478
sg34
F3.5543478260869565
sg35
F0.42391304347826086
sg36
S'red'
p1359
sba(icurlovision
Stone
p1360
(dp1361
g33
F1.6467391304347825
sg34
F0.6195652173913043
sg35
F0.358695652173913
sg36
S'red'
p1362
sba(icurlovision
Stone
p1363
(dp1364
g33
F8.429347826086957
sg34
F2.1847826086956523
sg35
F0.45652173913043476
sg36
S'red'
p1365
sba(icurlovision
Stone
p1366
(dp1367
g33
F-0.7989130434782609
sg34
F4.695652173913043
sg35
F0.44021739130434784
sg36
S'red'
p1368
sba(icurlovision
Stone
p1369
(dp1370
g33
F8.494565217391305
sg34
F-0.06521739130434782
sg35
F0.44021739130434784
sg36
S'red'
p1371
sba(icurlovision
Stone
p1372
(dp1373
g33
F-5.266304347826087
sg34
F-2.7065217391304346
sg35
F0.4891304347826087
sg36
S'red'
p1374
sbasbasg125
I2
sg126
I1
sba(icurlovision
EndResult
p1375
(dp1376
g2
I4
sg9
(lp1377
(I7
I7
tp1378
a(I6
I7
tp1379
a(I6
I5
tp1380
a(I5
I5
tp1381
a(I4
I4
tp1382
a(I4
I3
tp1383
a(I3
I3
tp1384
a(I3
I2
tp1385
a(I2
I2
tp1386
a(I2
I1
tp1387
a(I1
I0
tp1388
asg23
I7
sg24
(lp1389
(icurlovision
StoneLayout
p1390
(dp1391
g28
F0.4791666666666667
sg29
(lp1392
(icurlovision
Stone
p1393
(dp1394
g33
F2.3967391304347827
sg34
F-0.1467391304347826
sg35
F0.34239130434782605
sg36
S'yellow'
p1395
sba(icurlovision
Stone
p1396
(dp1397
g33
F11.233695652173912
sg34
F2.9510869565217392
sg35
F0.44021739130434784
sg36
S'red'
p1398
sbasba(icurlovision
StoneLayout
p1399
(dp1400
g28
F0.4791666666666667
sg29
(lp1401
(icurlovision
Stone
p1402
(dp1403
g33
F6.896739130434782
sg34
F0.24456521739130435
sg35
F0.45652173913043476
sg36
S'yellow'
p1404
sba(icurlovision
Stone
p1405
(dp1406
g33
F11.233695652173912
sg34
F2.885869565217391
sg35
F0.44021739130434784
sg36
S'red'
p1407
sba(icurlovision
Stone
p1408
(dp1409
g33
F2.4293478260869565
sg34
F-0.1467391304347826
sg35
F0.34239130434782605
sg36
S'yellow'
p1410
sbasba(icurlovision
StoneLayout
p1411
(dp1412
g28
F0.4791666666666667
sg29
(lp1413
(icurlovision
Stone
p1414
(dp1415
g33
F3.2399999999999998
sg34
F-0.54
sg35
F0.32999999999999996
sg36
S'red'
p1416
sba(icurlovision
Stone
p1417
(dp1418
g33
F6.96
sg34
F0.24
sg35
F0.32999999999999996
sg36
S'yellow'
p1419
sba(icurlovision
Stone
p1420
(dp1421
g33
F2.28
sg34
F-0.12
sg35
F0.3
sg36
S'yellow'
p1422
sba(icurlovision
Stone
p1423
(dp1424
g33
F-5.25
sg34
F-6.72
sg35
F0.285
sg36
S'yellow'
p1425
sbasba(icurlovision
StoneLayout
p1426
(dp1427
g28
F0.4791666666666667
sg29
(lp1428
(icurlovision
Stone
p1429
(dp1430
g33
F6.833333333333333
sg34
F0.23333333333333334
sg35
F0.45
sg36
S'yellow'
p1431
sba(icurlovision
Stone
p1432
(dp1433
g33
F3.1666666666666665
sg34
F-0.5666666666666667
sg35
F0.45
sg36
S'red'
p1434
sba(icurlovision
Stone
p1435
(dp1436
g33
F2.2666666666666666
sg34
F-0.13333333333333333
sg35
F0.3333333333333333
sg36
S'yellow'
p1437
sba(icurlovision
Stone
p1438
(dp1439
g33
F10.466666666666667
sg34
F2.8666666666666667
sg35
F0.45
sg36
S'red'
p1440
sba(icurlovision
Stone
p1441
(dp1442
g33
F6.166666666666667
sg34
F2.433333333333333
sg35
F0.4
sg36
S'yellow'
p1443
sbasba(icurlovision
StoneLayout
p1444
(dp1445
g28
F0.4791666666666667
sg29
(lp1446
(icurlovision
Stone
p1447
(dp1448
g33
F3.1304347826086953
sg34
F-0.5543478260869565
sg35
F0.44021739130434784
sg36
S'red'
p1449
sba(icurlovision
Stone
p1450
(dp1451
g33
F2.282608695652174
sg34
F-0.13043478260869565
sg35
F0.32608695652173914
sg36
S'yellow'
p1452
sba(icurlovision
Stone
p1453
(dp1454
g33
F6.815217391304348
sg34
F0.19565217391304346
sg35
F0.32608695652173914
sg36
S'yellow'
p1455
sba(icurlovision
Stone
p1456
(dp1457
g33
F-1.6630434782608696
sg34
F-0.7826086956521738
sg35
F0.45652173913043476
sg36
S'red'
p1458
sbasba(icurlovision
StoneLayout
p1459
(dp1460
g28
F0.4791666666666667
sg29
(lp1461
(icurlovision
Stone
p1462
(dp1463
g33
F3.485294117647059
sg34
F0.4264705882352941
sg35
F0.45588235294117646
sg36
S'yellow'
p1464
sbasba(icurlovision
StoneLayout
p1465
(dp1466
g28
F0.4791666666666667
sg29
(lp1467
(icurlovision
Stone
p1468
(dp1469
g33
F-1.635
sg34
F-0.705
sg35
F0.32999999999999996
sg36
S'red'
p1470
sba(icurlovision
Stone
p1471
(dp1472
g33
F2.8049999999999997
sg34
F-2.205
sg35
F0.435
sg36
S'red'
p1473
sbasba(icurlovision
StoneLayout
p1474
(dp1475
g28
F0.4791666666666667
sg29
(lp1476
(icurlovision
Stone
p1477
(dp1478
g33
F-4.301020408163265
sg34
F-6.964285714285714
sg35
F0.30612244897959184
sg36
S'yellow'
p1479
sbasba(icurlovision
StoneLayout
p1480
(dp1481
g28
F0.4791666666666667
sg29
(lp1482
(icurlovision
Stone
p1483
(dp1484
g33
F-1.6467391304347825
sg34
F-3.5054347826086953
sg35
F0.34239130434782605
sg36
S'red'
p1485
sbasba(icurlovision
StoneLayout
p1486
(dp1487
g28
F0.4791666666666667
sg29
(lp1488
(icurlovision
Stone
p1489
(dp1490
g33
F-2.0
sg34
F-1.15
sg35
F0.45
sg36
S'yellow'
p1491
sbasba(icurlovision
StoneLayout
p1492
(dp1493
g28
F0.4791666666666667
sg29
(lp1494
(icurlovision
Stone
p1495
(dp1496
g33
F-0.3088235294117647
sg34
F-1.6617647058823528
sg35
F0.3382352941176471
sg36
S'yellow'
p1497
sbasbasg125
I2
sg126
I0
sba(icurlovision
EndResult
p1498
(dp1499
g2
I5
sg9
(lp1500
(I7
I7
tp1501
a(I7
I6
tp1502
a(I6
I6
tp1503
a(I6
I5
tp1504
a(I5
I5
tp1505
a(I5
I4
tp1506
a(I4
I3
tp1507
a(I3
I3
tp1508
a(I3
I2
tp1509
a(I2
I2
tp1510
a(I2
I1
tp1511
a(I1
I1
tp1512
a(I1
I0
tp1513
asg23
I8
sg24
(lp1514
(icurlovision
StoneLayout
p1515
(dp1516
g28
F0.4791666666666667
sg29
(lp1517
(icurlovision
Stone
p1518
(dp1519
g33
F11.642045454545453
sg34
F2.6761363636363633
sg35
F0.4602272727272727
sg36
S'red'
p1520
sba(icurlovision
Stone
p1521
(dp1522
g33
F1.7556818181818181
sg34
F0.11931818181818181
sg35
F0.3409090909090909
sg36
S'yellow'
p1523
sbasba(icurlovision
StoneLayout
p1524
(dp1525
g28
F0.4791666666666667
sg29
(lp1526
(icurlovision
Stone
p1527
(dp1528
g33
F-1.8166666666666667
sg34
F-0.08333333333333333
sg35
F0.4666666666666667
sg36
S'yellow'
p1529
sba(icurlovision
Stone
p1530
(dp1531
g33
F1.7166666666666666
sg34
F0.15
sg35
F0.3333333333333333
sg36
S'yellow'
p1532
sba(icurlovision
Stone
p1533
(dp1534
g33
F11.516666666666666
sg34
F2.683333333333333
sg35
F0.4666666666666667
sg36
S'red'
p1535
sbasba(icurlovision
StoneLayout
p1536
(dp1537
g28
F0.4791666666666667
sg29
(lp1538
(icurlovision
Stone
p1539
(dp1540
g33
F-2.952127659574468
sg34
F-0.047872340425531915
sg35
F0.4627659574468085
sg36
S'yellow'
p1541
sba(icurlovision
Stone
p1542
(dp1543
g33
F-0.9095744680851063
sg34
F-0.047872340425531915
sg35
F0.351063829787234
sg36
S'yellow'
p1544
sba(icurlovision
Stone
p1545
(dp1546
g33
F2.50531914893617
sg34
F0.5904255319148936
sg35
F0.4627659574468085
sg36
S'red'
p1547
sba(icurlovision
Stone
p1548
(dp1549
g33
F11.569148936170212
sg34
F2.7606382978723403
sg35
F0.44680851063829785
sg36
S'red'
p1550
sbasba(icurlovision
StoneLayout
p1551
(dp1552
g28
F0.4791666666666667
sg29
(lp1553
(icurlovision
Stone
p1554
(dp1555
g33
F-2.9027777777777777
sg34
F-0.05555555555555555
sg35
F0.3333333333333333
sg36
S'yellow'
p1556
sba(icurlovision
Stone
p1557
(dp1558
g33
F-0.875
sg34
F-0.05555555555555555
sg35
F0.3333333333333333
sg36
S'yellow'
p1559
sba(icurlovision
Stone
p1560
(dp1561
g33
F4.430555555555555
sg34
F-6.944444444444444
sg35
F0.4722222222222222
sg36
S'yellow'
p1562
sba(icurlovision
Stone
p1563
(dp1564
g33
F2.486111111111111
sg34
F0.5555555555555556
sg35
F0.375
sg36
S'red'
p1565
sbasba(icurlovision
StoneLayout
p1566
(dp1567
g28
F0.4791666666666667
sg29
(lp1568
(icurlovision
Stone
p1569
(dp1570
g33
F2.5
sg34
F0.5535714285714285
sg35
F0.26785714285714285
sg36
S'red'
p1571
sba(icurlovision
Stone
p1572
(dp1573
g33
F12.0
sg34
F0.4107142857142857
sg35
F0.42857142857142855
sg36
S'red'
p1574
sba(icurlovision
Stone
p1575
(dp1576
g33
F-0.8571428571428571
sg34
F-0.05357142857142857
sg35
F0.46428571428571425
sg36
S'yellow'
p1577
sba(icurlovision
Stone
p1578
(dp1579
g33
F-2.8571428571428568
sg34
F-0.017857142857142856
sg35
F0.4821428571428571
sg36
S'yellow'
p1580
sbasba(icurlovision
StoneLayout
p1581
(dp1582
g28
F0.4791666666666667
sg29
(lp1583
(icurlovision
Stone
p1584
(dp1585
g33
F-2.9454545454545453
sg34
F-0.10909090909090909
sg35
F0.47727272727272724
sg36
S'yellow'
p1586
sba(icurlovision
Stone
p1587
(dp1588
g33
F2.536363636363636
sg34
F0.6
sg35
F0.44999999999999996
sg36
S'red'
p1589
sba(icurlovision
Stone
p1590
(dp1591
g33
F-0.9272727272727272
sg34
F-0.08181818181818182
sg35
F0.32727272727272727
sg36
S'yellow'
p1592
sbasba(icurlovision
StoneLayout
p1593
(dp1594
g28
F0.4791666666666667
sg29
(lp1595
(icurlovision
Stone
p1596
(dp1597
g33
F2.485294117647059
sg34
F0.5735294117647058
sg35
F0.4411764705882353
sg36
S'red'
p1598
sba(icurlovision
Stone
p1599
(dp1600
g33
F-4.602941176470588
sg34
F-6.897058823529411
sg35
F0.3382352941176471
sg36
S'yellow'
p1601
sba(icurlovision
Stone
p1602
(dp1603
g33
F-2.8676470588235294
sg34
F-0.07352941176470588
sg35
F0.3235294117647059
sg36
S'yellow'
p1604
sba(icurlovision
Stone
p1605
(dp1606
g33
F-0.8970588235294118
sg34
F-0.07352941176470588
sg35
F0.29411764705882354
sg36
S'yellow'
p1607
sbasba(icurlovision
StoneLayout
p1608
(dp1609
g28
F0.4791666666666667
sg29
(lp1610
(icurlovision
Stone
p1611
(dp1612
g33
F-2.94375
sg34
F-0.056249999999999994
sg35
F0.46875
sg36
S'yellow'
p1613
sba(icurlovision
Stone
p1614
(dp1615
g33
F2.49375
sg34
F0.5812499999999999
sg35
F0.46875
sg36
S'red'
p1616
sba(icurlovision
Stone
p1617
(dp1618
g33
F-0.91875
sg34
F-0.056249999999999994
sg35
F0.33749999999999997
sg36
S'yellow'
p1619
sba(icurlovision
Stone
p1620
(dp1621
g33
F13.40625
sg34
F-0.056249999999999994
sg35
F0.44999999999999996
sg36
S'red'
p1622
sbasba(icurlovision
StoneLayout
p1623
(dp1624
g28
F0.4791666666666667
sg29
(lp1625
(icurlovision
Stone
p1626
(dp1627
g33
F-2.8723404255319145
sg34
F-0.09574468085106383
sg35
F0.4627659574468085
sg36
S'yellow'
p1628
sba(icurlovision
Stone
p1629
(dp1630
g33
F2.553191489361702
sg34
F0.5425531914893617
sg35
F0.33510638297872336
sg36
S'red'
p1631
sba(icurlovision
Stone
p1632
(dp1633
g33
F-0.8617021276595744
sg34
F-0.09574468085106383
sg35
F0.4787234042553191
sg36
S'yellow'
p1634
sbasba(icurlovision
StoneLayout
p1635
(dp1636
g28
F0.4791666666666667
sg29
(lp1637
(icurlovision
Stone
p1638
(dp1639
g33
F-0.014150943396226415
sg34
F-0.2971698113207547
sg35
F0.32547169811320753
sg36
S'red'
p1640
sba(icurlovision
Stone
p1641
(dp1642
g33
F2.44811320754717
sg34
F0.6084905660377359
sg35
F0.3113207547169811
sg36
S'red'
p1643
sba(icurlovision
Stone
p1644
(dp1645
g33
F-2.0235849056603774
sg34
F0.2971698113207547
sg35
F0.32547169811320753
sg36
S'yellow'
p1646
sbasba(icurlovision
StoneLayout
p1647
(dp1648
g28
F0.4791666666666667
sg29
(lp1649
(icurlovision
Stone
p1650
(dp1651
g33
F3.389423076923077
sg34
F0.5913461538461539
sg35
F0.46153846153846156
sg36
S'yellow'
p1652
sba(icurlovision
Stone
p1653
(dp1654
g33
F-2.0048076923076925
sg34
F0.3028846153846154
sg35
F0.3317307692307693
sg36
S'yellow'
p1655
sbasba(icurlovision
StoneLayout
p1656
(dp1657
g28
F0.4791666666666667
sg29
(lp1658
(icurlovision
Stone
p1659
(dp1660
g33
F3.40625
sg34
F0.609375
sg35
F0.34375
sg36
S'yellow'
p1661
sba(icurlovision
Stone
p1662
(dp1663
g33
F-1.09375
sg34
F0.359375
sg35
F0.46875
sg36
S'red'
p1664
sba(icurlovision
Stone
p1665
(dp1666
g33
F-2.1875
sg34
F0.296875
sg35
F0.46875
sg36
S'yellow'
p1667
sbasba(icurlovision
StoneLayout
p1668
(dp1669
g28
F0.4791666666666667
sg29
(lp1670
(icurlovision
Stone
p1671
(dp1672
g33
F3.407894736842105
sg34
F0.5657894736842105
sg35
F0.35526315789473684
sg36
S'yellow'
p1673
sba(icurlovision
Stone
p1674
(dp1675
g33
F-0.19736842105263158
sg34
F-0.14473684210526316
sg35
F0.3157894736842105
sg36
S'yellow'
p1676
sbasbasg125
I2
sg126
I1
sba(icurlovision
EndResult
p1677
(dp1678
g2
I5
sg9
(lp1679
(I7
I7
tp1680
a(I7
I6
tp1681
a(I6
I5
tp1682
a(I5
I4
tp1683
a(I4
I4
tp1684
a(I4
I3
tp1685
a(I3
I3
tp1686
a(I3
I2
tp1687
a(I2
I2
tp1688
a(I2
I1
tp1689
a(I1
I1
tp1690
a(I1
I0
tp1691
asg23
I9
sg24
(lp1692
(icurlovision
StoneLayout
p1693
(dp1694
g28
F0.4791666666666667
sg29
(lp1695
(icurlovision
Stone
p1696
(dp1697
g33
F1.9565217391304348
sg34
F-0.7010869565217391
sg35
F0.47282608695652173
sg36
S'yellow'
p1698
sba(icurlovision
Stone
p1699
(dp1700
g33
F4.5978260869565215
sg34
F-1.3206521739130435
sg35
F0.30978260869565216
sg36
S'red'
p1701
sbasba(icurlovision
StoneLayout
p1702
(dp1703
g28
F0.4791666666666667
sg29
(lp1704
(icurlovision
Stone
p1705
(dp1706
g33
F1.9705882352941175
sg34
F-0.6764705882352942
sg35
F0.3382352941176471
sg36
S'yellow'
p1707
sba(icurlovision
Stone
p1708
(dp1709
g33
F-5.647058823529411
sg34
F6.5588235294117645
sg35
F0.3529411764705882
sg36
S'yellow'
p1710
sbasba(icurlovision
StoneLayout
p1711
(dp1712
g28
F0.4791666666666667
sg29
(lp1713
(icurlovision
Stone
p1714
(dp1715
g33
F1.8599999999999999
sg34
F-0.6599999999999999
sg35
F0.46499999999999997
sg36
S'yellow'
p1716
sbasba(icurlovision
StoneLayout
p1717
(dp1718
g28
F0.4791666666666667
sg29
(lp1719
(icurlovision
Stone
p1720
(dp1721
g33
F1.9468085106382977
sg34
F-0.6702127659574467
sg35
F0.4787234042553191
sg36
S'yellow'
p1722
sba(icurlovision
Stone
p1723
(dp1724
g33
F7.787234042553191
sg34
F-5.648936170212766
sg35
F0.28723404255319146
sg36
S'yellow'
p1725
sbasba(icurlovision
StoneLayout
p1726
(dp1727
g28
F0.4791666666666667
sg29
(lp1728
(icurlovision
Stone
p1729
(dp1730
g33
F1.96875
sg34
F-0.6875
sg35
F0.484375
sg36
S'yellow'
p1731
sba(icurlovision
Stone
p1732
(dp1733
g33
F-3.53125
sg34
F-0.78125
sg35
F0.34375
sg36
S'red'
p1734
sbasba(icurlovision
StoneLayout
p1735
(dp1736
g28
F0.4791666666666667
sg29
(lp1737
(icurlovision
Stone
p1738
(dp1739
g33
F-3.392045454545454
sg34
F-0.7670454545454545
sg35
F0.4602272727272727
sg36
S'red'
p1740
sba(icurlovision
Stone
p1741
(dp1742
g33
F9.119318181818182
sg34
F-6.903409090909091
sg35
F0.30681818181818177
sg36
S'yellow'
p1743
sbasba(icurlovision
StoneLayout
p1744
(dp1745
g28
F0.4791666666666667
sg29
(lp1746
(icurlovision
Stone
p1747
(dp1748
g33
F-3.293478260869565
sg34
F-0.75
sg35
F0.34239130434782605
sg36
S'red'
p1749
sba(icurlovision
Stone
p1750
(dp1751
g33
F8.804347826086957
sg34
F-0.5543478260869565
sg35
F0.44021739130434784
sg36
S'red'
p1752
sbasba(icurlovision
StoneLayout
p1753
(dp1754
g28
F0.4791666666666667
sg29
(lp1755
(icurlovision
Stone
p1756
(dp1757
g33
F-3.4468085106382977
sg34
F-0.7659574468085106
sg35
F0.351063829787234
sg36
S'red'
p1758
sbasba(icurlovision
StoneLayout
p1759
(dp1760
g28
F0.4791666666666667
sg29
(lp1761
(icurlovision
Stone
p1762
(dp1763
g33
F7.2749999999999995
sg34
F-0.735
sg35
F0.345
sg36
S'red'
p1764
sba(icurlovision
Stone
p1765
(dp1766
g33
F-3.315
sg34
F-0.735
sg35
F0.46499999999999997
sg36
S'red'
p1767
sbasba(icurlovision
StoneLayout
p1768
(dp1769
g28
F0.4791666666666667
sg29
(lp1770
(icurlovision
Stone
p1771
(dp1772
g33
F-3.328125
sg34
F-0.765625
sg35
F0.46875
sg36
S'red'
p1773
sbasba(icurlovision
StoneLayout
p1774
(dp1775
g28
F0.4791666666666667
sg29
(lp1776
(icurlovision
Stone
p1777
(dp1778
g33
F-3.4375
sg34
F-0.7875000000000001
sg35
F0.36250000000000004
sg36
S'red'
p1779
sba(icurlovision
Stone
p1780
(dp1781
g33
F-1.8875000000000002
sg34
F3.6875
sg35
F0.47500000000000003
sg36
S'red'
p1782
sbasba(icurlovision
StoneLayout
p1783
(dp1784
g28
F0.4791666666666667
sg29
(lp1785
sbasg125
I2
sg126
I1
sba(icurlovision
EndResult
p1786
(dp1787
g2
I33
sg9
(lp1788
(I7
I6
tp1789
a(I6
I5
tp1790
a(I5
I5
tp1791
a(I5
I4
tp1792
a(I4
I3
tp1793
a(I3
I3
tp1794
a(I3
I2
tp1795
a(I2
I2
tp1796
a(I2
I1
tp1797
a(I1
I1
tp1798
asg23
I10
sg24
(lp1799
(icurlovision
StoneLayout
p1800
(dp1801
g28
F0.4791666666666667
sg29
(lp1802
(icurlovision
Stone
p1803
(dp1804
g33
F9.893617021276595
sg34
F3.4148936170212765
sg35
F0.4308510638297872
sg36
S'red'
p1805
sbasba(icurlovision
StoneLayout
p1806
(dp1807
g28
F0.4791666666666667
sg29
(lp1808
(icurlovision
Stone
p1809
(dp1810
g33
F9.709090909090909
sg34
F3.3
sg35
F0.42272727272727273
sg36
S'red'
p1811
sba(icurlovision
Stone
p1812
(dp1813
g33
F-3.5454545454545454
sg34
F-4.418181818181818
sg35
F0.3409090909090909
sg36
S'red'
p1814
sbasba(icurlovision
StoneLayout
p1815
(dp1816
g28
F0.4791666666666667
sg29
(lp1817
(icurlovision
Stone
p1818
(dp1819
g33
F9.945
sg34
F3.3449999999999998
sg35
F0.44999999999999996
sg36
S'red'
p1820
sba(icurlovision
Stone
p1821
(dp1822
g33
F9.105
sg34
F-3.645
sg35
F0.44999999999999996
sg36
S'red'
p1823
sba(icurlovision
Stone
p1824
(dp1825
g33
F10.245
sg34
F-4.395
sg35
F0.285
sg36
S'yellow'
p1826
sbasba(icurlovision
StoneLayout
p1827
(dp1828
g28
F0.4791666666666667
sg29
(lp1829
(icurlovision
Stone
p1830
(dp1831
g33
F0.08181818181818182
sg34
F-6.954545454545454
sg35
F0.32727272727272727
sg36
S'yellow'
p1832
sba(icurlovision
Stone
p1833
(dp1834
g33
F9.572727272727272
sg34
F3.3
sg35
F0.4636363636363636
sg36
S'red'
p1835
sba(icurlovision
Stone
p1836
(dp1837
g33
F-3.1636363636363636
sg34
F-4.745454545454545
sg35
F0.40909090909090906
sg36
S'yellow'
p1838
sbasba(icurlovision
StoneLayout
p1839
(dp1840
g28
F0.4791666666666667
sg29
(lp1841
(icurlovision
Stone
p1842
(dp1843
g33
F-1.139423076923077
sg34
F3.447115384615385
sg35
F0.4759615384615385
sg36
S'red'
p1844
sbasba(icurlovision
StoneLayout
p1845
(dp1846
g28
F0.4791666666666667
sg29
(lp1847
(icurlovision
Stone
p1848
(dp1849
g33
F-1.0714285714285714
sg34
F3.4285714285714284
sg35
F0.3520408163265306
sg36
S'red'
p1850
sba(icurlovision
Stone
p1851
(dp1852
g33
F9.581632653061224
sg34
F2.510204081632653
sg35
F0.45918367346938777
sg36
S'red'
p1853
sbasba(icurlovision
StoneLayout
p1854
(dp1855
g28
F0.4791666666666667
sg29
(lp1856
(icurlovision
Stone
p1857
(dp1858
g33
F-1.1065573770491803
sg34
F3.442622950819672
sg35
F0.3442622950819672
sg36
S'red'
p1859
sbasba(icurlovision
StoneLayout
p1860
(dp1861
g28
F0.4791666666666667
sg29
(lp1862
(icurlovision
Stone
p1863
(dp1864
g33
F-1.0691489361702127
sg34
F3.3989361702127656
sg35
F0.4627659574468085
sg36
S'red'
p1865
sba(icurlovision
Stone
p1866
(dp1867
g33
F10.132978723404255
sg34
F2.984042553191489
sg35
F0.44680851063829785
sg36
S'red'
p1868
sba(icurlovision
Stone
p1869
(dp1870
g33
F4.26063829787234
sg34
F3.813829787234042
sg35
F0.4787234042553191
sg36
S'yellow'
p1871
sbasba(icurlovision
StoneLayout
p1872
(dp1873
g28
F0.4791666666666667
sg29
(lp1874
(icurlovision
Stone
p1875
(dp1876
g33
F-1.078125
sg34
F3.328125
sg35
F0.328125
sg36
S'red'
p1877
sbasba(icurlovision
StoneLayout
p1878
(dp1879
g28
F0.4791666666666667
sg29
(lp1880
(icurlovision
Stone
p1881
(dp1882
g33
F-1.0909090909090908
sg34
F3.3136363636363635
sg35
F0.35454545454545455
sg36
S'red'
p1883
sba(icurlovision
Stone
p1884
(dp1885
g33
F-3.0818181818181816
sg34
F-2.659090909090909
sg35
F0.3136363636363636
sg36
S'red'
p1886
sbasbasg125
I2
sg126
I1
sbasS'version'
p1887
I20180812
sg125
I2
sS'metadata'
p1888
(icurlovision
MatchMetadata
p1889
(dp1890
S'team_name_red'
p1891
S'Unknown'
p1892
sS'event_name'
p1893
g1892
sS'gender'
p1894
g1892
sS'other_info'
p1895
g1892
sS'team_name_yel'
p1896
g1892
sS'date'
p1897
g1892
sbsb.