(icurlovision
MatchResult
p0
(dp1
S'yel_score'
p2
I6
sS'name'
p3
S'VideoLibrary/PyeongChang.Olympics.2018.curling.mixed.doubles.semifinal.2.1080p.NBC.WEB-DL-FINFUNGUS.mp4'
p4
sS'end_results'
p5
(lp6
(icurlovision
EndResult
p7
(dp8
g2
I2
sS'stones_left'
p9
(lp10
(I4
I5
tp11
a(I4
I4
tp12
a(I3
I4
tp13
a(I3
I3
tp14
a(I2
I3
tp15
a(I2
I2
tp16
a(I1
I1
tp17
a(I0
I1
tp18
asS'end_num'
p19
I1
sS'stone_layouts'
p20
(lp21
(icurlovision
StoneLayout
p22
(dp23
S'stone_radius'
p24
F0.4791666666666667
sS'stones'
p25
(lp26
(icurlovision
Stone
p27
(dp28
S'y'
p29
F-1.6298076923076923
sS'x'
p30
F0.028846153846153848
sS'r'
p31
F0.34615384615384615
sS'color'
p32
S'yellow'
p33
sba(icurlovision
Stone
p34
(dp35
g29
F10.6875
sg30
F-0.17307692307692307
sg31
F0.4326923076923077
sg32
S'red'
p36
sba(icurlovision
Stone
p37
(dp38
g29
F3.6778846153846154
sg30
F1.3846153846153846
sg31
F0.3605769230769231
sg32
S'red'
p39
sbasba(icurlovision
StoneLayout
p40
(dp41
g24
F0.4791666666666667
sg25
(lp42
(icurlovision
Stone
p43
(dp44
g29
F-1.6467391304347825
sg30
F0.048913043478260865
sg31
F0.32608695652173914
sg32
S'yellow'
p45
sba(icurlovision
Stone
p46
(dp47
g29
F0.1467391304347826
sg30
F0.6358695652173912
sg31
F0.34239130434782605
sg32
S'yellow'
p48
sba(icurlovision
Stone
p49
(dp50
g29
F10.679347826086957
sg30
F-0.24456521739130435
sg31
F0.45652173913043476
sg32
S'red'
p51
sba(icurlovision
Stone
p52
(dp53
g29
F3.635869565217391
sg30
F1.3532608695652173
sg31
F0.45652173913043476
sg32
S'red'
p54
sbasba(icurlovision
StoneLayout
p55
(dp56
g24
F0.4791666666666667
sg25
(lp57
(icurlovision
Stone
p58
(dp59
g29
F2.608695652173913
sg30
F-2.119565217391304
sg31
F0.3913043478260869
sg32
S'red'
p60
sba(icurlovision
Stone
p61
(dp62
g29
F0.19565217391304346
sg30
F0.6521739130434783
sg31
F0.34239130434782605
sg32
S'yellow'
p63
sba(icurlovision
Stone
p64
(dp65
g29
F10.434782608695652
sg30
F0.09782608695652173
sg31
F0.44021739130434784
sg32
S'red'
p66
sba(icurlovision
Stone
p67
(dp68
g29
F-1.5978260869565217
sg30
F0.0
sg31
F0.45652173913043476
sg32
S'yellow'
p69
sba(icurlovision
Stone
p70
(dp71
g29
F3.619565217391304
sg30
F1.4021739130434783
sg31
F0.32608695652173914
sg32
S'red'
p72
sbasba(icurlovision
StoneLayout
p73
(dp74
g24
F0.4791666666666667
sg25
(lp75
(icurlovision
Stone
p76
(dp77
g29
F2.6489361702127656
sg30
F-0.6063829787234042
sg31
F0.33510638297872336
sg32
S'yellow'
p78
sba(icurlovision
Stone
p79
(dp80
g29
F0.1276595744680851
sg30
F0.6382978723404255
sg31
F0.44680851063829785
sg32
S'yellow'
p81
sba(icurlovision
Stone
p82
(dp83
g29
F-1.627659574468085
sg30
F0.031914893617021274
sg31
F0.33510638297872336
sg32
S'yellow'
p84
sba(icurlovision
Stone
p85
(dp86
g29
F10.340425531914892
sg30
F0.06382978723404255
sg31
F0.44680851063829785
sg32
S'red'
p87
sba(icurlovision
Stone
p88
(dp89
g29
F3.606382978723404
sg30
F1.3723404255319147
sg31
F0.33510638297872336
sg32
S'red'
p90
sba(icurlovision
Stone
p91
(dp92
g29
F9.287234042553191
sg30
F-6.478723404255319
sg31
F0.28723404255319146
sg32
S'yellow'
p93
sbasba(icurlovision
StoneLayout
p94
(dp95
g24
F0.4791666666666667
sg25
(lp96
(icurlovision
Stone
p97
(dp98
g29
F2.6
sg30
F-0.625
sg31
F0.4375
sg32
S'yellow'
p99
sba(icurlovision
Stone
p100
(dp101
g29
F0.17500000000000002
sg30
F0.6000000000000001
sg31
F0.4375
sg32
S'yellow'
p102
sba(icurlovision
Stone
p103
(dp104
g29
F-1.55
sg30
F0.0
sg31
F0.3375
sg32
S'yellow'
p105
sba(icurlovision
Stone
p106
(dp107
g29
F3.5500000000000003
sg30
F1.3250000000000002
sg31
F0.45
sg32
S'red'
p108
sbasba(icurlovision
StoneLayout
p109
(dp110
g24
F0.4791666666666667
sg25
(lp111
(icurlovision
Stone
p112
(dp113
g29
F-0.9411764705882353
sg30
F-5.9411764705882355
sg31
F0.3382352941176471
sg32
S'yellow'
p114
sba(icurlovision
Stone
p115
(dp116
g29
F0.6176470588235294
sg30
F1.9117647058823528
sg31
F0.3382352941176471
sg32
S'yellow'
p117
sba(icurlovision
Stone
p118
(dp119
g29
F-1.7352941176470589
sg30
F-0.08823529411764705
sg31
F0.3382352941176471
sg32
S'yellow'
p120
sba(icurlovision
Stone
p121
(dp122
g29
F-0.9117647058823529
sg30
F0.6176470588235294
sg31
F0.3382352941176471
sg32
S'yellow'
p123
sba(icurlovision
Stone
p124
(dp125
g29
F2.588235294117647
sg30
F2.941176470588235
sg31
F0.3088235294117647
sg32
S'red'
p126
sbasba(icurlovision
StoneLayout
p127
(dp128
g24
F0.4791666666666667
sg25
(lp129
(icurlovision
Stone
p130
(dp131
g29
F0.5913461538461539
sg30
F2.0336538461538463
sg31
F0.3317307692307693
sg32
S'yellow'
p132
sba(icurlovision
Stone
p133
(dp134
g29
F-0.9375
sg30
F-5.985576923076923
sg31
F0.34615384615384615
sg32
S'yellow'
p135
sba(icurlovision
Stone
p136
(dp137
g29
F0.8509615384615385
sg30
F1.0528846153846154
sg31
F0.31730769230769235
sg32
S'yellow'
p138
sba(icurlovision
Stone
p139
(dp140
g29
F2.639423076923077
sg30
F2.9567307692307696
sg31
F0.3605769230769231
sg32
S'red'
p141
sbasba(icurlovision
StoneLayout
p142
(dp143
g24
F0.4791666666666667
sg25
(lp144
(icurlovision
Stone
p145
(dp146
g29
F-0.9299999999999999
sg30
F-5.79
sg31
F0.3
sg32
S'yellow'
p147
sba(icurlovision
Stone
p148
(dp149
g29
F2.55
sg30
F2.85
sg31
F0.32999999999999996
sg32
S'red'
p150
sbasbasS'red_score'
p151
I0
sS'red_hammer'
p152
I0
sba(icurlovision
EndResult
p153
(dp154
g2
I2
sg9
(lp155
(I4
I4
tp156
a(I4
I3
tp157
a(I3
I3
tp158
a(I3
I2
tp159
a(I2
I2
tp160
a(I2
I1
tp161
a(I1
I1
tp162
a(I1
I0
tp163
asg19
I2
sg20
(lp164
(icurlovision
StoneLayout
p165
(dp166
g24
F0.4791666666666667
sg25
(lp167
(icurlovision
Stone
p168
(dp169
g29
F0.08522727272727272
sg30
F-0.22159090909090906
sg31
F0.32386363636363635
sg32
S'red'
p170
sba(icurlovision
Stone
p171
(dp172
g29
F10.823863636363635
sg30
F-0.05113636363636363
sg31
F0.4431818181818181
sg32
S'yellow'
p173
sba(icurlovision
Stone
p174
(dp175
g29
F-5.267045454545454
sg30
F1.3806818181818181
sg31
F0.32386363636363635
sg32
S'red'
p176
sba(icurlovision
Stone
p177
(dp178
g29
F-4.892045454545454
sg30
F-0.7670454545454545
sg31
F0.3409090909090909
sg32
S'yellow'
p179
sbasba(icurlovision
StoneLayout
p180
(dp181
g24
F0.4791666666666667
sg25
(lp182
(icurlovision
Stone
p183
(dp184
g29
F10.85
sg30
F-0.1
sg31
F0.43333333333333335
sg32
S'yellow'
p185
sba(icurlovision
Stone
p186
(dp187
g29
F0.7833333333333333
sg30
F0.36666666666666664
sg31
F0.3333333333333333
sg32
S'yellow'
p188
sba(icurlovision
Stone
p189
(dp190
g29
F-0.11666666666666667
sg30
F-0.26666666666666666
sg31
F0.26666666666666666
sg32
S'red'
p191
sba(icurlovision
Stone
p192
(dp193
g29
F-5.316666666666666
sg30
F1.3
sg31
F0.31666666666666665
sg32
S'red'
p194
sba(icurlovision
Stone
p195
(dp196
g29
F-4.916666666666667
sg30
F-0.8333333333333334
sg31
F0.3333333333333333
sg32
S'yellow'
p197
sbasba(icurlovision
StoneLayout
p198
(dp199
g24
F0.4791666666666667
sg25
(lp200
(icurlovision
Stone
p201
(dp202
g29
F0.8023255813953488
sg30
F0.38372093023255816
sg31
F0.3313953488372093
sg32
S'yellow'
p203
sba(icurlovision
Stone
p204
(dp205
g29
F10.848837209302326
sg30
F-0.06976744186046512
sg31
F0.45348837209302323
sg32
S'yellow'
p206
sba(icurlovision
Stone
p207
(dp208
g29
F-3.313953488372093
sg30
F-2.511627906976744
sg31
F0.3488372093023256
sg32
S'red'
p209
sba(icurlovision
Stone
p210
(dp211
g29
F-1.0116279069767442
sg30
F0.7325581395348837
sg31
F0.27906976744186046
sg32
S'red'
p212
sba(icurlovision
Stone
p213
(dp214
g29
F-5.1976744186046515
sg30
F1.3255813953488371
sg31
F0.2965116279069767
sg32
S'red'
p215
sba(icurlovision
Stone
p216
(dp217
g29
F-4.9186046511627906
sg30
F-0.8023255813953488
sg31
F0.3313953488372093
sg32
S'yellow'
p218
sbasba(icurlovision
StoneLayout
p219
(dp220
g24
F0.4791666666666667
sg25
(lp221
(icurlovision
Stone
p222
(dp223
g29
F0.8011363636363635
sg30
F0.39204545454545453
sg31
F0.3409090909090909
sg32
S'yellow'
p224
sba(icurlovision
Stone
p225
(dp226
g29
F10.857954545454545
sg30
F-0.05113636363636363
sg31
F0.4431818181818181
sg32
S'yellow'
p227
sba(icurlovision
Stone
p228
(dp229
g29
F7.994318181818182
sg30
F1.5852272727272727
sg31
F0.3409090909090909
sg32
S'yellow'
p230
sba(icurlovision
Stone
p231
(dp232
g29
F-5.232954545454545
sg30
F1.346590909090909
sg31
F0.4431818181818181
sg32
S'red'
p233
sba(icurlovision
Stone
p234
(dp235
g29
F-3.289772727272727
sg30
F-2.539772727272727
sg31
F0.3409090909090909
sg32
S'red'
p236
sba(icurlovision
Stone
p237
(dp238
g29
F-1.0397727272727273
sg30
F0.7329545454545454
sg31
F0.2727272727272727
sg32
S'red'
p239
sba(icurlovision
Stone
p240
(dp241
g29
F-4.892045454545454
sg30
F-0.8011363636363635
sg31
F0.3409090909090909
sg32
S'yellow'
p242
sbasba(icurlovision
StoneLayout
p243
(dp244
g24
F0.4791666666666667
sg25
(lp245
(icurlovision
Stone
p246
(dp247
g29
F7.936046511627907
sg30
F1.5872093023255813
sg31
F0.436046511627907
sg32
S'yellow'
p248
sba(icurlovision
Stone
p249
(dp250
g29
F11.494186046511627
sg30
F0.19186046511627908
sg31
F0.436046511627907
sg32
S'red'
p251
sba(icurlovision
Stone
p252
(dp253
g29
F-0.9941860465116279
sg30
F0.6802325581395349
sg31
F0.2965116279069767
sg32
S'red'
p254
sba(icurlovision
Stone
p255
(dp256
g29
F-4.936046511627907
sg30
F-0.8197674418604651
sg31
F0.3313953488372093
sg32
S'yellow'
p257
sba(icurlovision
Stone
p258
(dp259
g29
F-5.215116279069767
sg30
F1.3081395348837208
sg31
F0.27906976744186046
sg32
S'red'
p260
sba(icurlovision
Stone
p261
(dp262
g29
F-2.494186046511628
sg30
F-4.726744186046512
sg31
F0.3313953488372093
sg32
S'yellow'
p263
sbasba(icurlovision
StoneLayout
p264
(dp265
g24
F0.4791666666666667
sg25
(lp266
(icurlovision
Stone
p267
(dp268
g29
F-5.352272727272727
sg30
F6.920454545454545
sg31
F0.3409090909090909
sg32
S'yellow'
p269
sba(icurlovision
Stone
p270
(dp271
g29
F7.704545454545454
sg30
F1.534090909090909
sg31
F0.32386363636363635
sg32
S'yellow'
p272
sba(icurlovision
Stone
p273
(dp274
g29
F-0.23863636363636362
sg30
F0.13636363636363635
sg31
F0.32386363636363635
sg32
S'yellow'
p275
sba(icurlovision
Stone
p276
(dp277
g29
F11.113636363636363
sg30
F0.20454545454545453
sg31
F0.4261363636363636
sg32
S'red'
p278
sba(icurlovision
Stone
p279
(dp280
g29
F-1.4659090909090908
sg30
F0.8863636363636362
sg31
F0.2727272727272727
sg32
S'red'
p281
sba(icurlovision
Stone
p282
(dp283
g29
F-5.1477272727272725
sg30
F1.227272727272727
sg31
F0.28977272727272724
sg32
S'red'
p284
sba(icurlovision
Stone
p285
(dp286
g29
F-2.318181818181818
sg30
F-4.636363636363636
sg31
F0.375
sg32
S'yellow'
p287
sba(icurlovision
Stone
p288
(dp289
g29
F-4.738636363636363
sg30
F-0.8522727272727272
sg31
F0.32386363636363635
sg32
S'yellow'
p290
sbasba(icurlovision
StoneLayout
p291
(dp292
g24
F0.4791666666666667
sg25
(lp293
(icurlovision
Stone
p294
(dp295
g29
F-5.217391304347826
sg30
F6.75
sg31
F0.30978260869565216
sg32
S'yellow'
p296
sba(icurlovision
Stone
p297
(dp298
g29
F7.467391304347826
sg30
F1.434782608695652
sg31
F0.30978260869565216
sg32
S'yellow'
p299
sba(icurlovision
Stone
p300
(dp301
g29
F-1.891304347826087
sg30
F1.076086956521739
sg31
F0.42391304347826086
sg32
S'red'
p302
sba(icurlovision
Stone
p303
(dp304
g29
F10.793478260869565
sg30
F0.13043478260869565
sg31
F0.42391304347826086
sg32
S'red'
p305
sba(icurlovision
Stone
p306
(dp307
g29
F-0.717391304347826
sg30
F0.2934782608695652
sg31
F0.30978260869565216
sg32
S'yellow'
p308
sba(icurlovision
Stone
p309
(dp310
g29
F0.3913043478260869
sg30
F-0.5217391304347826
sg31
F0.30978260869565216
sg32
S'red'
p311
sba(icurlovision
Stone
p312
(dp313
g29
F-2.3478260869565215
sg30
F-4.5
sg31
F0.32608695652173914
sg32
S'yellow'
p314
sba(icurlovision
Stone
p315
(dp316
g29
F-4.923913043478261
sg30
F1.1739130434782608
sg31
F0.32608695652173914
sg32
S'red'
p317
sba(icurlovision
Stone
p318
(dp319
g29
F-4.630434782608695
sg30
F-0.8152173913043478
sg31
F0.32608695652173914
sg32
S'yellow'
p320
sbasba(icurlovision
StoneLayout
p321
(dp322
g24
F0.4791666666666667
sg25
(lp323
(icurlovision
Stone
p324
(dp325
g29
F8.089285714285714
sg30
F1.625
sg31
F0.3571428571428571
sg32
S'yellow'
p326
sba(icurlovision
Stone
p327
(dp328
g29
F-2.196428571428571
sg30
F1.2678571428571428
sg31
F0.4821428571428571
sg32
S'red'
p329
sba(icurlovision
Stone
p330
(dp331
g29
F-1.1607142857142856
sg30
F0.9107142857142857
sg31
F0.26785714285714285
sg32
S'yellow'
p332
sba(icurlovision
Stone
p333
(dp334
g29
F0.05357142857142857
sg30
F-0.125
sg31
F0.46428571428571425
sg32
S'red'
p335
sba(icurlovision
Stone
p336
(dp337
g29
F11.696428571428571
sg30
F0.1607142857142857
sg31
F0.4464285714285714
sg32
S'red'
p338
sba(icurlovision
Stone
p339
(dp340
g29
F-2.517857142857143
sg30
F-4.839285714285714
sg31
F0.33928571428571425
sg32
S'yellow'
p341
sba(icurlovision
Stone
p342
(dp343
g29
F-5.339285714285714
sg30
F1.3035714285714286
sg31
F0.30357142857142855
sg32
S'red'
p344
sba(icurlovision
Stone
p345
(dp346
g29
F-4.982142857142857
sg30
F-0.8392857142857142
sg31
F0.33928571428571425
sg32
S'yellow'
p347
sbasbasg151
I2
sg152
I1
sba(icurlovision
EndResult
p348
(dp349
g2
I3
sg9
(lp350
(I4
I4
tp351
a(I3
I4
tp352
a(I3
I3
tp353
a(I2
I3
tp354
a(I2
I2
tp355
a(I1
I1
tp356
a(I0
I1
tp357
asg19
I3
sg20
(lp358
(icurlovision
StoneLayout
p359
(dp360
g24
F0.4791666666666667
sg25
(lp361
(icurlovision
Stone
p362
(dp363
g29
F-2.0166666666666666
sg30
F-0.11666666666666667
sg31
F0.3333333333333333
sg32
S'yellow'
p364
sba(icurlovision
Stone
p365
(dp366
g29
F2.85
sg30
F-0.5166666666666666
sg31
F0.45
sg32
S'red'
p367
sba(icurlovision
Stone
p368
(dp369
g29
F10.683333333333334
sg30
F-0.05
sg31
F0.45
sg32
S'red'
p370
sba(icurlovision
Stone
p371
(dp372
g29
F-0.7166666666666667
sg30
F0.31666666666666665
sg31
F0.4666666666666667
sg32
S'yellow'
p373
sbasba(icurlovision
StoneLayout
p374
(dp375
g24
F0.4791666666666667
sg25
(lp376
(icurlovision
Stone
p377
(dp378
g29
F2.9285714285714284
sg30
F-0.46428571428571425
sg31
F0.4464285714285714
sg32
S'red'
p379
sba(icurlovision
Stone
p380
(dp381
g29
F10.892857142857142
sg30
F0.14285714285714285
sg31
F0.46428571428571425
sg32
S'red'
p382
sba(icurlovision
Stone
p383
(dp384
g29
F-0.7142857142857142
sg30
F0.3571428571428571
sg31
F0.3571428571428571
sg32
S'yellow'
p385
sba(icurlovision
Stone
p386
(dp387
g29
F-2.071428571428571
sg30
F-0.14285714285714285
sg31
F0.33928571428571425
sg32
S'yellow'
p388
sba(icurlovision
Stone
p389
(dp390
g29
F0.7857142857142857
sg30
F0.3571428571428571
sg31
F0.46428571428571425
sg32
S'red'
p391
sbasba(icurlovision
StoneLayout
p392
(dp393
g24
F0.4791666666666667
sg25
(lp394
(icurlovision
Stone
p395
(dp396
g29
F2.354651162790698
sg30
F2.3197674418604652
sg31
F0.47093023255813954
sg32
S'red'
p397
sba(icurlovision
Stone
p398
(dp399
g29
F-0.75
sg30
F0.3313953488372093
sg31
F0.3488372093023256
sg32
S'yellow'
p400
sba(icurlovision
Stone
p401
(dp402
g29
F0.7848837209302325
sg30
F0.3313953488372093
sg31
F0.47093023255813954
sg32
S'red'
p403
sba(icurlovision
Stone
p404
(dp405
g29
F-2.0755813953488373
sg30
F-0.12209302325581395
sg31
F0.3313953488372093
sg32
S'yellow'
p406
sba(icurlovision
Stone
p407
(dp408
g29
F11.633720930232558
sg30
F0.1569767441860465
sg31
F0.45348837209302323
sg32
S'yellow'
p409
sbasba(icurlovision
StoneLayout
p410
(dp411
g24
F0.4791666666666667
sg25
(lp412
(icurlovision
Stone
p413
(dp414
g29
F-2.0406976744186047
sg30
F-0.12209302325581395
sg31
F0.47093023255813954
sg32
S'yellow'
p415
sba(icurlovision
Stone
p416
(dp417
g29
F2.3197674418604652
sg30
F2.3197674418604652
sg31
F0.45348837209302323
sg32
S'red'
p418
sba(icurlovision
Stone
p419
(dp420
g29
F-0.7151162790697674
sg30
F0.3313953488372093
sg31
F0.4883720930232558
sg32
S'yellow'
p421
sba(icurlovision
Stone
p422
(dp423
g29
F0.5406976744186046
sg30
F-0.01744186046511628
sg31
F0.47093023255813954
sg32
S'red'
p424
sba(icurlovision
Stone
p425
(dp426
g29
F11.563953488372093
sg30
F0.12209302325581395
sg31
F0.436046511627907
sg32
S'yellow'
p427
sba(icurlovision
Stone
p428
(dp429
g29
F-2.25
sg30
F1.7616279069767442
sg31
F0.47093023255813954
sg32
S'red'
p430
sbasba(icurlovision
StoneLayout
p431
(dp432
g24
F0.4791666666666667
sg25
(lp433
(icurlovision
Stone
p434
(dp435
g29
F-1.977272727272727
sg30
F-0.13636363636363635
sg31
F0.4602272727272727
sg32
S'yellow'
p436
sba(icurlovision
Stone
p437
(dp438
g29
F-2.1818181818181817
sg30
F1.7045454545454544
sg31
F0.4602272727272727
sg32
S'red'
p439
sba(icurlovision
Stone
p440
(dp441
g29
F11.284090909090908
sg30
F0.13636363636363635
sg31
F0.4261363636363636
sg32
S'yellow'
p442
sba(icurlovision
Stone
p443
(dp444
g29
F-0.7159090909090908
sg30
F0.30681818181818177
sg31
F0.3409090909090909
sg32
S'yellow'
p445
sba(icurlovision
Stone
p446
(dp447
g29
F0.5454545454545454
sg30
F-0.03409090909090909
sg31
F0.3409090909090909
sg32
S'red'
p448
sbasba(icurlovision
StoneLayout
p449
(dp450
g24
F0.4791666666666667
sg25
(lp451
(icurlovision
Stone
p452
(dp453
g29
F-2.0437499999999997
sg30
F-0.16874999999999998
sg31
F0.33749999999999997
sg32
S'yellow'
p454
sba(icurlovision
Stone
p455
(dp456
g29
F12.24375
sg30
F0.01875
sg31
F0.43124999999999997
sg32
S'yellow'
p457
sba(icurlovision
Stone
p458
(dp459
g29
F1.10625
sg30
F-1.6312499999999999
sg31
F0.43124999999999997
sg32
S'red'
p460
sbasba(icurlovision
StoneLayout
p461
(dp462
g24
F0.4791666666666667
sg25
(lp463
(icurlovision
Stone
p464
(dp465
g29
F-1.9431818181818181
sg30
F-0.17045454545454544
sg31
F0.3409090909090909
sg32
S'yellow'
p466
sba(icurlovision
Stone
p467
(dp468
g29
F11.931818181818182
sg30
F0.0
sg31
F0.3409090909090909
sg32
S'yellow'
p469
sba(icurlovision
Stone
p470
(dp471
g29
F-0.7159090909090908
sg30
F0.0
sg31
F0.4431818181818181
sg32
S'red'
p472
sba(icurlovision
Stone
p473
(dp474
g29
F1.0909090909090908
sg30
F-1.5
sg31
F0.28977272727272724
sg32
S'red'
p475
sbasbasg151
I2
sg152
I0
sba(icurlovision
EndResult
p476
(dp477
g2
I4
sg9
(lp478
(I5
I4
tp479
a(I4
I4
tp480
a(I4
I3
tp481
a(I3
I3
tp482
a(I3
I2
tp483
a(I2
I2
tp484
a(I2
I1
tp485
a(I1
I1
tp486
a(I1
I0
tp487
asg19
I4
sg20
(lp488
(icurlovision
StoneLayout
p489
(dp490
g24
F0.4791666666666667
sg25
(lp491
(icurlovision
Stone
p492
(dp493
g29
F10.656976744186046
sg30
F-0.05232558139534883
sg31
F0.436046511627907
sg32
S'yellow'
p494
sba(icurlovision
Stone
p495
(dp496
g29
F-0.4011627906976744
sg30
F0.7151162790697674
sg31
F0.3488372093023256
sg32
S'yellow'
p497
sba(icurlovision
Stone
p498
(dp499
g29
F-1.5523255813953487
sg30
F0.01744186046511628
sg31
F0.2616279069767442
sg32
S'red'
p500
sbasba(icurlovision
StoneLayout
p501
(dp502
g24
F0.4791666666666667
sg25
(lp503
(icurlovision
Stone
p504
(dp505
g29
F10.5
sg30
F0.0
sg31
F0.4431818181818181
sg32
S'yellow'
p506
sba(icurlovision
Stone
p507
(dp508
g29
F-0.8863636363636362
sg30
F0.9545454545454545
sg31
F0.32386363636363635
sg32
S'yellow'
p509
sba(icurlovision
Stone
p510
(dp511
g29
F-0.2727272727272727
sg30
F-0.30681818181818177
sg31
F0.3409090909090909
sg32
S'red'
p512
sba(icurlovision
Stone
p513
(dp514
g29
F-1.5681818181818181
sg30
F0.10227272727272727
sg31
F0.4602272727272727
sg32
S'red'
p515
sba(icurlovision
Stone
p516
(dp517
g29
F-5.25
sg30
F-5.113636363636363
sg31
F0.32386363636363635
sg32
S'red'
p518
sbasba(icurlovision
StoneLayout
p519
(dp520
g24
F0.4791666666666667
sg25
(lp521
(icurlovision
Stone
p522
(dp523
g29
F-0.8967391304347826
sg30
F0.9619565217391304
sg31
F0.34239130434782605
sg32
S'yellow'
p524
sba(icurlovision
Stone
p525
(dp526
g29
F0.048913043478260865
sg30
F0.8967391304347826
sg31
F0.32608695652173914
sg32
S'yellow'
p527
sba(icurlovision
Stone
p528
(dp529
g29
F10.744565217391305
sg30
F-0.048913043478260865
sg31
F0.42391304347826086
sg32
S'yellow'
p530
sba(icurlovision
Stone
p531
(dp532
g29
F-1.5815217391304348
sg30
F0.08152173913043478
sg31
F0.44021739130434784
sg32
S'red'
p533
sba(icurlovision
Stone
p534
(dp535
g29
F-0.30978260869565216
sg30
F-0.34239130434782605
sg31
F0.45652173913043476
sg32
S'red'
p536
sbasba(icurlovision
StoneLayout
p537
(dp538
g24
F0.4791666666666667
sg25
(lp539
(icurlovision
Stone
p540
(dp541
g29
F-2.352272727272727
sg30
F1.1931818181818181
sg31
F0.47727272727272724
sg32
S'yellow'
p542
sba(icurlovision
Stone
p543
(dp544
g29
F-0.0
sg30
F0.8863636363636362
sg31
F0.3409090909090909
sg32
S'yellow'
p545
sba(icurlovision
Stone
p546
(dp547
g29
F0.9886363636363635
sg30
F0.9545454545454545
sg31
F0.4431818181818181
sg32
S'red'
p548
sba(icurlovision
Stone
p549
(dp550
g29
F11.113636363636363
sg30
F-0.06818181818181818
sg31
F0.4431818181818181
sg32
S'yellow'
p551
sba(icurlovision
Stone
p552
(dp553
g29
F-1.602272727272727
sg30
F0.03409090909090909
sg31
F0.3409090909090909
sg32
S'red'
p554
sba(icurlovision
Stone
p555
(dp556
g29
F-0.30681818181818177
sg30
F-0.375
sg31
F0.2727272727272727
sg32
S'red'
p557
sbasba(icurlovision
StoneLayout
p558
(dp559
g24
F0.4791666666666667
sg25
(lp560
(icurlovision
Stone
p561
(dp562
g29
F-2.25
sg30
F1.15
sg31
F0.36666666666666664
sg32
S'yellow'
p563
sba(icurlovision
Stone
p564
(dp565
g29
F10.75
sg30
F-0.08333333333333333
sg31
F0.45
sg32
S'yellow'
p566
sba(icurlovision
Stone
p567
(dp568
g29
F0.95
sg30
F0.85
sg31
F0.45
sg32
S'red'
p569
sba(icurlovision
Stone
p570
(dp571
g29
F-0.016666666666666666
sg30
F0.85
sg31
F0.3333333333333333
sg32
S'yellow'
p572
sba(icurlovision
Stone
p573
(dp574
g29
F0.5833333333333334
sg30
F-0.18333333333333332
sg31
F0.3333333333333333
sg32
S'yellow'
p575
sba(icurlovision
Stone
p576
(dp577
g29
F-1.7166666666666666
sg30
F0.05
sg31
F0.3333333333333333
sg32
S'red'
p578
sba(icurlovision
Stone
p579
(dp580
g29
F-0.7833333333333333
sg30
F-0.45
sg31
F0.3333333333333333
sg32
S'red'
p581
sbasba(icurlovision
StoneLayout
p582
(dp583
g24
F0.4791666666666667
sg25
(lp584
(icurlovision
Stone
p585
(dp586
g29
F0.6
sg30
F-0.18333333333333332
sg31
F0.3333333333333333
sg32
S'yellow'
p587
sba(icurlovision
Stone
p588
(dp589
g29
F-0.7666666666666666
sg30
F-0.3833333333333333
sg31
F0.4666666666666667
sg32
S'red'
p590
sba(icurlovision
Stone
p591
(dp592
g29
F11.0
sg30
F-0.08333333333333333
sg31
F0.3333333333333333
sg32
S'yellow'
p593
sba(icurlovision
Stone
p594
(dp595
g29
F0.9333333333333333
sg30
F0.7166666666666667
sg31
F0.3333333333333333
sg32
S'red'
p596
sba(icurlovision
Stone
p597
(dp598
g29
F-1.4666666666666666
sg30
F4.116666666666666
sg31
F0.36666666666666664
sg32
S'yellow'
p599
sba(icurlovision
Stone
p600
(dp601
g29
F0.13333333333333333
sg30
F3.8166666666666664
sg31
F0.2833333333333333
sg32
S'red'
p602
sba(icurlovision
Stone
p603
(dp604
g29
F-4.833333333333333
sg30
F-5.516666666666667
sg31
F0.5
sg32
S'red'
p605
sbasba(icurlovision
StoneLayout
p606
(dp607
g24
F0.4791666666666667
sg25
(lp608
(icurlovision
Stone
p609
(dp610
g29
F0.09782608695652173
sg30
F-0.13043478260869565
sg31
F0.45652173913043476
sg32
S'yellow'
p611
sba(icurlovision
Stone
p612
(dp613
g29
F10.826086956521738
sg30
F-0.06521739130434782
sg31
F0.45652173913043476
sg32
S'yellow'
p614
sba(icurlovision
Stone
p615
(dp616
g29
F0.8804347826086957
sg30
F0.717391304347826
sg31
F0.44021739130434784
sg32
S'red'
p617
sba(icurlovision
Stone
p618
(dp619
g29
F1.5
sg30
F-0.2608695652173913
sg31
F0.45652173913043476
sg32
S'yellow'
p620
sba(icurlovision
Stone
p621
(dp622
g29
F0.16304347826086957
sg30
F3.75
sg31
F0.358695652173913
sg32
S'red'
p623
sba(icurlovision
Stone
p624
(dp625
g29
F-1.467391304347826
sg30
F4.076086956521739
sg31
F0.32608695652173914
sg32
S'yellow'
p626
sba(icurlovision
Stone
p627
(dp628
g29
F-0.8804347826086957
sg30
F-0.45652173913043476
sg31
F0.47282608695652173
sg32
S'red'
p629
sbasba(icurlovision
StoneLayout
p630
(dp631
g24
F0.4791666666666667
sg25
(lp632
(icurlovision
Stone
p633
(dp634
g29
F0.10714285714285714
sg30
F-0.07653061224489796
sg31
F0.45918367346938777
sg32
S'yellow'
p635
sba(icurlovision
Stone
p636
(dp637
g29
F-0.8724489795918368
sg30
F-0.44387755102040816
sg31
F0.42857142857142855
sg32
S'red'
p638
sba(icurlovision
Stone
p639
(dp640
g29
F1.5153061224489797
sg30
F-0.22959183673469388
sg31
F0.336734693877551
sg32
S'yellow'
p641
sba(icurlovision
Stone
p642
(dp643
g29
F0.9030612244897959
sg30
F0.6887755102040816
sg31
F0.2755102040816326
sg32
S'red'
p644
sba(icurlovision
Stone
p645
(dp646
g29
F-1.4846938775510203
sg30
F4.0561224489795915
sg31
F0.336734693877551
sg32
S'yellow'
p647
sbasba(icurlovision
StoneLayout
p648
(dp649
g24
F0.4791666666666667
sg25
(lp650
(icurlovision
Stone
p651
(dp652
g29
F0.09375
sg30
F-0.09375
sg31
F0.45535714285714285
sg32
S'yellow'
p653
sba(icurlovision
Stone
p654
(dp655
g29
F6.950892857142857
sg30
F0.14732142857142858
sg31
F0.4419642857142857
sg32
S'yellow'
p656
sba(icurlovision
Stone
p657
(dp658
g29
F1.4866071428571428
sg30
F-0.2544642857142857
sg31
F0.33482142857142855
sg32
S'yellow'
p659
sba(icurlovision
Stone
p660
(dp661
g29
F-0.8705357142857142
sg30
F-0.4151785714285714
sg31
F0.45535714285714285
sg32
S'red'
p662
sba(icurlovision
Stone
p663
(dp664
g29
F0.84375
sg30
F0.7633928571428571
sg31
F0.30803571428571425
sg32
S'red'
p665
sba(icurlovision
Stone
p666
(dp667
g29
F-1.4866071428571428
sg30
F4.111607142857142
sg31
F0.3482142857142857
sg32
S'yellow'
p668
sbasbasg151
I2
sg152
I1
sba(icurlovision
EndResult
p669
(dp670
g2
I4
sg9
(lp671
(I5
I4
tp672
a(I4
I4
tp673
a(I4
I3
tp674
a(I3
I3
tp675
a(I3
I2
tp676
a(I2
I2
tp677
a(I2
I1
tp678
a(I1
I1
tp679
a(I1
I0
tp680
asg19
I5
sg20
(lp681
(icurlovision
StoneLayout
p682
(dp683
g24
F0.4791666666666667
sg25
(lp684
(icurlovision
Stone
p685
(dp686
g29
F10.766666666666666
sg30
F-0.03333333333333333
sg31
F0.43333333333333335
sg32
S'yellow'
p687
sba(icurlovision
Stone
p688
(dp689
g29
F-0.8333333333333334
sg30
F-0.43333333333333335
sg31
F0.4666666666666667
sg32
S'yellow'
p690
sba(icurlovision
Stone
p691
(dp692
g29
F-1.6666666666666667
sg30
F0.06666666666666667
sg31
F0.26666666666666666
sg32
S'red'
p693
sbasba(icurlovision
StoneLayout
p694
(dp695
g24
F0.4791666666666667
sg25
(lp696
(icurlovision
Stone
p697
(dp698
g29
F10.517045454545453
sg30
F-0.017045454545454544
sg31
F0.4261363636363636
sg32
S'yellow'
p699
sba(icurlovision
Stone
p700
(dp701
g29
F-0.15340909090909088
sg30
F0.1875
sg31
F0.40909090909090906
sg32
S'red'
p702
sba(icurlovision
Stone
p703
(dp704
g29
F-0.9034090909090908
sg30
F-0.6306818181818181
sg31
F0.4602272727272727
sg32
S'yellow'
p705
sba(icurlovision
Stone
p706
(dp707
g29
F-1.5852272727272727
sg30
F0.05113636363636363
sg31
F0.2727272727272727
sg32
S'red'
p708
sbasba(icurlovision
StoneLayout
p709
(dp710
g24
F0.4791666666666667
sg25
(lp711
(icurlovision
Stone
p712
(dp713
g29
F0.7989130434782609
sg30
F0.22826086956521738
sg31
F0.34239130434782605
sg32
S'yellow'
p714
sba(icurlovision
Stone
p715
(dp716
g29
F10.777173913043478
sg30
F0.03260869565217391
sg31
F0.44021739130434784
sg32
S'yellow'
p717
sba(icurlovision
Stone
p718
(dp719
g29
F-1.190217391304348
sg30
F-0.7826086956521738
sg31
F0.2934782608695652
sg32
S'yellow'
p720
sba(icurlovision
Stone
p721
(dp722
g29
F-1.6793478260869565
sg30
F0.06521739130434782
sg31
F0.34239130434782605
sg32
S'red'
p723
sba(icurlovision
Stone
p724
(dp725
g29
F-0.6358695652173912
sg30
F0.2608695652173913
sg31
F0.30978260869565216
sg32
S'red'
p726
sbasba(icurlovision
StoneLayout
p727
(dp728
g24
F0.4791666666666667
sg25
(lp729
(icurlovision
Stone
p730
(dp731
g29
F11.011363636363635
sg30
F0.017045454545454544
sg31
F0.4602272727272727
sg32
S'yellow'
p732
sba(icurlovision
Stone
p733
(dp734
g29
F0.4431818181818181
sg30
F0.6306818181818181
sg31
F0.3409090909090909
sg32
S'yellow'
p735
sba(icurlovision
Stone
p736
(dp737
g29
F-1.7045454545454544
sg30
F0.05113636363636363
sg31
F0.4431818181818181
sg32
S'red'
p738
sba(icurlovision
Stone
p739
(dp740
g29
F-1.2613636363636362
sg30
F-0.7670454545454545
sg31
F0.3409090909090909
sg32
S'yellow'
p741
sba(icurlovision
Stone
p742
(dp743
g29
F-0.6477272727272727
sg30
F0.32386363636363635
sg31
F0.3409090909090909
sg32
S'red'
p744
sba(icurlovision
Stone
p745
(dp746
g29
F0.9886363636363635
sg30
F-0.7670454545454545
sg31
F0.3409090909090909
sg32
S'red'
p747
sbasba(icurlovision
StoneLayout
p748
(dp749
g24
F0.4791666666666667
sg25
(lp750
(icurlovision
Stone
p751
(dp752
g29
F10.714285714285714
sg30
F-0.03571428571428571
sg31
F0.4464285714285714
sg32
S'yellow'
p753
sba(icurlovision
Stone
p754
(dp755
g29
F0.42857142857142855
sg30
F0.5714285714285714
sg31
F0.33928571428571425
sg32
S'yellow'
p756
sba(icurlovision
Stone
p757
(dp758
g29
F-0.6785714285714285
sg30
F-5.928571428571428
sg31
F0.42857142857142855
sg32
S'red'
p759
sba(icurlovision
Stone
p760
(dp761
g29
F-4.75
sg30
F0.2857142857142857
sg31
F0.375
sg32
S'red'
p762
sbasba(icurlovision
StoneLayout
p763
(dp764
g24
F0.4791666666666667
sg25
(lp765
(icurlovision
Stone
p766
(dp767
g29
F10.587209302325581
sg30
F-0.01744186046511628
sg31
F0.436046511627907
sg32
S'yellow'
p768
sba(icurlovision
Stone
p769
(dp770
g29
F-0.6802325581395349
sg30
F-5.843023255813954
sg31
F0.41860465116279066
sg32
S'red'
p771
sba(icurlovision
Stone
p772
(dp773
g29
F1.0988372093023255
sg30
F1.063953488372093
sg31
F0.313953488372093
sg32
S'red'
p774
sba(icurlovision
Stone
p775
(dp776
g29
F-4.8313953488372094
sg30
F0.3313953488372093
sg31
F0.36627906976744184
sg32
S'red'
p777
sbasba(icurlovision
StoneLayout
p778
(dp779
g24
F0.4791666666666667
sg25
(lp780
(icurlovision
Stone
p781
(dp782
g29
F1.0892857142857142
sg30
F3.267857142857143
sg31
F0.4464285714285714
sg32
S'yellow'
p783
sba(icurlovision
Stone
p784
(dp785
g29
F-0.625
sg30
F-5.982142857142857
sg31
F0.26785714285714285
sg32
S'red'
p786
sba(icurlovision
Stone
p787
(dp788
g29
F10.910714285714285
sg30
F0.05357142857142857
sg31
F0.4464285714285714
sg32
S'yellow'
p789
sba(icurlovision
Stone
p790
(dp791
g29
F-5.946428571428571
sg30
F-3.839285714285714
sg31
F0.4821428571428571
sg32
S'red'
p792
sbasba(icurlovision
StoneLayout
p793
(dp794
g24
F0.4791666666666667
sg25
(lp795
(icurlovision
Stone
p796
(dp797
g29
F10.482954545454545
sg30
F-0.017045454545454544
sg31
F0.4431818181818181
sg32
S'yellow'
p798
sba(icurlovision
Stone
p799
(dp800
g29
F-0.6647727272727272
sg30
F-5.8125
sg31
F0.32386363636363635
sg32
S'red'
p801
sba(icurlovision
Stone
p802
(dp803
g29
F-5.744318181818182
sg30
F-3.732954545454545
sg31
F0.4261363636363636
sg32
S'red'
p804
sba(icurlovision
Stone
p805
(dp806
g29
F1.6193181818181817
sg30
F3.732954545454545
sg31
F0.3409090909090909
sg32
S'red'
p807
sbasba(icurlovision
StoneLayout
p808
(dp809
g24
F0.4791666666666667
sg25
(lp810
(icurlovision
Stone
p811
(dp812
g29
F-5.8604651162790695
sg30
F-3.7325581395348837
sg31
F0.45348837209302323
sg32
S'red'
p813
sba(icurlovision
Stone
p814
(dp815
g29
F10.63953488372093
sg30
F-0.03488372093023256
sg31
F0.436046511627907
sg32
S'yellow'
p816
sba(icurlovision
Stone
p817
(dp818
g29
F-0.6976744186046512
sg30
F-5.895348837209302
sg31
F0.2616279069767442
sg32
S'red'
p819
sba(icurlovision
Stone
p820
(dp821
g29
F2.546511627906977
sg30
F3.802325581395349
sg31
F0.313953488372093
sg32
S'yellow'
p822
sbasbasg151
I4
sg152
I1
sba(icurlovision
EndResult
p823
(dp824
g2
I4
sg9
(lp825
(I4
I5
tp826
a(I4
I4
tp827
a(I3
I4
tp828
a(I3
I3
tp829
a(I2
I3
tp830
a(I2
I2
tp831
a(I1
I2
tp832
a(I1
I1
tp833
a(I0
I1
tp834
asg19
I6
sg20
(lp835
(icurlovision
StoneLayout
p836
(dp837
g24
F0.4791666666666667
sg25
(lp838
(icurlovision
Stone
p839
(dp840
g29
F-3.8166666666666664
sg30
F-0.4166666666666667
sg31
F0.3333333333333333
sg32
S'yellow'
p841
sba(icurlovision
Stone
p842
(dp843
g29
F-0.6833333333333333
sg30
F0.21666666666666667
sg31
F0.45
sg32
S'red'
p844
sba(icurlovision
Stone
p845
(dp846
g29
F10.583333333333334
sg30
F-0.08333333333333333
sg31
F0.45
sg32
S'red'
p847
sbasba(icurlovision
StoneLayout
p848
(dp849
g24
F0.4791666666666667
sg25
(lp850
(icurlovision
Stone
p851
(dp852
g29
F-2.3
sg30
F1.1333333333333333
sg31
F0.45
sg32
S'red'
p853
sba(icurlovision
Stone
p854
(dp855
g29
F10.533333333333333
sg30
F-0.06666666666666667
sg31
F0.43333333333333335
sg32
S'red'
p856
sba(icurlovision
Stone
p857
(dp858
g29
F0.06666666666666667
sg30
F-0.3333333333333333
sg31
F0.4666666666666667
sg32
S'yellow'
p859
sbasba(icurlovision
StoneLayout
p860
(dp861
g24
F0.4791666666666667
sg25
(lp862
(icurlovision
Stone
p863
(dp864
g29
F-2.3863636363636362
sg30
F1.1761363636363635
sg31
F0.30681818181818177
sg32
S'red'
p865
sba(icurlovision
Stone
p866
(dp867
g29
F10.84090909090909
sg30
F-0.05113636363636363
sg31
F0.4602272727272727
sg32
S'red'
p868
sba(icurlovision
Stone
p869
(dp870
g29
F0.3409090909090909
sg30
F0.5284090909090908
sg31
F0.2727272727272727
sg32
S'red'
p871
sba(icurlovision
Stone
p872
(dp873
g29
F-3.954545454545454
sg30
F-0.4261363636363636
sg31
F0.3409090909090909
sg32
S'yellow'
p874
sba(icurlovision
Stone
p875
(dp876
g29
F-0.0
sg30
F-0.32386363636363635
sg31
F0.3409090909090909
sg32
S'yellow'
p877
sbasba(icurlovision
StoneLayout
p878
(dp879
g24
F0.4791666666666667
sg25
(lp880
(icurlovision
Stone
p881
(dp882
g29
F-2.3641304347826084
sg30
F1.1739130434782608
sg31
F0.45652173913043476
sg32
S'red'
p883
sba(icurlovision
Stone
p884
(dp885
g29
F-0.7010869565217391
sg30
F0.75
sg31
F0.2934782608695652
sg32
S'red'
p886
sba(icurlovision
Stone
p887
(dp888
g29
F0.9619565217391304
sg30
F1.2391304347826086
sg31
F0.34239130434782605
sg32
S'yellow'
p889
sba(icurlovision
Stone
p890
(dp891
g29
F10.71195652173913
sg30
F-0.06521739130434782
sg31
F0.44021739130434784
sg32
S'red'
p892
sba(icurlovision
Stone
p893
(dp894
g29
F-0.34239130434782605
sg30
F-1.0108695652173914
sg31
F0.45652173913043476
sg32
S'yellow'
p895
sbasba(icurlovision
StoneLayout
p896
(dp897
g24
F0.4791666666666667
sg25
(lp898
(icurlovision
Stone
p899
(dp900
g29
F-0.6071428571428571
sg30
F1.8214285714285714
sg31
F0.33928571428571425
sg32
S'yellow'
p901
sba(icurlovision
Stone
p902
(dp903
g29
F-2.4285714285714284
sg30
F1.1785714285714286
sg31
F0.46428571428571425
sg32
S'red'
p904
sba(icurlovision
Stone
p905
(dp906
g29
F-0.3214285714285714
sg30
F-1.0714285714285714
sg31
F0.33928571428571425
sg32
S'yellow'
p907
sba(icurlovision
Stone
p908
(dp909
g29
F-0.75
sg30
F0.75
sg31
F0.3571428571428571
sg32
S'red'
p910
sba(icurlovision
Stone
p911
(dp912
g29
F10.964285714285714
sg30
F-0.10714285714285714
sg31
F0.4464285714285714
sg32
S'red'
p913
sba(icurlovision
Stone
p914
(dp915
g29
F0.8571428571428571
sg30
F-0.2857142857142857
sg31
F0.46428571428571425
sg32
S'red'
p916
sbasba(icurlovision
StoneLayout
p917
(dp918
g24
F0.4791666666666667
sg25
(lp919
(icurlovision
Stone
p920
(dp921
g29
F-0.5543478260869565
sg30
F1.7934782608695652
sg31
F0.45652173913043476
sg32
S'yellow'
p922
sba(icurlovision
Stone
p923
(dp924
g29
F-2.7391304347826084
sg30
F1.2391304347826086
sg31
F0.30978260869565216
sg32
S'red'
p925
sba(icurlovision
Stone
p926
(dp927
g29
F-1.467391304347826
sg30
F1.5
sg31
F0.2934782608695652
sg32
S'red'
p928
sba(icurlovision
Stone
p929
(dp930
g29
F-0.32608695652173914
sg30
F-0.9782608695652174
sg31
F0.32608695652173914
sg32
S'yellow'
p931
sba(icurlovision
Stone
p932
(dp933
g29
F0.4891304347826087
sg30
F-2.25
sg31
F0.32608695652173914
sg32
S'yellow'
p934
sba(icurlovision
Stone
p935
(dp936
g29
F10.597826086956522
sg30
F-0.09782608695652173
sg31
F0.44021739130434784
sg32
S'red'
p937
sba(icurlovision
Stone
p938
(dp939
g29
F-3.8152173913043477
sg30
F-0.3913043478260869
sg31
F0.34239130434782605
sg32
S'yellow'
p940
sba(icurlovision
Stone
p941
(dp942
g29
F-0.2608695652173913
sg30
F-0.06521739130434782
sg31
F0.34239130434782605
sg32
S'red'
p943
sbasba(icurlovision
StoneLayout
p944
(dp945
g24
F0.4791666666666667
sg25
(lp946
(icurlovision
Stone
p947
(dp948
g29
F-2.8206521739130435
sg30
F1.2554347826086956
sg31
F0.47282608695652173
sg32
S'red'
p949
sba(icurlovision
Stone
p950
(dp951
g29
F-0.5706521739130435
sg30
F1.809782608695652
sg31
F0.34239130434782605
sg32
S'yellow'
p952
sba(icurlovision
Stone
p953
(dp954
g29
F-1.516304347826087
sg30
F1.5489130434782608
sg31
F0.47282608695652173
sg32
S'red'
p955
sba(icurlovision
Stone
p956
(dp957
g29
F-0.34239130434782605
sg30
F-1.0271739130434783
sg31
F0.34239130434782605
sg32
S'yellow'
p958
sba(icurlovision
Stone
p959
(dp960
g29
F10.809782608695652
sg30
F-0.11413043478260869
sg31
F0.45652173913043476
sg32
S'red'
p961
sba(icurlovision
Stone
p962
(dp963
g29
F-0.27717391304347827
sg30
F-0.08152173913043478
sg31
F0.30978260869565216
sg32
S'red'
p964
sba(icurlovision
Stone
p965
(dp966
g29
F0.9945652173913043
sg30
F-1.2880434782608696
sg31
F0.45652173913043476
sg32
S'red'
p967
sbasba(icurlovision
StoneLayout
p968
(dp969
g24
F0.4791666666666667
sg25
(lp970
(icurlovision
Stone
p971
(dp972
g29
F-0.5380434782608695
sg30
F1.7608695652173914
sg31
F0.45652173913043476
sg32
S'yellow'
p973
sba(icurlovision
Stone
p974
(dp975
g29
F-1.451086956521739
sg30
F1.5
sg31
F0.32608695652173914
sg32
S'red'
p976
sba(icurlovision
Stone
p977
(dp978
g29
F-0.5380434782608695
sg30
F-1.434782608695652
sg31
F0.45652173913043476
sg32
S'yellow'
p979
sba(icurlovision
Stone
p980
(dp981
g29
F-2.7880434782608696
sg30
F1.2065217391304348
sg31
F0.27717391304347827
sg32
S'red'
p982
sba(icurlovision
Stone
p983
(dp984
g29
F10.679347826086957
sg30
F-0.09782608695652173
sg31
F0.45652173913043476
sg32
S'red'
p985
sba(icurlovision
Stone
p986
(dp987
g29
F-2.0380434782608696
sg30
F-0.2608695652173913
sg31
F0.2934782608695652
sg32
S'red'
p988
sba(icurlovision
Stone
p989
(dp990
g29
F0.21195652173913043
sg30
F0.717391304347826
sg31
F0.45652173913043476
sg32
S'yellow'
p991
sba(icurlovision
Stone
p992
(dp993
g29
F0.9945652173913043
sg30
F-1.2717391304347825
sg31
F0.45652173913043476
sg32
S'red'
p994
sbasba(icurlovision
StoneLayout
p995
(dp996
g24
F0.4791666666666667
sg25
(lp997
(icurlovision
Stone
p998
(dp999
g29
F-1.977272727272727
sg30
F1.8749999999999998
sg31
F0.4602272727272727
sg32
S'red'
p1000
sba(icurlovision
Stone
p1001
(dp1002
g29
F-1.5
sg30
F0.40909090909090906
sg31
F0.4602272727272727
sg32
S'yellow'
p1003
sba(icurlovision
Stone
p1004
(dp1005
g29
F10.670454545454545
sg30
F-0.10227272727272727
sg31
F0.28977272727272724
sg32
S'red'
p1006
sba(icurlovision
Stone
p1007
(dp1008
g29
F-0.5795454545454545
sg30
F1.8068181818181817
sg31
F0.3409090909090909
sg32
S'yellow'
p1009
sba(icurlovision
Stone
p1010
(dp1011
g29
F-2.7954545454545454
sg30
F1.2613636363636362
sg31
F0.4602272727272727
sg32
S'red'
p1012
sba(icurlovision
Stone
p1013
(dp1014
g29
F-0.5795454545454545
sg30
F-1.3977272727272727
sg31
F0.3409090909090909
sg32
S'yellow'
p1015
sba(icurlovision
Stone
p1016
(dp1017
g29
F-2.2840909090909087
sg30
F-0.3409090909090909
sg31
F0.3409090909090909
sg32
S'red'
p1018
sba(icurlovision
Stone
p1019
(dp1020
g29
F0.9886363636363635
sg30
F0.375
sg31
F0.28977272727272724
sg32
S'red'
p1021
sba(icurlovision
Stone
p1022
(dp1023
g29
F0.9545454545454545
sg30
F-1.2613636363636362
sg31
F0.28977272727272724
sg32
S'red'
p1024
sbasbasg151
I5
sg152
I0
sba(icurlovision
EndResult
p1025
(dp1026
g2
I6
sg9
(lp1027
(I4
I5
tp1028
a(I4
I4
tp1029
a(I3
I4
tp1030
a(I3
I3
tp1031
a(I2
I3
tp1032
a(I2
I2
tp1033
a(I1
I2
tp1034
a(I1
I1
tp1035
a(I0
I1
tp1036
asg19
I7
sg20
(lp1037
(icurlovision
StoneLayout
p1038
(dp1039
g24
F0.4791666666666667
sg25
(lp1040
(icurlovision
Stone
p1041
(dp1042
g29
F-2.1363636363636362
sg30
F-2.590909090909091
sg31
F0.4545454545454546
sg32
S'red'
p1043
sba(icurlovision
Stone
p1044
(dp1045
g29
F0.4772727272727273
sg30
F3.9545454545454546
sg31
F0.32954545454545453
sg32
S'yellow'
p1046
sbasba(icurlovision
StoneLayout
p1047
(dp1048
g24
F0.4791666666666667
sg25
(lp1049
(icurlovision
Stone
p1050
(dp1051
g29
F-1.3404255319148934
sg30
F-2.840425531914893
sg31
F0.4627659574468085
sg32
S'yellow'
p1052
sba(icurlovision
Stone
p1053
(dp1054
g29
F10.085106382978722
sg30
F6.095744680851063
sg31
F0.4627659574468085
sg32
S'red'
p1055
sba(icurlovision
Stone
p1056
(dp1057
g29
F0.5106382978723404
sg30
F4.053191489361701
sg31
F0.3191489361702127
sg32
S'yellow'
p1058
sba(icurlovision
Stone
p1059
(dp1060
g29
F-5.617021276595744
sg30
F-2.7446808510638294
sg31
F0.4627659574468085
sg32
S'red'
p1061
sba(icurlovision
Stone
p1062
(dp1063
g29
F8.617021276595745
sg30
F-5.680851063829786
sg31
F0.28723404255319146
sg32
S'yellow'
p1064
sbasba(icurlovision
StoneLayout
p1065
(dp1066
g24
F0.4791666666666667
sg25
(lp1067
(icurlovision
Stone
p1068
(dp1069
g29
F-1.2925531914893615
sg30
F-2.7606382978723403
sg31
F0.4627659574468085
sg32
S'yellow'
p1070
sba(icurlovision
Stone
p1071
(dp1072
g29
F9.845744680851062
sg30
F5.920212765957446
sg31
F0.3031914893617021
sg32
S'red'
p1073
sba(icurlovision
Stone
p1074
(dp1075
g29
F0.526595744680851
sg30
F4.00531914893617
sg31
F0.3191489361702127
sg32
S'yellow'
p1076
sba(icurlovision
Stone
p1077
(dp1078
g29
F-0.49468085106382975
sg30
F-2.3138297872340425
sg31
F0.351063829787234
sg32
S'red'
p1079
sba(icurlovision
Stone
p1080
(dp1081
g29
F-5.473404255319148
sg30
F-2.632978723404255
sg31
F0.3191489361702127
sg32
S'red'
p1082
sba(icurlovision
Stone
p1083
(dp1084
g29
F8.569148936170212
sg30
F-5.632978723404255
sg31
F0.28723404255319146
sg32
S'yellow'
p1085
sbasba(icurlovision
StoneLayout
p1086
(dp1087
g24
F0.4791666666666667
sg25
(lp1088
(icurlovision
Stone
p1089
(dp1090
g29
F0.358695652173913
sg30
F-2.4456521739130435
sg31
F0.45652173913043476
sg32
S'yellow'
p1091
sba(icurlovision
Stone
p1092
(dp1093
g29
F-0.6847826086956521
sg30
F-2.0217391304347827
sg31
F0.27717391304347827
sg32
S'red'
p1094
sba(icurlovision
Stone
p1095
(dp1096
g29
F9.782608695652174
sg30
F5.869565217391304
sg31
F0.2934782608695652
sg32
S'red'
p1097
sba(icurlovision
Stone
p1098
(dp1099
g29
F0.5217391304347826
sg30
F3.9782608695652173
sg31
F0.34239130434782605
sg32
S'yellow'
p1100
sba(icurlovision
Stone
p1101
(dp1102
g29
F-3.0
sg30
F-3.391304347826087
sg31
F0.32608695652173914
sg32
S'yellow'
p1103
sba(icurlovision
Stone
p1104
(dp1105
g29
F-5.478260869565217
sg30
F-2.641304347826087
sg31
F0.45652173913043476
sg32
S'red'
p1106
sbasba(icurlovision
StoneLayout
p1107
(dp1108
g24
F0.4791666666666667
sg25
(lp1109
(icurlovision
Stone
p1110
(dp1111
g29
F-1.5852272727272727
sg30
F6.511363636363636
sg31
F0.28977272727272724
sg32
S'yellow'
p1112
sba(icurlovision
Stone
p1113
(dp1114
g29
F0.3579545454545454
sg30
F-2.4886363636363633
sg31
F0.4602272727272727
sg32
S'yellow'
p1115
sba(icurlovision
Stone
p1116
(dp1117
g29
F9.869318181818182
sg30
F5.931818181818182
sg31
F0.4431818181818181
sg32
S'red'
p1118
sba(icurlovision
Stone
p1119
(dp1120
g29
F-0.7329545454545454
sg30
F-2.0454545454545454
sg31
F0.3579545454545454
sg32
S'red'
p1121
sba(icurlovision
Stone
p1122
(dp1123
g29
F-3.0511363636363633
sg30
F-3.443181818181818
sg31
F0.32386363636363635
sg32
S'yellow'
p1124
sba(icurlovision
Stone
p1125
(dp1126
g29
F-5.539772727272727
sg30
F-2.6590909090909087
sg31
F0.4602272727272727
sg32
S'red'
p1127
sba(icurlovision
Stone
p1128
(dp1129
g29
F9.426136363636363
sg30
F-6.920454545454545
sg31
F0.30681818181818177
sg32
S'yellow'
p1130
sbasba(icurlovision
StoneLayout
p1131
(dp1132
g24
F0.4791666666666667
sg25
(lp1133
(icurlovision
Stone
p1134
(dp1135
g29
F9.893617021276595
sg30
F5.999999999999999
sg31
F0.44680851063829785
sg32
S'red'
p1136
sba(icurlovision
Stone
p1137
(dp1138
g29
F0.15957446808510636
sg30
F-2.3936170212765955
sg31
F0.3191489361702127
sg32
S'yellow'
p1139
sba(icurlovision
Stone
p1140
(dp1141
g29
F-1.627659574468085
sg30
F6.478723404255319
sg31
F0.44680851063829785
sg32
S'yellow'
p1142
sba(icurlovision
Stone
p1143
(dp1144
g29
F0.4787234042553191
sg30
F-4.117021276595745
sg31
F0.3191489361702127
sg32
S'yellow'
p1145
sba(icurlovision
Stone
p1146
(dp1147
g29
F-5.5212765957446805
sg30
F-2.680851063829787
sg31
F0.33510638297872336
sg32
S'red'
p1148
sba(icurlovision
Stone
p1149
(dp1150
g29
F-2.9999999999999996
sg30
F-3.4468085106382977
sg31
F0.33510638297872336
sg32
S'yellow'
p1151
sbasba(icurlovision
StoneLayout
p1152
(dp1153
g24
F0.4791666666666667
sg25
(lp1154
(icurlovision
Stone
p1155
(dp1156
g29
F-1.602272727272727
sg30
F6.579545454545454
sg31
F0.28977272727272724
sg32
S'yellow'
p1157
sba(icurlovision
Stone
p1158
(dp1159
g29
F0.7840909090909091
sg30
F-3.340909090909091
sg31
F0.3579545454545454
sg32
S'red'
p1160
sba(icurlovision
Stone
p1161
(dp1162
g29
F9.988636363636363
sg30
F6.0
sg31
F0.4431818181818181
sg32
S'red'
p1163
sba(icurlovision
Stone
p1164
(dp1165
g29
F-5.556818181818182
sg30
F-2.727272727272727
sg31
F0.30681818181818177
sg32
S'red'
p1166
sba(icurlovision
Stone
p1167
(dp1168
g29
F-3.0340909090909087
sg30
F-3.477272727272727
sg31
F0.3409090909090909
sg32
S'yellow'
p1169
sba(icurlovision
Stone
p1170
(dp1171
g29
F-6.306818181818182
sg30
F-6.920454545454545
sg31
F0.47727272727272724
sg32
S'yellow'
p1172
sbasba(icurlovision
StoneLayout
p1173
(dp1174
g24
F0.4791666666666667
sg25
(lp1175
(icurlovision
Stone
p1176
(dp1177
g29
F-1.609375
sg30
F6.390625
sg31
F0.296875
sg32
S'yellow'
p1178
sba(icurlovision
Stone
p1179
(dp1180
g29
F9.671875
sg30
F5.953125
sg31
F0.46875
sg32
S'red'
p1181
sba(icurlovision
Stone
p1182
(dp1183
g29
F-0.265625
sg30
F-0.828125
sg31
F0.328125
sg32
S'yellow'
p1184
sba(icurlovision
Stone
p1185
(dp1186
g29
F-5.421875
sg30
F-2.671875
sg31
F0.328125
sg32
S'red'
p1187
sba(icurlovision
Stone
p1188
(dp1189
g29
F-2.953125
sg30
F-3.421875
sg31
F0.34375
sg32
S'yellow'
p1190
sbasba(icurlovision
StoneLayout
p1191
(dp1192
g24
F0.4791666666666667
sg25
(lp1193
(icurlovision
Stone
p1194
(dp1195
g29
F-1.5957446808510638
sg30
F6.462765957446808
sg31
F0.4787234042553191
sg32
S'yellow'
p1196
sba(icurlovision
Stone
p1197
(dp1198
g29
F-2.553191489361702
sg30
F-6.047872340425531
sg31
F0.4787234042553191
sg32
S'red'
p1199
sba(icurlovision
Stone
p1200
(dp1201
g29
F-5.489361702127659
sg30
F-2.632978723404255
sg31
F0.351063829787234
sg32
S'red'
p1202
sba(icurlovision
Stone
p1203
(dp1204
g29
F9.829787234042552
sg30
F5.888297872340425
sg31
F0.4627659574468085
sg32
S'red'
p1205
sba(icurlovision
Stone
p1206
(dp1207
g29
F-3.031914893617021
sg30
F-3.3989361702127656
sg31
F0.33510638297872336
sg32
S'yellow'
p1208
sbasbasg151
I5
sg152
I0
sba(icurlovision
EndResult
p1209
(dp1210
g2
I6
sg9
(lp1211
(I5
I4
tp1212
a(I4
I4
tp1213
a(I4
I3
tp1214
a(I3
I2
tp1215
a(I2
I2
tp1216
a(I2
I1
tp1217
a(I1
I1
tp1218
a(I1
I0
tp1219
asg19
I8
sg20
(lp1220
(icurlovision
StoneLayout
p1221
(dp1222
g24
F0.4791666666666667
sg25
(lp1223
(icurlovision
Stone
p1224
(dp1225
g29
F0.6833333333333333
sg30
F3.216666666666667
sg31
F0.3333333333333333
sg32
S'yellow'
p1226
sba(icurlovision
Stone
p1227
(dp1228
g29
F11.016666666666666
sg30
F3.4833333333333334
sg31
F0.26666666666666666
sg32
S'yellow'
p1229
sba(icurlovision
Stone
p1230
(dp1231
g29
F0.45
sg30
F4.25
sg31
F0.26666666666666666
sg32
S'red'
p1232
sbasba(icurlovision
StoneLayout
p1233
(dp1234
g24
F0.4791666666666667
sg25
(lp1235
(icurlovision
Stone
p1236
(dp1237
g29
F-0.4627659574468085
sg30
F3.3670212765957444
sg31
F0.33510638297872336
sg32
S'yellow'
p1238
sba(icurlovision
Stone
p1239
(dp1240
g29
F1.547872340425532
sg30
F2.7925531914893615
sg31
F0.44680851063829785
sg32
S'red'
p1241
sba(icurlovision
Stone
p1242
(dp1243
g29
F10.707446808510637
sg30
F3.3670212765957444
sg31
F0.3031914893617021
sg32
S'yellow'
p1244
sba(icurlovision
Stone
p1245
(dp1246
g29
F0.4308510638297872
sg30
F4.1010638297872335
sg31
F0.33510638297872336
sg32
S'red'
p1247
sbasba(icurlovision
StoneLayout
p1248
(dp1249
g24
F0.4791666666666667
sg25
(lp1250
(icurlovision
Stone
p1251
(dp1252
g29
F-0.46875
sg30
F3.390625
sg31
F0.46875
sg32
S'yellow'
p1253
sba(icurlovision
Stone
p1254
(dp1255
g29
F-0.25
sg30
F2.453125
sg31
F0.34375
sg32
S'red'
p1256
sba(icurlovision
Stone
p1257
(dp1258
g29
F10.8125
sg30
F3.484375
sg31
F0.34375
sg32
S'yellow'
p1259
sba(icurlovision
Stone
p1260
(dp1261
g29
F2.0625
sg30
F3.828125
sg31
F0.328125
sg32
S'yellow'
p1262
sba(icurlovision
Stone
p1263
(dp1264
g29
F0.4375
sg30
F4.171875
sg31
F0.34375
sg32
S'red'
p1265
sbasba(icurlovision
StoneLayout
p1266
(dp1267
g24
F0.4791666666666667
sg25
(lp1268
(icurlovision
Stone
p1269
(dp1270
g29
F-0.47093023255813954
sg30
F3.436046511627907
sg31
F0.47093023255813954
sg32
S'yellow'
p1271
sba(icurlovision
Stone
p1272
(dp1273
g29
F0.5755813953488372
sg30
F2.947674418604651
sg31
F0.47093023255813954
sg32
S'yellow'
p1274
sba(icurlovision
Stone
p1275
(dp1276
g29
F10.936046511627907
sg30
F3.436046511627907
sg31
F0.436046511627907
sg32
S'yellow'
p1277
sba(icurlovision
Stone
p1278
(dp1279
g29
F0.436046511627907
sg30
F4.203488372093023
sg31
F0.3488372093023256
sg32
S'red'
p1280
sba(icurlovision
Stone
p1281
(dp1282
g29
F3.5406976744186047
sg30
F-1.5523255813953487
sg31
F0.45348837209302323
sg32
S'red'
p1283
sba(icurlovision
Stone
p1284
(dp1285
g29
F2.1104651162790695
sg30
F3.88953488372093
sg31
F0.3313953488372093
sg32
S'yellow'
p1286
sbasba(icurlovision
StoneLayout
p1287
(dp1288
g24
F0.4791666666666667
sg25
(lp1289
(icurlovision
Stone
p1290
(dp1291
g29
F0.09782608695652173
sg30
F2.6739130434782608
sg31
F0.45652173913043476
sg32
S'yellow'
p1292
sba(icurlovision
Stone
p1293
(dp1294
g29
F10.728260869565217
sg30
F3.391304347826087
sg31
F0.42391304347826086
sg32
S'yellow'
p1295
sba(icurlovision
Stone
p1296
(dp1297
g29
F1.434782608695652
sg30
F2.7717391304347827
sg31
F0.45652173913043476
sg32
S'red'
p1298
sba(icurlovision
Stone
p1299
(dp1300
g29
F3.4891304347826084
sg30
F-1.467391304347826
sg31
F0.34239130434782605
sg32
S'red'
p1301
sba(icurlovision
Stone
p1302
(dp1303
g29
F0.45652173913043476
sg30
F4.141304347826087
sg31
F0.34239130434782605
sg32
S'red'
p1304
sba(icurlovision
Stone
p1305
(dp1306
g29
F2.0543478260869565
sg30
F3.8152173913043477
sg31
F0.358695652173913
sg32
S'yellow'
p1307
sbasba(icurlovision
StoneLayout
p1308
(dp1309
g24
F0.4791666666666667
sg25
(lp1310
(icurlovision
Stone
p1311
(dp1312
g29
F0.13636363636363635
sg30
F2.6590909090909087
sg31
F0.4431818181818181
sg32
S'yellow'
p1313
sba(icurlovision
Stone
p1314
(dp1315
g29
F2.0795454545454546
sg30
F2.0795454545454546
sg31
F0.32386363636363635
sg32
S'yellow'
p1316
sba(icurlovision
Stone
p1317
(dp1318
g29
F-6.136363636363636
sg30
F6.136363636363636
sg31
F0.28977272727272724
sg32
S'yellow'
p1319
sba(icurlovision
Stone
p1320
(dp1321
g29
F10.704545454545453
sg30
F3.3749999999999996
sg31
F0.32386363636363635
sg32
S'yellow'
p1322
sba(icurlovision
Stone
p1323
(dp1324
g29
F1.3977272727272727
sg30
F2.7613636363636362
sg31
F0.4431818181818181
sg32
S'red'
p1325
sba(icurlovision
Stone
p1326
(dp1327
g29
F2.0454545454545454
sg30
F3.7840909090909087
sg31
F0.32386363636363635
sg32
S'yellow'
p1328
sba(icurlovision
Stone
p1329
(dp1330
g29
F0.47727272727272724
sg30
F4.125
sg31
F0.3409090909090909
sg32
S'red'
p1331
sbasba(icurlovision
StoneLayout
p1332
(dp1333
g24
F0.4791666666666667
sg25
(lp1334
(icurlovision
Stone
p1335
(dp1336
g29
F0.11666666666666667
sg30
F2.65
sg31
F0.45
sg32
S'yellow'
p1337
sba(icurlovision
Stone
p1338
(dp1339
g29
F-6.183333333333334
sg30
F6.183333333333334
sg31
F0.26666666666666666
sg32
S'yellow'
p1340
sba(icurlovision
Stone
p1341
(dp1342
g29
F10.716666666666667
sg30
F3.3833333333333333
sg31
F0.3333333333333333
sg32
S'yellow'
p1343
sba(icurlovision
Stone
p1344
(dp1345
g29
F1.0166666666666666
sg30
F3.15
sg31
F0.2833333333333333
sg32
S'red'
p1346
sba(icurlovision
Stone
p1347
(dp1348
g29
F2.35
sg30
F3.0166666666666666
sg31
F0.31666666666666665
sg32
S'red'
p1349
sba(icurlovision
Stone
p1350
(dp1351
g29
F0.4166666666666667
sg30
F4.116666666666666
sg31
F0.3333333333333333
sg32
S'red'
p1352
sbasba(icurlovision
StoneLayout
p1353
(dp1354
g24
F0.4791666666666667
sg25
(lp1355
(icurlovision
Stone
p1356
(dp1357
g29
F0.14285714285714285
sg30
F2.6785714285714284
sg31
F0.46428571428571425
sg32
S'yellow'
p1358
sba(icurlovision
Stone
p1359
(dp1360
g29
F10.678571428571429
sg30
F3.392857142857143
sg31
F0.42857142857142855
sg32
S'yellow'
p1361
sba(icurlovision
Stone
p1362
(dp1363
g29
F12.785714285714285
sg30
F1.8214285714285714
sg31
F0.42857142857142855
sg32
S'yellow'
p1364
sba(icurlovision
Stone
p1365
(dp1366
g29
F1.0357142857142856
sg30
F3.1785714285714284
sg31
F0.46428571428571425
sg32
S'red'
p1367
sba(icurlovision
Stone
p1368
(dp1369
g29
F0.46428571428571425
sg30
F4.178571428571428
sg31
F0.3571428571428571
sg32
S'red'
p1370
sba(icurlovision
Stone
p1371
(dp1372
g29
F2.392857142857143
sg30
F3.0
sg31
F0.3214285714285714
sg32
S'red'
p1373
sbasbasg151
I5
sg152
I1
sbasS'version'
p1374
I20180812
sg151
I5
sS'metadata'
p1375
(icurlovision
MatchMetadata
p1376
(dp1377
S'team_name_red'
p1378
S'Unknown'
p1379
sS'event_name'
p1380
g1379
sS'gender'
p1381
g1379
sS'other_info'
p1382
g1379
sS'team_name_yel'
p1383
g1379
sS'date'
p1384
g1379
sbsb.