(icurlovision
MatchResult
p0
(dp1
S'yel_score'
p2
I6
sS'red_score'
p3
I6
sS'name'
p4
S"VideoLibrary/PyeongChang.Olympics.2018.curling.women's.round-robin.Canada.v.Sweden.1080p.NBC.WEB-DL-FINFUNGUS.mp4"
p5
sS'end_results'
p6
(lp7
(icurlovision
EndResult
p8
(dp9
g2
I2
sS'stones_left'
p10
(lp11
(I7
I7
tp12
a(I6
I6
tp13
a(I6
I5
tp14
a(I5
I5
tp15
a(I3
I3
tp16
a(I2
I2
tp17
a(I1
I1
tp18
a(I1
I0
tp19
asS'end_num'
p20
I1
sS'stone_layouts'
p21
(lp22
(icurlovision
StoneLayout
p23
(dp24
S'stone_radius'
p25
F0.4791666666666667
sS'stones'
p26
(lp27
(icurlovision
Stone
p28
(dp29
S'y'
p30
F-2.018181818181818
sS'x'
p31
F-4.336363636363636
sS'r'
p32
F0.3409090909090909
sS'color'
p33
S'red'
p34
sba(icurlovision
Stone
p35
(dp36
g30
F7.445454545454545
sg31
F0.24545454545454545
sg32
F0.3409090909090909
sg33
S'yellow'
p37
sbasba(icurlovision
StoneLayout
p38
(dp39
g25
F0.4791666666666667
sg26
(lp40
(icurlovision
Stone
p41
(dp42
g30
F7.647321428571428
sg31
F0.28125
sg32
F0.30803571428571425
sg33
S'yellow'
p43
sba(icurlovision
Stone
p44
(dp45
g30
F-0.5758928571428571
sg31
F-3.977678571428571
sg32
F0.3482142857142857
sg33
S'red'
p46
sbasba(icurlovision
StoneLayout
p47
(dp48
g25
F0.4791666666666667
sg26
(lp49
(icurlovision
Stone
p50
(dp51
g30
F0.3611111111111111
sg31
F-3.9166666666666665
sg32
F0.3472222222222222
sg33
S'yellow'
p52
sba(icurlovision
Stone
p53
(dp54
g30
F7.722222222222221
sg31
F0.25
sg32
F0.4583333333333333
sg33
S'yellow'
p55
sba(icurlovision
Stone
p56
(dp57
g30
F-3.083333333333333
sg31
F-4.222222222222222
sg32
F0.3472222222222222
sg33
S'red'
p58
sba(icurlovision
Stone
p59
(dp60
g30
F1.1388888888888888
sg31
F-7.5
sg32
F0.4444444444444444
sg33
S'yellow'
p61
sbasba(icurlovision
StoneLayout
p62
(dp63
g25
F0.4791666666666667
sg26
(lp64
(icurlovision
Stone
p65
(dp66
g30
F7.602941176470588
sg31
F0.22058823529411764
sg32
F0.45588235294117646
sg33
S'yellow'
p67
sba(icurlovision
Stone
p68
(dp69
g30
F-1.4264705882352942
sg31
F-0.1323529411764706
sg32
F0.29411764705882354
sg33
S'red'
p70
sbasba(icurlovision
StoneLayout
p71
(dp72
g25
F0.4791666666666667
sg26
(lp73
(icurlovision
Stone
p74
(dp75
g30
F-1.4846938775510203
sg31
F-0.1377551020408163
sg32
F0.45918367346938777
sg33
S'red'
p76
sba(icurlovision
Stone
p77
(dp78
g30
F7.423469387755102
sg31
F0.29081632653061223
sg32
F0.3520408163265306
sg33
S'yellow'
p79
sba(icurlovision
Stone
p80
(dp81
g30
F-0.015306122448979591
sg31
F-13.423469387755102
sg32
F0.336734693877551
sg33
S'red'
p82
sba(icurlovision
Stone
p83
(dp84
g30
F-0.3520408163265306
sg31
F0.1683673469387755
sg32
F0.336734693877551
sg33
S'yellow'
p85
sba(icurlovision
Stone
p86
(dp87
g30
F8.525510204081632
sg31
F0.29081632653061223
sg32
F0.29081632653061223
sg33
S'red'
p88
sba(icurlovision
Stone
p89
(dp90
g30
F6.321428571428571
sg31
F1.086734693877551
sg32
F0.336734693877551
sg33
S'red'
p91
sbasba(icurlovision
StoneLayout
p92
(dp93
g25
F0.4791666666666667
sg26
(lp94
(icurlovision
Stone
p95
(dp96
g30
F7.3125
sg31
F-3.875
sg32
F0.46875
sg33
S'red'
p97
sba(icurlovision
Stone
p98
(dp99
g30
F0.5625
sg31
F0.375
sg32
F0.46875
sg33
S'yellow'
p100
sba(icurlovision
Stone
p101
(dp102
g30
F0.03125
sg31
F-13.59375
sg32
F0.34375
sg33
S'red'
p103
sba(icurlovision
Stone
p104
(dp105
g30
F-1.46875
sg31
F-0.15625
sg32
F0.46875
sg33
S'red'
p106
sba(icurlovision
Stone
p107
(dp108
g30
F-0.375
sg31
F0.125
sg32
F0.34375
sg33
S'yellow'
p109
sba(icurlovision
Stone
p110
(dp111
g30
F5.96875
sg31
F7.4375
sg32
F0.484375
sg33
S'red'
p112
sba(icurlovision
Stone
p113
(dp114
g30
F8.15625
sg31
F-6.75
sg32
F0.28125
sg33
S'yellow'
p115
sbasba(icurlovision
StoneLayout
p116
(dp117
g25
F0.4791666666666667
sg26
(lp118
(icurlovision
Stone
p119
(dp120
g30
F5.589622641509434
sg31
F-4.089622641509434
sg32
F0.4669811320754717
sg33
S'red'
p121
sba(icurlovision
Stone
p122
(dp123
g30
F-1.4575471698113207
sg31
F-0.1839622641509434
sg32
F0.2971698113207547
sg33
S'red'
p124
sba(icurlovision
Stone
p125
(dp126
g30
F7.1745283018867925
sg31
F-3.7783018867924527
sg32
F0.4669811320754717
sg33
S'red'
p127
sba(icurlovision
Stone
p128
(dp129
g30
F5.872641509433962
sg31
F7.34433962264151
sg32
F0.32547169811320753
sg33
S'red'
p130
sba(icurlovision
Stone
p131
(dp132
g30
F-0.38207547169811323
sg31
F0.12735849056603774
sg32
F0.32547169811320753
sg33
S'yellow'
p133
sba(icurlovision
Stone
p134
(dp135
g30
F0.5801886792452831
sg31
F0.3537735849056604
sg32
F0.339622641509434
sg33
S'yellow'
p136
sbasba(icurlovision
StoneLayout
p137
(dp138
g25
F0.4791666666666667
sg26
(lp139
(icurlovision
Stone
p140
(dp141
g30
F5.900943396226415
sg31
F7.316037735849057
sg32
F0.4669811320754717
sg33
S'red'
p142
sba(icurlovision
Stone
p143
(dp144
g30
F5.589622641509434
sg31
F-4.117924528301887
sg32
F0.4386792452830189
sg33
S'red'
p145
sba(icurlovision
Stone
p146
(dp147
g30
F-1.4858490566037736
sg31
F-0.15566037735849056
sg32
F0.4669811320754717
sg33
S'red'
p148
sba(icurlovision
Stone
p149
(dp150
g30
F0.5518867924528302
sg31
F0.3537735849056604
sg32
F0.339622641509434
sg33
S'yellow'
p151
sba(icurlovision
Stone
p152
(dp153
g30
F-0.38207547169811323
sg31
F0.12735849056603774
sg32
F0.3537735849056604
sg33
S'yellow'
p154
sba(icurlovision
Stone
p155
(dp156
g30
F7.1745283018867925
sg31
F-3.8632075471698113
sg32
F0.4811320754716981
sg33
S'red'
p157
sba(icurlovision
Stone
p158
(dp159
g30
F5.787735849056604
sg31
F0.5235849056603774
sg32
F0.4528301886792453
sg33
S'yellow'
p160
sbasbasg3
I0
sS'red_hammer'
p161
I1
sba(icurlovision
EndResult
p162
(dp163
g2
I2
sg10
(lp164
(I8
I7
tp165
a(I7
I7
tp166
a(I6
I5
tp167
a(I4
I4
tp168
a(I4
I3
tp169
a(I3
I3
tp170
a(I3
I2
tp171
a(I2
I2
tp172
a(I2
I1
tp173
a(I1
I1
tp174
asg20
I2
sg21
(lp175
(icurlovision
StoneLayout
p176
(dp177
g25
F0.4791666666666667
sg26
(lp178
(icurlovision
Stone
p179
(dp180
g30
F0.1939655172413793
sg31
F0.4267241379310345
sg32
F0.34913793103448276
sg33
S'yellow'
p181
sbasba(icurlovision
StoneLayout
p182
(dp183
g25
F0.4791666666666667
sg26
(lp184
(icurlovision
Stone
p185
(dp186
g30
F0.19444444444444442
sg31
F0.3611111111111111
sg32
F0.3333333333333333
sg33
S'yellow'
p187
sba(icurlovision
Stone
p188
(dp189
g30
F9.027777777777777
sg31
F3.138888888888889
sg32
F0.4305555555555555
sg33
S'red'
p190
sbasba(icurlovision
StoneLayout
p191
(dp192
g25
F0.4791666666666667
sg26
(lp193
(icurlovision
Stone
p194
(dp195
g30
F9.121621621621623
sg31
F3.1621621621621623
sg32
F0.4256756756756757
sg33
S'red'
p196
sba(icurlovision
Stone
p197
(dp198
g30
F14.91891891891892
sg31
F0.04054054054054054
sg32
F0.4256756756756757
sg33
S'yellow'
p199
sba(icurlovision
Stone
p200
(dp201
g30
F7.094594594594595
sg31
F14.310810810810812
sg32
F0.4256756756756757
sg33
S'red'
p202
sba(icurlovision
Stone
p203
(dp204
g30
F-4.094594594594595
sg31
F13.135135135135135
sg32
F0.44594594594594594
sg33
S'yellow'
p205
sba(icurlovision
Stone
p206
(dp207
g30
F14.756756756756758
sg31
F-16.33783783783784
sg32
F0.38513513513513514
sg33
S'yellow'
p208
sba(icurlovision
Stone
p209
(dp210
g30
F-4.418918918918919
sg31
F2.1891891891891895
sg32
F0.26351351351351354
sg33
S'red'
p211
sba(icurlovision
Stone
p212
(dp213
g30
F1.0945945945945947
sg31
F-0.20270270270270271
sg32
F0.46621621621621623
sg33
S'yellow'
p214
sba(icurlovision
Stone
p215
(dp216
g30
F1.6216216216216217
sg31
F-18.932432432432435
sg32
F0.3648648648648649
sg33
S'red'
p217
sba(icurlovision
Stone
p218
(dp219
g30
F14.554054054054054
sg31
F-14.95945945945946
sg32
F0.24324324324324326
sg33
S'yellow'
p220
sbasba(icurlovision
StoneLayout
p221
(dp222
g25
F0.4791666666666667
sg26
(lp223
(icurlovision
Stone
p224
(dp225
g30
F-1.33125
sg31
F4.29375
sg32
F0.33749999999999997
sg33
S'red'
p226
sba(icurlovision
Stone
p227
(dp228
g30
F9.05625
sg31
F3.1687499999999997
sg32
F0.43124999999999997
sg33
S'red'
p229
sba(icurlovision
Stone
p230
(dp231
g30
F14.831249999999999
sg31
F0.056249999999999994
sg32
F0.43124999999999997
sg33
S'yellow'
p232
sba(icurlovision
Stone
p233
(dp234
g30
F0.54375
sg31
F14.15625
sg32
F0.24375
sg33
S'yellow'
p235
sba(icurlovision
Stone
p236
(dp237
g30
F7.06875
sg31
F14.34375
sg32
F0.43124999999999997
sg33
S'red'
p238
sba(icurlovision
Stone
p239
(dp240
g30
F14.90625
sg31
F-16.443749999999998
sg32
F0.44999999999999996
sg33
S'yellow'
p241
sba(icurlovision
Stone
p242
(dp243
g30
F-3.84375
sg31
F14.23125
sg32
F0.31875
sg33
S'yellow'
p244
sbasba(icurlovision
StoneLayout
p245
(dp246
g25
F0.4791666666666667
sg26
(lp247
(icurlovision
Stone
p248
(dp249
g30
F9.276315789473683
sg31
F3.1973684210526314
sg32
F0.43421052631578944
sg33
S'red'
p250
sba(icurlovision
Stone
p251
(dp252
g30
F-0.631578947368421
sg31
F4.894736842105263
sg32
F0.3157894736842105
sg33
S'yellow'
p253
sba(icurlovision
Stone
p254
(dp255
g30
F15.19736842105263
sg31
F0.039473684210526314
sg32
F0.41447368421052627
sg33
S'yellow'
p256
sba(icurlovision
Stone
p257
(dp258
g30
F7.223684210526315
sg31
F14.605263157894736
sg32
F0.47368421052631576
sg33
S'red'
p259
sba(icurlovision
Stone
p260
(dp261
g30
F0.5921052631578947
sg31
F14.44736842105263
sg32
F0.256578947368421
sg33
S'yellow'
p262
sba(icurlovision
Stone
p263
(dp264
g30
F15.118421052631579
sg31
F-16.736842105263158
sg32
F0.4539473684210526
sg33
S'yellow'
p265
sba(icurlovision
Stone
p266
(dp267
g30
F15.671052631578947
sg31
F-14.486842105263158
sg32
F0.35526315789473684
sg33
S'yellow'
p268
sba(icurlovision
Stone
p269
(dp270
g30
F-3.907894736842105
sg31
F14.407894736842104
sg32
F0.23684210526315788
sg33
S'yellow'
p271
sbasba(icurlovision
StoneLayout
p272
(dp273
g25
F0.4791666666666667
sg26
(lp274
(icurlovision
Stone
p275
(dp276
g30
F9.153846153846155
sg31
F3.1923076923076925
sg32
F0.42307692307692313
sg33
S'red'
p277
sba(icurlovision
Stone
p278
(dp279
g30
F-3.6153846153846154
sg31
F5.269230769230769
sg32
F0.4807692307692308
sg33
S'yellow'
p280
sba(icurlovision
Stone
p281
(dp282
g30
F1.7307692307692308
sg31
F-16.03846153846154
sg32
F0.38461538461538464
sg33
S'yellow'
p283
sba(icurlovision
Stone
p284
(dp285
g30
F14.961538461538462
sg31
F0.07692307692307693
sg32
F0.42307692307692313
sg33
S'yellow'
p286
sba(icurlovision
Stone
p287
(dp288
g30
F7.153846153846154
sg31
F14.461538461538462
sg32
F0.25
sg33
S'red'
p289
sba(icurlovision
Stone
p290
(dp291
g30
F0.576923076923077
sg31
F14.307692307692308
sg32
F0.3076923076923077
sg33
S'yellow'
p292
sba(icurlovision
Stone
p293
(dp294
g30
F0.11538461538461539
sg31
F4.230769230769231
sg32
F0.3076923076923077
sg33
S'red'
p295
sba(icurlovision
Stone
p296
(dp297
g30
F-3.8461538461538463
sg31
F14.26923076923077
sg32
F0.34615384615384615
sg33
S'yellow'
p298
sba(icurlovision
Stone
p299
(dp300
g30
F9.346153846153847
sg31
F-17.884615384615387
sg32
F0.38461538461538464
sg33
S'yellow'
p301
sba(icurlovision
Stone
p302
(dp303
g30
F15.0
sg31
F-16.53846153846154
sg32
F0.46153846153846156
sg33
S'yellow'
p304
sba(icurlovision
Stone
p305
(dp306
g30
F1.1153846153846154
sg31
F15.76923076923077
sg32
F0.3076923076923077
sg33
S'red'
p307
sbasba(icurlovision
StoneLayout
p308
(dp309
g25
F0.4791666666666667
sg26
(lp310
(icurlovision
Stone
p311
(dp312
g30
F2.4878048780487805
sg31
F-2.0853658536585367
sg32
F0.4390243902439024
sg33
S'red'
p313
sba(icurlovision
Stone
p314
(dp315
g30
F-0.0
sg31
F4.024390243902439
sg32
F0.45731707317073167
sg33
S'red'
p316
sba(icurlovision
Stone
p317
(dp318
g30
F1.0609756097560974
sg31
F15.768292682926829
sg32
F0.3292682926829268
sg33
S'red'
p319
sba(icurlovision
Stone
p320
(dp321
g30
F7.097560975609755
sg31
F14.414634146341463
sg32
F0.4390243902439024
sg33
S'red'
p322
sba(icurlovision
Stone
p323
(dp324
g30
F14.853658536585366
sg31
F0.1097560975609756
sg32
F0.42073170731707316
sg33
S'yellow'
p325
sba(icurlovision
Stone
p326
(dp327
g30
F0.548780487804878
sg31
F14.23170731707317
sg32
F0.2926829268292683
sg33
S'yellow'
p328
sba(icurlovision
Stone
p329
(dp330
g30
F5.817073170731707
sg31
F-15.69512195121951
sg32
F0.2926829268292683
sg33
S'red'
p331
sba(icurlovision
Stone
p332
(dp333
g30
F14.999999999999998
sg31
F-16.573170731707314
sg32
F0.4390243902439024
sg33
S'yellow'
p334
sba(icurlovision
Stone
p335
(dp336
g30
F1.2804878048780488
sg31
F-17.304878048780488
sg32
F0.3841463414634146
sg33
S'yellow'
p337
sba(icurlovision
Stone
p338
(dp339
g30
F14.597560975609754
sg31
F-13.390243902439023
sg32
F0.3292682926829268
sg33
S'yellow'
p340
sbasba(icurlovision
StoneLayout
p341
(dp342
g25
F0.4791666666666667
sg26
(lp343
(icurlovision
Stone
p344
(dp345
g30
F14.5
sg31
F0.07142857142857142
sg32
F0.4107142857142857
sg33
S'yellow'
p346
sba(icurlovision
Stone
p347
(dp348
g30
F-0.0
sg31
F3.9285714285714284
sg32
F0.4464285714285714
sg33
S'red'
p349
sba(icurlovision
Stone
p350
(dp351
g30
F0.5
sg31
F14.0
sg32
F0.3214285714285714
sg33
S'yellow'
p352
sba(icurlovision
Stone
p353
(dp354
g30
F-0.7142857142857142
sg31
F15.928571428571427
sg32
F0.26785714285714285
sg33
S'yellow'
p355
sba(icurlovision
Stone
p356
(dp357
g30
F6.928571428571428
sg31
F14.071428571428571
sg32
F0.42857142857142855
sg33
S'red'
p358
sba(icurlovision
Stone
p359
(dp360
g30
F3.321428571428571
sg31
F-1.9642857142857142
sg32
F0.33928571428571425
sg33
S'red'
p361
sba(icurlovision
Stone
p362
(dp363
g30
F14.571428571428571
sg31
F-16.142857142857142
sg32
F0.3571428571428571
sg33
S'yellow'
p364
sba(icurlovision
Stone
p365
(dp366
g30
F14.392857142857142
sg31
F-13.142857142857142
sg32
F0.26785714285714285
sg33
S'yellow'
p367
sba(icurlovision
Stone
p368
(dp369
g30
F2.714285714285714
sg31
F15.535714285714285
sg32
F0.3214285714285714
sg33
S'red'
p370
sbasba(icurlovision
StoneLayout
p371
(dp372
g25
F0.4791666666666667
sg26
(lp373
(icurlovision
Stone
p374
(dp375
g30
F1.78125
sg31
F2.56875
sg32
F0.46875
sg33
S'yellow'
p376
sba(icurlovision
Stone
p377
(dp378
g30
F-0.84375
sg31
F-1.93125
sg32
F0.33749999999999997
sg33
S'red'
p379
sba(icurlovision
Stone
p380
(dp381
g30
F-0.01875
sg31
F4.03125
sg32
F0.44999999999999996
sg33
S'red'
p382
sba(icurlovision
Stone
p383
(dp384
g30
F14.98125
sg31
F0.056249999999999994
sg32
F0.39375
sg33
S'yellow'
p385
sba(icurlovision
Stone
p386
(dp387
g30
F5.19375
sg31
F-15.956249999999999
sg32
F0.28125
sg33
S'yellow'
p388
sba(icurlovision
Stone
p389
(dp390
g30
F1.14375
sg31
F-17.41875
sg32
F0.3
sg33
S'yellow'
p391
sba(icurlovision
Stone
p392
(dp393
g30
F13.81875
sg31
F-14.081249999999999
sg32
F0.3
sg33
S'yellow'
p394
sba(icurlovision
Stone
p395
(dp396
g30
F14.98125
sg31
F-16.631249999999998
sg32
F0.39375
sg33
S'yellow'
p397
sbasba(icurlovision
StoneLayout
p398
(dp399
g25
F0.4791666666666667
sg26
(lp400
(icurlovision
Stone
p401
(dp402
g30
F-1.2214285714285715
sg31
F6.75
sg32
F0.4285714285714286
sg33
S'red'
p403
sba(icurlovision
Stone
p404
(dp405
g30
F-1.2214285714285715
sg31
F-1.95
sg32
F0.4392857142857143
sg33
S'red'
p406
sba(icurlovision
Stone
p407
(dp408
g30
F-0.02142857142857143
sg31
F-1.7142857142857144
sg32
F0.4392857142857143
sg33
S'red'
p409
sbasbasg3
I0
sg161
I1
sba(icurlovision
EndResult
p410
(dp411
g2
I2
sg10
(lp412
(I8
I7
tp413
a(I7
I7
tp414
a(I6
I6
tp415
a(I6
I5
tp416
a(I5
I4
tp417
a(I4
I4
tp418
a(I3
I3
tp419
a(I3
I2
tp420
a(I2
I2
tp421
a(I2
I1
tp422
a(I1
I1
tp423
a(I1
I0
tp424
asg20
I3
sg21
(lp425
(icurlovision
StoneLayout
p426
(dp427
g25
F0.4791666666666667
sg26
(lp428
(icurlovision
Stone
p429
(dp430
g30
F0.01293103448275862
sg31
F0.2974137931034483
sg32
F0.46551724137931033
sg33
S'yellow'
p431
sbasba(icurlovision
StoneLayout
p432
(dp433
g25
F0.4791666666666667
sg26
(lp434
(icurlovision
Stone
p435
(dp436
g30
F0.06976744186046512
sg31
F0.27906976744186046
sg32
F0.3313953488372093
sg33
S'yellow'
p437
sba(icurlovision
Stone
p438
(dp439
g30
F11.930232558139535
sg31
F-3.0697674418604652
sg32
F0.41860465116279066
sg33
S'red'
p440
sba(icurlovision
Stone
p441
(dp442
g30
F8.337209302325581
sg31
F-16.46511627906977
sg32
F0.41860465116279066
sg33
S'red'
p443
sbasba(icurlovision
StoneLayout
p444
(dp445
g25
F0.4791666666666667
sg26
(lp446
(icurlovision
Stone
p447
(dp448
g30
F-1.6833333333333333
sg31
F1.4833333333333334
sg32
F0.48333333333333334
sg33
S'yellow'
p449
sba(icurlovision
Stone
p450
(dp451
g30
F7.616666666666666
sg31
F0.21666666666666667
sg32
F0.43333333333333335
sg33
S'yellow'
p452
sba(icurlovision
Stone
p453
(dp454
g30
F-1.95
sg31
F-2.35
sg32
F0.2833333333333333
sg33
S'red'
p455
sba(icurlovision
Stone
p456
(dp457
g30
F11.983333333333333
sg31
F-3.05
sg32
F0.2833333333333333
sg33
S'red'
p458
sba(icurlovision
Stone
p459
(dp460
g30
F12.983333333333333
sg31
F-12.05
sg32
F0.3
sg33
S'yellow'
p461
sbasba(icurlovision
StoneLayout
p462
(dp463
g25
F0.4791666666666667
sg26
(lp464
(icurlovision
Stone
p465
(dp466
g30
F-1.95
sg31
F-2.3833333333333333
sg32
F0.35
sg33
S'red'
p467
sba(icurlovision
Stone
p468
(dp469
g30
F-1.6833333333333333
sg31
F1.4833333333333334
sg32
F0.4666666666666667
sg33
S'yellow'
p470
sba(icurlovision
Stone
p471
(dp472
g30
F7.683333333333334
sg31
F0.21666666666666667
sg32
F0.35
sg33
S'yellow'
p473
sba(icurlovision
Stone
p474
(dp475
g30
F12.05
sg31
F-3.0833333333333335
sg32
F0.45
sg33
S'red'
p476
sba(icurlovision
Stone
p477
(dp478
g30
F1.6833333333333333
sg31
F-2.216666666666667
sg32
F0.4666666666666667
sg33
S'yellow'
p479
sba(icurlovision
Stone
p480
(dp481
g30
F12.65
sg31
F-12.05
sg32
F0.3
sg33
S'yellow'
p482
sbasba(icurlovision
StoneLayout
p483
(dp484
g25
F0.4791666666666667
sg26
(lp485
(icurlovision
Stone
p486
(dp487
g30
F7.611702127659574
sg31
F0.2074468085106383
sg32
F0.44680851063829785
sg33
S'yellow'
p488
sba(icurlovision
Stone
p489
(dp490
g30
F-1.0691489361702127
sg31
F-2.4095744680851063
sg32
F0.4627659574468085
sg33
S'yellow'
p491
sba(icurlovision
Stone
p492
(dp493
g30
F-1.7074468085106382
sg31
F1.4840425531914891
sg32
F0.4627659574468085
sg33
S'yellow'
p494
sba(icurlovision
Stone
p495
(dp496
g30
F5.792553191489361
sg31
F1.0691489361702127
sg32
F0.3191489361702127
sg33
S'yellow'
p497
sba(icurlovision
Stone
p498
(dp499
g30
F11.984042553191488
sg31
F-3.079787234042553
sg32
F0.4308510638297872
sg33
S'red'
p500
sbasba(icurlovision
StoneLayout
p501
(dp502
g25
F0.4791666666666667
sg26
(lp503
(icurlovision
Stone
p504
(dp505
g30
F7.5625
sg31
F0.234375
sg32
F0.453125
sg33
S'yellow'
p506
sba(icurlovision
Stone
p507
(dp508
g30
F-1.0625
sg31
F-2.390625
sg32
F0.34375
sg33
S'yellow'
p509
sba(icurlovision
Stone
p510
(dp511
g30
F-1.6875
sg31
F1.484375
sg32
F0.46875
sg33
S'yellow'
p512
sba(icurlovision
Stone
p513
(dp514
g30
F11.9375
sg31
F-3.078125
sg32
F0.4375
sg33
S'red'
p515
sba(icurlovision
Stone
p516
(dp517
g30
F5.78125
sg31
F1.109375
sg32
F0.296875
sg33
S'yellow'
p518
sba(icurlovision
Stone
p519
(dp520
g30
F4.46875
sg31
F-0.078125
sg32
F0.34375
sg33
S'red'
p521
sba(icurlovision
Stone
p522
(dp523
g30
F11.0625
sg31
F-5.234375
sg32
F0.296875
sg33
S'yellow'
p524
sbasba(icurlovision
StoneLayout
p525
(dp526
g25
F0.4791666666666667
sg26
(lp527
(icurlovision
Stone
p528
(dp529
g30
F-1.6607142857142856
sg31
F1.5178571428571428
sg32
F0.46428571428571425
sg33
S'yellow'
p530
sba(icurlovision
Stone
p531
(dp532
g30
F11.696428571428571
sg31
F-3.017857142857143
sg32
F0.42857142857142855
sg33
S'red'
p533
sba(icurlovision
Stone
p534
(dp535
g30
F6.125
sg31
F1.7678571428571428
sg32
F0.2857142857142857
sg33
S'yellow'
p536
sba(icurlovision
Stone
p537
(dp538
g30
F7.482142857142857
sg31
F0.23214285714285712
sg32
F0.30357142857142855
sg33
S'yellow'
p539
sba(icurlovision
Stone
p540
(dp541
g30
F8.160714285714285
sg31
F-16.19642857142857
sg32
F0.25
sg33
S'red'
p542
sba(icurlovision
Stone
p543
(dp544
g30
F5.410714285714286
sg31
F15.232142857142856
sg32
F0.39285714285714285
sg33
S'yellow'
p545
sba(icurlovision
Stone
p546
(dp547
g30
F-0.1607142857142857
sg31
F16.232142857142858
sg32
F0.42857142857142855
sg33
S'yellow'
p548
sba(icurlovision
Stone
p549
(dp550
g30
F5.625
sg31
F1.0178571428571428
sg32
F0.3214285714285714
sg33
S'yellow'
p551
sba(icurlovision
Stone
p552
(dp553
g30
F4.410714285714286
sg31
F-0.08928571428571427
sg32
F0.33928571428571425
sg33
S'red'
p554
sba(icurlovision
Stone
p555
(dp556
g30
F-1.5178571428571428
sg31
F0.5178571428571428
sg32
F0.4464285714285714
sg33
S'red'
p557
sba(icurlovision
Stone
p558
(dp559
g30
F8.410714285714285
sg31
F16.875
sg32
F0.2857142857142857
sg33
S'red'
p560
sba(icurlovision
Stone
p561
(dp562
g30
F12.339285714285714
sg31
F-12.946428571428571
sg32
F0.30357142857142855
sg33
S'yellow'
p563
sbasba(icurlovision
StoneLayout
p564
(dp565
g25
F0.4791666666666667
sg26
(lp566
(icurlovision
Stone
p567
(dp568
g30
F-0.7857142857142857
sg31
F1.25
sg32
F0.46428571428571425
sg33
S'red'
p569
sba(icurlovision
Stone
p570
(dp571
g30
F6.25
sg31
F1.7857142857142856
sg32
F0.4464285714285714
sg33
S'yellow'
p572
sba(icurlovision
Stone
p573
(dp574
g30
F11.928571428571427
sg31
F-3.0357142857142856
sg32
F0.42857142857142855
sg33
S'red'
p575
sba(icurlovision
Stone
p576
(dp577
g30
F-1.7142857142857142
sg31
F1.5357142857142856
sg32
F0.46428571428571425
sg33
S'yellow'
p578
sba(icurlovision
Stone
p579
(dp580
g30
F8.392857142857142
sg31
F0.14285714285714285
sg32
F0.42857142857142855
sg33
S'yellow'
p581
sba(icurlovision
Stone
p582
(dp583
g30
F5.535714285714286
sg31
F15.642857142857142
sg32
F0.30357142857142855
sg33
S'yellow'
p584
sba(icurlovision
Stone
p585
(dp586
g30
F-0.21428571428571427
sg31
F16.678571428571427
sg32
F0.42857142857142855
sg33
S'yellow'
p587
sba(icurlovision
Stone
p588
(dp589
g30
F8.285714285714285
sg31
F-16.428571428571427
sg32
F0.42857142857142855
sg33
S'red'
p590
sba(icurlovision
Stone
p591
(dp592
g30
F12.464285714285714
sg31
F-12.892857142857142
sg32
F0.2857142857142857
sg33
S'yellow'
p593
sbasba(icurlovision
StoneLayout
p594
(dp595
g25
F0.4791666666666667
sg26
(lp596
(icurlovision
Stone
p597
(dp598
g30
F8.68125
sg31
F0.15
sg32
F0.35625
sg33
S'yellow'
p599
sba(icurlovision
Stone
p600
(dp601
g30
F6.4312499999999995
sg31
F1.8375
sg32
F0.44999999999999996
sg33
S'yellow'
p602
sba(icurlovision
Stone
p603
(dp604
g30
F-0.84375
sg31
F1.3125
sg32
F0.46875
sg33
S'red'
p605
sba(icurlovision
Stone
p606
(dp607
g30
F12.31875
sg31
F-3.15
sg32
F0.44999999999999996
sg33
S'red'
p608
sba(icurlovision
Stone
p609
(dp610
g30
F-1.78125
sg31
F1.575
sg32
F0.46875
sg33
S'yellow'
p611
sba(icurlovision
Stone
p612
(dp613
g30
F-6.28125
sg31
F0.7125
sg32
F0.33749999999999997
sg33
S'red'
p614
sba(icurlovision
Stone
p615
(dp616
g30
F-0.20625
sg31
F17.0625
sg32
F0.43124999999999997
sg33
S'yellow'
p617
sba(icurlovision
Stone
p618
(dp619
g30
F11.75625
sg31
F-13.5375
sg32
F0.3
sg33
S'yellow'
p620
sbasba(icurlovision
StoneLayout
p621
(dp622
g25
F0.4791666666666667
sg26
(lp623
(icurlovision
Stone
p624
(dp625
g30
F6.2625
sg31
F1.7999999999999998
sg32
F0.31875
sg33
S'yellow'
p626
sba(icurlovision
Stone
p627
(dp628
g30
F-1.6875
sg31
F1.5374999999999999
sg32
F0.46875
sg33
S'yellow'
p629
sba(icurlovision
Stone
p630
(dp631
g30
F8.362499999999999
sg31
F0.1875
sg32
F0.43124999999999997
sg33
S'yellow'
p632
sba(icurlovision
Stone
p633
(dp634
g30
F-0.7875
sg31
F1.2375
sg32
F0.46875
sg33
S'red'
p635
sba(icurlovision
Stone
p636
(dp637
g30
F11.9625
sg31
F-3.0749999999999997
sg32
F0.43124999999999997
sg33
S'red'
p638
sba(icurlovision
Stone
p639
(dp640
g30
F5.475
sg31
F15.45
sg32
F0.33749999999999997
sg33
S'yellow'
p641
sba(icurlovision
Stone
p642
(dp643
g30
F-0.1875
sg31
F16.349999999999998
sg32
F0.24375
sg33
S'yellow'
p644
sba(icurlovision
Stone
p645
(dp646
g30
F-6.075
sg31
F0.7125
sg32
F0.3
sg33
S'red'
p647
sba(icurlovision
Stone
p648
(dp649
g30
F-0.075
sg31
F-1.1624999999999999
sg32
F0.33749999999999997
sg33
S'yellow'
p650
sba(icurlovision
Stone
p651
(dp652
g30
F11.737499999999999
sg31
F-13.612499999999999
sg32
F0.3
sg33
S'yellow'
p653
sbasba(icurlovision
StoneLayout
p654
(dp655
g25
F0.4791666666666667
sg26
(lp656
(icurlovision
Stone
p657
(dp658
g30
F-1.7635135135135136
sg31
F1.6013513513513515
sg32
F0.46621621621621623
sg33
S'yellow'
p659
sba(icurlovision
Stone
p660
(dp661
g30
F8.533783783783784
sg31
F0.18243243243243246
sg32
F0.22297297297297297
sg33
S'yellow'
p662
sba(icurlovision
Stone
p663
(dp664
g30
F6.385135135135135
sg31
F1.8445945945945947
sg32
F0.3445945945945946
sg33
S'yellow'
p665
sba(icurlovision
Stone
p666
(dp667
g30
F12.182432432432433
sg31
F-3.1013513513513513
sg32
F0.4256756756756757
sg33
S'red'
p668
sba(icurlovision
Stone
p669
(dp670
g30
F-6.060810810810811
sg31
F0.7094594594594595
sg32
F0.30405405405405406
sg33
S'red'
p671
sba(icurlovision
Stone
p672
(dp673
g30
F-0.8310810810810811
sg31
F1.2770270270270272
sg32
F0.46621621621621623
sg33
S'red'
p674
sba(icurlovision
Stone
p675
(dp676
g30
F0.75
sg31
F16.52027027027027
sg32
F0.4256756756756757
sg33
S'red'
p677
sba(icurlovision
Stone
p678
(dp679
g30
F12.871621621621623
sg31
F18.304054054054056
sg32
F0.38513513513513514
sg33
S'red'
p680
sba(icurlovision
Stone
p681
(dp682
g30
F0.02027027027027027
sg31
F0.8716216216216217
sg32
F0.46621621621621623
sg33
S'red'
p683
sba(icurlovision
Stone
p684
(dp685
g30
F3.2635135135135136
sg31
F18.79054054054054
sg32
F0.44594594594594594
sg33
S'red'
p686
sba(icurlovision
Stone
p687
(dp688
g30
F6.02027027027027
sg31
F18.5472972972973
sg32
F0.40540540540540543
sg33
S'yellow'
p689
sbasba(icurlovision
StoneLayout
p690
(dp691
g25
F0.4791666666666667
sg26
(lp692
(icurlovision
Stone
p693
(dp694
g30
F8.081249999999999
sg31
F0.16874999999999998
sg32
F0.31875
sg33
S'yellow'
p695
sba(icurlovision
Stone
p696
(dp697
g30
F6.01875
sg31
F1.70625
sg32
F0.43124999999999997
sg33
S'yellow'
p698
sba(icurlovision
Stone
p699
(dp700
g30
F-0.01875
sg31
F0.80625
sg32
F0.44999999999999996
sg33
S'red'
p701
sba(icurlovision
Stone
p702
(dp703
g30
F11.56875
sg31
F-2.9812499999999997
sg32
F0.4125
sg33
S'red'
p704
sba(icurlovision
Stone
p705
(dp706
g30
F-1.74375
sg31
F1.48125
sg32
F0.43124999999999997
sg33
S'yellow'
p707
sba(icurlovision
Stone
p708
(dp709
g30
F-0.80625
sg31
F1.21875
sg32
F0.46875
sg33
S'red'
p710
sba(icurlovision
Stone
p711
(dp712
g30
F0.50625
sg31
F0.09375
sg32
F0.44999999999999996
sg33
S'yellow'
p713
sba(icurlovision
Stone
p714
(dp715
g30
F0.65625
sg31
F15.88125
sg32
F0.4125
sg33
S'red'
p716
sba(icurlovision
Stone
p717
(dp718
g30
F-5.8687499999999995
sg31
F0.65625
sg32
F0.44999999999999996
sg33
S'red'
p719
sba(icurlovision
Stone
p720
(dp721
g30
F12.35625
sg31
F17.756249999999998
sg32
F0.375
sg33
S'red'
p722
sba(icurlovision
Stone
p723
(dp724
g30
F3.05625
sg31
F18.05625
sg32
F0.43124999999999997
sg33
S'red'
p725
sba(icurlovision
Stone
p726
(dp727
g30
F5.64375
sg31
F17.86875
sg32
F0.4125
sg33
S'yellow'
p728
sbasbasg3
I2
sg161
I1
sba(icurlovision
EndResult
p729
(dp730
g2
I3
sg10
(lp731
(I7
I8
tp732
a(I4
I5
tp733
a(I4
I4
tp734
a(I2
I3
tp735
a(I1
I2
tp736
a(I0
I1
tp737
asg20
I4
sg21
(lp738
(icurlovision
StoneLayout
p739
(dp740
g25
F0.4791666666666667
sg26
(lp741
sba(icurlovision
StoneLayout
p742
(dp743
g25
F0.4791666666666667
sg26
(lp744
(icurlovision
Stone
p745
(dp746
g30
F3.1721311475409837
sg31
F1.6721311475409837
sg32
F0.319672131147541
sg33
S'yellow'
p747
sba(icurlovision
Stone
p748
(dp749
g30
F-2.6557377049180326
sg31
F-3.8360655737704916
sg32
F0.3319672131147541
sg33
S'yellow'
p750
sba(icurlovision
Stone
p751
(dp752
g30
F7.524590163934426
sg31
F0.319672131147541
sg32
F0.319672131147541
sg33
S'red'
p753
sba(icurlovision
Stone
p754
(dp755
g30
F5.508196721311475
sg31
F1.7704918032786885
sg32
F0.3319672131147541
sg33
S'red'
p756
sbasba(icurlovision
StoneLayout
p757
(dp758
g25
F0.4791666666666667
sg26
(lp759
(icurlovision
Stone
p760
(dp761
g30
F-2.79
sg31
F-4.155
sg32
F0.345
sg33
S'yellow'
p762
sba(icurlovision
Stone
p763
(dp764
g30
F5.04
sg31
F2.295
sg32
F0.285
sg33
S'yellow'
p765
sba(icurlovision
Stone
p766
(dp767
g30
F8.129999999999999
sg31
F0.315
sg32
F0.48
sg33
S'red'
p768
sbasba(icurlovision
StoneLayout
p769
(dp770
g25
F0.4791666666666667
sg26
(lp771
(icurlovision
Stone
p772
(dp773
g30
F-4.3125
sg31
F-6.331730769230769
sg32
F0.31730769230769235
sg33
S'red'
p774
sba(icurlovision
Stone
p775
(dp776
g30
F6.3894230769230775
sg31
F0.9951923076923077
sg32
F0.34615384615384615
sg33
S'yellow'
p777
sba(icurlovision
Stone
p778
(dp779
g30
F-2.7259615384615388
sg31
F-4.052884615384616
sg32
F0.3317307692307693
sg33
S'yellow'
p780
sba(icurlovision
Stone
p781
(dp782
g30
F7.975961538461539
sg31
F0.3028846153846154
sg32
F0.46153846153846156
sg33
S'red'
p783
sba(icurlovision
Stone
p784
(dp785
g30
F1.8605769230769231
sg31
F0.3028846153846154
sg32
F0.34615384615384615
sg33
S'red'
p786
sbasba(icurlovision
StoneLayout
p787
(dp788
g25
F0.4791666666666667
sg26
(lp789
(icurlovision
Stone
p790
(dp791
g30
F-3.015625
sg31
F-1.859375
sg32
F0.46875
sg33
S'red'
p792
sba(icurlovision
Stone
p793
(dp794
g30
F-4.390625
sg31
F-6.421875
sg32
F0.5
sg33
S'red'
p795
sba(icurlovision
Stone
p796
(dp797
g30
F7.015625
sg31
F-2.328125
sg32
F0.46875
sg33
S'red'
p798
sba(icurlovision
Stone
p799
(dp800
g30
F1.859375
sg31
F0.359375
sg32
F0.328125
sg33
S'red'
p801
sba(icurlovision
Stone
p802
(dp803
g30
F8.453125
sg31
F-6.953125
sg32
F0.28125
sg33
S'yellow'
p804
sbasba(icurlovision
StoneLayout
p805
(dp806
g25
F0.4791666666666667
sg26
(lp807
(icurlovision
Stone
p808
(dp809
g30
F-4.390625
sg31
F-6.453125
sg32
F0.5
sg33
S'red'
p810
sba(icurlovision
Stone
p811
(dp812
g30
F-3.015625
sg31
F-1.859375
sg32
F0.46875
sg33
S'red'
p813
sba(icurlovision
Stone
p814
(dp815
g30
F7.890625
sg31
F-2.546875
sg32
F0.34375
sg33
S'red'
p816
sba(icurlovision
Stone
p817
(dp818
g30
F0.609375
sg31
F0.421875
sg32
F0.28125
sg33
S'red'
p819
sbasbasg3
I2
sg161
I0
sba(icurlovision
EndResult
p820
(dp821
g2
I3
sg10
(lp822
(I7
I6
tp823
a(I6
I5
tp824
a(I5
I5
tp825
a(I5
I4
tp826
a(I3
I2
tp827
a(I2
I2
tp828
a(I2
I1
tp829
a(I1
I0
tp830
asg20
I5
sg21
(lp831
(icurlovision
StoneLayout
p832
(dp833
g25
F0.4791666666666667
sg26
(lp834
(icurlovision
Stone
p835
(dp836
g30
F6.964285714285714
sg31
F-3.673469387755102
sg32
F0.44387755102040816
sg33
S'red'
p837
sba(icurlovision
Stone
p838
(dp839
g30
F3.7193877551020407
sg31
F1.010204081632653
sg32
F0.44387755102040816
sg33
S'yellow'
p840
sba(icurlovision
Stone
p841
(dp842
g30
F11.98469387755102
sg31
F0.9183673469387755
sg32
F0.42857142857142855
sg33
S'yellow'
p843
sba(icurlovision
Stone
p844
(dp845
g30
F11.21938775510204
sg31
F-3.642857142857143
sg32
F0.3520408163265306
sg33
S'yellow'
p846
sbasba(icurlovision
StoneLayout
p847
(dp848
g25
F0.4791666666666667
sg26
(lp849
(icurlovision
Stone
p850
(dp851
g30
F6.622881355932204
sg31
F-2.5296610169491527
sg32
F0.4067796610169492
sg33
S'red'
p852
sba(icurlovision
Stone
p853
(dp854
g30
F6.368644067796611
sg31
F-3.4194915254237293
sg32
F0.4067796610169492
sg33
S'red'
p855
sba(icurlovision
Stone
p856
(dp857
g30
F6.241525423728814
sg31
F0.3940677966101695
sg32
F0.3686440677966102
sg33
S'yellow'
p858
sba(icurlovision
Stone
p859
(dp860
g30
F9.572033898305085
sg31
F2.148305084745763
sg32
F0.41949152542372886
sg33
S'yellow'
p861
sba(icurlovision
Stone
p862
(dp863
g30
F3.4194915254237293
sg31
F0.8771186440677967
sg32
F0.38135593220338987
sg33
S'yellow'
p864
sbasba(icurlovision
StoneLayout
p865
(dp866
g25
F0.4791666666666667
sg26
(lp867
(icurlovision
Stone
p868
(dp869
g30
F2.7452830188679247
sg31
F-1.6981132075471699
sg32
F0.32547169811320753
sg33
S'yellow'
p870
sba(icurlovision
Stone
p871
(dp872
g30
F7.018867924528302
sg31
F-2.5754716981132075
sg32
F0.32547169811320753
sg33
S'red'
p873
sba(icurlovision
Stone
p874
(dp875
g30
F6.537735849056604
sg31
F-1.5849056603773586
sg32
F0.4386792452830189
sg33
S'red'
p876
sba(icurlovision
Stone
p877
(dp878
g30
F6.764150943396227
sg31
F-3.5377358490566038
sg32
F0.4386792452830189
sg33
S'red'
p879
sba(icurlovision
Stone
p880
(dp881
g30
F10.132075471698114
sg31
F2.3207547169811322
sg32
F0.4386792452830189
sg33
S'yellow'
p882
sbasba(icurlovision
StoneLayout
p883
(dp884
g25
F0.4791666666666667
sg26
(lp885
(icurlovision
Stone
p886
(dp887
g30
F7.118181818181818
sg31
F-2.6727272727272724
sg32
F0.43636363636363634
sg33
S'red'
p888
sba(icurlovision
Stone
p889
(dp890
g30
F10.009090909090908
sg31
F-1.2818181818181817
sg32
F0.42272727272727273
sg33
S'yellow'
p891
sba(icurlovision
Stone
p892
(dp893
g30
F10.281818181818181
sg31
F2.2636363636363637
sg32
F0.43636363636363634
sg33
S'yellow'
p894
sba(icurlovision
Stone
p895
(dp896
g30
F6.654545454545454
sg31
F-1.690909090909091
sg32
F0.3409090909090909
sg33
S'red'
p897
sba(icurlovision
Stone
p898
(dp899
g30
F6.872727272727272
sg31
F-3.6545454545454543
sg32
F0.43636363636363634
sg33
S'red'
p900
sba(icurlovision
Stone
p901
(dp902
g30
F2.809090909090909
sg31
F-1.7727272727272727
sg32
F0.43636363636363634
sg33
S'yellow'
p903
sbasba(icurlovision
StoneLayout
p904
(dp905
g25
F0.4791666666666667
sg26
(lp906
(icurlovision
Stone
p907
(dp908
g30
F1.6636363636363636
sg31
F-2.3863636363636362
sg32
F0.4636363636363636
sg33
S'yellow'
p909
sba(icurlovision
Stone
p910
(dp911
g30
F6.9818181818181815
sg31
F-3.7227272727272727
sg32
F0.44999999999999996
sg33
S'red'
p912
sba(icurlovision
Stone
p913
(dp914
g30
F7.227272727272727
sg31
F-2.686363636363636
sg32
F0.36818181818181817
sg33
S'red'
p915
sba(icurlovision
Stone
p916
(dp917
g30
F6.3545454545454545
sg31
F-2.55
sg32
F0.3409090909090909
sg33
S'red'
p918
sba(icurlovision
Stone
p919
(dp920
g30
F10.472727272727273
sg31
F2.3863636363636362
sg32
F0.44999999999999996
sg33
S'yellow'
p921
sba(icurlovision
Stone
p922
(dp923
g30
F6.927272727272727
sg31
F-1.3227272727272728
sg32
F0.32727272727272727
sg33
S'yellow'
p924
sba(icurlovision
Stone
p925
(dp926
g30
F9.736363636363636
sg31
F-4.159090909090909
sg32
F0.3136363636363636
sg33
S'red'
p927
sba(icurlovision
Stone
p928
(dp929
g30
F3.190909090909091
sg31
F-1.6772727272727272
sg32
F0.4636363636363636
sg33
S'red'
p930
sbasba(icurlovision
StoneLayout
p931
(dp932
g25
F0.4791666666666667
sg26
(lp933
(icurlovision
Stone
p934
(dp935
g30
F1.716346153846154
sg31
F-2.3653846153846154
sg32
F0.46153846153846156
sg33
S'yellow'
p936
sba(icurlovision
Stone
p937
(dp938
g30
F6.302884615384616
sg31
F-2.5096153846153846
sg32
F0.3028846153846154
sg33
S'red'
p939
sba(icurlovision
Stone
p940
(dp941
g30
F6.908653846153847
sg31
F-3.951923076923077
sg32
F0.44711538461538464
sg33
S'red'
p942
sba(icurlovision
Stone
p943
(dp944
g30
F7.658653846153847
sg31
F-1.875
sg32
F0.4326923076923077
sg33
S'red'
p945
sba(icurlovision
Stone
p946
(dp947
g30
F9.70673076923077
sg31
F-4.096153846153847
sg32
F0.44711538461538464
sg33
S'red'
p948
sba(icurlovision
Stone
p949
(dp950
g30
F3.216346153846154
sg31
F-1.701923076923077
sg32
F0.34615384615384615
sg33
S'red'
p951
sba(icurlovision
Stone
p952
(dp953
g30
F10.427884615384617
sg31
F2.3365384615384617
sg32
F0.4182692307692308
sg33
S'yellow'
p954
sba(icurlovision
Stone
p955
(dp956
g30
F7.168269230769231
sg31
F-2.7980769230769234
sg32
F0.31730769230769235
sg33
S'red'
p957
sba(icurlovision
Stone
p958
(dp959
g30
F2.8125
sg31
F-13.528846153846155
sg32
F0.3028846153846154
sg33
S'red'
p960
sbasba(icurlovision
StoneLayout
p961
(dp962
g25
F0.4791666666666667
sg26
(lp963
(icurlovision
Stone
p964
(dp965
g30
F1.6607142857142856
sg31
F-2.383928571428571
sg32
F0.33482142857142855
sg33
S'yellow'
p966
sba(icurlovision
Stone
p967
(dp968
g30
F9.589285714285714
sg31
F-4.098214285714286
sg32
F0.4419642857142857
sg33
S'red'
p969
sba(icurlovision
Stone
p970
(dp971
g30
F7.580357142857142
sg31
F-1.9017857142857142
sg32
F0.3482142857142857
sg33
S'red'
p972
sba(icurlovision
Stone
p973
(dp974
g30
F6.803571428571428
sg31
F-3.9107142857142856
sg32
F0.42857142857142855
sg33
S'red'
p975
sba(icurlovision
Stone
p976
(dp977
g30
F3.133928571428571
sg31
F-1.6875
sg32
F0.4419642857142857
sg33
S'red'
p978
sba(icurlovision
Stone
p979
(dp980
g30
F7.071428571428571
sg31
F-2.839285714285714
sg32
F0.33482142857142855
sg33
S'red'
p981
sba(icurlovision
Stone
p982
(dp983
g30
F6.2142857142857135
sg31
F-2.517857142857143
sg32
F0.4419642857142857
sg33
S'red'
p984
sba(icurlovision
Stone
p985
(dp986
g30
F5.517857142857142
sg31
F-1.4464285714285714
sg32
F0.30803571428571425
sg33
S'yellow'
p987
sba(icurlovision
Stone
p988
(dp989
g30
F10.366071428571429
sg31
F2.330357142857143
sg32
F0.30803571428571425
sg33
S'yellow'
p990
sbasba(icurlovision
StoneLayout
p991
(dp992
g25
F0.4791666666666667
sg26
(lp993
(icurlovision
Stone
p994
(dp995
g30
F7.027777777777778
sg31
F-2.8055555555555554
sg32
F0.4444444444444444
sg33
S'red'
p996
sba(icurlovision
Stone
p997
(dp998
g30
F6.75
sg31
F-3.9166666666666665
sg32
F0.3194444444444444
sg33
S'red'
p999
sba(icurlovision
Stone
p1000
(dp1001
g30
F0.4444444444444444
sg31
F2.388888888888889
sg32
F0.4583333333333333
sg33
S'yellow'
p1002
sba(icurlovision
Stone
p1003
(dp1004
g30
F8.055555555555555
sg31
F-2.5
sg32
F0.41666666666666663
sg33
S'red'
p1005
sba(icurlovision
Stone
p1006
(dp1007
g30
F9.527777777777777
sg31
F-4.111111111111111
sg32
F0.4444444444444444
sg33
S'red'
p1008
sba(icurlovision
Stone
p1009
(dp1010
g30
F10.305555555555555
sg31
F2.3055555555555554
sg32
F0.4305555555555555
sg33
S'yellow'
p1011
sba(icurlovision
Stone
p1012
(dp1013
g30
F-1.222222222222222
sg31
F-4.138888888888888
sg32
F0.4722222222222222
sg33
S'yellow'
p1014
sba(icurlovision
Stone
p1015
(dp1016
g30
F4.666666666666666
sg31
F-1.0
sg32
F0.3333333333333333
sg33
S'yellow'
p1017
sbasbasg3
I3
sg161
I1
sba(icurlovision
EndResult
p1018
(dp1019
g2
I5
sg10
(lp1020
(I4
I4
tp1021
a(I3
I4
tp1022
a(I3
I3
tp1023
a(I2
I3
tp1024
a(I2
I2
tp1025
a(I1
I2
tp1026
a(I1
I1
tp1027
a(I0
I1
tp1028
asg20
I6
sg21
(lp1029
(icurlovision
StoneLayout
p1030
(dp1031
g25
F0.4791666666666667
sg26
(lp1032
(icurlovision
Stone
p1033
(dp1034
g30
F-0.7325581395348837
sg31
F-6.1395348837209305
sg32
F0.2616279069767442
sg33
S'red'
p1035
sba(icurlovision
Stone
p1036
(dp1037
g30
F-1.0116279069767442
sg31
F1.8488372093023255
sg32
F0.3488372093023256
sg33
S'red'
p1038
sba(icurlovision
Stone
p1039
(dp1040
g30
F-2.8604651162790695
sg31
F0.9767441860465116
sg32
F0.3313953488372093
sg33
S'yellow'
p1041
sba(icurlovision
Stone
p1042
(dp1043
g30
F12.906976744186046
sg31
F0.6627906976744186
sg32
F0.436046511627907
sg33
S'red'
p1044
sba(icurlovision
Stone
p1045
(dp1046
g30
F13.151162790697674
sg31
F15.837209302325581
sg32
F0.27906976744186046
sg33
S'yellow'
p1047
sba(icurlovision
Stone
p1048
(dp1049
g30
F-2.4069767441860463
sg31
F0.13953488372093023
sg32
F0.3488372093023256
sg33
S'yellow'
p1050
sba(icurlovision
Stone
p1051
(dp1052
g30
F0.06976744186046512
sg31
F1.7093023255813953
sg32
F0.3313953488372093
sg33
S'yellow'
p1053
sba(icurlovision
Stone
p1054
(dp1055
g30
F2.0930232558139537
sg31
F1.6046511627906976
sg32
F0.38372093023255816
sg33
S'yellow'
p1056
sbasba(icurlovision
StoneLayout
p1057
(dp1058
g25
F0.4791666666666667
sg26
(lp1059
(icurlovision
Stone
p1060
(dp1061
g30
F-2.8125
sg31
F0.9375
sg32
F0.46875
sg33
S'yellow'
p1062
sba(icurlovision
Stone
p1063
(dp1064
g30
F0.075
sg31
F1.65
sg32
F0.33749999999999997
sg33
S'yellow'
p1065
sba(icurlovision
Stone
p1066
(dp1067
g30
F-2.3249999999999997
sg31
F0.11249999999999999
sg32
F0.46875
sg33
S'yellow'
p1068
sba(icurlovision
Stone
p1069
(dp1070
g30
F-0.975
sg31
F1.7625
sg32
F0.2625
sg33
S'red'
p1071
sba(icurlovision
Stone
p1072
(dp1073
g30
F-0.7125
sg31
F-6.075
sg32
F0.46875
sg33
S'red'
p1074
sba(icurlovision
Stone
p1075
(dp1076
g30
F12.7875
sg31
F0.6375
sg32
F0.44999999999999996
sg33
S'red'
p1077
sba(icurlovision
Stone
p1078
(dp1079
g30
F-1.0875
sg31
F-0.4125
sg32
F0.43124999999999997
sg33
S'red'
p1080
sba(icurlovision
Stone
p1081
(dp1082
g30
F-1.575
sg31
F-16.4625
sg32
F0.28125
sg33
S'red'
p1083
sba(icurlovision
Stone
p1084
(dp1085
g30
F12.75
sg31
F15.225
sg32
F0.39375
sg33
S'yellow'
p1086
sba(icurlovision
Stone
p1087
(dp1088
g30
F-5.1
sg31
F16.125
sg32
F0.31875
sg33
S'yellow'
p1089
sba(icurlovision
Stone
p1090
(dp1091
g30
F8.0625
sg31
F0.15
sg32
F0.525
sg33
S'yellow'
p1092
sbasba(icurlovision
StoneLayout
p1093
(dp1094
g25
F0.4791666666666667
sg26
(lp1095
(icurlovision
Stone
p1096
(dp1097
g30
F-2.6750000000000003
sg31
F0.9500000000000001
sg32
F0.45
sg33
S'yellow'
p1098
sba(icurlovision
Stone
p1099
(dp1100
g30
F0.07500000000000001
sg31
F1.625
sg32
F0.325
sg33
S'yellow'
p1101
sba(icurlovision
Stone
p1102
(dp1103
g30
F-2.25
sg31
F0.15000000000000002
sg32
F0.325
sg33
S'yellow'
p1104
sba(icurlovision
Stone
p1105
(dp1106
g30
F-0.75
sg31
F-5.8500000000000005
sg32
F0.42500000000000004
sg33
S'red'
p1107
sba(icurlovision
Stone
p1108
(dp1109
g30
F-0.9500000000000001
sg31
F1.75
sg32
F0.45
sg33
S'red'
p1110
sba(icurlovision
Stone
p1111
(dp1112
g30
F-1.0250000000000001
sg31
F-0.30000000000000004
sg32
F0.36250000000000004
sg33
S'red'
p1113
sbasba(icurlovision
StoneLayout
p1114
(dp1115
g25
F0.4791666666666667
sg26
(lp1116
(icurlovision
Stone
p1117
(dp1118
g30
F-0.75
sg31
F-6.038135593220339
sg32
F0.3432203389830509
sg33
S'red'
p1119
sba(icurlovision
Stone
p1120
(dp1121
g30
F0.0635593220338983
sg31
F1.6398305084745763
sg32
F0.4576271186440678
sg33
S'yellow'
p1122
sba(icurlovision
Stone
p1123
(dp1124
g30
F-0.978813559322034
sg31
F1.7923728813559323
sg32
F0.31779661016949157
sg33
S'red'
p1125
sba(icurlovision
Stone
p1126
(dp1127
g30
F-4.843220338983051
sg31
F-0.9533898305084746
sg32
F0.4576271186440678
sg33
S'yellow'
p1128
sba(icurlovision
Stone
p1129
(dp1130
g30
F-1.4110169491525424
sg31
F-0.1398305084745763
sg32
F0.31779661016949157
sg33
S'red'
p1131
sba(icurlovision
Stone
p1132
(dp1133
g30
F-4.868644067796611
sg31
F-7.283898305084747
sg32
F0.3305084745762712
sg33
S'yellow'
p1134
sbasba(icurlovision
StoneLayout
p1135
(dp1136
g25
F0.4791666666666667
sg26
(lp1137
(icurlovision
Stone
p1138
(dp1139
g30
F0.07758620689655173
sg31
F1.668103448275862
sg32
F0.34913793103448276
sg33
S'yellow'
p1140
sba(icurlovision
Stone
p1141
(dp1142
g30
F-0.7758620689655172
sg31
F-6.142241379310344
sg32
F0.46551724137931033
sg33
S'red'
p1143
sba(icurlovision
Stone
p1144
(dp1145
g30
F-1.0344827586206897
sg31
F1.8232758620689655
sg32
F0.33620689655172414
sg33
S'red'
p1146
sba(icurlovision
Stone
p1147
(dp1148
g30
F-5.379310344827586
sg31
F-5.806034482758621
sg32
F0.3620689655172414
sg33
S'yellow'
p1149
sba(icurlovision
Stone
p1150
(dp1151
g30
F-4.9655172413793105
sg31
F-0.9698275862068966
sg32
F0.33620689655172414
sg33
S'yellow'
p1152
sbasba(icurlovision
StoneLayout
p1153
(dp1154
g25
F0.4791666666666667
sg26
(lp1155
(icurlovision
Stone
p1156
(dp1157
g30
F-5.368421052631579
sg31
F-5.815789473684211
sg32
F0.47368421052631576
sg33
S'yellow'
p1158
sba(icurlovision
Stone
p1159
(dp1160
g30
F0.07894736842105263
sg31
F1.657894736842105
sg32
F0.47368421052631576
sg33
S'yellow'
p1161
sba(icurlovision
Stone
p1162
(dp1163
g30
F-1.0
sg31
F1.789473684210526
sg32
F0.4605263157894737
sg33
S'red'
p1164
sba(icurlovision
Stone
p1165
(dp1166
g30
F-0.7894736842105263
sg31
F-6.184210526315789
sg32
F0.3684210526315789
sg33
S'red'
p1167
sba(icurlovision
Stone
p1168
(dp1169
g30
F-4.2105263157894735
sg31
F-0.5526315789473684
sg32
F0.47368421052631576
sg33
S'red'
p1170
sbasba(icurlovision
StoneLayout
p1171
(dp1172
g25
F0.4791666666666667
sg26
(lp1173
(icurlovision
Stone
p1174
(dp1175
g30
F-5.372950819672131
sg31
F-5.815573770491803
sg32
F0.4672131147540983
sg33
S'yellow'
p1176
sba(icurlovision
Stone
p1177
(dp1178
g30
F0.0860655737704918
sg31
F1.6352459016393441
sg32
F0.4672131147540983
sg33
S'yellow'
p1179
sba(icurlovision
Stone
p1180
(dp1181
g30
F-0.7254098360655737
sg31
F-6.184426229508197
sg32
F0.3442622950819672
sg33
S'red'
p1182
sba(icurlovision
Stone
p1183
(dp1184
g30
F-3.5040983606557377
sg31
F0.11065573770491803
sg32
F0.4672131147540983
sg33
S'yellow'
p1185
sba(icurlovision
Stone
p1186
(dp1187
g30
F-0.9713114754098361
sg31
F1.7827868852459017
sg32
F0.35655737704918034
sg33
S'red'
p1188
sba(icurlovision
Stone
p1189
(dp1190
g30
F-4.315573770491803
sg31
F-0.5532786885245902
sg32
F0.319672131147541
sg33
S'red'
p1191
sba(icurlovision
Stone
p1192
(dp1193
g30
F-3.7254098360655736
sg31
F-3.7008196721311473
sg32
F0.5040983606557377
sg33
S'yellow'
p1194
sbasba(icurlovision
StoneLayout
p1195
(dp1196
g25
F0.4791666666666667
sg26
(lp1197
(icurlovision
Stone
p1198
(dp1199
g30
F-2.778688524590164
sg31
F-0.04918032786885246
sg32
F0.4672131147540983
sg33
S'red'
p1200
sba(icurlovision
Stone
p1201
(dp1202
g30
F0.07377049180327869
sg31
F1.6721311475409837
sg32
F0.3319672131147541
sg33
S'yellow'
p1203
sba(icurlovision
Stone
p1204
(dp1205
g30
F-0.7622950819672131
sg31
F-6.172131147540983
sg32
F0.35655737704918034
sg33
S'red'
p1206
sba(icurlovision
Stone
p1207
(dp1208
g30
F-5.360655737704918
sg31
F-5.754098360655737
sg32
F0.47950819672131145
sg33
S'yellow'
p1209
sba(icurlovision
Stone
p1210
(dp1211
g30
F-1.0081967213114753
sg31
F1.7704918032786885
sg32
F0.4672131147540983
sg33
S'red'
p1212
sbasbasg3
I3
sg161
I0
sba(icurlovision
EndResult
p1213
(dp1214
g2
I5
sg10
(lp1215
(I7
I7
tp1216
a(I5
I4
tp1217
a(I4
I4
tp1218
a(I4
I3
tp1219
a(I3
I3
tp1220
a(I3
I2
tp1221
a(I2
I2
tp1222
a(I2
I1
tp1223
a(I1
I0
tp1224
asg20
I7
sg21
(lp1225
(icurlovision
StoneLayout
p1226
(dp1227
g25
F0.4791666666666667
sg26
(lp1228
(icurlovision
Stone
p1229
(dp1230
g30
F1.0625
sg31
F1.0625
sg32
F0.46875
sg33
S'yellow'
p1231
sba(icurlovision
Stone
p1232
(dp1233
g30
F10.78125
sg31
F-3.25
sg32
F0.34375
sg33
S'red'
p1234
sbasba(icurlovision
StoneLayout
p1235
(dp1236
g25
F0.4791666666666667
sg26
(lp1237
(icurlovision
Stone
p1238
(dp1239
g30
F1.0372340425531914
sg31
F1.0691489361702127
sg32
F0.44680851063829785
sg33
S'yellow'
p1240
sba(icurlovision
Stone
p1241
(dp1242
g30
F-0.7180851063829786
sg31
F-3.079787234042553
sg32
F0.4627659574468085
sg33
S'yellow'
p1243
sba(icurlovision
Stone
p1244
(dp1245
g30
F2.1861702127659575
sg31
F-6.367021276595744
sg32
F0.44680851063829785
sg33
S'red'
p1246
sba(icurlovision
Stone
p1247
(dp1248
g30
F10.707446808510637
sg31
F-3.2393617021276593
sg32
F0.4308510638297872
sg33
S'red'
p1249
sba(icurlovision
Stone
p1250
(dp1251
g30
F-0.7499999999999999
sg31
F-4.069148936170213
sg32
F0.3191489361702127
sg33
S'red'
p1252
sba(icurlovision
Stone
p1253
(dp1254
g30
F10.484042553191488
sg31
F-11.50531914893617
sg32
F0.28723404255319146
sg33
S'yellow'
p1255
sbasba(icurlovision
StoneLayout
p1256
(dp1257
g25
F0.4791666666666667
sg26
(lp1258
(icurlovision
Stone
p1259
(dp1260
g30
F1.0892857142857142
sg31
F1.0892857142857142
sg32
F0.46428571428571425
sg33
S'yellow'
p1261
sba(icurlovision
Stone
p1262
(dp1263
g30
F-0.6964285714285714
sg31
F-3.2321428571428568
sg32
F0.3214285714285714
sg33
S'yellow'
p1264
sba(icurlovision
Stone
p1265
(dp1266
g30
F11.017857142857142
sg31
F-3.375
sg32
F0.3214285714285714
sg33
S'red'
p1267
sba(icurlovision
Stone
p1268
(dp1269
g30
F2.339285714285714
sg31
F-6.660714285714286
sg32
F0.26785714285714285
sg33
S'red'
p1270
sba(icurlovision
Stone
p1271
(dp1272
g30
F-0.8392857142857142
sg31
F-4.232142857142857
sg32
F0.3571428571428571
sg33
S'red'
p1273
sba(icurlovision
Stone
p1274
(dp1275
g30
F4.053571428571428
sg31
F-2.946428571428571
sg32
F0.33928571428571425
sg33
S'red'
p1276
sba(icurlovision
Stone
p1277
(dp1278
g30
F12.767857142857142
sg31
F-12.910714285714285
sg32
F0.33928571428571425
sg33
S'yellow'
p1279
sbasba(icurlovision
StoneLayout
p1280
(dp1281
g25
F0.4791666666666667
sg26
(lp1282
(icurlovision
Stone
p1283
(dp1284
g30
F1.0372340425531914
sg31
F1.0691489361702127
sg32
F0.4627659574468085
sg33
S'yellow'
p1285
sba(icurlovision
Stone
p1286
(dp1287
g30
F0.07978723404255318
sg31
F-2.6648936170212765
sg32
F0.33510638297872336
sg33
S'yellow'
p1288
sba(icurlovision
Stone
p1289
(dp1290
g30
F2.2180851063829787
sg31
F-6.462765957446808
sg32
F0.44680851063829785
sg33
S'red'
p1291
sba(icurlovision
Stone
p1292
(dp1293
g30
F-1.5159574468085104
sg31
F-4.420212765957446
sg32
F0.351063829787234
sg33
S'red'
p1294
sba(icurlovision
Stone
p1295
(dp1296
g30
F10.835106382978722
sg31
F-3.303191489361702
sg32
F0.44680851063829785
sg33
S'red'
p1297
sba(icurlovision
Stone
p1298
(dp1299
g30
F0.047872340425531915
sg31
F-3.813829787234042
sg32
F0.4627659574468085
sg33
S'red'
p1300
sbasba(icurlovision
StoneLayout
p1301
(dp1302
g25
F0.4791666666666667
sg26
(lp1303
(icurlovision
Stone
p1304
(dp1305
g30
F1.0372340425531914
sg31
F1.101063829787234
sg32
F0.33510638297872336
sg33
S'yellow'
p1306
sba(icurlovision
Stone
p1307
(dp1308
g30
F2.25
sg31
F-6.430851063829786
sg32
F0.4627659574468085
sg33
S'red'
p1309
sba(icurlovision
Stone
p1310
(dp1311
g30
F0.4308510638297872
sg31
F-1.3882978723404253
sg32
F0.351063829787234
sg33
S'red'
p1312
sba(icurlovision
Stone
p1313
(dp1314
g30
F-1.4521276595744679
sg31
F-4.388297872340425
sg32
F0.3191489361702127
sg33
S'red'
p1315
sba(icurlovision
Stone
p1316
(dp1317
g30
F10.835106382978722
sg31
F-3.2712765957446805
sg32
F0.28723404255319146
sg33
S'red'
p1318
sba(icurlovision
Stone
p1319
(dp1320
g30
F0.07978723404255318
sg31
F-3.813829787234042
sg32
F0.351063829787234
sg33
S'red'
p1321
sbasba(icurlovision
StoneLayout
p1322
(dp1323
g25
F0.4791666666666667
sg26
(lp1324
(icurlovision
Stone
p1325
(dp1326
g30
F-1.1648936170212765
sg31
F-6.526595744680851
sg32
F0.3191489361702127
sg33
S'red'
p1327
sba(icurlovision
Stone
p1328
(dp1329
g30
F0.7819148936170213
sg31
F-3.207446808510638
sg32
F0.44680851063829785
sg33
S'yellow'
p1330
sba(icurlovision
Stone
p1331
(dp1332
g30
F2.1861702127659575
sg31
F-6.303191489361701
sg32
F0.44680851063829785
sg33
S'red'
p1333
sba(icurlovision
Stone
p1334
(dp1335
g30
F1.0053191489361701
sg31
F1.0372340425531914
sg32
F0.4308510638297872
sg33
S'yellow'
p1336
sba(icurlovision
Stone
p1337
(dp1338
g30
F-1.7393617021276595
sg31
F-4.292553191489361
sg32
F0.44680851063829785
sg33
S'red'
p1339
sba(icurlovision
Stone
p1340
(dp1341
g30
F10.579787234042552
sg31
F-3.207446808510638
sg32
F0.4308510638297872
sg33
S'red'
p1342
sba(icurlovision
Stone
p1343
(dp1344
g30
F9.52659574468085
sg31
F-6.909574468085106
sg32
F0.3031914893617021
sg33
S'yellow'
p1345
sba(icurlovision
Stone
p1346
(dp1347
g30
F10.452127659574467
sg31
F-11.50531914893617
sg32
F0.28723404255319146
sg33
S'yellow'
p1348
sbasba(icurlovision
StoneLayout
p1349
(dp1350
g25
F0.4791666666666667
sg26
(lp1351
(icurlovision
Stone
p1352
(dp1353
g30
F2.3352272727272725
sg31
F-6.664772727272727
sg32
F0.4602272727272727
sg33
S'red'
p1354
sba(icurlovision
Stone
p1355
(dp1356
g30
F1.0738636363636362
sg31
F1.0738636363636362
sg32
F0.4602272727272727
sg33
S'yellow'
p1357
sba(icurlovision
Stone
p1358
(dp1359
g30
F-1.1761363636363635
sg31
F-6.903409090909091
sg32
F0.32386363636363635
sg33
S'red'
p1360
sba(icurlovision
Stone
p1361
(dp1362
g30
F-0.9374999999999999
sg31
F-4.107954545454545
sg32
F0.3579545454545454
sg33
S'yellow'
p1363
sba(icurlovision
Stone
p1364
(dp1365
g30
F-2.3352272727272725
sg31
F-4.892045454545454
sg32
F0.3409090909090909
sg33
S'red'
p1366
sba(icurlovision
Stone
p1367
(dp1368
g30
F1.2443181818181817
sg31
F-2.2670454545454546
sg32
F0.30681818181818177
sg33
S'red'
p1369
sba(icurlovision
Stone
p1370
(dp1371
g30
F11.164772727272727
sg31
F-3.3579545454545454
sg32
F0.28977272727272724
sg33
S'red'
p1372
sba(icurlovision
Stone
p1373
(dp1374
g30
F11.369318181818182
sg31
F-12.392045454545453
sg32
F0.2727272727272727
sg33
S'yellow'
p1375
sbasba(icurlovision
StoneLayout
p1376
(dp1377
g25
F0.4791666666666667
sg26
(lp1378
(icurlovision
Stone
p1379
(dp1380
g30
F1.0116279069767442
sg31
F1.0813953488372092
sg32
F0.3313953488372093
sg33
S'yellow'
p1381
sba(icurlovision
Stone
p1382
(dp1383
g30
F2.058139534883721
sg31
F-2.197674418604651
sg32
F0.47093023255813954
sg33
S'yellow'
p1384
sba(icurlovision
Stone
p1385
(dp1386
g30
F2.2325581395348837
sg31
F-6.523255813953488
sg32
F0.3488372093023256
sg33
S'red'
p1387
sba(icurlovision
Stone
p1388
(dp1389
g30
F-1.1860465116279069
sg31
F-6.732558139534883
sg32
F0.313953488372093
sg33
S'red'
p1390
sba(icurlovision
Stone
p1391
(dp1392
g30
F-0.9767441860465116
sg31
F-3.9767441860465116
sg32
F0.45348837209302323
sg33
S'yellow'
p1393
sba(icurlovision
Stone
p1394
(dp1395
g30
F10.848837209302326
sg31
F-3.2790697674418605
sg32
F0.47093023255813954
sg33
S'red'
p1396
sba(icurlovision
Stone
p1397
(dp1398
g30
F-2.3720930232558137
sg31
F-4.77906976744186
sg32
F0.36627906976744184
sg33
S'red'
p1399
sba(icurlovision
Stone
p1400
(dp1401
g30
F6.453488372093023
sg31
F16.3953488372093
sg32
F0.313953488372093
sg33
S'yellow'
p1402
sbasba(icurlovision
StoneLayout
p1403
(dp1404
g25
F0.4791666666666667
sg26
(lp1405
(icurlovision
Stone
p1406
(dp1407
g30
F-1.1576086956521738
sg31
F-6.684782608695652
sg32
F0.34239130434782605
sg33
S'red'
p1408
sba(icurlovision
Stone
p1409
(dp1410
g30
F2.233695652173913
sg31
F-6.456521739130435
sg32
F0.45652173913043476
sg33
S'red'
p1411
sba(icurlovision
Stone
p1412
(dp1413
g30
F-2.2989130434782608
sg31
F-4.760869565217392
sg32
F0.27717391304347827
sg33
S'red'
p1414
sba(icurlovision
Stone
p1415
(dp1416
g30
F-0.9293478260869565
sg31
F-3.9456521739130435
sg32
F0.45652173913043476
sg33
S'yellow'
p1417
sba(icurlovision
Stone
p1418
(dp1419
g30
F0.9293478260869565
sg31
F1.1739130434782608
sg32
F0.45652173913043476
sg33
S'yellow'
p1420
sba(icurlovision
Stone
p1421
(dp1422
g30
F10.809782608695652
sg31
F-3.260869565217391
sg32
F0.45652173913043476
sg33
S'red'
p1423
sba(icurlovision
Stone
p1424
(dp1425
g30
F10.875
sg31
F-11.771739130434783
sg32
F0.2934782608695652
sg33
S'yellow'
p1426
sbasbasg3
I4
sg161
I1
sba(icurlovision
EndResult
p1427
(dp1428
g2
I5
sg10
(lp1429
(I5
I5
tp1430
a(I4
I5
tp1431
a(I3
I4
tp1432
a(I2
I3
tp1433
a(I1
I2
tp1434
a(I1
I1
tp1435
a(I0
I1
tp1436
asg20
I8
sg21
(lp1437
(icurlovision
StoneLayout
p1438
(dp1439
g25
F0.4791666666666667
sg26
(lp1440
(icurlovision
Stone
p1441
(dp1442
g30
F-1.8989361702127658
sg31
F-4.675531914893616
sg32
F0.351063829787234
sg33
S'yellow'
p1443
sba(icurlovision
Stone
p1444
(dp1445
g30
F10.707446808510637
sg31
F0.526595744680851
sg32
F0.28723404255319146
sg33
S'red'
p1446
sba(icurlovision
Stone
p1447
(dp1448
g30
F3.2712765957446805
sg31
F0.9734042553191489
sg32
F0.44680851063829785
sg33
S'yellow'
p1449
sba(icurlovision
Stone
p1450
(dp1451
g30
F3.207446808510638
sg31
F-0.2074468085106383
sg32
F0.3191489361702127
sg33
S'red'
p1452
sba(icurlovision
Stone
p1453
(dp1454
g30
F-4.037234042553191
sg31
F-6.781914893617021
sg32
F0.49468085106382975
sg33
S'yellow'
p1455
sba(icurlovision
Stone
p1456
(dp1457
g30
F11.632978723404255
sg31
F-11.696808510638297
sg32
F0.3031914893617021
sg33
S'yellow'
p1458
sbasba(icurlovision
StoneLayout
p1459
(dp1460
g25
F0.4791666666666667
sg26
(lp1461
(icurlovision
Stone
p1462
(dp1463
g30
F-1.875
sg31
F-4.665
sg32
F0.345
sg33
S'yellow'
p1464
sba(icurlovision
Stone
p1465
(dp1466
g30
F3.2849999999999997
sg31
F0.975
sg32
F0.46499999999999997
sg33
S'yellow'
p1467
sba(icurlovision
Stone
p1468
(dp1469
g30
F10.665
sg31
F0.525
sg32
F0.44999999999999996
sg33
S'red'
p1470
sba(icurlovision
Stone
p1471
(dp1472
g30
F4.125
sg31
F-0.315
sg32
F0.3
sg33
S'red'
p1473
sba(icurlovision
Stone
p1474
(dp1475
g30
F0.015
sg31
F-0.255
sg32
F0.435
sg33
S'yellow'
p1476
sbasba(icurlovision
StoneLayout
p1477
(dp1478
g25
F0.4791666666666667
sg26
(lp1479
(icurlovision
Stone
p1480
(dp1481
g30
F-1.847560975609756
sg31
F-4.591463414634146
sg32
F0.3292682926829268
sg33
S'yellow'
p1482
sba(icurlovision
Stone
p1483
(dp1484
g30
F13.73780487804878
sg31
F-0.7134146341463414
sg32
F0.42073170731707316
sg33
S'red'
p1485
sba(icurlovision
Stone
p1486
(dp1487
g30
F3.201219512195122
sg31
F1.0060975609756098
sg32
F0.40243902439024387
sg33
S'yellow'
p1488
sba(icurlovision
Stone
p1489
(dp1490
g30
F1.5914634146341462
sg31
F0.0548780487804878
sg32
F0.25609756097560976
sg33
S'red'
p1491
sba(icurlovision
Stone
p1492
(dp1493
g30
F4.079268292682927
sg31
F-0.31097560975609756
sg32
F0.45731707317073167
sg33
S'red'
p1494
sba(icurlovision
Stone
p1495
(dp1496
g30
F14.835365853658535
sg31
F15.676829268292682
sg32
F0.42073170731707316
sg33
S'yellow'
p1497
sba(icurlovision
Stone
p1498
(dp1499
g30
F13.518292682926829
sg31
F-17.140243902439025
sg32
F0.40243902439024387
sg33
S'yellow'
p1500
sbasba(icurlovision
StoneLayout
p1501
(dp1502
g25
F0.4791666666666667
sg26
(lp1503
(icurlovision
Stone
p1504
(dp1505
g30
F-1.8461538461538463
sg31
F-4.615384615384616
sg32
F0.46153846153846156
sg33
S'yellow'
p1506
sba(icurlovision
Stone
p1507
(dp1508
g30
F2.576923076923077
sg31
F-1.8076923076923077
sg32
F0.34615384615384615
sg33
S'red'
p1509
sba(icurlovision
Stone
p1510
(dp1511
g30
F13.846153846153847
sg31
F-0.7307692307692308
sg32
F0.42307692307692313
sg33
S'red'
p1512
sba(icurlovision
Stone
p1513
(dp1514
g30
F2.0
sg31
F4.115384615384616
sg32
F0.44230769230769235
sg33
S'yellow'
p1515
sba(icurlovision
Stone
p1516
(dp1517
g30
F11.461538461538462
sg31
F17.423076923076923
sg32
F0.38461538461538464
sg33
S'red'
p1518
sba(icurlovision
Stone
p1519
(dp1520
g30
F13.576923076923078
sg31
F-17.153846153846153
sg32
F0.42307692307692313
sg33
S'yellow'
p1521
sba(icurlovision
Stone
p1522
(dp1523
g30
F1.5384615384615385
sg31
F0.07692307692307693
sg32
F0.3076923076923077
sg33
S'red'
p1524
sba(icurlovision
Stone
p1525
(dp1526
g30
F14.884615384615385
sg31
F15.730769230769232
sg32
F0.42307692307692313
sg33
S'yellow'
p1527
sba(icurlovision
Stone
p1528
(dp1529
g30
F-0.9230769230769231
sg31
F18.461538461538463
sg32
F0.34615384615384615
sg33
S'red'
p1530
sba(icurlovision
Stone
p1531
(dp1532
g30
F14.423076923076923
sg31
F-14.192307692307693
sg32
F0.2884615384615385
sg33
S'yellow'
p1533
sbasba(icurlovision
StoneLayout
p1534
(dp1535
g25
F0.4791666666666667
sg26
(lp1536
(icurlovision
Stone
p1537
(dp1538
g30
F-1.8488372093023255
sg31
F-4.569767441860465
sg32
F0.3313953488372093
sg33
S'yellow'
p1539
sba(icurlovision
Stone
p1540
(dp1541
g30
F2.0232558139534884
sg31
F4.116279069767442
sg32
F0.47093023255813954
sg33
S'yellow'
p1542
sba(icurlovision
Stone
p1543
(dp1544
g30
F3.244186046511628
sg31
F-0.10465116279069767
sg32
F0.45348837209302323
sg33
S'red'
p1545
sba(icurlovision
Stone
p1546
(dp1547
g30
F2.546511627906977
sg31
F-1.7790697674418605
sg32
F0.3488372093023256
sg33
S'red'
p1548
sba(icurlovision
Stone
p1549
(dp1550
g30
F13.779069767441861
sg31
F-0.7325581395348837
sg32
F0.27906976744186046
sg33
S'red'
p1551
sba(icurlovision
Stone
p1552
(dp1553
g30
F12.313953488372093
sg31
F-12.941860465116278
sg32
F0.2616279069767442
sg33
S'yellow'
p1554
sba(icurlovision
Stone
p1555
(dp1556
g30
F13.290697674418604
sg31
F-12.872093023255815
sg32
F0.313953488372093
sg33
S'yellow'
p1557
sbasba(icurlovision
StoneLayout
p1558
(dp1559
g25
F0.4791666666666667
sg26
(lp1560
(icurlovision
Stone
p1561
(dp1562
g30
F3.464285714285714
sg31
F-1.7142857142857142
sg32
F0.3214285714285714
sg33
S'yellow'
p1563
sba(icurlovision
Stone
p1564
(dp1565
g30
F-1.857142857142857
sg31
F-4.571428571428571
sg32
F0.46428571428571425
sg33
S'yellow'
p1566
sba(icurlovision
Stone
p1567
(dp1568
g30
F13.785714285714285
sg31
F-0.7142857142857142
sg32
F0.42857142857142855
sg33
S'red'
p1569
sba(icurlovision
Stone
p1570
(dp1571
g30
F3.2857142857142856
sg31
F-0.10714285714285714
sg32
F0.4464285714285714
sg33
S'red'
p1572
sba(icurlovision
Stone
p1573
(dp1574
g30
F2.0
sg31
F4.178571428571428
sg32
F0.33928571428571425
sg33
S'yellow'
p1575
sba(icurlovision
Stone
p1576
(dp1577
g30
F14.25
sg31
F-13.071428571428571
sg32
F0.33928571428571425
sg33
S'yellow'
p1578
sbasba(icurlovision
StoneLayout
p1579
(dp1580
g25
F0.4791666666666667
sg26
(lp1581
(icurlovision
Stone
p1582
(dp1583
g30
F-1.8928571428571428
sg31
F-4.678571428571428
sg32
F0.33928571428571425
sg33
S'yellow'
p1584
sba(icurlovision
Stone
p1585
(dp1586
g30
F3.464285714285714
sg31
F-1.75
sg32
F0.33928571428571425
sg33
S'yellow'
p1587
sba(icurlovision
Stone
p1588
(dp1589
g30
F2.0357142857142856
sg31
F4.142857142857142
sg32
F0.33928571428571425
sg33
S'yellow'
p1590
sba(icurlovision
Stone
p1591
(dp1592
g30
F-2.0
sg31
F-0.5357142857142857
sg32
F0.46428571428571425
sg33
S'red'
p1593
sba(icurlovision
Stone
p1594
(dp1595
g30
F13.928571428571427
sg31
F-0.75
sg32
F0.42857142857142855
sg33
S'red'
p1596
sba(icurlovision
Stone
p1597
(dp1598
g30
F4.214285714285714
sg31
F-0.10714285714285714
sg32
F0.33928571428571425
sg33
S'red'
p1599
sba(icurlovision
Stone
p1600
(dp1601
g30
F12.821428571428571
sg31
F-13.321428571428571
sg32
F0.2857142857142857
sg33
S'yellow'
p1602
sbasbasg3
I5
sg161
I0
sba(icurlovision
EndResult
p1603
(dp1604
g2
I6
sg10
(lp1605
(I7
I7
tp1606
a(I6
I6
tp1607
a(I5
I6
tp1608
a(I4
I5
tp1609
a(I4
I4
tp1610
a(I2
I2
tp1611
a(I1
I2
tp1612
a(I1
I1
tp1613
a(I0
I1
tp1614
asg20
I9
sg21
(lp1615
(icurlovision
StoneLayout
p1616
(dp1617
g25
F0.4791666666666667
sg26
(lp1618
(icurlovision
Stone
p1619
(dp1620
g30
F6.2560975609756095
sg31
F-14.085365853658535
sg32
F0.274390243902439
sg33
S'red'
p1621
sba(icurlovision
Stone
p1622
(dp1623
g30
F12.365853658536585
sg31
F-0.14634146341463414
sg32
F0.42073170731707316
sg33
S'red'
p1624
sba(icurlovision
Stone
p1625
(dp1626
g30
F-3.219512195121951
sg31
F3.2560975609756095
sg32
F0.4390243902439024
sg33
S'yellow'
p1627
sbasba(icurlovision
StoneLayout
p1628
(dp1629
g25
F0.4791666666666667
sg26
(lp1630
(icurlovision
Stone
p1631
(dp1632
g30
F-4.3875
sg31
F3.65625
sg32
F0.33749999999999997
sg33
S'yellow'
p1633
sba(icurlovision
Stone
p1634
(dp1635
g30
F8.5125
sg31
F-1.2562499999999999
sg32
F0.2625
sg33
S'red'
p1636
sba(icurlovision
Stone
p1637
(dp1638
g30
F12.487499999999999
sg31
F-0.16874999999999998
sg32
F0.4125
sg33
S'red'
p1639
sba(icurlovision
Stone
p1640
(dp1641
g30
F6.675
sg31
F-14.79375
sg32
F0.43124999999999997
sg33
S'yellow'
p1642
sba(icurlovision
Stone
p1643
(dp1644
g30
F2.0625
sg31
F-0.13125
sg32
F0.31875
sg33
S'yellow'
p1645
sba(icurlovision
Stone
p1646
(dp1647
g30
F9.75
sg31
F18.09375
sg32
F0.35625
sg33
S'red'
p1648
sbasba(icurlovision
StoneLayout
p1649
(dp1650
g25
F0.4791666666666667
sg26
(lp1651
(icurlovision
Stone
p1652
(dp1653
g30
F-4.40625
sg31
F3.6937499999999996
sg32
F0.44999999999999996
sg33
S'yellow'
p1654
sba(icurlovision
Stone
p1655
(dp1656
g30
F2.68125
sg31
F-0.88125
sg32
F0.44999999999999996
sg33
S'red'
p1657
sba(icurlovision
Stone
p1658
(dp1659
g30
F8.643749999999999
sg31
F-1.29375
sg32
F0.44999999999999996
sg33
S'red'
p1660
sba(icurlovision
Stone
p1661
(dp1662
g30
F12.69375
sg31
F-0.16874999999999998
sg32
F0.4125
sg33
S'red'
p1663
sba(icurlovision
Stone
p1664
(dp1665
g30
F1.33125
sg31
F0.056249999999999994
sg32
F0.43124999999999997
sg33
S'yellow'
p1666
sba(icurlovision
Stone
p1667
(dp1668
g30
F6.76875
sg31
F-15.056249999999999
sg32
F0.46875
sg33
S'yellow'
p1669
sba(icurlovision
Stone
p1670
(dp1671
g30
F12.61875
sg31
F-13.63125
sg32
F0.28125
sg33
S'yellow'
p1672
sbasba(icurlovision
StoneLayout
p1673
(dp1674
g25
F0.4791666666666667
sg26
(lp1675
(icurlovision
Stone
p1676
(dp1677
g30
F-4.420212765957446
sg31
F3.686170212765957
sg32
F0.33510638297872336
sg33
S'yellow'
p1678
sba(icurlovision
Stone
p1679
(dp1680
g30
F-2.0904255319148937
sg31
F5.888297872340425
sg32
F0.4627659574468085
sg33
S'red'
p1681
sba(icurlovision
Stone
p1682
(dp1683
g30
F2.6968085106382977
sg31
F-0.8776595744680851
sg32
F0.4627659574468085
sg33
S'red'
p1684
sba(icurlovision
Stone
p1685
(dp1686
g30
F8.696808510638297
sg31
F-1.2925531914893615
sg32
F0.44680851063829785
sg33
S'red'
p1687
sba(icurlovision
Stone
p1688
(dp1689
g30
F-3.430851063829787
sg31
F2.345744680851064
sg32
F0.28723404255319146
sg33
S'yellow'
p1690
sbasba(icurlovision
StoneLayout
p1691
(dp1692
g25
F0.4791666666666667
sg26
(lp1693
(icurlovision
Stone
p1694
(dp1695
g30
F1.546875
sg31
F1.90625
sg32
F0.46875
sg33
S'yellow'
p1696
sba(icurlovision
Stone
p1697
(dp1698
g30
F-4.734375
sg31
F-4.96875
sg32
F0.484375
sg33
S'red'
p1699
sba(icurlovision
Stone
p1700
(dp1701
g30
F-4.484375
sg31
F3.75
sg32
F0.453125
sg33
S'yellow'
p1702
sba(icurlovision
Stone
p1703
(dp1704
g30
F8.828125
sg31
F-1.28125
sg32
F0.46875
sg33
S'red'
p1705
sba(icurlovision
Stone
p1706
(dp1707
g30
F-2.140625
sg31
F6.0
sg32
F0.46875
sg33
S'red'
p1708
sba(icurlovision
Stone
p1709
(dp1710
g30
F8.203125
sg31
F-5.21875
sg32
F0.28125
sg33
S'yellow'
p1711
sbasba(icurlovision
StoneLayout
p1712
(dp1713
g25
F0.4791666666666667
sg26
(lp1714
(icurlovision
Stone
p1715
(dp1716
g30
F-5.016666666666667
sg31
F-5.283333333333333
sg32
F0.5166666666666666
sg33
S'red'
p1717
sba(icurlovision
Stone
p1718
(dp1719
g30
F-6.216666666666667
sg31
F-4.583333333333333
sg32
F0.5
sg33
S'yellow'
p1720
sba(icurlovision
Stone
p1721
(dp1722
g30
F9.25
sg31
F-1.35
sg32
F0.48333333333333334
sg33
S'red'
p1723
sba(icurlovision
Stone
p1724
(dp1725
g30
F-2.283333333333333
sg31
F6.316666666666666
sg32
F0.3
sg33
S'red'
p1726
sba(icurlovision
Stone
p1727
(dp1728
g30
F-2.5833333333333335
sg31
F-5.75
sg32
F0.35
sg33
S'red'
p1729
sba(icurlovision
Stone
p1730
(dp1731
g30
F0.08333333333333333
sg31
F0.5833333333333334
sg32
F0.36666666666666664
sg33
S'yellow'
p1732
sba(icurlovision
Stone
p1733
(dp1734
g30
F-4.75
sg31
F2.683333333333333
sg32
F0.5
sg33
S'yellow'
p1735
sba(icurlovision
Stone
p1736
(dp1737
g30
F-0.48333333333333334
sg31
F-0.5166666666666666
sg32
F0.36666666666666664
sg33
S'red'
p1738
sba(icurlovision
Stone
p1739
(dp1740
g30
F8.783333333333333
sg31
F-7.216666666666667
sg32
F0.3
sg33
S'yellow'
p1741
sbasba(icurlovision
StoneLayout
p1742
(dp1743
g25
F0.4791666666666667
sg26
(lp1744
(icurlovision
Stone
p1745
(dp1746
g30
F-2.122340425531915
sg31
F5.952127659574468
sg32
F0.4627659574468085
sg33
S'red'
p1747
sba(icurlovision
Stone
p1748
(dp1749
g30
F-5.824468085106383
sg31
F-4.356382978723404
sg32
F0.3829787234042553
sg33
S'yellow'
p1750
sba(icurlovision
Stone
p1751
(dp1752
g30
F-4.707446808510638
sg31
F-4.962765957446808
sg32
F0.351063829787234
sg33
S'red'
p1753
sba(icurlovision
Stone
p1754
(dp1755
g30
F0.11170212765957446
sg31
F-1.8989361702127658
sg32
F0.44680851063829785
sg33
S'red'
p1756
sba(icurlovision
Stone
p1757
(dp1758
g30
F8.792553191489361
sg31
F-1.2925531914893615
sg32
F0.44680851063829785
sg33
S'red'
p1759
sba(icurlovision
Stone
p1760
(dp1761
g30
F-2.4095744680851063
sg31
F-5.473404255319148
sg32
F0.351063829787234
sg33
S'red'
p1762
sba(icurlovision
Stone
p1763
(dp1764
g30
F-0.39893617021276595
sg31
F-0.49468085106382975
sg32
F0.3191489361702127
sg33
S'red'
p1765
sba(icurlovision
Stone
p1766
(dp1767
g30
F-5.409574468085106
sg31
F4.164893617021276
sg32
F0.4787234042553191
sg33
S'yellow'
p1768
sba(icurlovision
Stone
p1769
(dp1770
g30
F8.569148936170212
sg31
F-6.909574468085106
sg32
F0.28723404255319146
sg33
S'yellow'
p1771
sbasba(icurlovision
StoneLayout
p1772
(dp1773
g25
F0.4791666666666667
sg26
(lp1774
(icurlovision
Stone
p1775
(dp1776
g30
F-5.529411764705882
sg31
F-4.088235294117647
sg32
F0.4411764705882353
sg33
S'yellow'
p1777
sba(icurlovision
Stone
p1778
(dp1779
g30
F0.3235294117647059
sg31
F-0.8823529411764706
sg32
F0.3235294117647059
sg33
S'yellow'
p1780
sba(icurlovision
Stone
p1781
(dp1782
g30
F0.058823529411764705
sg31
F-1.7941176470588236
sg32
F0.4411764705882353
sg33
S'red'
p1783
sba(icurlovision
Stone
p1784
(dp1785
g30
F-2.0294117647058822
sg31
F5.705882352941177
sg32
F0.3088235294117647
sg33
S'red'
p1786
sba(icurlovision
Stone
p1787
(dp1788
g30
F-4.470588235294118
sg31
F-4.676470588235294
sg32
F0.47058823529411764
sg33
S'red'
p1789
sba(icurlovision
Stone
p1790
(dp1791
g30
F8.352941176470589
sg31
F-1.1764705882352942
sg32
F0.4264705882352941
sg33
S'red'
p1792
sba(icurlovision
Stone
p1793
(dp1794
g30
F-2.2941176470588234
sg31
F-5.117647058823529
sg32
F0.45588235294117646
sg33
S'red'
p1795
sba(icurlovision
Stone
p1796
(dp1797
g30
F-0.5294117647058824
sg31
F-0.38235294117647056
sg32
F0.29411764705882354
sg33
S'red'
p1798
sba(icurlovision
Stone
p1799
(dp1800
g30
F-5.176470588235294
sg31
F3.9705882352941178
sg32
F0.47058823529411764
sg33
S'yellow'
p1801
sbasba(icurlovision
StoneLayout
p1802
(dp1803
g25
F0.4791666666666667
sg26
(lp1804
(icurlovision
Stone
p1805
(dp1806
g30
F-4.671875
sg31
F-4.921875
sg32
F0.484375
sg33
S'red'
p1807
sba(icurlovision
Stone
p1808
(dp1809
g30
F-5.421875
sg31
F4.171875
sg32
F0.46875
sg33
S'yellow'
p1810
sba(icurlovision
Stone
p1811
(dp1812
g30
F-5.765625
sg31
F-4.296875
sg32
F0.46875
sg33
S'yellow'
p1813
sba(icurlovision
Stone
p1814
(dp1815
g30
F-2.140625
sg31
F5.984375
sg32
F0.453125
sg33
S'red'
p1816
sba(icurlovision
Stone
p1817
(dp1818
g30
F6.765625
sg31
F0.421875
sg32
F0.46875
sg33
S'red'
p1819
sba(icurlovision
Stone
p1820
(dp1821
g30
F0.359375
sg31
F-0.953125
sg32
F0.34375
sg33
S'yellow'
p1822
sba(icurlovision
Stone
p1823
(dp1824
g30
F8.796875
sg31
F-1.265625
sg32
F0.453125
sg33
S'red'
p1825
sba(icurlovision
Stone
p1826
(dp1827
g30
F-2.390625
sg31
F-5.421875
sg32
F0.359375
sg33
S'red'
p1828
sba(icurlovision
Stone
p1829
(dp1830
g30
F-0.515625
sg31
F-0.421875
sg32
F0.34375
sg33
S'red'
p1831
sba(icurlovision
Stone
p1832
(dp1833
g30
F0.078125
sg31
F-1.921875
sg32
F0.34375
sg33
S'red'
p1834
sbasbasg3
I5
sg161
I0
sba(icurlovision
EndResult
p1835
(dp1836
g2
I6
sg10
(lp1837
(I8
I7
tp1838
a(I6
I6
tp1839
a(I5
I4
tp1840
a(I4
I3
tp1841
a(I3
I2
tp1842
a(I2
I2
tp1843
a(I1
I1
tp1844
asg20
I10
sg21
(lp1845
(icurlovision
StoneLayout
p1846
(dp1847
g25
F0.4791666666666667
sg26
(lp1848
(icurlovision
Stone
p1849
(dp1850
g30
F9.866379310344827
sg31
F0.27155172413793105
sg32
F0.4396551724137931
sg33
S'yellow'
p1851
sbasba(icurlovision
StoneLayout
p1852
(dp1853
g25
F0.4791666666666667
sg26
(lp1854
(icurlovision
Stone
p1855
(dp1856
g30
F9.102941176470589
sg31
F3.4558823529411766
sg32
F0.47058823529411764
sg33
S'red'
p1857
sba(icurlovision
Stone
p1858
(dp1859
g30
F3.2205882352941178
sg31
F-3.5441176470588234
sg32
F0.3235294117647059
sg33
S'red'
p1860
sba(icurlovision
Stone
p1861
(dp1862
g30
F-0.7205882352941176
sg31
F0.3676470588235294
sg32
F0.3529411764705882
sg33
S'yellow'
p1863
sba(icurlovision
Stone
p1864
(dp1865
g30
F10.308823529411764
sg31
F0.5147058823529411
sg32
F0.47058823529411764
sg33
S'yellow'
p1866
sbasba(icurlovision
StoneLayout
p1867
(dp1868
g25
F0.4791666666666667
sg26
(lp1869
(icurlovision
Stone
p1870
(dp1871
g30
F10.058823529411764
sg31
F0.5294117647058824
sg32
F0.45588235294117646
sg33
S'yellow'
p1872
sba(icurlovision
Stone
p1873
(dp1874
g30
F8.882352941176471
sg31
F3.3823529411764706
sg32
F0.4411764705882353
sg33
S'red'
p1875
sba(icurlovision
Stone
p1876
(dp1877
g30
F0.23529411764705882
sg31
F0.4117647058823529
sg32
F0.47058823529411764
sg33
S'red'
p1878
sba(icurlovision
Stone
p1879
(dp1880
g30
F3.235294117647059
sg31
F2.6470588235294117
sg32
F0.5
sg33
S'yellow'
p1881
sba(icurlovision
Stone
p1882
(dp1883
g30
F3.7058823529411766
sg31
F-0.29411764705882354
sg32
F0.39705882352941174
sg33
S'yellow'
p1884
sba(icurlovision
Stone
p1885
(dp1886
g30
F-2.764705882352941
sg31
F0.058823529411764705
sg32
F0.3235294117647059
sg33
S'yellow'
p1887
sbasba(icurlovision
StoneLayout
p1888
(dp1889
g25
F0.4791666666666667
sg26
(lp1890
(icurlovision
Stone
p1891
(dp1892
g30
F-2.715
sg31
F0.045
sg32
F0.46499999999999997
sg33
S'yellow'
p1893
sba(icurlovision
Stone
p1894
(dp1895
g30
F10.065
sg31
F0.525
sg32
F0.46499999999999997
sg33
S'yellow'
p1896
sba(icurlovision
Stone
p1897
(dp1898
g30
F8.924999999999999
sg31
F3.3449999999999998
sg32
F0.36
sg33
S'red'
p1899
sba(icurlovision
Stone
p1900
(dp1901
g30
F1.845
sg31
F0.045
sg32
F0.345
sg33
S'yellow'
p1902
sba(icurlovision
Stone
p1903
(dp1904
g30
F-0.255
sg31
F0.195
sg32
F0.46499999999999997
sg33
S'red'
p1905
sba(icurlovision
Stone
p1906
(dp1907
g30
F0.16499999999999998
sg31
F1.875
sg32
F0.345
sg33
S'red'
p1908
sba(icurlovision
Stone
p1909
(dp1910
g30
F4.365
sg31
F-1.005
sg32
F0.315
sg33
S'yellow'
p1911
sbasba(icurlovision
StoneLayout
p1912
(dp1913
g25
F0.4791666666666667
sg26
(lp1914
(icurlovision
Stone
p1915
(dp1916
g30
F-2.783333333333333
sg31
F0.05
sg32
F0.3333333333333333
sg33
S'yellow'
p1917
sba(icurlovision
Stone
p1918
(dp1919
g30
F0.2833333333333333
sg31
F0.95
sg32
F0.3333333333333333
sg33
S'yellow'
p1920
sba(icurlovision
Stone
p1921
(dp1922
g30
F10.116666666666667
sg31
F0.5166666666666666
sg32
F0.4666666666666667
sg33
S'yellow'
p1923
sba(icurlovision
Stone
p1924
(dp1925
g30
F1.8166666666666667
sg31
F0.05
sg32
F0.3333333333333333
sg33
S'yellow'
p1926
sba(icurlovision
Stone
p1927
(dp1928
g30
F0.08333333333333333
sg31
F1.9166666666666667
sg32
F0.4666666666666667
sg33
S'red'
p1929
sba(icurlovision
Stone
p1930
(dp1931
g30
F8.083333333333334
sg31
F3.783333333333333
sg32
F0.45
sg33
S'red'
p1932
sba(icurlovision
Stone
p1933
(dp1934
g30
F7.25
sg31
F1.05
sg32
F0.31666666666666665
sg33
S'red'
p1935
sba(icurlovision
Stone
p1936
(dp1937
g30
F4.383333333333333
sg31
F-1.0166666666666666
sg32
F0.3333333333333333
sg33
S'yellow'
p1938
sba(icurlovision
Stone
p1939
(dp1940
g30
F-0.3833333333333333
sg31
F0.15
sg32
F0.3333333333333333
sg33
S'red'
p1941
sba(icurlovision
Stone
p1942
(dp1943
g30
F9.916666666666666
sg31
F-7.383333333333333
sg32
F0.2833333333333333
sg33
S'yellow'
p1944
sbasba(icurlovision
StoneLayout
p1945
(dp1946
g25
F0.4791666666666667
sg26
(lp1947
(icurlovision
Stone
p1948
(dp1949
g30
F-2.6968085106382977
sg31
F0.047872340425531915
sg32
F0.4627659574468085
sg33
S'yellow'
p1950
sba(icurlovision
Stone
p1951
(dp1952
g30
F7.962765957446808
sg31
F3.7180851063829783
sg32
F0.3191489361702127
sg33
S'red'
p1953
sba(icurlovision
Stone
p1954
(dp1955
g30
F10.037234042553191
sg31
F0.526595744680851
sg32
F0.33510638297872336
sg33
S'yellow'
p1956
sba(icurlovision
Stone
p1957
(dp1958
g30
F0.07978723404255318
sg31
F1.930851063829787
sg32
F0.3031914893617021
sg33
S'red'
p1959
sba(icurlovision
Stone
p1960
(dp1961
g30
F1.803191489361702
sg31
F0.047872340425531915
sg32
F0.33510638297872336
sg33
S'yellow'
p1962
sba(icurlovision
Stone
p1963
(dp1964
g30
F-0.39893617021276595
sg31
F0.14361702127659573
sg32
F0.351063829787234
sg33
S'red'
p1965
sba(icurlovision
Stone
p1966
(dp1967
g30
F0.2712765957446808
sg31
F0.9414893617021276
sg32
F0.4627659574468085
sg33
S'yellow'
p1968
sba(icurlovision
Stone
p1969
(dp1970
g30
F7.164893617021276
sg31
F1.0691489361702127
sg32
F0.3031914893617021
sg33
S'red'
p1971
sba(icurlovision
Stone
p1972
(dp1973
g30
F5.25
sg31
F-1.0053191489361701
sg32
F0.33510638297872336
sg33
S'red'
p1974
sbasba(icurlovision
StoneLayout
p1975
(dp1976
g25
F0.4791666666666667
sg26
(lp1977
(icurlovision
Stone
p1978
(dp1979
g30
F8.033653846153847
sg31
F3.75
sg32
F0.46153846153846156
sg33
S'red'
p1980
sba(icurlovision
Stone
p1981
(dp1982
g30
F-2.7548076923076925
sg31
F0.057692307692307696
sg32
F0.46153846153846156
sg33
S'yellow'
p1983
sba(icurlovision
Stone
p1984
(dp1985
g30
F7.110576923076923
sg31
F0.9230769230769231
sg32
F0.46153846153846156
sg33
S'red'
p1986
sba(icurlovision
Stone
p1987
(dp1988
g30
F0.10096153846153846
sg31
F1.903846153846154
sg32
F0.46153846153846156
sg33
S'red'
p1989
sba(icurlovision
Stone
p1990
(dp1991
g30
F10.08173076923077
sg31
F0.5480769230769231
sg32
F0.46153846153846156
sg33
S'yellow'
p1992
sba(icurlovision
Stone
p1993
(dp1994
g30
F7.8894230769230775
sg31
F1.6730769230769231
sg32
F0.34615384615384615
sg33
S'yellow'
p1995
sba(icurlovision
Stone
p1996
(dp1997
g30
F1.8317307692307694
sg31
F0.08653846153846154
sg32
F0.31730769230769235
sg33
S'yellow'
p1998
sba(icurlovision
Stone
p1999
(dp2000
g30
F4.947115384615385
sg31
F-2.2211538461538463
sg32
F0.46153846153846156
sg33
S'red'
p2001
sba(icurlovision
Stone
p2002
(dp2003
g30
F0.3028846153846154
sg31
F0.9807692307692308
sg32
F0.3317307692307693
sg33
S'yellow'
p2004
sba(icurlovision
Stone
p2005
(dp2006
g30
F5.033653846153847
sg31
F-0.8653846153846154
sg32
F0.46153846153846156
sg33
S'red'
p2007
sba(icurlovision
Stone
p2008
(dp2009
g30
F-0.3894230769230769
sg31
F0.14423076923076925
sg32
F0.3605769230769231
sg33
S'red'
p2010
sbasbasg3
I6
sg161
I1
sba(icurlovision
EndResult
p2011
(dp2012
g2
I6
sg10
(lp2013
(I6
I7
tp2014
a(I2
I3
tp2015
a(I2
I2
tp2016
a(I1
I1
tp2017
asg20
I11
sg21
(lp2018
(icurlovision
StoneLayout
p2019
(dp2020
g25
F0.4791666666666667
sg26
(lp2021
(icurlovision
Stone
p2022
(dp2023
g30
F6.535714285714286
sg31
F3.6071428571428568
sg32
F0.4464285714285714
sg33
S'red'
p2024
sba(icurlovision
Stone
p2025
(dp2026
g30
F13.214285714285714
sg31
F0.17857142857142855
sg32
F0.4107142857142857
sg33
S'red'
p2027
sba(icurlovision
Stone
p2028
(dp2029
g30
F-3.892857142857143
sg31
F-4.928571428571428
sg32
F0.33928571428571425
sg33
S'yellow'
p2030
sbasba(icurlovision
StoneLayout
p2031
(dp2032
g25
F0.4791666666666667
sg26
(lp2033
(icurlovision
Stone
p2034
(dp2035
g30
F8.04
sg31
F4.74
sg32
F0.42
sg33
S'yellow'
p2036
sba(icurlovision
Stone
p2037
(dp2038
g30
F3.3
sg31
F-0.84
sg32
F0.315
sg33
S'red'
p2039
sba(icurlovision
Stone
p2040
(dp2041
g30
F12.75
sg31
F-0.27
sg32
F0.42
sg33
S'red'
p2042
sba(icurlovision
Stone
p2043
(dp2044
g30
F4.859999999999999
sg31
F0.03
sg32
F0.285
sg33
S'red'
p2045
sbasba(icurlovision
StoneLayout
p2046
(dp2047
g25
F0.4791666666666667
sg26
(lp2048
(icurlovision
Stone
p2049
(dp2050
g30
F3.35
sg31
F-0.875
sg32
F0.325
sg33
S'red'
p2051
sba(icurlovision
Stone
p2052
(dp2053
g30
F8.35
sg31
F5.025
sg32
F0.325
sg33
S'yellow'
p2054
sba(icurlovision
Stone
p2055
(dp2056
g30
F4.9750000000000005
sg31
F-0.025
sg32
F0.3375
sg33
S'red'
p2057
sbasba(icurlovision
StoneLayout
p2058
(dp2059
g25
F0.4791666666666667
sg26
(lp2060
(icurlovision
Stone
p2061
(dp2062
g30
F8.173469387755102
sg31
F4.744897959183674
sg32
F0.42857142857142855
sg33
S'yellow'
p2063
sba(icurlovision
Stone
p2064
(dp2065
g30
F3.36734693877551
sg31
F-0.8571428571428571
sg32
F0.3520408163265306
sg33
S'red'
p2066
sba(icurlovision
Stone
p2067
(dp2068
g30
F4.928571428571429
sg31
F-0.030612244897959183
sg32
F0.44387755102040816
sg33
S'red'
p2069
sba(icurlovision
Stone
p2070
(dp2071
g30
F14.693877551020408
sg31
F0.030612244897959183
sg32
F0.3979591836734694
sg33
S'red'
p2072
sba(icurlovision
Stone
p2073
(dp2074
g30
F13.83673469387755
sg31
F-6.673469387755102
sg32
F0.2755102040816326
sg33
S'yellow'
p2075
sbasbasg3
I6
sg161
I0
sbasb.